ARM GAS  /tmp/ccwzYijT.s 			page 1


   1              		.cpu cortex-m7
   2              		.eabi_attribute 27, 1
   3              		.eabi_attribute 28, 1
   4              		.eabi_attribute 20, 1
   5              		.eabi_attribute 21, 1
   6              		.eabi_attribute 23, 3
   7              		.eabi_attribute 24, 1
   8              		.eabi_attribute 25, 1
   9              		.eabi_attribute 26, 1
  10              		.eabi_attribute 30, 4
  11              		.eabi_attribute 34, 1
  12              		.eabi_attribute 18, 4
  13              		.file	"board.c"
  14              		.text
  15              	.Ltext0:
  16              		.cfi_sections	.debug_frame
  17              		.section	.text.gpio_init,"ax",%progbits
  18              		.align	1
  19              		.arch armv7e-m
  20              		.syntax unified
  21              		.thumb
  22              		.thumb_func
  23              		.fpu fpv4-sp-d16
  24              		.type	gpio_init, %function
  25              	gpio_init:
  26              	.LVL0:
  27              	.LFB334:
  28              		.file 1 "../../libraries/AP_HAL_ChibiOS/hwdef/common/board.c"
  29              		.loc 1 158 72 view -0
  30              		.cfi_startproc
  31              		@ args = 0, pretend = 0, frame = 0
  32              		@ frame_needed = 0, uses_anonymous_args = 0
  33              		@ link register save eliminated.
  34              		.loc 1 160 3 view .LVU1
  35              		.loc 1 160 26 is_stmt 0 view .LVU2
  36 0000 4B68     		ldr	r3, [r1, #4]
  37              		.loc 1 160 18 view .LVU3
  38 0002 4360     		str	r3, [r0, #4]
  39              		.loc 1 161 3 is_stmt 1 view .LVU4
  40              		.loc 1 161 26 is_stmt 0 view .LVU5
  41 0004 8B68     		ldr	r3, [r1, #8]
  42              		.loc 1 161 18 view .LVU6
  43 0006 8360     		str	r3, [r0, #8]
  44              		.loc 1 162 3 is_stmt 1 view .LVU7
  45              		.loc 1 162 26 is_stmt 0 view .LVU8
  46 0008 CB68     		ldr	r3, [r1, #12]
  47              		.loc 1 162 18 view .LVU9
  48 000a C360     		str	r3, [r0, #12]
  49              		.loc 1 163 3 is_stmt 1 view .LVU10
  50              		.loc 1 163 26 is_stmt 0 view .LVU11
  51 000c 0B69     		ldr	r3, [r1, #16]
  52              		.loc 1 163 18 view .LVU12
  53 000e 4361     		str	r3, [r0, #20]
  54              		.loc 1 164 3 is_stmt 1 view .LVU13
  55              		.loc 1 164 26 is_stmt 0 view .LVU14
  56 0010 4B69     		ldr	r3, [r1, #20]
  57              		.loc 1 164 18 view .LVU15
ARM GAS  /tmp/ccwzYijT.s 			page 2


  58 0012 0362     		str	r3, [r0, #32]
  59              		.loc 1 165 3 is_stmt 1 view .LVU16
  60              		.loc 1 165 26 is_stmt 0 view .LVU17
  61 0014 8B69     		ldr	r3, [r1, #24]
  62              		.loc 1 165 18 view .LVU18
  63 0016 4362     		str	r3, [r0, #36]
  64              		.loc 1 166 3 is_stmt 1 view .LVU19
  65              		.loc 1 166 26 is_stmt 0 view .LVU20
  66 0018 0B68     		ldr	r3, [r1]
  67              		.loc 1 166 18 view .LVU21
  68 001a 0360     		str	r3, [r0]
  69              		.loc 1 167 1 view .LVU22
  70 001c 7047     		bx	lr
  71              		.cfi_endproc
  72              	.LFE334:
  73              		.size	gpio_init, .-gpio_init
  74              		.section	.text.__early_init,"ax",%progbits
  75              		.align	1
  76              		.global	__early_init
  77              		.syntax unified
  78              		.thumb
  79              		.thumb_func
  80              		.fpu fpv4-sp-d16
  81              		.type	__early_init, %function
  82              	__early_init:
  83              	.LFB336:
  84              		.loc 1 227 25 is_stmt 1 view -0
  85              		.cfi_startproc
  86              		@ args = 0, pretend = 0, frame = 0
  87              		@ frame_needed = 0, uses_anonymous_args = 0
  88              		.loc 1 229 3 view .LVU24
  89              	.LBB4:
  90              	.LBI4:
  91              		.loc 1 169 13 view .LVU25
  92              	.LBB5:
  93              		.loc 1 180 3 view .LVU26
  94              	.LBE5:
  95              	.LBE4:
  96              		.loc 1 227 25 is_stmt 0 view .LVU27
  97 0000 08B5     		push	{r3, lr}
  98              		.cfi_def_cfa_offset 8
  99              		.cfi_offset 3, -8
 100              		.cfi_offset 14, -4
 101              	.LBB7:
 102              	.LBB6:
 103              		.loc 1 180 3 view .LVU28
 104 0002 2C4B     		ldr	r3, .L3
 105 0004 40F2FF71 		movw	r1, #2047
 106              		.loc 1 186 3 view .LVU29
 107 0008 2B48     		ldr	r0, .L3+4
 108              		.loc 1 180 3 view .LVU30
 109 000a 1A69     		ldr	r2, [r3, #16]
 110 000c 0A43     		orrs	r2, r2, r1
 111 000e 1A61     		str	r2, [r3, #16]
 112              		.loc 1 180 3 is_stmt 1 view .LVU31
 113 0010 1A69     		ldr	r2, [r3, #16]
 114 0012 22F4FF62 		bic	r2, r2, #2040
ARM GAS  /tmp/ccwzYijT.s 			page 3


 115 0016 22F00702 		bic	r2, r2, #7
 116 001a 1A61     		str	r2, [r3, #16]
 117              		.loc 1 180 3 view .LVU32
 118 001c 1A69     		ldr	r2, [r3, #16]
 119              		.loc 1 180 35 view .LVU33
 120              		.loc 1 181 3 view .LVU34
 121 001e 1A6B     		ldr	r2, [r3, #48]
 122 0020 0A43     		orrs	r2, r2, r1
 123 0022 1A63     		str	r2, [r3, #48]
 124              		.loc 1 181 3 view .LVU35
 125              		.loc 1 181 3 view .LVU36
 126 0024 1A6D     		ldr	r2, [r3, #80]
 127 0026 0A43     		orrs	r2, r2, r1
 128 0028 1A65     		str	r2, [r3, #80]
 129              		.loc 1 181 3 view .LVU37
 130              		.loc 1 186 3 is_stmt 0 view .LVU38
 131 002a 244A     		ldr	r2, .L3+8
 132              		.loc 1 181 3 view .LVU39
 133 002c 1B6D     		ldr	r3, [r3, #80]
 134              		.loc 1 181 42 is_stmt 1 view .LVU40
 135              		.loc 1 186 3 view .LVU41
 136 002e 1146     		mov	r1, r2
 137 0030 FFF7FEFF 		bl	gpio_init
 138              	.LVL1:
 139              		.loc 1 189 3 view .LVU42
 140 0034 00F58060 		add	r0, r0, #1024
 141 0038 02F11C01 		add	r1, r2, #28
 142 003c FFF7FEFF 		bl	gpio_init
 143              	.LVL2:
 144              		.loc 1 192 3 view .LVU43
 145 0040 00F58060 		add	r0, r0, #1024
 146 0044 02F13801 		add	r1, r2, #56
 147 0048 FFF7FEFF 		bl	gpio_init
 148              	.LVL3:
 149              		.loc 1 195 3 view .LVU44
 150 004c 00F58060 		add	r0, r0, #1024
 151 0050 02F15401 		add	r1, r2, #84
 152 0054 FFF7FEFF 		bl	gpio_init
 153              	.LVL4:
 154              		.loc 1 198 3 view .LVU45
 155 0058 00F58060 		add	r0, r0, #1024
 156 005c 02F17001 		add	r1, r2, #112
 157 0060 FFF7FEFF 		bl	gpio_init
 158              	.LVL5:
 159              		.loc 1 201 3 view .LVU46
 160 0064 00F58060 		add	r0, r0, #1024
 161 0068 02F18C01 		add	r1, r2, #140
 162 006c FFF7FEFF 		bl	gpio_init
 163              	.LVL6:
 164              		.loc 1 204 3 view .LVU47
 165 0070 00F58060 		add	r0, r0, #1024
 166 0074 02F1A801 		add	r1, r2, #168
 167 0078 FFF7FEFF 		bl	gpio_init
 168              	.LVL7:
 169              		.loc 1 207 3 view .LVU48
 170 007c 00F58060 		add	r0, r0, #1024
 171 0080 02F1C401 		add	r1, r2, #196
ARM GAS  /tmp/ccwzYijT.s 			page 4


 172 0084 FFF7FEFF 		bl	gpio_init
 173              	.LVL8:
 174              		.loc 1 210 3 view .LVU49
 175 0088 00F58060 		add	r0, r0, #1024
 176 008c 02F1E001 		add	r1, r2, #224
 177 0090 FFF7FEFF 		bl	gpio_init
 178              	.LVL9:
 179              		.loc 1 213 3 view .LVU50
 180 0094 00F58060 		add	r0, r0, #1024
 181 0098 02F1FC01 		add	r1, r2, #252
 182 009c FFF7FEFF 		bl	gpio_init
 183              	.LVL10:
 184              		.loc 1 216 3 view .LVU51
 185 00a0 02F58C71 		add	r1, r2, #280
 186 00a4 00F58060 		add	r0, r0, #1024
 187 00a8 FFF7FEFF 		bl	gpio_init
 188              	.LVL11:
 189              	.LBE6:
 190              	.LBE7:
 191              		.loc 1 231 3 view .LVU52
 192              		.loc 1 235 1 is_stmt 0 view .LVU53
 193 00ac BDE80840 		pop	{r3, lr}
 194              		.cfi_restore 14
 195              		.cfi_restore 3
 196              		.cfi_def_cfa_offset 0
 197              		.loc 1 231 3 view .LVU54
 198 00b0 FFF7FEBF 		b	stm32_clock_init
 199              	.LVL12:
 200              	.L4:
 201              		.align	2
 202              	.L3:
 203 00b4 00380240 		.word	1073887232
 204 00b8 00000240 		.word	1073872896
 205 00bc 00000000 		.word	.LANCHOR0
 206              		.cfi_endproc
 207              	.LFE336:
 208              		.size	__early_init, .-__early_init
 209              		.section	.text.__late_init,"ax",%progbits
 210              		.align	1
 211              		.global	__late_init
 212              		.syntax unified
 213              		.thumb
 214              		.thumb_func
 215              		.fpu fpv4-sp-d16
 216              		.type	__late_init, %function
 217              	__late_init:
 218              	.LFB337:
 219              		.loc 1 237 24 is_stmt 1 view -0
 220              		.cfi_startproc
 221              		@ args = 0, pretend = 0, frame = 0
 222              		@ frame_needed = 0, uses_anonymous_args = 0
 223              		.loc 1 238 3 view .LVU56
 224              		.loc 1 237 24 is_stmt 0 view .LVU57
 225 0000 08B5     		push	{r3, lr}
 226              		.cfi_def_cfa_offset 8
 227              		.cfi_offset 3, -8
 228              		.cfi_offset 14, -4
ARM GAS  /tmp/ccwzYijT.s 			page 5


 229              		.loc 1 238 3 view .LVU58
 230 0002 FFF7FEFF 		bl	halInit
 231              	.LVL13:
 232              		.loc 1 239 3 is_stmt 1 view .LVU59
 233 0006 FFF7FEFF 		bl	chSysInit
 234              	.LVL14:
 235              		.loc 1 240 3 view .LVU60
 236 000a FFF7FEFF 		bl	stm32_watchdog_save_reason
 237              	.LVL15:
 238              		.loc 1 242 3 view .LVU61
 239 000e FFF7FEFF 		bl	stm32_watchdog_clear_reason
 240              	.LVL16:
 241              		.loc 1 245 3 view .LVU62
 242 0012 FFF7FEFF 		bl	malloc_init
 243              	.LVL17:
 244              		.loc 1 248 3 view .LVU63
 245              		.loc 1 250 1 is_stmt 0 view .LVU64
 246 0016 BDE80840 		pop	{r3, lr}
 247              		.cfi_restore 14
 248              		.cfi_restore 3
 249              		.cfi_def_cfa_offset 0
 250              		.loc 1 248 3 view .LVU65
 251 001a FFF7FEBF 		b	setup_usb_strings
 252              	.LVL18:
 253              		.cfi_endproc
 254              	.LFE337:
 255              		.size	__late_init, .-__late_init
 256              		.section	.text.sdc_lld_is_card_inserted,"ax",%progbits
 257              		.align	1
 258              		.global	sdc_lld_is_card_inserted
 259              		.syntax unified
 260              		.thumb
 261              		.thumb_func
 262              		.fpu fpv4-sp-d16
 263              		.type	sdc_lld_is_card_inserted, %function
 264              	sdc_lld_is_card_inserted:
 265              	.LVL19:
 266              	.LFB338:
 267              		.loc 1 256 48 is_stmt 1 view -0
 268              		.cfi_startproc
 269              		@ args = 0, pretend = 0, frame = 0
 270              		@ frame_needed = 0, uses_anonymous_args = 0
 271              		@ link register save eliminated.
 272              		.loc 1 257 5 view .LVU67
 273              		.loc 1 258 5 view .LVU68
 274              		.loc 1 259 1 is_stmt 0 view .LVU69
 275 0000 0120     		movs	r0, #1
 276              	.LVL20:
 277              		.loc 1 259 1 view .LVU70
 278 0002 7047     		bx	lr
 279              		.cfi_endproc
 280              	.LFE338:
 281              		.size	sdc_lld_is_card_inserted, .-sdc_lld_is_card_inserted
 282              		.section	.text.sdc_lld_is_write_protected,"ax",%progbits
 283              		.align	1
 284              		.global	sdc_lld_is_write_protected
 285              		.syntax unified
ARM GAS  /tmp/ccwzYijT.s 			page 6


 286              		.thumb
 287              		.thumb_func
 288              		.fpu fpv4-sp-d16
 289              		.type	sdc_lld_is_write_protected, %function
 290              	sdc_lld_is_write_protected:
 291              	.LVL21:
 292              	.LFB339:
 293              		.loc 1 264 50 is_stmt 1 view -0
 294              		.cfi_startproc
 295              		@ args = 0, pretend = 0, frame = 0
 296              		@ frame_needed = 0, uses_anonymous_args = 0
 297              		@ link register save eliminated.
 298              		.loc 1 266 3 view .LVU72
 299              		.loc 1 267 3 view .LVU73
 300              		.loc 1 268 1 is_stmt 0 view .LVU74
 301 0000 0020     		movs	r0, #0
 302              	.LVL22:
 303              		.loc 1 268 1 view .LVU75
 304 0002 7047     		bx	lr
 305              		.cfi_endproc
 306              	.LFE339:
 307              		.size	sdc_lld_is_write_protected, .-sdc_lld_is_write_protected
 308              		.section	.text.boardInit,"ax",%progbits
 309              		.align	1
 310              		.global	boardInit
 311              		.syntax unified
 312              		.thumb
 313              		.thumb_func
 314              		.fpu fpv4-sp-d16
 315              		.type	boardInit, %function
 316              	boardInit:
 317              	.LFB340:
 318              		.loc 1 295 22 is_stmt 1 view -0
 319              		.cfi_startproc
 320              		@ args = 0, pretend = 0, frame = 0
 321              		@ frame_needed = 0, uses_anonymous_args = 0
 322              		@ link register save eliminated.
 323              		.loc 1 297 1 view .LVU77
 324 0000 7047     		bx	lr
 325              		.cfi_endproc
 326              	.LFE340:
 327              		.size	boardInit, .-boardInit
 328              		.section	.rodata.gpio_default_config,"a"
 329              		.align	2
 330              		.set	.LANCHOR0,. + 0
 331              		.type	gpio_default_config, %object
 332              		.size	gpio_default_config, 308
 333              	gpio_default_config:
 334 0000 FF63A02A 		.word	715154431
 335 0004 00000000 		.word	0
 336 0008 AAAAAAAA 		.word	-1431655766
 337 000c 00000000 		.word	0
 338 0010 7FFF0000 		.word	65407
 339 0014 00000005 		.word	83886080
 340 0018 00A10A00 		.word	696576
 341 001c 07A01A0A 		.word	169517063
 342 0020 02030000 		.word	770
ARM GAS  /tmp/ccwzYijT.s 			page 7


 343 0024 AAAAAAAA 		.word	-1431655766
 344 0028 00500000 		.word	20480
 345 002c FFFF0000 		.word	65535
 346 0030 00000077 		.word	1996488704
 347 0034 44009900 		.word	10027076
 348 0038 0F53AA02 		.word	44716815
 349 003c 00000000 		.word	0
 350 0040 AAAAAAAA 		.word	-1431655766
 351 0044 00005500 		.word	5570560
 352 0048 BFFF0000 		.word	65471
 353 004c 00000000 		.word	0
 354 0050 CCCC0C00 		.word	838860
 355 0054 AAA98A29 		.word	696953258
 356 0058 00000000 		.word	0
 357 005c AAAAAAAA 		.word	-1431655766
 358 0060 55154501 		.word	21304661
 359 0064 FFFF0000 		.word	65535
 360 0068 887C7057 		.word	1466989704
 361 006c 77702002 		.word	35680375
 362 0070 6A298A28 		.word	680143210
 363 0074 00000000 		.word	0
 364 0078 AAAAAAAA 		.word	-1431655766
 365 007c 05000140 		.word	1073807365
 366 0080 FFFF0000 		.word	65535
 367 0084 88053005 		.word	87033224
 368 0088 18105001 		.word	22024216
 369 008c 5A2550A1 		.word	-1588583078
 370 0090 03C00000 		.word	49155
 371 0094 0AA2AAAA 		.word	-1431657974
 372 0098 50155004 		.word	72357200
 373 009c FFFF0000 		.word	65535
 374 00a0 44000008 		.word	134217796
 375 00a4 00000044 		.word	1140850688
 376 00a8 00559980 		.word	-2137434880
 377 00ac 00000000 		.word	0
 378 00b0 AAAAAAAA 		.word	-1431655766
 379 00b4 54001540 		.word	1075118164
 380 00b8 FFFF0000 		.word	65535
 381 00bc 00000000 		.word	0
 382 00c0 80500080 		.word	-2147463040
 383 00c4 50A55A09 		.word	156935504
 384 00c8 801D0000 		.word	7552
 385 00cc 5AA9AAAA 		.word	-1431656102
 386 00d0 00040000 		.word	1024
 387 00d4 E3FF0000 		.word	65507
 388 00d8 00000049 		.word	1224736768
 389 00dc 94009000 		.word	9437332
 390 00e0 A8515900 		.word	5853608
 391 00e4 00000000 		.word	0
 392 00e8 AAAAAAAA 		.word	-1431655766
 393 00ec 00515100 		.word	5329152
 394 00f0 FFFF0000 		.word	65535
 395 00f4 50550000 		.word	21840
 396 00f8 90000000 		.word	144
 397 00fc 00000000 		.word	0
 398 0100 00000000 		.word	0
 399 0104 00000000 		.word	0
ARM GAS  /tmp/ccwzYijT.s 			page 8


 400 0108 00000000 		.word	0
 401 010c 00000000 		.word	0
 402 0110 00000000 		.word	0
 403 0114 00000000 		.word	0
 404 0118 00000000 		.word	0
 405 011c 00000000 		.word	0
 406 0120 00000000 		.word	0
 407 0124 00000000 		.word	0
 408 0128 00000000 		.word	0
 409 012c 00000000 		.word	0
 410 0130 00000000 		.word	0
 411              		.text
 412              	.Letext0:
 413              		.file 2 "/opt/gcc-arm-none-eabi-10-2020-q4-major/lib/gcc/arm-none-eabi/10.2.1/include/stddef.h"
 414              		.file 3 "/opt/gcc-arm-none-eabi-10-2020-q4-major/arm-none-eabi/include/machine/_default_types.h"
 415              		.file 4 "/opt/gcc-arm-none-eabi-10-2020-q4-major/arm-none-eabi/include/sys/_stdint.h"
 416              		.file 5 "../../modules/ChibiOS/os/common/ports/ARMCMx/compilers/GCC/chtypes.h"
 417              		.file 6 "../../modules/ChibiOS/os/rt/include/chsystypes.h"
 418              		.file 7 "../../modules/ChibiOS/os/rt/include/chschd.h"
 419              		.file 8 "../../modules/ChibiOS/os/common/ext/ST/STM32F7xx/stm32f767xx.h"
 420              		.file 9 "../../modules/ChibiOS/os/common/ports/ARMCMx/chcore.h"
 421              		.file 10 "../../modules/ChibiOS/os/common/ports/ARMCMx/chcore_v7m.h"
 422              		.file 11 "../../modules/ChibiOS/os/rt/include/chtm.h"
 423              		.file 12 "../../modules/ChibiOS/os/rt/include/chsem.h"
 424              		.file 13 "../../modules/ChibiOS/os/rt/include/chmtx.h"
 425              		.file 14 "../../modules/ChibiOS/os/hal/ports/STM32/LLD/DMAv2/stm32_dma.h"
 426              		.file 15 "../../modules/ChibiOS/os/hal/include/hal_ioblock.h"
 427              		.file 16 "../../modules/ChibiOS/os/hal/ports/STM32/LLD/GPIOv2/stm32_gpio.h"
 428              		.file 17 "../../modules/ChibiOS/os/hal/include/hal_sdc.h"
 429              		.file 18 "../../modules/ChibiOS/os/hal/ports/STM32/LLD/SDMMCv1/hal_sdc_lld.h"
 430              		.file 19 "../../modules/ChibiOS/os/hal/include/hal.h"
 431              		.file 20 "../../modules/ChibiOS/os/rt/include/chsys.h"
 432              		.file 21 "../../libraries/AP_HAL_ChibiOS/hwdef/common/watchdog.h"
 433              		.file 22 "../../libraries/AP_HAL_ChibiOS/hwdef/common/stm32_util.h"
 434              		.file 23 "../../libraries/AP_HAL_ChibiOS/hwdef/common/usbcfg.h"
 435              		.file 24 "../../modules/ChibiOS/os/hal/ports/STM32/STM32F7xx/hal_lld.h"
 436              		.section	.debug_info,"",%progbits
 437              	.Ldebug_info0:
 438 0000 3D120000 		.4byte	0x123d
 439 0004 0400     		.2byte	0x4
 440 0006 00000000 		.4byte	.Ldebug_abbrev0
 441 000a 04       		.byte	0x4
 442 000b 01       		.uleb128 0x1
 443 000c EF020000 		.4byte	.LASF222
 444 0010 0C       		.byte	0xc
 445 0011 0D080000 		.4byte	.LASF223
 446 0015 B0040000 		.4byte	.LASF224
 447 0019 18000000 		.4byte	.Ldebug_ranges0+0x18
 448 001d 00000000 		.4byte	0
 449 0021 00000000 		.4byte	.Ldebug_line0
 450 0025 02       		.uleb128 0x2
 451 0026 04       		.byte	0x4
 452 0027 05       		.byte	0x5
 453 0028 696E7400 		.ascii	"int\000"
 454 002c 03       		.uleb128 0x3
 455 002d B2020000 		.4byte	.LASF4
 456 0031 02       		.byte	0x2
ARM GAS  /tmp/ccwzYijT.s 			page 9


 457 0032 D1       		.byte	0xd1
 458 0033 17       		.byte	0x17
 459 0034 38000000 		.4byte	0x38
 460 0038 04       		.uleb128 0x4
 461 0039 04       		.byte	0x4
 462 003a 07       		.byte	0x7
 463 003b B1000000 		.4byte	.LASF0
 464 003f 04       		.uleb128 0x4
 465 0040 08       		.byte	0x8
 466 0041 05       		.byte	0x5
 467 0042 97040000 		.4byte	.LASF1
 468 0046 04       		.uleb128 0x4
 469 0047 08       		.byte	0x8
 470 0048 04       		.byte	0x4
 471 0049 26060000 		.4byte	.LASF2
 472 004d 04       		.uleb128 0x4
 473 004e 01       		.byte	0x1
 474 004f 06       		.byte	0x6
 475 0050 DC080000 		.4byte	.LASF3
 476 0054 03       		.uleb128 0x3
 477 0055 2F070000 		.4byte	.LASF5
 478 0059 03       		.byte	0x3
 479 005a 2B       		.byte	0x2b
 480 005b 18       		.byte	0x18
 481 005c 60000000 		.4byte	0x60
 482 0060 04       		.uleb128 0x4
 483 0061 01       		.byte	0x1
 484 0062 08       		.byte	0x8
 485 0063 51080000 		.4byte	.LASF6
 486 0067 04       		.uleb128 0x4
 487 0068 02       		.byte	0x2
 488 0069 05       		.byte	0x5
 489 006a 96060000 		.4byte	.LASF7
 490 006e 03       		.uleb128 0x3
 491 006f 29020000 		.4byte	.LASF8
 492 0073 03       		.byte	0x3
 493 0074 39       		.byte	0x39
 494 0075 19       		.byte	0x19
 495 0076 7A000000 		.4byte	0x7a
 496 007a 04       		.uleb128 0x4
 497 007b 02       		.byte	0x2
 498 007c 07       		.byte	0x7
 499 007d EF080000 		.4byte	.LASF9
 500 0081 03       		.uleb128 0x3
 501 0082 EB000000 		.4byte	.LASF10
 502 0086 03       		.byte	0x3
 503 0087 4D       		.byte	0x4d
 504 0088 18       		.byte	0x18
 505 0089 8D000000 		.4byte	0x8d
 506 008d 04       		.uleb128 0x4
 507 008e 04       		.byte	0x4
 508 008f 05       		.byte	0x5
 509 0090 C0060000 		.4byte	.LASF11
 510 0094 03       		.uleb128 0x3
 511 0095 64080000 		.4byte	.LASF12
 512 0099 03       		.byte	0x3
 513 009a 4F       		.byte	0x4f
ARM GAS  /tmp/ccwzYijT.s 			page 10


 514 009b 19       		.byte	0x19
 515 009c A0000000 		.4byte	0xa0
 516 00a0 04       		.uleb128 0x4
 517 00a1 04       		.byte	0x4
 518 00a2 07       		.byte	0x7
 519 00a3 A2070000 		.4byte	.LASF13
 520 00a7 03       		.uleb128 0x3
 521 00a8 A5040000 		.4byte	.LASF14
 522 00ac 03       		.byte	0x3
 523 00ad 69       		.byte	0x69
 524 00ae 19       		.byte	0x19
 525 00af B3000000 		.4byte	0xb3
 526 00b3 04       		.uleb128 0x4
 527 00b4 08       		.byte	0x8
 528 00b5 07       		.byte	0x7
 529 00b6 F4010000 		.4byte	.LASF15
 530 00ba 03       		.uleb128 0x3
 531 00bb E4040000 		.4byte	.LASF16
 532 00bf 04       		.byte	0x4
 533 00c0 18       		.byte	0x18
 534 00c1 13       		.byte	0x13
 535 00c2 54000000 		.4byte	0x54
 536 00c6 05       		.uleb128 0x5
 537 00c7 BA000000 		.4byte	0xba
 538 00cb 03       		.uleb128 0x3
 539 00cc 32060000 		.4byte	.LASF17
 540 00d0 04       		.byte	0x4
 541 00d1 24       		.byte	0x24
 542 00d2 14       		.byte	0x14
 543 00d3 6E000000 		.4byte	0x6e
 544 00d7 03       		.uleb128 0x3
 545 00d8 CC070000 		.4byte	.LASF18
 546 00dc 04       		.byte	0x4
 547 00dd 2C       		.byte	0x2c
 548 00de 13       		.byte	0x13
 549 00df 81000000 		.4byte	0x81
 550 00e3 03       		.uleb128 0x3
 551 00e4 77010000 		.4byte	.LASF19
 552 00e8 04       		.byte	0x4
 553 00e9 30       		.byte	0x30
 554 00ea 14       		.byte	0x14
 555 00eb 94000000 		.4byte	0x94
 556 00ef 06       		.uleb128 0x6
 557 00f0 E3000000 		.4byte	0xe3
 558 00f4 05       		.uleb128 0x5
 559 00f5 EF000000 		.4byte	0xef
 560 00f9 03       		.uleb128 0x3
 561 00fa FF060000 		.4byte	.LASF20
 562 00fe 04       		.byte	0x4
 563 00ff 3C       		.byte	0x3c
 564 0100 14       		.byte	0x14
 565 0101 A7000000 		.4byte	0xa7
 566 0105 03       		.uleb128 0x3
 567 0106 44060000 		.4byte	.LASF21
 568 010a 05       		.byte	0x5
 569 010b 27       		.byte	0x27
 570 010c 1D       		.byte	0x1d
ARM GAS  /tmp/ccwzYijT.s 			page 11


 571 010d E3000000 		.4byte	0xe3
 572 0111 03       		.uleb128 0x3
 573 0112 63040000 		.4byte	.LASF22
 574 0116 05       		.byte	0x5
 575 0117 28       		.byte	0x28
 576 0118 1D       		.byte	0x1d
 577 0119 F9000000 		.4byte	0xf9
 578 011d 03       		.uleb128 0x3
 579 011e 6F010000 		.4byte	.LASF23
 580 0122 05       		.byte	0x5
 581 0123 2A       		.byte	0x2a
 582 0124 1D       		.byte	0x1d
 583 0125 BA000000 		.4byte	0xba
 584 0129 03       		.uleb128 0x3
 585 012a 73040000 		.4byte	.LASF24
 586 012e 05       		.byte	0x5
 587 012f 2B       		.byte	0x2b
 588 0130 1D       		.byte	0x1d
 589 0131 BA000000 		.4byte	0xba
 590 0135 03       		.uleb128 0x3
 591 0136 94070000 		.4byte	.LASF25
 592 013a 05       		.byte	0x5
 593 013b 2C       		.byte	0x2c
 594 013c 1D       		.byte	0x1d
 595 013d BA000000 		.4byte	0xba
 596 0141 03       		.uleb128 0x3
 597 0142 CB010000 		.4byte	.LASF26
 598 0146 05       		.byte	0x5
 599 0147 2E       		.byte	0x2e
 600 0148 1D       		.byte	0x1d
 601 0149 E3000000 		.4byte	0xe3
 602 014d 03       		.uleb128 0x3
 603 014e 53050000 		.4byte	.LASF27
 604 0152 05       		.byte	0x5
 605 0153 2F       		.byte	0x2f
 606 0154 1D       		.byte	0x1d
 607 0155 D7000000 		.4byte	0xd7
 608 0159 03       		.uleb128 0x3
 609 015a 8D010000 		.4byte	.LASF28
 610 015e 05       		.byte	0x5
 611 015f 31       		.byte	0x31
 612 0160 1D       		.byte	0x1d
 613 0161 E3000000 		.4byte	0xe3
 614 0165 03       		.uleb128 0x3
 615 0166 34020000 		.4byte	.LASF29
 616 016a 05       		.byte	0x5
 617 016b 33       		.byte	0x33
 618 016c 1D       		.byte	0x1d
 619 016d D7000000 		.4byte	0xd7
 620 0171 03       		.uleb128 0x3
 621 0172 F5050000 		.4byte	.LASF30
 622 0176 05       		.byte	0x5
 623 0177 34       		.byte	0x34
 624 0178 1D       		.byte	0x1d
 625 0179 E3000000 		.4byte	0xe3
 626 017d 03       		.uleb128 0x3
 627 017e 8F020000 		.4byte	.LASF31
ARM GAS  /tmp/ccwzYijT.s 			page 12


 628 0182 06       		.byte	0x6
 629 0183 34       		.byte	0x34
 630 0184 1A       		.byte	0x1a
 631 0185 89010000 		.4byte	0x189
 632 0189 07       		.uleb128 0x7
 633 018a FC040000 		.4byte	.LASF50
 634 018e 60       		.byte	0x60
 635 018f 07       		.byte	0x7
 636 0190 8E       		.byte	0x8e
 637 0191 08       		.byte	0x8
 638 0192 87020000 		.4byte	0x287
 639 0196 08       		.uleb128 0x8
 640 0197 BE070000 		.4byte	.LASF32
 641 019b 07       		.byte	0x7
 642 019c 8F       		.byte	0x8f
 643 019d 19       		.byte	0x19
 644 019e C0020000 		.4byte	0x2c0
 645 01a2 00       		.byte	0
 646 01a3 08       		.uleb128 0x8
 647 01a4 1B040000 		.4byte	.LASF33
 648 01a8 07       		.byte	0x7
 649 01a9 90       		.byte	0x90
 650 01aa 19       		.byte	0x19
 651 01ab 41010000 		.4byte	0x141
 652 01af 08       		.byte	0x8
 653 01b0 09       		.uleb128 0x9
 654 01b1 63747800 		.ascii	"ctx\000"
 655 01b5 07       		.byte	0x7
 656 01b6 91       		.byte	0x91
 657 01b7 19       		.byte	0x19
 658 01b8 BE060000 		.4byte	0x6be
 659 01bc 0C       		.byte	0xc
 660 01bd 08       		.uleb128 0x8
 661 01be F7070000 		.4byte	.LASF34
 662 01c2 07       		.byte	0x7
 663 01c3 93       		.byte	0x93
 664 01c4 1A       		.byte	0x1a
 665 01c5 93020000 		.4byte	0x293
 666 01c9 10       		.byte	0x10
 667 01ca 08       		.uleb128 0x8
 668 01cb A1090000 		.4byte	.LASF35
 669 01cf 07       		.byte	0x7
 670 01d0 94       		.byte	0x94
 671 01d1 1A       		.byte	0x1a
 672 01d2 93020000 		.4byte	0x293
 673 01d6 14       		.byte	0x14
 674 01d7 08       		.uleb128 0x8
 675 01d8 17000000 		.4byte	.LASF36
 676 01dc 07       		.byte	0x7
 677 01dd 9B       		.byte	0x9b
 678 01de 1A       		.byte	0x1a
 679 01df 80090000 		.4byte	0x980
 680 01e3 18       		.byte	0x18
 681 01e4 08       		.uleb128 0x8
 682 01e5 6C040000 		.4byte	.LASF37
 683 01e9 07       		.byte	0x7
 684 01ea A4       		.byte	0xa4
ARM GAS  /tmp/ccwzYijT.s 			page 13


 685 01eb 1A       		.byte	0x1a
 686 01ec 92090000 		.4byte	0x992
 687 01f0 1C       		.byte	0x1c
 688 01f1 08       		.uleb128 0x8
 689 01f2 8A080000 		.4byte	.LASF38
 690 01f6 07       		.byte	0x7
 691 01f7 A9       		.byte	0xa9
 692 01f8 19       		.byte	0x19
 693 01f9 29010000 		.4byte	0x129
 694 01fd 20       		.byte	0x20
 695 01fe 08       		.uleb128 0x8
 696 01ff 83000000 		.4byte	.LASF39
 697 0203 07       		.byte	0x7
 698 0204 AD       		.byte	0xad
 699 0205 19       		.byte	0x19
 700 0206 1D010000 		.4byte	0x11d
 701 020a 21       		.byte	0x21
 702 020b 08       		.uleb128 0x8
 703 020c F5000000 		.4byte	.LASF40
 704 0210 07       		.byte	0x7
 705 0211 B2       		.byte	0xb2
 706 0212 19       		.byte	0x19
 707 0213 35010000 		.4byte	0x135
 708 0217 22       		.byte	0x22
 709 0218 0A       		.uleb128 0xa
 710 0219 7500     		.ascii	"u\000"
 711 021b 07       		.byte	0x7
 712 021c 0301     		.2byte	0x103
 713 021e 19       		.byte	0x19
 714 021f 99080000 		.4byte	0x899
 715 0223 24       		.byte	0x24
 716 0224 0B       		.uleb128 0xb
 717 0225 6F080000 		.4byte	.LASF41
 718 0229 07       		.byte	0x7
 719 022a 0801     		.2byte	0x108
 720 022c 19       		.byte	0x19
 721 022d 99020000 		.4byte	0x299
 722 0231 28       		.byte	0x28
 723 0232 0B       		.uleb128 0xb
 724 0233 EC040000 		.4byte	.LASF42
 725 0237 07       		.byte	0x7
 726 0238 0E01     		.2byte	0x10e
 727 023a 19       		.byte	0x19
 728 023b C0020000 		.4byte	0x2c0
 729 023f 2C       		.byte	0x2c
 730 0240 0B       		.uleb128 0xb
 731 0241 A8000000 		.4byte	.LASF43
 732 0245 07       		.byte	0x7
 733 0246 1401     		.2byte	0x114
 734 0248 19       		.byte	0x19
 735 0249 59010000 		.4byte	0x159
 736 024d 34       		.byte	0x34
 737 024e 0B       		.uleb128 0xb
 738 024f 7F020000 		.4byte	.LASF44
 739 0253 07       		.byte	0x7
 740 0254 1B01     		.2byte	0x11b
 741 0256 1A       		.byte	0x1a
ARM GAS  /tmp/ccwzYijT.s 			page 14


 742 0257 7A090000 		.4byte	0x97a
 743 025b 38       		.byte	0x38
 744 025c 0B       		.uleb128 0xb
 745 025d 89000000 		.4byte	.LASF45
 746 0261 07       		.byte	0x7
 747 0262 1F01     		.2byte	0x11f
 748 0264 19       		.byte	0x19
 749 0265 41010000 		.4byte	0x141
 750 0269 3C       		.byte	0x3c
 751 026a 0B       		.uleb128 0xb
 752 026b D4090000 		.4byte	.LASF46
 753 026f 07       		.byte	0x7
 754 0270 2601     		.2byte	0x126
 755 0272 1A       		.byte	0x1a
 756 0273 F4020000 		.4byte	0x2f4
 757 0277 40       		.byte	0x40
 758 0278 0B       		.uleb128 0xb
 759 0279 B2080000 		.4byte	.LASF47
 760 027d 07       		.byte	0x7
 761 027e 2C01     		.2byte	0x12c
 762 0280 19       		.byte	0x19
 763 0281 8D080000 		.4byte	0x88d
 764 0285 48       		.byte	0x48
 765 0286 00       		.byte	0
 766 0287 03       		.uleb128 0x3
 767 0288 1C000000 		.4byte	.LASF48
 768 028c 06       		.byte	0x6
 769 028d 39       		.byte	0x39
 770 028e 14       		.byte	0x14
 771 028f 93020000 		.4byte	0x293
 772 0293 0C       		.uleb128 0xc
 773 0294 04       		.byte	0x4
 774 0295 7D010000 		.4byte	0x17d
 775 0299 03       		.uleb128 0x3
 776 029a C3000000 		.4byte	.LASF49
 777 029e 06       		.byte	0x6
 778 029f 3E       		.byte	0x3e
 779 02a0 20       		.byte	0x20
 780 02a1 A5020000 		.4byte	0x2a5
 781 02a5 07       		.uleb128 0x7
 782 02a6 00000000 		.4byte	.LASF51
 783 02aa 04       		.byte	0x4
 784 02ab 07       		.byte	0x7
 785 02ac 7C       		.byte	0x7c
 786 02ad 08       		.byte	0x8
 787 02ae C0020000 		.4byte	0x2c0
 788 02b2 08       		.uleb128 0x8
 789 02b3 BE000000 		.4byte	.LASF52
 790 02b7 07       		.byte	0x7
 791 02b8 7D       		.byte	0x7d
 792 02b9 1A       		.byte	0x1a
 793 02ba 93020000 		.4byte	0x293
 794 02be 00       		.byte	0
 795 02bf 00       		.byte	0
 796 02c0 03       		.uleb128 0x3
 797 02c1 D6050000 		.4byte	.LASF53
 798 02c5 06       		.byte	0x6
ARM GAS  /tmp/ccwzYijT.s 			page 15


 799 02c6 45       		.byte	0x45
 800 02c7 21       		.byte	0x21
 801 02c8 CC020000 		.4byte	0x2cc
 802 02cc 07       		.uleb128 0x7
 803 02cd 2D050000 		.4byte	.LASF54
 804 02d1 08       		.byte	0x8
 805 02d2 07       		.byte	0x7
 806 02d3 83       		.byte	0x83
 807 02d4 08       		.byte	0x8
 808 02d5 F4020000 		.4byte	0x2f4
 809 02d9 08       		.uleb128 0x8
 810 02da BE000000 		.4byte	.LASF52
 811 02de 07       		.byte	0x7
 812 02df 84       		.byte	0x84
 813 02e0 1A       		.byte	0x1a
 814 02e1 93020000 		.4byte	0x293
 815 02e5 00       		.byte	0
 816 02e6 08       		.uleb128 0x8
 817 02e7 55010000 		.4byte	.LASF55
 818 02eb 07       		.byte	0x7
 819 02ec 85       		.byte	0x85
 820 02ed 1A       		.byte	0x1a
 821 02ee 93020000 		.4byte	0x293
 822 02f2 04       		.byte	0x4
 823 02f3 00       		.byte	0
 824 02f4 0D       		.uleb128 0xd
 825 02f5 04       		.byte	0x4
 826 02f6 0E       		.uleb128 0xe
 827 02f7 E3000000 		.4byte	0xe3
 828 02fb 06030000 		.4byte	0x306
 829 02ff 0F       		.uleb128 0xf
 830 0300 38000000 		.4byte	0x38
 831 0304 01       		.byte	0x1
 832 0305 00       		.byte	0
 833 0306 10       		.uleb128 0x10
 834 0307 18       		.byte	0x18
 835 0308 08       		.byte	0x8
 836 0309 B401     		.2byte	0x1b4
 837 030b 09       		.byte	0x9
 838 030c 64030000 		.4byte	0x364
 839 0310 0A       		.uleb128 0xa
 840 0311 435200   		.ascii	"CR\000"
 841 0314 08       		.byte	0x8
 842 0315 B601     		.2byte	0x1b6
 843 0317 11       		.byte	0x11
 844 0318 EF000000 		.4byte	0xef
 845 031c 00       		.byte	0
 846 031d 0B       		.uleb128 0xb
 847 031e 37010000 		.4byte	.LASF56
 848 0322 08       		.byte	0x8
 849 0323 B701     		.2byte	0x1b7
 850 0325 11       		.byte	0x11
 851 0326 EF000000 		.4byte	0xef
 852 032a 04       		.byte	0x4
 853 032b 0A       		.uleb128 0xa
 854 032c 50415200 		.ascii	"PAR\000"
 855 0330 08       		.byte	0x8
ARM GAS  /tmp/ccwzYijT.s 			page 16


 856 0331 B801     		.2byte	0x1b8
 857 0333 11       		.byte	0x11
 858 0334 EF000000 		.4byte	0xef
 859 0338 08       		.byte	0x8
 860 0339 0B       		.uleb128 0xb
 861 033a FA030000 		.4byte	.LASF57
 862 033e 08       		.byte	0x8
 863 033f B901     		.2byte	0x1b9
 864 0341 11       		.byte	0x11
 865 0342 EF000000 		.4byte	0xef
 866 0346 0C       		.byte	0xc
 867 0347 0B       		.uleb128 0xb
 868 0348 76070000 		.4byte	.LASF58
 869 034c 08       		.byte	0x8
 870 034d BA01     		.2byte	0x1ba
 871 034f 11       		.byte	0x11
 872 0350 EF000000 		.4byte	0xef
 873 0354 10       		.byte	0x10
 874 0355 0A       		.uleb128 0xa
 875 0356 46435200 		.ascii	"FCR\000"
 876 035a 08       		.byte	0x8
 877 035b BB01     		.2byte	0x1bb
 878 035d 11       		.byte	0x11
 879 035e EF000000 		.4byte	0xef
 880 0362 14       		.byte	0x14
 881 0363 00       		.byte	0
 882 0364 11       		.uleb128 0x11
 883 0365 92050000 		.4byte	.LASF59
 884 0369 08       		.byte	0x8
 885 036a BC01     		.2byte	0x1bc
 886 036c 03       		.byte	0x3
 887 036d 06030000 		.4byte	0x306
 888 0371 10       		.uleb128 0x10
 889 0372 94       		.byte	0x94
 890 0373 08       		.byte	0x8
 891 0374 FF02     		.2byte	0x2ff
 892 0376 09       		.byte	0x9
 893 0377 49050000 		.4byte	0x549
 894 037b 0A       		.uleb128 0xa
 895 037c 435200   		.ascii	"CR\000"
 896 037f 08       		.byte	0x8
 897 0380 0103     		.2byte	0x301
 898 0382 11       		.byte	0x11
 899 0383 EF000000 		.4byte	0xef
 900 0387 00       		.byte	0
 901 0388 0B       		.uleb128 0xb
 902 0389 FA000000 		.4byte	.LASF60
 903 038d 08       		.byte	0x8
 904 038e 0203     		.2byte	0x302
 905 0390 11       		.byte	0x11
 906 0391 EF000000 		.4byte	0xef
 907 0395 04       		.byte	0x4
 908 0396 0B       		.uleb128 0xb
 909 0397 14070000 		.4byte	.LASF61
 910 039b 08       		.byte	0x8
 911 039c 0303     		.2byte	0x303
 912 039e 11       		.byte	0x11
ARM GAS  /tmp/ccwzYijT.s 			page 17


 913 039f EF000000 		.4byte	0xef
 914 03a3 08       		.byte	0x8
 915 03a4 0A       		.uleb128 0xa
 916 03a5 43495200 		.ascii	"CIR\000"
 917 03a9 08       		.byte	0x8
 918 03aa 0403     		.2byte	0x304
 919 03ac 11       		.byte	0x11
 920 03ad EF000000 		.4byte	0xef
 921 03b1 0C       		.byte	0xc
 922 03b2 0B       		.uleb128 0xb
 923 03b3 CB090000 		.4byte	.LASF62
 924 03b7 08       		.byte	0x8
 925 03b8 0503     		.2byte	0x305
 926 03ba 11       		.byte	0x11
 927 03bb EF000000 		.4byte	0xef
 928 03bf 10       		.byte	0x10
 929 03c0 0B       		.uleb128 0xb
 930 03c1 3B060000 		.4byte	.LASF63
 931 03c5 08       		.byte	0x8
 932 03c6 0603     		.2byte	0x306
 933 03c8 11       		.byte	0x11
 934 03c9 EF000000 		.4byte	0xef
 935 03cd 14       		.byte	0x14
 936 03ce 0B       		.uleb128 0xb
 937 03cf 6B020000 		.4byte	.LASF64
 938 03d3 08       		.byte	0x8
 939 03d4 0703     		.2byte	0x307
 940 03d6 11       		.byte	0x11
 941 03d7 EF000000 		.4byte	0xef
 942 03db 18       		.byte	0x18
 943 03dc 0B       		.uleb128 0xb
 944 03dd 5A060000 		.4byte	.LASF65
 945 03e1 08       		.byte	0x8
 946 03e2 0803     		.2byte	0x308
 947 03e4 11       		.byte	0x11
 948 03e5 E3000000 		.4byte	0xe3
 949 03e9 1C       		.byte	0x1c
 950 03ea 0B       		.uleb128 0xb
 951 03eb 12040000 		.4byte	.LASF66
 952 03ef 08       		.byte	0x8
 953 03f0 0903     		.2byte	0x309
 954 03f2 11       		.byte	0x11
 955 03f3 EF000000 		.4byte	0xef
 956 03f7 20       		.byte	0x20
 957 03f8 0B       		.uleb128 0xb
 958 03f9 6E000000 		.4byte	.LASF67
 959 03fd 08       		.byte	0x8
 960 03fe 0A03     		.2byte	0x30a
 961 0400 11       		.byte	0x11
 962 0401 EF000000 		.4byte	0xef
 963 0405 24       		.byte	0x24
 964 0406 0B       		.uleb128 0xb
 965 0407 64060000 		.4byte	.LASF68
 966 040b 08       		.byte	0x8
 967 040c 0B03     		.2byte	0x30b
 968 040e 11       		.byte	0x11
 969 040f F6020000 		.4byte	0x2f6
ARM GAS  /tmp/ccwzYijT.s 			page 18


 970 0413 28       		.byte	0x28
 971 0414 0B       		.uleb128 0xb
 972 0415 C3010000 		.4byte	.LASF69
 973 0419 08       		.byte	0x8
 974 041a 0C03     		.2byte	0x30c
 975 041c 11       		.byte	0x11
 976 041d EF000000 		.4byte	0xef
 977 0421 30       		.byte	0x30
 978 0422 0B       		.uleb128 0xb
 979 0423 C4070000 		.4byte	.LASF70
 980 0427 08       		.byte	0x8
 981 0428 0D03     		.2byte	0x30d
 982 042a 11       		.byte	0x11
 983 042b EF000000 		.4byte	0xef
 984 042f 34       		.byte	0x34
 985 0430 0B       		.uleb128 0xb
 986 0431 FF030000 		.4byte	.LASF71
 987 0435 08       		.byte	0x8
 988 0436 0E03     		.2byte	0x30e
 989 0438 11       		.byte	0x11
 990 0439 EF000000 		.4byte	0xef
 991 043d 38       		.byte	0x38
 992 043e 0B       		.uleb128 0xb
 993 043f 6E060000 		.4byte	.LASF72
 994 0443 08       		.byte	0x8
 995 0444 0F03     		.2byte	0x30f
 996 0446 11       		.byte	0x11
 997 0447 E3000000 		.4byte	0xe3
 998 044b 3C       		.byte	0x3c
 999 044c 0B       		.uleb128 0xb
 1000 044d 92090000 		.4byte	.LASF73
 1001 0451 08       		.byte	0x8
 1002 0452 1003     		.2byte	0x310
 1003 0454 11       		.byte	0x11
 1004 0455 EF000000 		.4byte	0xef
 1005 0459 40       		.byte	0x40
 1006 045a 0B       		.uleb128 0xb
 1007 045b E6050000 		.4byte	.LASF74
 1008 045f 08       		.byte	0x8
 1009 0460 1103     		.2byte	0x311
 1010 0462 11       		.byte	0x11
 1011 0463 EF000000 		.4byte	0xef
 1012 0467 44       		.byte	0x44
 1013 0468 0B       		.uleb128 0xb
 1014 0469 78060000 		.4byte	.LASF75
 1015 046d 08       		.byte	0x8
 1016 046e 1203     		.2byte	0x312
 1017 0470 11       		.byte	0x11
 1018 0471 F6020000 		.4byte	0x2f6
 1019 0475 48       		.byte	0x48
 1020 0476 0B       		.uleb128 0xb
 1021 0477 C2080000 		.4byte	.LASF76
 1022 047b 08       		.byte	0x8
 1023 047c 1303     		.2byte	0x313
 1024 047e 11       		.byte	0x11
 1025 047f EF000000 		.4byte	0xef
 1026 0483 50       		.byte	0x50
ARM GAS  /tmp/ccwzYijT.s 			page 19


 1027 0484 0B       		.uleb128 0xb
 1028 0485 5A010000 		.4byte	.LASF77
 1029 0489 08       		.byte	0x8
 1030 048a 1403     		.2byte	0x314
 1031 048c 11       		.byte	0x11
 1032 048d EF000000 		.4byte	0xef
 1033 0491 54       		.byte	0x54
 1034 0492 0B       		.uleb128 0xb
 1035 0493 8A070000 		.4byte	.LASF78
 1036 0497 08       		.byte	0x8
 1037 0498 1503     		.2byte	0x315
 1038 049a 11       		.byte	0x11
 1039 049b EF000000 		.4byte	0xef
 1040 049f 58       		.byte	0x58
 1041 04a0 0B       		.uleb128 0xb
 1042 04a1 82060000 		.4byte	.LASF79
 1043 04a5 08       		.byte	0x8
 1044 04a6 1603     		.2byte	0x316
 1045 04a8 11       		.byte	0x11
 1046 04a9 E3000000 		.4byte	0xe3
 1047 04ad 5C       		.byte	0x5c
 1048 04ae 0B       		.uleb128 0xb
 1049 04af 49050000 		.4byte	.LASF80
 1050 04b3 08       		.byte	0x8
 1051 04b4 1703     		.2byte	0x317
 1052 04b6 11       		.byte	0x11
 1053 04b7 EF000000 		.4byte	0xef
 1054 04bb 60       		.byte	0x60
 1055 04bc 0B       		.uleb128 0xb
 1056 04bd 48000000 		.4byte	.LASF81
 1057 04c1 08       		.byte	0x8
 1058 04c2 1803     		.2byte	0x318
 1059 04c4 11       		.byte	0x11
 1060 04c5 EF000000 		.4byte	0xef
 1061 04c9 64       		.byte	0x64
 1062 04ca 0B       		.uleb128 0xb
 1063 04cb 61090000 		.4byte	.LASF82
 1064 04cf 08       		.byte	0x8
 1065 04d0 1903     		.2byte	0x319
 1066 04d2 11       		.byte	0x11
 1067 04d3 F6020000 		.4byte	0x2f6
 1068 04d7 68       		.byte	0x68
 1069 04d8 0B       		.uleb128 0xb
 1070 04d9 E6000000 		.4byte	.LASF83
 1071 04dd 08       		.byte	0x8
 1072 04de 1A03     		.2byte	0x31a
 1073 04e0 11       		.byte	0x11
 1074 04e1 EF000000 		.4byte	0xef
 1075 04e5 70       		.byte	0x70
 1076 04e6 0A       		.uleb128 0xa
 1077 04e7 43535200 		.ascii	"CSR\000"
 1078 04eb 08       		.byte	0x8
 1079 04ec 1B03     		.2byte	0x31b
 1080 04ee 11       		.byte	0x11
 1081 04ef EF000000 		.4byte	0xef
 1082 04f3 74       		.byte	0x74
 1083 04f4 0B       		.uleb128 0xb
ARM GAS  /tmp/ccwzYijT.s 			page 20


 1084 04f5 8C060000 		.4byte	.LASF84
 1085 04f9 08       		.byte	0x8
 1086 04fa 1C03     		.2byte	0x31c
 1087 04fc 11       		.byte	0x11
 1088 04fd F6020000 		.4byte	0x2f6
 1089 0501 78       		.byte	0x78
 1090 0502 0B       		.uleb128 0xb
 1091 0503 D3010000 		.4byte	.LASF85
 1092 0507 08       		.byte	0x8
 1093 0508 1D03     		.2byte	0x31d
 1094 050a 11       		.byte	0x11
 1095 050b EF000000 		.4byte	0xef
 1096 050f 80       		.byte	0x80
 1097 0510 0B       		.uleb128 0xb
 1098 0511 FD070000 		.4byte	.LASF86
 1099 0515 08       		.byte	0x8
 1100 0516 1E03     		.2byte	0x31e
 1101 0518 11       		.byte	0x11
 1102 0519 EF000000 		.4byte	0xef
 1103 051d 84       		.byte	0x84
 1104 051e 0B       		.uleb128 0xb
 1105 051f 63000000 		.4byte	.LASF87
 1106 0523 08       		.byte	0x8
 1107 0524 1F03     		.2byte	0x31f
 1108 0526 11       		.byte	0x11
 1109 0527 EF000000 		.4byte	0xef
 1110 052b 88       		.byte	0x88
 1111 052c 0B       		.uleb128 0xb
 1112 052d E6020000 		.4byte	.LASF88
 1113 0531 08       		.byte	0x8
 1114 0532 2003     		.2byte	0x320
 1115 0534 11       		.byte	0x11
 1116 0535 EF000000 		.4byte	0xef
 1117 0539 8C       		.byte	0x8c
 1118 053a 0B       		.uleb128 0xb
 1119 053b F1030000 		.4byte	.LASF89
 1120 053f 08       		.byte	0x8
 1121 0540 2103     		.2byte	0x321
 1122 0542 11       		.byte	0x11
 1123 0543 EF000000 		.4byte	0xef
 1124 0547 90       		.byte	0x90
 1125 0548 00       		.byte	0
 1126 0549 11       		.uleb128 0x11
 1127 054a 08010000 		.4byte	.LASF90
 1128 054e 08       		.byte	0x8
 1129 054f 2303     		.2byte	0x323
 1130 0551 03       		.byte	0x3
 1131 0552 71030000 		.4byte	0x371
 1132 0556 10       		.uleb128 0x10
 1133 0557 84       		.byte	0x84
 1134 0558 08       		.byte	0x8
 1135 0559 8A03     		.2byte	0x38a
 1136 055b 09       		.byte	0x9
 1137 055c 79060000 		.4byte	0x679
 1138 0560 0B       		.uleb128 0xb
 1139 0561 70070000 		.4byte	.LASF91
 1140 0565 08       		.byte	0x8
ARM GAS  /tmp/ccwzYijT.s 			page 21


 1141 0566 8C03     		.2byte	0x38c
 1142 0568 11       		.byte	0x11
 1143 0569 EF000000 		.4byte	0xef
 1144 056d 00       		.byte	0
 1145 056e 0B       		.uleb128 0xb
 1146 056f BA060000 		.4byte	.LASF92
 1147 0573 08       		.byte	0x8
 1148 0574 8D03     		.2byte	0x38d
 1149 0576 11       		.byte	0x11
 1150 0577 EF000000 		.4byte	0xef
 1151 057b 04       		.byte	0x4
 1152 057c 0A       		.uleb128 0xa
 1153 057d 41524700 		.ascii	"ARG\000"
 1154 0581 08       		.byte	0x8
 1155 0582 8E03     		.2byte	0x38e
 1156 0584 11       		.byte	0x11
 1157 0585 EF000000 		.4byte	0xef
 1158 0589 08       		.byte	0x8
 1159 058a 0A       		.uleb128 0xa
 1160 058b 434D4400 		.ascii	"CMD\000"
 1161 058f 08       		.byte	0x8
 1162 0590 8F03     		.2byte	0x38f
 1163 0592 11       		.byte	0x11
 1164 0593 EF000000 		.4byte	0xef
 1165 0597 0C       		.byte	0xc
 1166 0598 0B       		.uleb128 0xb
 1167 0599 9C080000 		.4byte	.LASF93
 1168 059d 08       		.byte	0x8
 1169 059e 9003     		.2byte	0x390
 1170 05a0 11       		.byte	0x11
 1171 05a1 F4000000 		.4byte	0xf4
 1172 05a5 10       		.byte	0x10
 1173 05a6 0B       		.uleb128 0xb
 1174 05a7 32040000 		.4byte	.LASF94
 1175 05ab 08       		.byte	0x8
 1176 05ac 9103     		.2byte	0x391
 1177 05ae 11       		.byte	0x11
 1178 05af F4000000 		.4byte	0xf4
 1179 05b3 14       		.byte	0x14
 1180 05b4 0B       		.uleb128 0xb
 1181 05b5 38040000 		.4byte	.LASF95
 1182 05b9 08       		.byte	0x8
 1183 05ba 9203     		.2byte	0x392
 1184 05bc 11       		.byte	0x11
 1185 05bd F4000000 		.4byte	0xf4
 1186 05c1 18       		.byte	0x18
 1187 05c2 0B       		.uleb128 0xb
 1188 05c3 3E040000 		.4byte	.LASF96
 1189 05c7 08       		.byte	0x8
 1190 05c8 9303     		.2byte	0x393
 1191 05ca 11       		.byte	0x11
 1192 05cb F4000000 		.4byte	0xf4
 1193 05cf 1C       		.byte	0x1c
 1194 05d0 0B       		.uleb128 0xb
 1195 05d1 44040000 		.4byte	.LASF97
 1196 05d5 08       		.byte	0x8
 1197 05d6 9403     		.2byte	0x394
ARM GAS  /tmp/ccwzYijT.s 			page 22


 1198 05d8 11       		.byte	0x11
 1199 05d9 F4000000 		.4byte	0xf4
 1200 05dd 20       		.byte	0x20
 1201 05de 0B       		.uleb128 0xb
 1202 05df D5060000 		.4byte	.LASF98
 1203 05e3 08       		.byte	0x8
 1204 05e4 9503     		.2byte	0x395
 1205 05e6 11       		.byte	0x11
 1206 05e7 EF000000 		.4byte	0xef
 1207 05eb 24       		.byte	0x24
 1208 05ec 0B       		.uleb128 0xb
 1209 05ed 3C010000 		.4byte	.LASF99
 1210 05f1 08       		.byte	0x8
 1211 05f2 9603     		.2byte	0x396
 1212 05f4 11       		.byte	0x11
 1213 05f5 EF000000 		.4byte	0xef
 1214 05f9 28       		.byte	0x28
 1215 05fa 0B       		.uleb128 0xb
 1216 05fb 19070000 		.4byte	.LASF100
 1217 05ff 08       		.byte	0x8
 1218 0600 9703     		.2byte	0x397
 1219 0602 11       		.byte	0x11
 1220 0603 EF000000 		.4byte	0xef
 1221 0607 2C       		.byte	0x2c
 1222 0608 0B       		.uleb128 0xb
 1223 0609 77080000 		.4byte	.LASF101
 1224 060d 08       		.byte	0x8
 1225 060e 9803     		.2byte	0x398
 1226 0610 11       		.byte	0x11
 1227 0611 F4000000 		.4byte	0xf4
 1228 0615 30       		.byte	0x30
 1229 0616 0A       		.uleb128 0xa
 1230 0617 53544100 		.ascii	"STA\000"
 1231 061b 08       		.byte	0x8
 1232 061c 9903     		.2byte	0x399
 1233 061e 11       		.byte	0x11
 1234 061f F4000000 		.4byte	0xf4
 1235 0623 34       		.byte	0x34
 1236 0624 0A       		.uleb128 0xa
 1237 0625 49435200 		.ascii	"ICR\000"
 1238 0629 08       		.byte	0x8
 1239 062a 9A03     		.2byte	0x39a
 1240 062c 11       		.byte	0x11
 1241 062d EF000000 		.4byte	0xef
 1242 0631 38       		.byte	0x38
 1243 0632 0B       		.uleb128 0xb
 1244 0633 74020000 		.4byte	.LASF102
 1245 0637 08       		.byte	0x8
 1246 0638 9B03     		.2byte	0x39b
 1247 063a 11       		.byte	0x11
 1248 063b EF000000 		.4byte	0xef
 1249 063f 3C       		.byte	0x3c
 1250 0640 0B       		.uleb128 0xb
 1251 0641 5A060000 		.4byte	.LASF65
 1252 0645 08       		.byte	0x8
 1253 0646 9C03     		.2byte	0x39c
 1254 0648 11       		.byte	0x11
ARM GAS  /tmp/ccwzYijT.s 			page 23


 1255 0649 F6020000 		.4byte	0x2f6
 1256 064d 40       		.byte	0x40
 1257 064e 0B       		.uleb128 0xb
 1258 064f E9060000 		.4byte	.LASF103
 1259 0653 08       		.byte	0x8
 1260 0654 9D03     		.2byte	0x39d
 1261 0656 11       		.byte	0x11
 1262 0657 F4000000 		.4byte	0xf4
 1263 065b 48       		.byte	0x48
 1264 065c 0B       		.uleb128 0xb
 1265 065d 64060000 		.4byte	.LASF68
 1266 0661 08       		.byte	0x8
 1267 0662 9E03     		.2byte	0x39e
 1268 0664 11       		.byte	0x11
 1269 0665 79060000 		.4byte	0x679
 1270 0669 4C       		.byte	0x4c
 1271 066a 0B       		.uleb128 0xb
 1272 066b D1050000 		.4byte	.LASF104
 1273 066f 08       		.byte	0x8
 1274 0670 9F03     		.2byte	0x39f
 1275 0672 11       		.byte	0x11
 1276 0673 EF000000 		.4byte	0xef
 1277 0677 80       		.byte	0x80
 1278 0678 00       		.byte	0
 1279 0679 0E       		.uleb128 0xe
 1280 067a E3000000 		.4byte	0xe3
 1281 067e 89060000 		.4byte	0x689
 1282 0682 0F       		.uleb128 0xf
 1283 0683 38000000 		.4byte	0x38
 1284 0687 0C       		.byte	0xc
 1285 0688 00       		.byte	0
 1286 0689 11       		.uleb128 0x11
 1287 068a 25090000 		.4byte	.LASF105
 1288 068e 08       		.byte	0x8
 1289 068f A003     		.2byte	0x3a0
 1290 0691 03       		.byte	0x3
 1291 0692 56050000 		.4byte	0x556
 1292 0696 0E       		.uleb128 0xe
 1293 0697 E3000000 		.4byte	0xe3
 1294 069b A6060000 		.4byte	0x6a6
 1295 069f 0F       		.uleb128 0xf
 1296 06a0 38000000 		.4byte	0x38
 1297 06a4 03       		.byte	0x3
 1298 06a5 00       		.byte	0
 1299 06a6 03       		.uleb128 0x3
 1300 06a7 34000000 		.4byte	.LASF106
 1301 06ab 09       		.byte	0x9
 1302 06ac 65       		.byte	0x65
 1303 06ad 0F       		.byte	0xf
 1304 06ae F4020000 		.4byte	0x2f4
 1305 06b2 03       		.uleb128 0x3
 1306 06b3 02090000 		.4byte	.LASF107
 1307 06b7 09       		.byte	0x9
 1308 06b8 6D       		.byte	0x6d
 1309 06b9 12       		.byte	0x12
 1310 06ba F9000000 		.4byte	0xf9
 1311 06be 07       		.uleb128 0x7
ARM GAS  /tmp/ccwzYijT.s 			page 24


 1312 06bf 20010000 		.4byte	.LASF108
 1313 06c3 04       		.byte	0x4
 1314 06c4 09       		.byte	0x9
 1315 06c5 89       		.byte	0x89
 1316 06c6 08       		.byte	0x8
 1317 06c7 D8060000 		.4byte	0x6d8
 1318 06cb 09       		.uleb128 0x9
 1319 06cc 737000   		.ascii	"sp\000"
 1320 06cf 09       		.byte	0x9
 1321 06d0 8A       		.byte	0x8a
 1322 06d1 17       		.byte	0x17
 1323 06d2 3E080000 		.4byte	0x83e
 1324 06d6 00       		.byte	0
 1325 06d7 00       		.byte	0
 1326 06d8 12       		.uleb128 0x12
 1327 06d9 C9060000 		.4byte	.LASF109
 1328 06dd 64       		.byte	0x64
 1329 06de 0A       		.byte	0xa
 1330 06df 5901     		.2byte	0x159
 1331 06e1 08       		.byte	0x8
 1332 06e2 3E080000 		.4byte	0x83e
 1333 06e6 0A       		.uleb128 0xa
 1334 06e7 73313600 		.ascii	"s16\000"
 1335 06eb 0A       		.byte	0xa
 1336 06ec 5B01     		.2byte	0x15b
 1337 06ee 11       		.byte	0x11
 1338 06ef A6060000 		.4byte	0x6a6
 1339 06f3 00       		.byte	0
 1340 06f4 0A       		.uleb128 0xa
 1341 06f5 73313700 		.ascii	"s17\000"
 1342 06f9 0A       		.byte	0xa
 1343 06fa 5C01     		.2byte	0x15c
 1344 06fc 11       		.byte	0x11
 1345 06fd A6060000 		.4byte	0x6a6
 1346 0701 04       		.byte	0x4
 1347 0702 0A       		.uleb128 0xa
 1348 0703 73313800 		.ascii	"s18\000"
 1349 0707 0A       		.byte	0xa
 1350 0708 5D01     		.2byte	0x15d
 1351 070a 11       		.byte	0x11
 1352 070b A6060000 		.4byte	0x6a6
 1353 070f 08       		.byte	0x8
 1354 0710 0A       		.uleb128 0xa
 1355 0711 73313900 		.ascii	"s19\000"
 1356 0715 0A       		.byte	0xa
 1357 0716 5E01     		.2byte	0x15e
 1358 0718 11       		.byte	0x11
 1359 0719 A6060000 		.4byte	0x6a6
 1360 071d 0C       		.byte	0xc
 1361 071e 0A       		.uleb128 0xa
 1362 071f 73323000 		.ascii	"s20\000"
 1363 0723 0A       		.byte	0xa
 1364 0724 5F01     		.2byte	0x15f
 1365 0726 11       		.byte	0x11
 1366 0727 A6060000 		.4byte	0x6a6
 1367 072b 10       		.byte	0x10
 1368 072c 0A       		.uleb128 0xa
ARM GAS  /tmp/ccwzYijT.s 			page 25


 1369 072d 73323100 		.ascii	"s21\000"
 1370 0731 0A       		.byte	0xa
 1371 0732 6001     		.2byte	0x160
 1372 0734 11       		.byte	0x11
 1373 0735 A6060000 		.4byte	0x6a6
 1374 0739 14       		.byte	0x14
 1375 073a 0A       		.uleb128 0xa
 1376 073b 73323200 		.ascii	"s22\000"
 1377 073f 0A       		.byte	0xa
 1378 0740 6101     		.2byte	0x161
 1379 0742 11       		.byte	0x11
 1380 0743 A6060000 		.4byte	0x6a6
 1381 0747 18       		.byte	0x18
 1382 0748 0A       		.uleb128 0xa
 1383 0749 73323300 		.ascii	"s23\000"
 1384 074d 0A       		.byte	0xa
 1385 074e 6201     		.2byte	0x162
 1386 0750 11       		.byte	0x11
 1387 0751 A6060000 		.4byte	0x6a6
 1388 0755 1C       		.byte	0x1c
 1389 0756 0A       		.uleb128 0xa
 1390 0757 73323400 		.ascii	"s24\000"
 1391 075b 0A       		.byte	0xa
 1392 075c 6301     		.2byte	0x163
 1393 075e 11       		.byte	0x11
 1394 075f A6060000 		.4byte	0x6a6
 1395 0763 20       		.byte	0x20
 1396 0764 0A       		.uleb128 0xa
 1397 0765 73323500 		.ascii	"s25\000"
 1398 0769 0A       		.byte	0xa
 1399 076a 6401     		.2byte	0x164
 1400 076c 11       		.byte	0x11
 1401 076d A6060000 		.4byte	0x6a6
 1402 0771 24       		.byte	0x24
 1403 0772 0A       		.uleb128 0xa
 1404 0773 73323600 		.ascii	"s26\000"
 1405 0777 0A       		.byte	0xa
 1406 0778 6501     		.2byte	0x165
 1407 077a 11       		.byte	0x11
 1408 077b A6060000 		.4byte	0x6a6
 1409 077f 28       		.byte	0x28
 1410 0780 0A       		.uleb128 0xa
 1411 0781 73323700 		.ascii	"s27\000"
 1412 0785 0A       		.byte	0xa
 1413 0786 6601     		.2byte	0x166
 1414 0788 11       		.byte	0x11
 1415 0789 A6060000 		.4byte	0x6a6
 1416 078d 2C       		.byte	0x2c
 1417 078e 0A       		.uleb128 0xa
 1418 078f 73323800 		.ascii	"s28\000"
 1419 0793 0A       		.byte	0xa
 1420 0794 6701     		.2byte	0x167
 1421 0796 11       		.byte	0x11
 1422 0797 A6060000 		.4byte	0x6a6
 1423 079b 30       		.byte	0x30
 1424 079c 0A       		.uleb128 0xa
 1425 079d 73323900 		.ascii	"s29\000"
ARM GAS  /tmp/ccwzYijT.s 			page 26


 1426 07a1 0A       		.byte	0xa
 1427 07a2 6801     		.2byte	0x168
 1428 07a4 11       		.byte	0x11
 1429 07a5 A6060000 		.4byte	0x6a6
 1430 07a9 34       		.byte	0x34
 1431 07aa 0A       		.uleb128 0xa
 1432 07ab 73333000 		.ascii	"s30\000"
 1433 07af 0A       		.byte	0xa
 1434 07b0 6901     		.2byte	0x169
 1435 07b2 11       		.byte	0x11
 1436 07b3 A6060000 		.4byte	0x6a6
 1437 07b7 38       		.byte	0x38
 1438 07b8 0A       		.uleb128 0xa
 1439 07b9 73333100 		.ascii	"s31\000"
 1440 07bd 0A       		.byte	0xa
 1441 07be 6A01     		.2byte	0x16a
 1442 07c0 11       		.byte	0x11
 1443 07c1 A6060000 		.4byte	0x6a6
 1444 07c5 3C       		.byte	0x3c
 1445 07c6 0A       		.uleb128 0xa
 1446 07c7 723400   		.ascii	"r4\000"
 1447 07ca 0A       		.byte	0xa
 1448 07cb 6C01     		.2byte	0x16c
 1449 07cd 11       		.byte	0x11
 1450 07ce A6060000 		.4byte	0x6a6
 1451 07d2 40       		.byte	0x40
 1452 07d3 0A       		.uleb128 0xa
 1453 07d4 723500   		.ascii	"r5\000"
 1454 07d7 0A       		.byte	0xa
 1455 07d8 6D01     		.2byte	0x16d
 1456 07da 11       		.byte	0x11
 1457 07db A6060000 		.4byte	0x6a6
 1458 07df 44       		.byte	0x44
 1459 07e0 0A       		.uleb128 0xa
 1460 07e1 723600   		.ascii	"r6\000"
 1461 07e4 0A       		.byte	0xa
 1462 07e5 6E01     		.2byte	0x16e
 1463 07e7 11       		.byte	0x11
 1464 07e8 A6060000 		.4byte	0x6a6
 1465 07ec 48       		.byte	0x48
 1466 07ed 0A       		.uleb128 0xa
 1467 07ee 723700   		.ascii	"r7\000"
 1468 07f1 0A       		.byte	0xa
 1469 07f2 6F01     		.2byte	0x16f
 1470 07f4 11       		.byte	0x11
 1471 07f5 A6060000 		.4byte	0x6a6
 1472 07f9 4C       		.byte	0x4c
 1473 07fa 0A       		.uleb128 0xa
 1474 07fb 723800   		.ascii	"r8\000"
 1475 07fe 0A       		.byte	0xa
 1476 07ff 7001     		.2byte	0x170
 1477 0801 11       		.byte	0x11
 1478 0802 A6060000 		.4byte	0x6a6
 1479 0806 50       		.byte	0x50
 1480 0807 0A       		.uleb128 0xa
 1481 0808 723900   		.ascii	"r9\000"
 1482 080b 0A       		.byte	0xa
ARM GAS  /tmp/ccwzYijT.s 			page 27


 1483 080c 7101     		.2byte	0x171
 1484 080e 11       		.byte	0x11
 1485 080f A6060000 		.4byte	0x6a6
 1486 0813 54       		.byte	0x54
 1487 0814 0A       		.uleb128 0xa
 1488 0815 72313000 		.ascii	"r10\000"
 1489 0819 0A       		.byte	0xa
 1490 081a 7201     		.2byte	0x172
 1491 081c 11       		.byte	0x11
 1492 081d A6060000 		.4byte	0x6a6
 1493 0821 58       		.byte	0x58
 1494 0822 0A       		.uleb128 0xa
 1495 0823 72313100 		.ascii	"r11\000"
 1496 0827 0A       		.byte	0xa
 1497 0828 7301     		.2byte	0x173
 1498 082a 11       		.byte	0x11
 1499 082b A6060000 		.4byte	0x6a6
 1500 082f 5C       		.byte	0x5c
 1501 0830 0A       		.uleb128 0xa
 1502 0831 6C7200   		.ascii	"lr\000"
 1503 0834 0A       		.byte	0xa
 1504 0835 7401     		.2byte	0x174
 1505 0837 11       		.byte	0x11
 1506 0838 A6060000 		.4byte	0x6a6
 1507 083c 60       		.byte	0x60
 1508 083d 00       		.byte	0
 1509 083e 0C       		.uleb128 0xc
 1510 083f 04       		.byte	0x4
 1511 0840 D8060000 		.4byte	0x6d8
 1512 0844 13       		.uleb128 0x13
 1513 0845 18       		.byte	0x18
 1514 0846 0B       		.byte	0xb
 1515 0847 48       		.byte	0x48
 1516 0848 09       		.byte	0x9
 1517 0849 8D080000 		.4byte	0x88d
 1518 084d 08       		.uleb128 0x8
 1519 084e 08080000 		.4byte	.LASF110
 1520 0852 0B       		.byte	0xb
 1521 0853 49       		.byte	0x49
 1522 0854 19       		.byte	0x19
 1523 0855 05010000 		.4byte	0x105
 1524 0859 00       		.byte	0
 1525 085a 08       		.uleb128 0x8
 1526 085b 52020000 		.4byte	.LASF111
 1527 085f 0B       		.byte	0xb
 1528 0860 4A       		.byte	0x4a
 1529 0861 19       		.byte	0x19
 1530 0862 05010000 		.4byte	0x105
 1531 0866 04       		.byte	0x4
 1532 0867 08       		.uleb128 0x8
 1533 0868 1F070000 		.4byte	.LASF112
 1534 086c 0B       		.byte	0xb
 1535 086d 4B       		.byte	0x4b
 1536 086e 19       		.byte	0x19
 1537 086f 05010000 		.4byte	0x105
 1538 0873 08       		.byte	0x8
 1539 0874 09       		.uleb128 0x9
ARM GAS  /tmp/ccwzYijT.s 			page 28


 1540 0875 6E00     		.ascii	"n\000"
 1541 0877 0B       		.byte	0xb
 1542 0878 4C       		.byte	0x4c
 1543 0879 19       		.byte	0x19
 1544 087a 71010000 		.4byte	0x171
 1545 087e 0C       		.byte	0xc
 1546 087f 08       		.uleb128 0x8
 1547 0880 DB000000 		.4byte	.LASF113
 1548 0884 0B       		.byte	0xb
 1549 0885 4D       		.byte	0x4d
 1550 0886 19       		.byte	0x19
 1551 0887 11010000 		.4byte	0x111
 1552 088b 10       		.byte	0x10
 1553 088c 00       		.byte	0
 1554 088d 03       		.uleb128 0x3
 1555 088e 06050000 		.4byte	.LASF114
 1556 0892 0B       		.byte	0xb
 1557 0893 4E       		.byte	0x4e
 1558 0894 03       		.byte	0x3
 1559 0895 44080000 		.4byte	0x844
 1560 0899 14       		.uleb128 0x14
 1561 089a 04       		.byte	0x4
 1562 089b 07       		.byte	0x7
 1563 089c C6       		.byte	0xc6
 1564 089d 03       		.byte	0x3
 1565 089e 04090000 		.4byte	0x904
 1566 08a2 15       		.uleb128 0x15
 1567 08a3 B9020000 		.4byte	.LASF115
 1568 08a7 07       		.byte	0x7
 1569 08a8 CD       		.byte	0xcd
 1570 08a9 19       		.byte	0x19
 1571 08aa 4D010000 		.4byte	0x14d
 1572 08ae 15       		.uleb128 0x15
 1573 08af B8090000 		.4byte	.LASF116
 1574 08b3 07       		.byte	0x7
 1575 08b4 D4       		.byte	0xd4
 1576 08b5 19       		.byte	0x19
 1577 08b6 4D010000 		.4byte	0x14d
 1578 08ba 15       		.uleb128 0x15
 1579 08bb 14010000 		.4byte	.LASF117
 1580 08bf 07       		.byte	0x7
 1581 08c0 DB       		.byte	0xdb
 1582 08c1 1A       		.byte	0x1a
 1583 08c2 F4020000 		.4byte	0x2f4
 1584 08c6 15       		.uleb128 0x15
 1585 08c7 8C090000 		.4byte	.LASF118
 1586 08cb 07       		.byte	0x7
 1587 08cc E2       		.byte	0xe2
 1588 08cd 1A       		.byte	0x1a
 1589 08ce 04090000 		.4byte	0x904
 1590 08d2 15       		.uleb128 0x15
 1591 08d3 85010000 		.4byte	.LASF119
 1592 08d7 07       		.byte	0x7
 1593 08d8 E7       		.byte	0xe7
 1594 08d9 19       		.byte	0x19
 1595 08da 4D010000 		.4byte	0x14d
 1596 08de 15       		.uleb128 0x15
ARM GAS  /tmp/ccwzYijT.s 			page 29


 1597 08df E8070000 		.4byte	.LASF120
 1598 08e3 07       		.byte	0x7
 1599 08e4 F0       		.byte	0xf0
 1600 08e5 1A       		.byte	0x1a
 1601 08e6 32090000 		.4byte	0x932
 1602 08ea 15       		.uleb128 0x15
 1603 08eb 9A090000 		.4byte	.LASF121
 1604 08ef 07       		.byte	0x7
 1605 08f0 F9       		.byte	0xf9
 1606 08f1 1A       		.byte	0x1a
 1607 08f2 7A090000 		.4byte	0x97a
 1608 08f6 16       		.uleb128 0x16
 1609 08f7 41010000 		.4byte	.LASF122
 1610 08fb 07       		.byte	0x7
 1611 08fc 0101     		.2byte	0x101
 1612 08fe 19       		.byte	0x19
 1613 08ff 59010000 		.4byte	0x159
 1614 0903 00       		.byte	0
 1615 0904 0C       		.uleb128 0xc
 1616 0905 04       		.byte	0x4
 1617 0906 87020000 		.4byte	0x287
 1618 090a 07       		.uleb128 0x7
 1619 090b B6010000 		.4byte	.LASF123
 1620 090f 0C       		.byte	0xc
 1621 0910 0C       		.byte	0xc
 1622 0911 34       		.byte	0x34
 1623 0912 10       		.byte	0x10
 1624 0913 32090000 		.4byte	0x932
 1625 0917 08       		.uleb128 0x8
 1626 0918 BE070000 		.4byte	.LASF32
 1627 091c 0C       		.byte	0xc
 1628 091d 35       		.byte	0x35
 1629 091e 19       		.byte	0x19
 1630 091f C0020000 		.4byte	0x2c0
 1631 0923 00       		.byte	0
 1632 0924 09       		.uleb128 0x9
 1633 0925 636E7400 		.ascii	"cnt\000"
 1634 0929 0C       		.byte	0xc
 1635 092a 37       		.byte	0x37
 1636 092b 19       		.byte	0x19
 1637 092c 65010000 		.4byte	0x165
 1638 0930 08       		.byte	0x8
 1639 0931 00       		.byte	0
 1640 0932 0C       		.uleb128 0xc
 1641 0933 04       		.byte	0x4
 1642 0934 0A090000 		.4byte	0x90a
 1643 0938 07       		.uleb128 0x7
 1644 0939 DD020000 		.4byte	.LASF124
 1645 093d 14       		.byte	0x14
 1646 093e 0D       		.byte	0xd
 1647 093f 39       		.byte	0x39
 1648 0940 08       		.byte	0x8
 1649 0941 7A090000 		.4byte	0x97a
 1650 0945 08       		.uleb128 0x8
 1651 0946 BE070000 		.4byte	.LASF32
 1652 094a 0D       		.byte	0xd
 1653 094b 3A       		.byte	0x3a
ARM GAS  /tmp/ccwzYijT.s 			page 30


 1654 094c 19       		.byte	0x19
 1655 094d C0020000 		.4byte	0x2c0
 1656 0951 00       		.byte	0
 1657 0952 08       		.uleb128 0x8
 1658 0953 65020000 		.4byte	.LASF125
 1659 0957 0D       		.byte	0xd
 1660 0958 3C       		.byte	0x3c
 1661 0959 1A       		.byte	0x1a
 1662 095a 93020000 		.4byte	0x293
 1663 095e 08       		.byte	0x8
 1664 095f 08       		.uleb128 0x8
 1665 0960 BE000000 		.4byte	.LASF52
 1666 0964 0D       		.byte	0xd
 1667 0965 3E       		.byte	0x3e
 1668 0966 1A       		.byte	0x1a
 1669 0967 A4090000 		.4byte	0x9a4
 1670 096b 0C       		.byte	0xc
 1671 096c 09       		.uleb128 0x9
 1672 096d 636E7400 		.ascii	"cnt\000"
 1673 0971 0D       		.byte	0xd
 1674 0972 41       		.byte	0x41
 1675 0973 19       		.byte	0x19
 1676 0974 65010000 		.4byte	0x165
 1677 0978 10       		.byte	0x10
 1678 0979 00       		.byte	0
 1679 097a 0C       		.uleb128 0xc
 1680 097b 04       		.byte	0x4
 1681 097c 38090000 		.4byte	0x938
 1682 0980 0C       		.uleb128 0xc
 1683 0981 04       		.byte	0x4
 1684 0982 8D090000 		.4byte	0x98d
 1685 0986 04       		.uleb128 0x4
 1686 0987 01       		.byte	0x1
 1687 0988 08       		.byte	0x8
 1688 0989 54040000 		.4byte	.LASF126
 1689 098d 05       		.uleb128 0x5
 1690 098e 86090000 		.4byte	0x986
 1691 0992 0C       		.uleb128 0xc
 1692 0993 04       		.byte	0x4
 1693 0994 B2060000 		.4byte	0x6b2
 1694 0998 03       		.uleb128 0x3
 1695 0999 EF070000 		.4byte	.LASF127
 1696 099d 0D       		.byte	0xd
 1697 099e 34       		.byte	0x34
 1698 099f 19       		.byte	0x19
 1699 09a0 38090000 		.4byte	0x938
 1700 09a4 0C       		.uleb128 0xc
 1701 09a5 04       		.byte	0x4
 1702 09a6 98090000 		.4byte	0x998
 1703 09aa 04       		.uleb128 0x4
 1704 09ab 01       		.byte	0x1
 1705 09ac 02       		.byte	0x2
 1706 09ad C7020000 		.4byte	.LASF128
 1707 09b1 0C       		.uleb128 0xc
 1708 09b2 04       		.byte	0x4
 1709 09b3 BA000000 		.4byte	0xba
 1710 09b7 10       		.uleb128 0x10
ARM GAS  /tmp/ccwzYijT.s 			page 31


 1711 09b8 0C       		.byte	0xc
 1712 09b9 0E       		.byte	0xe
 1713 09ba A201     		.2byte	0x1a2
 1714 09bc 09       		.byte	0x9
 1715 09bd 160A0000 		.4byte	0xa16
 1716 09c1 0B       		.uleb128 0xb
 1717 09c2 F5040000 		.4byte	.LASF129
 1718 09c6 0E       		.byte	0xe
 1719 09c7 A301     		.2byte	0x1a3
 1720 09c9 1A       		.byte	0x1a
 1721 09ca 160A0000 		.4byte	0xa16
 1722 09ce 00       		.byte	0
 1723 09cf 0B       		.uleb128 0xb
 1724 09d0 99010000 		.4byte	.LASF130
 1725 09d4 0E       		.byte	0xe
 1726 09d5 A401     		.2byte	0x1a4
 1727 09d7 1A       		.byte	0x1a
 1728 09d8 1C0A0000 		.4byte	0xa1c
 1729 09dc 04       		.byte	0x4
 1730 09dd 0B       		.uleb128 0xb
 1731 09de 02010000 		.4byte	.LASF131
 1732 09e2 0E       		.byte	0xe
 1733 09e3 A801     		.2byte	0x1a8
 1734 09e5 19       		.byte	0x19
 1735 09e6 BA000000 		.4byte	0xba
 1736 09ea 08       		.byte	0x8
 1737 09eb 0B       		.uleb128 0xb
 1738 09ec B0010000 		.4byte	.LASF132
 1739 09f0 0E       		.byte	0xe
 1740 09f1 AA01     		.2byte	0x1aa
 1741 09f3 19       		.byte	0x19
 1742 09f4 BA000000 		.4byte	0xba
 1743 09f8 09       		.byte	0x9
 1744 09f9 0B       		.uleb128 0xb
 1745 09fa C1090000 		.4byte	.LASF133
 1746 09fe 0E       		.byte	0xe
 1747 09ff AC01     		.2byte	0x1ac
 1748 0a01 19       		.byte	0x19
 1749 0a02 BA000000 		.4byte	0xba
 1750 0a06 0A       		.byte	0xa
 1751 0a07 0B       		.uleb128 0xb
 1752 0a08 14020000 		.4byte	.LASF134
 1753 0a0c 0E       		.byte	0xe
 1754 0a0d AD01     		.2byte	0x1ad
 1755 0a0f 19       		.byte	0x19
 1756 0a10 BA000000 		.4byte	0xba
 1757 0a14 0B       		.byte	0xb
 1758 0a15 00       		.byte	0
 1759 0a16 0C       		.uleb128 0xc
 1760 0a17 04       		.byte	0x4
 1761 0a18 64030000 		.4byte	0x364
 1762 0a1c 0C       		.uleb128 0xc
 1763 0a1d 04       		.byte	0x4
 1764 0a1e EF000000 		.4byte	0xef
 1765 0a22 11       		.uleb128 0x11
 1766 0a23 84040000 		.4byte	.LASF135
 1767 0a27 0E       		.byte	0xe
ARM GAS  /tmp/ccwzYijT.s 			page 32


 1768 0a28 AE01     		.2byte	0x1ae
 1769 0a2a 03       		.byte	0x3
 1770 0a2b B7090000 		.4byte	0x9b7
 1771 0a2f 05       		.uleb128 0x5
 1772 0a30 220A0000 		.4byte	0xa22
 1773 0a34 0C       		.uleb128 0xc
 1774 0a35 04       		.byte	0x4
 1775 0a36 C6000000 		.4byte	0xc6
 1776 0a3a 17       		.uleb128 0x17
 1777 0a3b 07       		.byte	0x7
 1778 0a3c 01       		.byte	0x1
 1779 0a3d 60000000 		.4byte	0x60
 1780 0a41 0F       		.byte	0xf
 1781 0a42 28       		.byte	0x28
 1782 0a43 0E       		.byte	0xe
 1783 0a44 7F0A0000 		.4byte	0xa7f
 1784 0a48 18       		.uleb128 0x18
 1785 0a49 64010000 		.4byte	.LASF136
 1786 0a4d 00       		.byte	0
 1787 0a4e 18       		.uleb128 0x18
 1788 0a4f 89050000 		.4byte	.LASF137
 1789 0a53 01       		.byte	0x1
 1790 0a54 18       		.uleb128 0x18
 1791 0a55 92000000 		.4byte	.LASF138
 1792 0a59 02       		.byte	0x2
 1793 0a5a 18       		.uleb128 0x18
 1794 0a5b A5050000 		.4byte	.LASF139
 1795 0a5f 03       		.byte	0x3
 1796 0a60 18       		.uleb128 0x18
 1797 0a61 20040000 		.4byte	.LASF140
 1798 0a65 04       		.byte	0x4
 1799 0a66 18       		.uleb128 0x18
 1800 0a67 19050000 		.4byte	.LASF141
 1801 0a6b 05       		.byte	0x5
 1802 0a6c 18       		.uleb128 0x18
 1803 0a6d 08070000 		.4byte	.LASF142
 1804 0a71 06       		.byte	0x6
 1805 0a72 18       		.uleb128 0x18
 1806 0a73 7E080000 		.4byte	.LASF143
 1807 0a77 07       		.byte	0x7
 1808 0a78 18       		.uleb128 0x18
 1809 0a79 A6020000 		.4byte	.LASF144
 1810 0a7d 08       		.byte	0x8
 1811 0a7e 00       		.byte	0
 1812 0a7f 03       		.uleb128 0x3
 1813 0a80 A5010000 		.4byte	.LASF145
 1814 0a84 0F       		.byte	0xf
 1815 0a85 32       		.byte	0x32
 1816 0a86 03       		.byte	0x3
 1817 0a87 3A0A0000 		.4byte	0xa3a
 1818 0a8b 13       		.uleb128 0x13
 1819 0a8c 08       		.byte	0x8
 1820 0a8d 0F       		.byte	0xf
 1821 0a8e 37       		.byte	0x37
 1822 0a8f 09       		.byte	0x9
 1823 0a90 AF0A0000 		.4byte	0xaaf
 1824 0a94 08       		.uleb128 0x8
ARM GAS  /tmp/ccwzYijT.s 			page 33


 1825 0a95 D2000000 		.4byte	.LASF146
 1826 0a99 0F       		.byte	0xf
 1827 0a9a 38       		.byte	0x38
 1828 0a9b 11       		.byte	0x11
 1829 0a9c E3000000 		.4byte	0xe3
 1830 0aa0 00       		.byte	0
 1831 0aa1 08       		.uleb128 0x8
 1832 0aa2 7C040000 		.4byte	.LASF147
 1833 0aa6 0F       		.byte	0xf
 1834 0aa7 39       		.byte	0x39
 1835 0aa8 11       		.byte	0x11
 1836 0aa9 E3000000 		.4byte	0xe3
 1837 0aad 04       		.byte	0x4
 1838 0aae 00       		.byte	0
 1839 0aaf 03       		.uleb128 0x3
 1840 0ab0 41080000 		.4byte	.LASF148
 1841 0ab4 0F       		.byte	0xf
 1842 0ab5 3A       		.byte	0x3a
 1843 0ab6 03       		.byte	0x3
 1844 0ab7 8B0A0000 		.4byte	0xa8b
 1845 0abb 19       		.uleb128 0x19
 1846 0abc AA090000 		.4byte	0x9aa
 1847 0ac0 CA0A0000 		.4byte	0xaca
 1848 0ac4 1A       		.uleb128 0x1a
 1849 0ac5 F4020000 		.4byte	0x2f4
 1850 0ac9 00       		.byte	0
 1851 0aca 0C       		.uleb128 0xc
 1852 0acb 04       		.byte	0x4
 1853 0acc BB0A0000 		.4byte	0xabb
 1854 0ad0 19       		.uleb128 0x19
 1855 0ad1 AA090000 		.4byte	0x9aa
 1856 0ad5 EE0A0000 		.4byte	0xaee
 1857 0ad9 1A       		.uleb128 0x1a
 1858 0ada F4020000 		.4byte	0x2f4
 1859 0ade 1A       		.uleb128 0x1a
 1860 0adf E3000000 		.4byte	0xe3
 1861 0ae3 1A       		.uleb128 0x1a
 1862 0ae4 B1090000 		.4byte	0x9b1
 1863 0ae8 1A       		.uleb128 0x1a
 1864 0ae9 E3000000 		.4byte	0xe3
 1865 0aed 00       		.byte	0
 1866 0aee 0C       		.uleb128 0xc
 1867 0aef 04       		.byte	0x4
 1868 0af0 D00A0000 		.4byte	0xad0
 1869 0af4 19       		.uleb128 0x19
 1870 0af5 AA090000 		.4byte	0x9aa
 1871 0af9 120B0000 		.4byte	0xb12
 1872 0afd 1A       		.uleb128 0x1a
 1873 0afe F4020000 		.4byte	0x2f4
 1874 0b02 1A       		.uleb128 0x1a
 1875 0b03 E3000000 		.4byte	0xe3
 1876 0b07 1A       		.uleb128 0x1a
 1877 0b08 340A0000 		.4byte	0xa34
 1878 0b0c 1A       		.uleb128 0x1a
 1879 0b0d E3000000 		.4byte	0xe3
 1880 0b11 00       		.byte	0
 1881 0b12 0C       		.uleb128 0xc
ARM GAS  /tmp/ccwzYijT.s 			page 34


 1882 0b13 04       		.byte	0x4
 1883 0b14 F40A0000 		.4byte	0xaf4
 1884 0b18 19       		.uleb128 0x19
 1885 0b19 AA090000 		.4byte	0x9aa
 1886 0b1d 2C0B0000 		.4byte	0xb2c
 1887 0b21 1A       		.uleb128 0x1a
 1888 0b22 F4020000 		.4byte	0x2f4
 1889 0b26 1A       		.uleb128 0x1a
 1890 0b27 2C0B0000 		.4byte	0xb2c
 1891 0b2b 00       		.byte	0
 1892 0b2c 0C       		.uleb128 0xc
 1893 0b2d 04       		.byte	0x4
 1894 0b2e AF0A0000 		.4byte	0xaaf
 1895 0b32 0C       		.uleb128 0xc
 1896 0b33 04       		.byte	0x4
 1897 0b34 180B0000 		.4byte	0xb18
 1898 0b38 13       		.uleb128 0x13
 1899 0b39 04       		.byte	0x4
 1900 0b3a 10       		.byte	0x10
 1901 0b3b 5B       		.byte	0x5b
 1902 0b3c 05       		.byte	0x5
 1903 0b3d 5C0B0000 		.4byte	0xb5c
 1904 0b41 09       		.uleb128 0x9
 1905 0b42 73657400 		.ascii	"set\000"
 1906 0b46 10       		.byte	0x10
 1907 0b47 5C       		.byte	0x5c
 1908 0b48 19       		.byte	0x19
 1909 0b49 CB000000 		.4byte	0xcb
 1910 0b4d 00       		.byte	0
 1911 0b4e 08       		.uleb128 0x8
 1912 0b4f 79020000 		.4byte	.LASF149
 1913 0b53 10       		.byte	0x10
 1914 0b54 5D       		.byte	0x5d
 1915 0b55 19       		.byte	0x19
 1916 0b56 CB000000 		.4byte	0xcb
 1917 0b5a 02       		.byte	0x2
 1918 0b5b 00       		.byte	0
 1919 0b5c 14       		.uleb128 0x14
 1920 0b5d 04       		.byte	0x4
 1921 0b5e 10       		.byte	0x10
 1922 0b5f 59       		.byte	0x59
 1923 0b60 0C       		.byte	0xc
 1924 0b61 7A0B0000 		.4byte	0xb7a
 1925 0b65 1B       		.uleb128 0x1b
 1926 0b66 5700     		.ascii	"W\000"
 1927 0b68 10       		.byte	0x10
 1928 0b69 5A       		.byte	0x5a
 1929 0b6a 19       		.byte	0x19
 1930 0b6b E3000000 		.4byte	0xe3
 1931 0b6f 1B       		.uleb128 0x1b
 1932 0b70 4800     		.ascii	"H\000"
 1933 0b72 10       		.byte	0x10
 1934 0b73 5E       		.byte	0x5e
 1935 0b74 07       		.byte	0x7
 1936 0b75 380B0000 		.4byte	0xb38
 1937 0b79 00       		.byte	0
 1938 0b7a 06       		.uleb128 0x6
ARM GAS  /tmp/ccwzYijT.s 			page 35


 1939 0b7b 5C0B0000 		.4byte	0xb5c
 1940 0b7f 13       		.uleb128 0x13
 1941 0b80 28       		.byte	0x28
 1942 0b81 10       		.byte	0x10
 1943 0b82 51       		.byte	0x51
 1944 0b83 09       		.byte	0x9
 1945 0b84 0B0C0000 		.4byte	0xc0b
 1946 0b88 08       		.uleb128 0x8
 1947 0b89 3A020000 		.4byte	.LASF150
 1948 0b8d 10       		.byte	0x10
 1949 0b8e 53       		.byte	0x53
 1950 0b8f 19       		.byte	0x19
 1951 0b90 EF000000 		.4byte	0xef
 1952 0b94 00       		.byte	0
 1953 0b95 08       		.uleb128 0x8
 1954 0b96 F8060000 		.4byte	.LASF151
 1955 0b9a 10       		.byte	0x10
 1956 0b9b 54       		.byte	0x54
 1957 0b9c 19       		.byte	0x19
 1958 0b9d EF000000 		.4byte	0xef
 1959 0ba1 04       		.byte	0x4
 1960 0ba2 08       		.uleb128 0x8
 1961 0ba3 18060000 		.4byte	.LASF152
 1962 0ba7 10       		.byte	0x10
 1963 0ba8 55       		.byte	0x55
 1964 0ba9 19       		.byte	0x19
 1965 0baa EF000000 		.4byte	0xef
 1966 0bae 08       		.byte	0x8
 1967 0baf 08       		.uleb128 0x8
 1968 0bb0 07040000 		.4byte	.LASF153
 1969 0bb4 10       		.byte	0x10
 1970 0bb5 56       		.byte	0x56
 1971 0bb6 19       		.byte	0x19
 1972 0bb7 EF000000 		.4byte	0xef
 1973 0bbb 0C       		.byte	0xc
 1974 0bbc 09       		.uleb128 0x9
 1975 0bbd 49445200 		.ascii	"IDR\000"
 1976 0bc1 10       		.byte	0x10
 1977 0bc2 57       		.byte	0x57
 1978 0bc3 19       		.byte	0x19
 1979 0bc4 EF000000 		.4byte	0xef
 1980 0bc8 10       		.byte	0x10
 1981 0bc9 09       		.uleb128 0x9
 1982 0bca 4F445200 		.ascii	"ODR\000"
 1983 0bce 10       		.byte	0x10
 1984 0bcf 58       		.byte	0x58
 1985 0bd0 19       		.byte	0x19
 1986 0bd1 EF000000 		.4byte	0xef
 1987 0bd5 14       		.byte	0x14
 1988 0bd6 08       		.uleb128 0x8
 1989 0bd7 2F000000 		.4byte	.LASF154
 1990 0bdb 10       		.byte	0x10
 1991 0bdc 5F       		.byte	0x5f
 1992 0bdd 05       		.byte	0x5
 1993 0bde 7A0B0000 		.4byte	0xb7a
 1994 0be2 18       		.byte	0x18
 1995 0be3 08       		.uleb128 0x8
ARM GAS  /tmp/ccwzYijT.s 			page 36


 1996 0be4 20060000 		.4byte	.LASF155
 1997 0be8 10       		.byte	0x10
 1998 0be9 60       		.byte	0x60
 1999 0bea 19       		.byte	0x19
 2000 0beb EF000000 		.4byte	0xef
 2001 0bef 1C       		.byte	0x1c
 2002 0bf0 08       		.uleb128 0x8
 2003 0bf1 5F080000 		.4byte	.LASF156
 2004 0bf5 10       		.byte	0x10
 2005 0bf6 61       		.byte	0x61
 2006 0bf7 19       		.byte	0x19
 2007 0bf8 EF000000 		.4byte	0xef
 2008 0bfc 20       		.byte	0x20
 2009 0bfd 08       		.uleb128 0x8
 2010 0bfe 4D020000 		.4byte	.LASF157
 2011 0c02 10       		.byte	0x10
 2012 0c03 62       		.byte	0x62
 2013 0c04 19       		.byte	0x19
 2014 0c05 EF000000 		.4byte	0xef
 2015 0c09 24       		.byte	0x24
 2016 0c0a 00       		.byte	0
 2017 0c0b 03       		.uleb128 0x3
 2018 0c0c 58020000 		.4byte	.LASF158
 2019 0c10 10       		.byte	0x10
 2020 0c11 63       		.byte	0x63
 2021 0c12 03       		.byte	0x3
 2022 0c13 7F0B0000 		.4byte	0xb7f
 2023 0c17 0C       		.uleb128 0xc
 2024 0c18 04       		.byte	0x4
 2025 0c19 0B0C0000 		.4byte	0xc0b
 2026 0c1d 0C       		.uleb128 0xc
 2027 0c1e 04       		.byte	0x4
 2028 0c1f 2F0A0000 		.4byte	0xa2f
 2029 0c23 17       		.uleb128 0x17
 2030 0c24 07       		.byte	0x7
 2031 0c25 01       		.byte	0x1
 2032 0c26 60000000 		.4byte	0x60
 2033 0c2a 11       		.byte	0x11
 2034 0c2b 7A       		.byte	0x7a
 2035 0c2c 0E       		.byte	0xe
 2036 0c2d 440C0000 		.4byte	0xc44
 2037 0c31 18       		.uleb128 0x18
 2038 0c32 A4080000 		.4byte	.LASF159
 2039 0c36 00       		.byte	0
 2040 0c37 18       		.uleb128 0x18
 2041 0c38 0A060000 		.4byte	.LASF160
 2042 0c3c 01       		.byte	0x1
 2043 0c3d 18       		.uleb128 0x18
 2044 0c3e 0D090000 		.4byte	.LASF161
 2045 0c42 02       		.byte	0x2
 2046 0c43 00       		.byte	0
 2047 0c44 03       		.uleb128 0x3
 2048 0c45 5A070000 		.4byte	.LASF162
 2049 0c49 11       		.byte	0x11
 2050 0c4a 7E       		.byte	0x7e
 2051 0c4b 03       		.byte	0x3
 2052 0c4c 230C0000 		.4byte	0xc23
ARM GAS  /tmp/ccwzYijT.s 			page 37


 2053 0c50 03       		.uleb128 0x3
 2054 0c51 1B090000 		.4byte	.LASF163
 2055 0c55 12       		.byte	0x12
 2056 0c56 FE       		.byte	0xfe
 2057 0c57 12       		.byte	0x12
 2058 0c58 E3000000 		.4byte	0xe3
 2059 0c5c 11       		.uleb128 0x11
 2060 0c5d 24070000 		.4byte	.LASF164
 2061 0c61 12       		.byte	0x12
 2062 0c62 0301     		.2byte	0x103
 2063 0c64 12       		.byte	0x12
 2064 0c65 E3000000 		.4byte	0xe3
 2065 0c69 11       		.uleb128 0x11
 2066 0c6a 23050000 		.4byte	.LASF165
 2067 0c6e 12       		.byte	0x12
 2068 0c6f 0801     		.2byte	0x108
 2069 0c71 1A       		.byte	0x1a
 2070 0c72 760C0000 		.4byte	0xc76
 2071 0c76 12       		.uleb128 0x12
 2072 0c77 23050000 		.4byte	.LASF165
 2073 0c7b 58       		.byte	0x58
 2074 0c7c 12       		.byte	0x12
 2075 0c7d 3801     		.2byte	0x138
 2076 0c7f 08       		.byte	0x8
 2077 0c80 650D0000 		.4byte	0xd65
 2078 0c84 0A       		.uleb128 0xa
 2079 0c85 766D7400 		.ascii	"vmt\000"
 2080 0c89 12       		.byte	0x12
 2081 0c8a 3C01     		.2byte	0x13c
 2082 0c8c 1E       		.byte	0x1e
 2083 0c8d 3E0E0000 		.4byte	0xe3e
 2084 0c91 00       		.byte	0
 2085 0c92 0B       		.uleb128 0xb
 2086 0c93 8A080000 		.4byte	.LASF38
 2087 0c97 12       		.byte	0x12
 2088 0c98 3D01     		.2byte	0x13d
 2089 0c9a 03       		.byte	0x3
 2090 0c9b 7F0A0000 		.4byte	0xa7f
 2091 0c9f 04       		.byte	0x4
 2092 0ca0 0A       		.uleb128 0xa
 2093 0ca1 63696400 		.ascii	"cid\000"
 2094 0ca5 12       		.byte	0x12
 2095 0ca6 3D01     		.2byte	0x13d
 2096 0ca8 03       		.byte	0x3
 2097 0ca9 96060000 		.4byte	0x696
 2098 0cad 08       		.byte	0x8
 2099 0cae 0A       		.uleb128 0xa
 2100 0caf 63736400 		.ascii	"csd\000"
 2101 0cb3 12       		.byte	0x12
 2102 0cb4 3D01     		.2byte	0x13d
 2103 0cb6 03       		.byte	0x3
 2104 0cb7 96060000 		.4byte	0x696
 2105 0cbb 18       		.byte	0x18
 2106 0cbc 0B       		.uleb128 0xb
 2107 0cbd 52000000 		.4byte	.LASF166
 2108 0cc1 12       		.byte	0x12
 2109 0cc2 3D01     		.2byte	0x13d
ARM GAS  /tmp/ccwzYijT.s 			page 38


 2110 0cc4 03       		.byte	0x3
 2111 0cc5 E3000000 		.4byte	0xe3
 2112 0cc9 28       		.byte	0x28
 2113 0cca 0B       		.uleb128 0xb
 2114 0ccb 53060000 		.4byte	.LASF167
 2115 0ccf 12       		.byte	0x12
 2116 0cd0 4101     		.2byte	0x141
 2117 0cd2 1E       		.byte	0x1e
 2118 0cd3 440E0000 		.4byte	0xe44
 2119 0cd7 2C       		.byte	0x2c
 2120 0cd8 0B       		.uleb128 0xb
 2121 0cd9 0B020000 		.4byte	.LASF168
 2122 0cdd 12       		.byte	0x12
 2123 0cde 4501     		.2byte	0x145
 2124 0ce0 1D       		.byte	0x1d
 2125 0ce1 500C0000 		.4byte	0xc50
 2126 0ce5 30       		.byte	0x30
 2127 0ce6 0B       		.uleb128 0xb
 2128 0ce7 22020000 		.4byte	.LASF169
 2129 0ceb 12       		.byte	0x12
 2130 0cec 4901     		.2byte	0x149
 2131 0cee 1D       		.byte	0x1d
 2132 0cef 5C0C0000 		.4byte	0xc5c
 2133 0cf3 34       		.byte	0x34
 2134 0cf4 0A       		.uleb128 0xa
 2135 0cf5 72636100 		.ascii	"rca\000"
 2136 0cf9 12       		.byte	0x12
 2137 0cfa 4D01     		.2byte	0x14d
 2138 0cfc 1D       		.byte	0x1d
 2139 0cfd E3000000 		.4byte	0xe3
 2140 0d01 38       		.byte	0x38
 2141 0d02 0B       		.uleb128 0xb
 2142 0d03 E1070000 		.4byte	.LASF170
 2143 0d07 12       		.byte	0x12
 2144 0d08 5201     		.2byte	0x152
 2145 0d0a 1D       		.byte	0x1d
 2146 0d0b 87020000 		.4byte	0x287
 2147 0d0f 3C       		.byte	0x3c
 2148 0d10 0B       		.uleb128 0xb
 2149 0d11 44050000 		.4byte	.LASF171
 2150 0d15 12       		.byte	0x12
 2151 0d16 5601     		.2byte	0x156
 2152 0d18 1D       		.byte	0x1d
 2153 0d19 E3000000 		.4byte	0xe3
 2154 0d1d 40       		.byte	0x40
 2155 0d1e 0B       		.uleb128 0xb
 2156 0d1f 0D040000 		.4byte	.LASF172
 2157 0d23 12       		.byte	0x12
 2158 0d24 5A01     		.2byte	0x15a
 2159 0d26 1D       		.byte	0x1d
 2160 0d27 E3000000 		.4byte	0xe3
 2161 0d2b 44       		.byte	0x44
 2162 0d2c 0B       		.uleb128 0xb
 2163 0d2d 5B000000 		.4byte	.LASF173
 2164 0d31 12       		.byte	0x12
 2165 0d32 5E01     		.2byte	0x15e
 2166 0d34 1D       		.byte	0x1d
ARM GAS  /tmp/ccwzYijT.s 			page 39


 2167 0d35 E3000000 		.4byte	0xe3
 2168 0d39 48       		.byte	0x48
 2169 0d3a 0A       		.uleb128 0xa
 2170 0d3b 646D6100 		.ascii	"dma\000"
 2171 0d3f 12       		.byte	0x12
 2172 0d40 6201     		.2byte	0x162
 2173 0d42 1E       		.byte	0x1e
 2174 0d43 1D0C0000 		.4byte	0xc1d
 2175 0d47 4C       		.byte	0x4c
 2176 0d48 0B       		.uleb128 0xb
 2177 0d49 4E090000 		.4byte	.LASF174
 2178 0d4d 12       		.byte	0x12
 2179 0d4e 6701     		.2byte	0x167
 2180 0d50 1E       		.byte	0x1e
 2181 0d51 4A0E0000 		.4byte	0xe4a
 2182 0d55 50       		.byte	0x50
 2183 0d56 0B       		.uleb128 0xb
 2184 0d57 DC060000 		.4byte	.LASF175
 2185 0d5b 12       		.byte	0x12
 2186 0d5c 6A01     		.2byte	0x16a
 2187 0d5e 1A       		.byte	0x1a
 2188 0d5f 550E0000 		.4byte	0xe55
 2189 0d63 54       		.byte	0x54
 2190 0d64 00       		.byte	0
 2191 0d65 10       		.uleb128 0x10
 2192 0d66 08       		.byte	0x8
 2193 0d67 12       		.byte	0x12
 2194 0d68 0E01     		.2byte	0x10e
 2195 0d6a 09       		.byte	0x9
 2196 0d6b 9A0D0000 		.4byte	0xd9a
 2197 0d6f 0B       		.uleb128 0xb
 2198 0d70 3D000000 		.4byte	.LASF176
 2199 0d74 12       		.byte	0x12
 2200 0d75 1701     		.2byte	0x117
 2201 0d77 12       		.byte	0x12
 2202 0d78 B1090000 		.4byte	0x9b1
 2203 0d7c 00       		.byte	0
 2204 0d7d 0B       		.uleb128 0xb
 2205 0d7e B4070000 		.4byte	.LASF177
 2206 0d82 12       		.byte	0x12
 2207 0d83 1B01     		.2byte	0x11b
 2208 0d85 11       		.byte	0x11
 2209 0d86 440C0000 		.4byte	0xc44
 2210 0d8a 04       		.byte	0x4
 2211 0d8b 0B       		.uleb128 0xb
 2212 0d8c 67070000 		.4byte	.LASF178
 2213 0d90 12       		.byte	0x12
 2214 0d91 2201     		.2byte	0x122
 2215 0d93 0B       		.byte	0xb
 2216 0d94 BA000000 		.4byte	0xba
 2217 0d98 05       		.byte	0x5
 2218 0d99 00       		.byte	0
 2219 0d9a 11       		.uleb128 0x11
 2220 0d9b B8080000 		.4byte	.LASF179
 2221 0d9f 12       		.byte	0x12
 2222 0da0 2401     		.2byte	0x124
 2223 0da2 03       		.byte	0x3
ARM GAS  /tmp/ccwzYijT.s 			page 40


 2224 0da3 650D0000 		.4byte	0xd65
 2225 0da7 05       		.uleb128 0x5
 2226 0da8 9A0D0000 		.4byte	0xd9a
 2227 0dac 12       		.uleb128 0x12
 2228 0dad 48010000 		.4byte	.LASF180
 2229 0db1 24       		.byte	0x24
 2230 0db2 12       		.byte	0x12
 2231 0db3 3101     		.2byte	0x131
 2232 0db5 08       		.byte	0x8
 2233 0db6 390E0000 		.4byte	0xe39
 2234 0dba 0B       		.uleb128 0xb
 2235 0dbb 79050000 		.4byte	.LASF181
 2236 0dbf 12       		.byte	0x12
 2237 0dc0 3201     		.2byte	0x132
 2238 0dc2 03       		.byte	0x3
 2239 0dc3 2C000000 		.4byte	0x2c
 2240 0dc7 00       		.byte	0
 2241 0dc8 0B       		.uleb128 0xb
 2242 0dc9 C5050000 		.4byte	.LASF182
 2243 0dcd 12       		.byte	0x12
 2244 0dce 3201     		.2byte	0x132
 2245 0dd0 03       		.byte	0x3
 2246 0dd1 CA0A0000 		.4byte	0xaca
 2247 0dd5 04       		.byte	0x4
 2248 0dd6 0B       		.uleb128 0xb
 2249 0dd7 54090000 		.4byte	.LASF183
 2250 0ddb 12       		.byte	0x12
 2251 0ddc 3201     		.2byte	0x132
 2252 0dde 03       		.byte	0x3
 2253 0ddf CA0A0000 		.4byte	0xaca
 2254 0de3 08       		.byte	0x8
 2255 0de4 0B       		.uleb128 0xb
 2256 0de5 A0060000 		.4byte	.LASF184
 2257 0de9 12       		.byte	0x12
 2258 0dea 3201     		.2byte	0x132
 2259 0dec 03       		.byte	0x3
 2260 0ded CA0A0000 		.4byte	0xaca
 2261 0df1 0C       		.byte	0xc
 2262 0df2 0B       		.uleb128 0xb
 2263 0df3 9D000000 		.4byte	.LASF185
 2264 0df7 12       		.byte	0x12
 2265 0df8 3201     		.2byte	0x132
 2266 0dfa 03       		.byte	0x3
 2267 0dfb CA0A0000 		.4byte	0xaca
 2268 0dff 10       		.byte	0x10
 2269 0e00 0B       		.uleb128 0xb
 2270 0e01 39070000 		.4byte	.LASF186
 2271 0e05 12       		.byte	0x12
 2272 0e06 3201     		.2byte	0x132
 2273 0e08 03       		.byte	0x3
 2274 0e09 EE0A0000 		.4byte	0xaee
 2275 0e0d 14       		.byte	0x14
 2276 0e0e 0B       		.uleb128 0xb
 2277 0e0f 3E050000 		.4byte	.LASF187
 2278 0e13 12       		.byte	0x12
 2279 0e14 3201     		.2byte	0x132
 2280 0e16 03       		.byte	0x3
ARM GAS  /tmp/ccwzYijT.s 			page 41


 2281 0e17 120B0000 		.4byte	0xb12
 2282 0e1b 18       		.byte	0x18
 2283 0e1c 0B       		.uleb128 0xb
 2284 0e1d 1B010000 		.4byte	.LASF188
 2285 0e21 12       		.byte	0x12
 2286 0e22 3201     		.2byte	0x132
 2287 0e24 03       		.byte	0x3
 2288 0e25 CA0A0000 		.4byte	0xaca
 2289 0e29 1C       		.byte	0x1c
 2290 0e2a 0B       		.uleb128 0xb
 2291 0e2b D4020000 		.4byte	.LASF189
 2292 0e2f 12       		.byte	0x12
 2293 0e30 3201     		.2byte	0x132
 2294 0e32 03       		.byte	0x3
 2295 0e33 320B0000 		.4byte	0xb32
 2296 0e37 20       		.byte	0x20
 2297 0e38 00       		.byte	0
 2298 0e39 05       		.uleb128 0x5
 2299 0e3a AC0D0000 		.4byte	0xdac
 2300 0e3e 0C       		.uleb128 0xc
 2301 0e3f 04       		.byte	0x4
 2302 0e40 390E0000 		.4byte	0xe39
 2303 0e44 0C       		.uleb128 0xc
 2304 0e45 04       		.byte	0x4
 2305 0e46 A70D0000 		.4byte	0xda7
 2306 0e4a 0C       		.uleb128 0xc
 2307 0e4b 04       		.byte	0x4
 2308 0e4c 89060000 		.4byte	0x689
 2309 0e50 1C       		.uleb128 0x1c
 2310 0e51 7B070000 		.4byte	.LASF225
 2311 0e55 0C       		.uleb128 0xc
 2312 0e56 04       		.byte	0x4
 2313 0e57 500E0000 		.4byte	0xe50
 2314 0e5b 13       		.uleb128 0x13
 2315 0e5c 1C       		.byte	0x1c
 2316 0e5d 01       		.byte	0x1
 2317 0e5e 37       		.byte	0x37
 2318 0e5f 09       		.byte	0x9
 2319 0e60 C00E0000 		.4byte	0xec0
 2320 0e64 08       		.uleb128 0x8
 2321 0e65 5F050000 		.4byte	.LASF190
 2322 0e69 01       		.byte	0x1
 2323 0e6a 38       		.byte	0x38
 2324 0e6b 19       		.byte	0x19
 2325 0e6c E3000000 		.4byte	0xe3
 2326 0e70 00       		.byte	0
 2327 0e71 08       		.uleb128 0x8
 2328 0e72 9E010000 		.4byte	.LASF191
 2329 0e76 01       		.byte	0x1
 2330 0e77 39       		.byte	0x39
 2331 0e78 19       		.byte	0x19
 2332 0e79 E3000000 		.4byte	0xe3
 2333 0e7d 04       		.byte	0x4
 2334 0e7e 08       		.uleb128 0x8
 2335 0e7f 84090000 		.4byte	.LASF192
 2336 0e83 01       		.byte	0x1
 2337 0e84 3A       		.byte	0x3a
ARM GAS  /tmp/ccwzYijT.s 			page 42


 2338 0e85 19       		.byte	0x19
 2339 0e86 E3000000 		.4byte	0xe3
 2340 0e8a 08       		.byte	0x8
 2341 0e8b 08       		.uleb128 0x8
 2342 0e8c 59050000 		.4byte	.LASF193
 2343 0e90 01       		.byte	0x1
 2344 0e91 3B       		.byte	0x3b
 2345 0e92 19       		.byte	0x19
 2346 0e93 E3000000 		.4byte	0xe3
 2347 0e97 0C       		.byte	0xc
 2348 0e98 09       		.uleb128 0x9
 2349 0e99 6F647200 		.ascii	"odr\000"
 2350 0e9d 01       		.byte	0x1
 2351 0e9e 3C       		.byte	0x3c
 2352 0e9f 19       		.byte	0x19
 2353 0ea0 E3000000 		.4byte	0xe3
 2354 0ea4 10       		.byte	0x10
 2355 0ea5 08       		.uleb128 0x8
 2356 0ea6 C0050000 		.4byte	.LASF194
 2357 0eaa 01       		.byte	0x1
 2358 0eab 3D       		.byte	0x3d
 2359 0eac 19       		.byte	0x19
 2360 0ead E3000000 		.4byte	0xe3
 2361 0eb1 14       		.byte	0x14
 2362 0eb2 08       		.uleb128 0x8
 2363 0eb3 BB050000 		.4byte	.LASF195
 2364 0eb7 01       		.byte	0x1
 2365 0eb8 3E       		.byte	0x3e
 2366 0eb9 19       		.byte	0x19
 2367 0eba E3000000 		.4byte	0xe3
 2368 0ebe 18       		.byte	0x18
 2369 0ebf 00       		.byte	0
 2370 0ec0 03       		.uleb128 0x3
 2371 0ec1 40020000 		.4byte	.LASF196
 2372 0ec5 01       		.byte	0x1
 2373 0ec6 3F       		.byte	0x3f
 2374 0ec7 03       		.byte	0x3
 2375 0ec8 5B0E0000 		.4byte	0xe5b
 2376 0ecc 05       		.uleb128 0x5
 2377 0ecd C00E0000 		.4byte	0xec0
 2378 0ed1 1D       		.uleb128 0x1d
 2379 0ed2 3401     		.2byte	0x134
 2380 0ed4 01       		.byte	0x1
 2381 0ed5 44       		.byte	0x44
 2382 0ed6 09       		.byte	0x9
 2383 0ed7 6C0F0000 		.4byte	0xf6c
 2384 0edb 08       		.uleb128 0x8
 2385 0edc F1060000 		.4byte	.LASF197
 2386 0ee0 01       		.byte	0x1
 2387 0ee1 46       		.byte	0x46
 2388 0ee2 19       		.byte	0x19
 2389 0ee3 C00E0000 		.4byte	0xec0
 2390 0ee7 00       		.byte	0
 2391 0ee8 08       		.uleb128 0x8
 2392 0ee9 CD020000 		.4byte	.LASF198
 2393 0eed 01       		.byte	0x1
 2394 0eee 49       		.byte	0x49
ARM GAS  /tmp/ccwzYijT.s 			page 43


 2395 0eef 19       		.byte	0x19
 2396 0ef0 C00E0000 		.4byte	0xec0
 2397 0ef4 1C       		.byte	0x1c
 2398 0ef5 08       		.uleb128 0x8
 2399 0ef6 10000000 		.4byte	.LASF199
 2400 0efa 01       		.byte	0x1
 2401 0efb 4C       		.byte	0x4c
 2402 0efc 19       		.byte	0x19
 2403 0efd C00E0000 		.4byte	0xec0
 2404 0f01 38       		.byte	0x38
 2405 0f02 08       		.uleb128 0x8
 2406 0f03 4C060000 		.4byte	.LASF200
 2407 0f07 01       		.byte	0x1
 2408 0f08 4F       		.byte	0x4f
 2409 0f09 19       		.byte	0x19
 2410 0f0a C00E0000 		.4byte	0xec0
 2411 0f0e 54       		.byte	0x54
 2412 0f0f 08       		.uleb128 0x8
 2413 0f10 98020000 		.4byte	.LASF201
 2414 0f14 01       		.byte	0x1
 2415 0f15 52       		.byte	0x52
 2416 0f16 19       		.byte	0x19
 2417 0f17 C00E0000 		.4byte	0xec0
 2418 0f1b 70       		.byte	0x70
 2419 0f1c 08       		.uleb128 0x8
 2420 0f1d 9F020000 		.4byte	.LASF202
 2421 0f21 01       		.byte	0x1
 2422 0f22 55       		.byte	0x55
 2423 0f23 19       		.byte	0x19
 2424 0f24 C00E0000 		.4byte	0xec0
 2425 0f28 8C       		.byte	0x8c
 2426 0f29 08       		.uleb128 0x8
 2427 0f2a EE050000 		.4byte	.LASF203
 2428 0f2e 01       		.byte	0x1
 2429 0f2f 58       		.byte	0x58
 2430 0f30 19       		.byte	0x19
 2431 0f31 C00E0000 		.4byte	0xec0
 2432 0f35 A8       		.byte	0xa8
 2433 0f36 08       		.uleb128 0x8
 2434 0f37 1B020000 		.4byte	.LASF204
 2435 0f3b 01       		.byte	0x1
 2436 0f3c 5B       		.byte	0x5b
 2437 0f3d 19       		.byte	0x19
 2438 0f3e C00E0000 		.4byte	0xec0
 2439 0f42 C4       		.byte	0xc4
 2440 0f43 08       		.uleb128 0x8
 2441 0f44 E8080000 		.4byte	.LASF205
 2442 0f48 01       		.byte	0x1
 2443 0f49 5E       		.byte	0x5e
 2444 0f4a 19       		.byte	0x19
 2445 0f4b C00E0000 		.4byte	0xec0
 2446 0f4f E0       		.byte	0xe0
 2447 0f50 08       		.uleb128 0x8
 2448 0f51 B4050000 		.4byte	.LASF206
 2449 0f55 01       		.byte	0x1
 2450 0f56 61       		.byte	0x61
 2451 0f57 19       		.byte	0x19
ARM GAS  /tmp/ccwzYijT.s 			page 44


 2452 0f58 C00E0000 		.4byte	0xec0
 2453 0f5c FC       		.byte	0xfc
 2454 0f5d 1E       		.uleb128 0x1e
 2455 0f5e C0020000 		.4byte	.LASF207
 2456 0f62 01       		.byte	0x1
 2457 0f63 64       		.byte	0x64
 2458 0f64 19       		.byte	0x19
 2459 0f65 C00E0000 		.4byte	0xec0
 2460 0f69 1801     		.2byte	0x118
 2461 0f6b 00       		.byte	0
 2462 0f6c 03       		.uleb128 0x3
 2463 0f6d FC050000 		.4byte	.LASF208
 2464 0f71 01       		.byte	0x1
 2465 0f72 66       		.byte	0x66
 2466 0f73 03       		.byte	0x3
 2467 0f74 D10E0000 		.4byte	0xed1
 2468 0f78 05       		.uleb128 0x5
 2469 0f79 6C0F0000 		.4byte	0xf6c
 2470 0f7d 1F       		.uleb128 0x1f
 2471 0f7e 65050000 		.4byte	.LASF226
 2472 0f82 01       		.byte	0x1
 2473 0f83 6B       		.byte	0x6b
 2474 0f84 1C       		.byte	0x1c
 2475 0f85 780F0000 		.4byte	0xf78
 2476 0f89 05       		.uleb128 0x5
 2477 0f8a 03       		.byte	0x3
 2478 0f8b 00000000 		.4byte	gpio_default_config
 2479 0f8f 20       		.uleb128 0x20
 2480 0f90 4A040000 		.4byte	.LASF227
 2481 0f94 01       		.byte	0x1
 2482 0f95 2701     		.2byte	0x127
 2483 0f97 06       		.byte	0x6
 2484 0f98 00000000 		.4byte	.LFB340
 2485 0f9c 02000000 		.4byte	.LFE340-.LFB340
 2486 0fa0 01       		.uleb128 0x1
 2487 0fa1 9C       		.byte	0x9c
 2488 0fa2 21       		.uleb128 0x21
 2489 0fa3 33090000 		.4byte	.LASF209
 2490 0fa7 01       		.byte	0x1
 2491 0fa8 0801     		.2byte	0x108
 2492 0faa 06       		.byte	0x6
 2493 0fab AA090000 		.4byte	0x9aa
 2494 0faf 00000000 		.4byte	.LFB339
 2495 0fb3 04000000 		.4byte	.LFE339-.LFB339
 2496 0fb7 01       		.uleb128 0x1
 2497 0fb8 9C       		.byte	0x9c
 2498 0fb9 D30F0000 		.4byte	0xfd3
 2499 0fbd 22       		.uleb128 0x22
 2500 0fbe 80010000 		.4byte	.LASF211
 2501 0fc2 01       		.byte	0x1
 2502 0fc3 0801     		.2byte	0x108
 2503 0fc5 2C       		.byte	0x2c
 2504 0fc6 D30F0000 		.4byte	0xfd3
 2505 0fca 04000000 		.4byte	.LLST1
 2506 0fce 00000000 		.4byte	.LVUS1
 2507 0fd2 00       		.byte	0
 2508 0fd3 0C       		.uleb128 0xc
ARM GAS  /tmp/ccwzYijT.s 			page 45


 2509 0fd4 04       		.byte	0x4
 2510 0fd5 690C0000 		.4byte	0xc69
 2511 0fd9 21       		.uleb128 0x21
 2512 0fda 6B090000 		.4byte	.LASF210
 2513 0fde 01       		.byte	0x1
 2514 0fdf 0001     		.2byte	0x100
 2515 0fe1 06       		.byte	0x6
 2516 0fe2 AA090000 		.4byte	0x9aa
 2517 0fe6 00000000 		.4byte	.LFB338
 2518 0fea 04000000 		.4byte	.LFE338-.LFB338
 2519 0fee 01       		.uleb128 0x1
 2520 0fef 9C       		.byte	0x9c
 2521 0ff0 0A100000 		.4byte	0x100a
 2522 0ff4 22       		.uleb128 0x22
 2523 0ff5 80010000 		.4byte	.LASF211
 2524 0ff9 01       		.byte	0x1
 2525 0ffa 0001     		.2byte	0x100
 2526 0ffc 2A       		.byte	0x2a
 2527 0ffd D30F0000 		.4byte	0xfd3
 2528 1001 29000000 		.4byte	.LLST0
 2529 1005 25000000 		.4byte	.LVUS0
 2530 1009 00       		.byte	0
 2531 100a 23       		.uleb128 0x23
 2532 100b 77000000 		.4byte	.LASF212
 2533 100f 01       		.byte	0x1
 2534 1010 ED       		.byte	0xed
 2535 1011 06       		.byte	0x6
 2536 1012 00000000 		.4byte	.LFB337
 2537 1016 1E000000 		.4byte	.LFE337-.LFB337
 2538 101a 01       		.uleb128 0x1
 2539 101b 9C       		.byte	0x9c
 2540 101c 57100000 		.4byte	0x1057
 2541 1020 24       		.uleb128 0x24
 2542 1021 06000000 		.4byte	.LVL13
 2543 1025 E9110000 		.4byte	0x11e9
 2544 1029 24       		.uleb128 0x24
 2545 102a 0A000000 		.4byte	.LVL14
 2546 102e F6110000 		.4byte	0x11f6
 2547 1032 24       		.uleb128 0x24
 2548 1033 0E000000 		.4byte	.LVL15
 2549 1037 03120000 		.4byte	0x1203
 2550 103b 24       		.uleb128 0x24
 2551 103c 12000000 		.4byte	.LVL16
 2552 1040 0F120000 		.4byte	0x120f
 2553 1044 24       		.uleb128 0x24
 2554 1045 16000000 		.4byte	.LVL17
 2555 1049 1B120000 		.4byte	0x121b
 2556 104d 25       		.uleb128 0x25
 2557 104e 1E000000 		.4byte	.LVL18
 2558 1052 27120000 		.4byte	0x1227
 2559 1056 00       		.byte	0
 2560 1057 23       		.uleb128 0x23
 2561 1058 D4070000 		.4byte	.LASF213
 2562 105c 01       		.byte	0x1
 2563 105d E3       		.byte	0xe3
 2564 105e 06       		.byte	0x6
 2565 105f 00000000 		.4byte	.LFB336
ARM GAS  /tmp/ccwzYijT.s 			page 46


 2566 1063 C0000000 		.4byte	.LFE336-.LFB336
 2567 1067 01       		.uleb128 0x1
 2568 1068 9C       		.byte	0x9c
 2569 1069 A7110000 		.4byte	0x11a7
 2570 106d 26       		.uleb128 0x26
 2571 106e A7110000 		.4byte	0x11a7
 2572 1072 00000000 		.4byte	.LBI4
 2573 1076 02       		.byte	.LVU25
 2574 1077 00000000 		.4byte	.Ldebug_ranges0+0
 2575 107b 01       		.byte	0x1
 2576 107c E5       		.byte	0xe5
 2577 107d 03       		.byte	0x3
 2578 107e 9D110000 		.4byte	0x119d
 2579 1082 27       		.uleb128 0x27
 2580 1083 34000000 		.4byte	.LVL1
 2581 1087 B0110000 		.4byte	0x11b0
 2582 108b 9C100000 		.4byte	0x109c
 2583 108f 28       		.uleb128 0x28
 2584 1090 01       		.uleb128 0x1
 2585 1091 50       		.byte	0x50
 2586 1092 02       		.uleb128 0x2
 2587 1093 70       		.byte	0x70
 2588 1094 00       		.sleb128 0
 2589 1095 28       		.uleb128 0x28
 2590 1096 01       		.uleb128 0x1
 2591 1097 51       		.byte	0x51
 2592 1098 02       		.uleb128 0x2
 2593 1099 71       		.byte	0x71
 2594 109a 00       		.sleb128 0
 2595 109b 00       		.byte	0
 2596 109c 27       		.uleb128 0x27
 2597 109d 40000000 		.4byte	.LVL2
 2598 10a1 B0110000 		.4byte	0x11b0
 2599 10a5 B6100000 		.4byte	0x10b6
 2600 10a9 28       		.uleb128 0x28
 2601 10aa 01       		.uleb128 0x1
 2602 10ab 50       		.byte	0x50
 2603 10ac 02       		.uleb128 0x2
 2604 10ad 70       		.byte	0x70
 2605 10ae 00       		.sleb128 0
 2606 10af 28       		.uleb128 0x28
 2607 10b0 01       		.uleb128 0x1
 2608 10b1 51       		.byte	0x51
 2609 10b2 02       		.uleb128 0x2
 2610 10b3 71       		.byte	0x71
 2611 10b4 00       		.sleb128 0
 2612 10b5 00       		.byte	0
 2613 10b6 27       		.uleb128 0x27
 2614 10b7 4C000000 		.4byte	.LVL3
 2615 10bb B0110000 		.4byte	0x11b0
 2616 10bf D0100000 		.4byte	0x10d0
 2617 10c3 28       		.uleb128 0x28
 2618 10c4 01       		.uleb128 0x1
 2619 10c5 50       		.byte	0x50
 2620 10c6 02       		.uleb128 0x2
 2621 10c7 70       		.byte	0x70
 2622 10c8 00       		.sleb128 0
ARM GAS  /tmp/ccwzYijT.s 			page 47


 2623 10c9 28       		.uleb128 0x28
 2624 10ca 01       		.uleb128 0x1
 2625 10cb 51       		.byte	0x51
 2626 10cc 02       		.uleb128 0x2
 2627 10cd 71       		.byte	0x71
 2628 10ce 00       		.sleb128 0
 2629 10cf 00       		.byte	0
 2630 10d0 27       		.uleb128 0x27
 2631 10d1 58000000 		.4byte	.LVL4
 2632 10d5 B0110000 		.4byte	0x11b0
 2633 10d9 EA100000 		.4byte	0x10ea
 2634 10dd 28       		.uleb128 0x28
 2635 10de 01       		.uleb128 0x1
 2636 10df 50       		.byte	0x50
 2637 10e0 02       		.uleb128 0x2
 2638 10e1 70       		.byte	0x70
 2639 10e2 00       		.sleb128 0
 2640 10e3 28       		.uleb128 0x28
 2641 10e4 01       		.uleb128 0x1
 2642 10e5 51       		.byte	0x51
 2643 10e6 02       		.uleb128 0x2
 2644 10e7 71       		.byte	0x71
 2645 10e8 00       		.sleb128 0
 2646 10e9 00       		.byte	0
 2647 10ea 27       		.uleb128 0x27
 2648 10eb 64000000 		.4byte	.LVL5
 2649 10ef B0110000 		.4byte	0x11b0
 2650 10f3 04110000 		.4byte	0x1104
 2651 10f7 28       		.uleb128 0x28
 2652 10f8 01       		.uleb128 0x1
 2653 10f9 50       		.byte	0x50
 2654 10fa 02       		.uleb128 0x2
 2655 10fb 70       		.byte	0x70
 2656 10fc 00       		.sleb128 0
 2657 10fd 28       		.uleb128 0x28
 2658 10fe 01       		.uleb128 0x1
 2659 10ff 51       		.byte	0x51
 2660 1100 02       		.uleb128 0x2
 2661 1101 71       		.byte	0x71
 2662 1102 00       		.sleb128 0
 2663 1103 00       		.byte	0
 2664 1104 27       		.uleb128 0x27
 2665 1105 70000000 		.4byte	.LVL6
 2666 1109 B0110000 		.4byte	0x11b0
 2667 110d 1E110000 		.4byte	0x111e
 2668 1111 28       		.uleb128 0x28
 2669 1112 01       		.uleb128 0x1
 2670 1113 50       		.byte	0x50
 2671 1114 02       		.uleb128 0x2
 2672 1115 70       		.byte	0x70
 2673 1116 00       		.sleb128 0
 2674 1117 28       		.uleb128 0x28
 2675 1118 01       		.uleb128 0x1
 2676 1119 51       		.byte	0x51
 2677 111a 02       		.uleb128 0x2
 2678 111b 71       		.byte	0x71
 2679 111c 00       		.sleb128 0
ARM GAS  /tmp/ccwzYijT.s 			page 48


 2680 111d 00       		.byte	0
 2681 111e 27       		.uleb128 0x27
 2682 111f 7C000000 		.4byte	.LVL7
 2683 1123 B0110000 		.4byte	0x11b0
 2684 1127 38110000 		.4byte	0x1138
 2685 112b 28       		.uleb128 0x28
 2686 112c 01       		.uleb128 0x1
 2687 112d 50       		.byte	0x50
 2688 112e 02       		.uleb128 0x2
 2689 112f 70       		.byte	0x70
 2690 1130 00       		.sleb128 0
 2691 1131 28       		.uleb128 0x28
 2692 1132 01       		.uleb128 0x1
 2693 1133 51       		.byte	0x51
 2694 1134 02       		.uleb128 0x2
 2695 1135 71       		.byte	0x71
 2696 1136 00       		.sleb128 0
 2697 1137 00       		.byte	0
 2698 1138 27       		.uleb128 0x27
 2699 1139 88000000 		.4byte	.LVL8
 2700 113d B0110000 		.4byte	0x11b0
 2701 1141 52110000 		.4byte	0x1152
 2702 1145 28       		.uleb128 0x28
 2703 1146 01       		.uleb128 0x1
 2704 1147 50       		.byte	0x50
 2705 1148 02       		.uleb128 0x2
 2706 1149 70       		.byte	0x70
 2707 114a 00       		.sleb128 0
 2708 114b 28       		.uleb128 0x28
 2709 114c 01       		.uleb128 0x1
 2710 114d 51       		.byte	0x51
 2711 114e 02       		.uleb128 0x2
 2712 114f 71       		.byte	0x71
 2713 1150 00       		.sleb128 0
 2714 1151 00       		.byte	0
 2715 1152 27       		.uleb128 0x27
 2716 1153 94000000 		.4byte	.LVL9
 2717 1157 B0110000 		.4byte	0x11b0
 2718 115b 6C110000 		.4byte	0x116c
 2719 115f 28       		.uleb128 0x28
 2720 1160 01       		.uleb128 0x1
 2721 1161 50       		.byte	0x50
 2722 1162 02       		.uleb128 0x2
 2723 1163 70       		.byte	0x70
 2724 1164 00       		.sleb128 0
 2725 1165 28       		.uleb128 0x28
 2726 1166 01       		.uleb128 0x1
 2727 1167 51       		.byte	0x51
 2728 1168 02       		.uleb128 0x2
 2729 1169 71       		.byte	0x71
 2730 116a 00       		.sleb128 0
 2731 116b 00       		.byte	0
 2732 116c 27       		.uleb128 0x27
 2733 116d A0000000 		.4byte	.LVL10
 2734 1171 B0110000 		.4byte	0x11b0
 2735 1175 86110000 		.4byte	0x1186
 2736 1179 28       		.uleb128 0x28
ARM GAS  /tmp/ccwzYijT.s 			page 49


 2737 117a 01       		.uleb128 0x1
 2738 117b 50       		.byte	0x50
 2739 117c 02       		.uleb128 0x2
 2740 117d 70       		.byte	0x70
 2741 117e 00       		.sleb128 0
 2742 117f 28       		.uleb128 0x28
 2743 1180 01       		.uleb128 0x1
 2744 1181 51       		.byte	0x51
 2745 1182 02       		.uleb128 0x2
 2746 1183 71       		.byte	0x71
 2747 1184 00       		.sleb128 0
 2748 1185 00       		.byte	0
 2749 1186 29       		.uleb128 0x29
 2750 1187 AC000000 		.4byte	.LVL11
 2751 118b B0110000 		.4byte	0x11b0
 2752 118f 28       		.uleb128 0x28
 2753 1190 01       		.uleb128 0x1
 2754 1191 50       		.byte	0x50
 2755 1192 02       		.uleb128 0x2
 2756 1193 70       		.byte	0x70
 2757 1194 00       		.sleb128 0
 2758 1195 28       		.uleb128 0x28
 2759 1196 01       		.uleb128 0x1
 2760 1197 51       		.byte	0x51
 2761 1198 02       		.uleb128 0x2
 2762 1199 71       		.byte	0x71
 2763 119a 00       		.sleb128 0
 2764 119b 00       		.byte	0
 2765 119c 00       		.byte	0
 2766 119d 25       		.uleb128 0x25
 2767 119e B4000000 		.4byte	.LVL12
 2768 11a2 33120000 		.4byte	0x1233
 2769 11a6 00       		.byte	0
 2770 11a7 2A       		.uleb128 0x2a
 2771 11a8 CC080000 		.4byte	.LASF228
 2772 11ac 01       		.byte	0x1
 2773 11ad A9       		.byte	0xa9
 2774 11ae 0D       		.byte	0xd
 2775 11af 01       		.byte	0x1
 2776 11b0 2B       		.uleb128 0x2b
 2777 11b1 2D010000 		.4byte	.LASF229
 2778 11b5 01       		.byte	0x1
 2779 11b6 9E       		.byte	0x9e
 2780 11b7 0D       		.byte	0xd
 2781 11b8 00000000 		.4byte	.LFB334
 2782 11bc 1E000000 		.4byte	.LFE334-.LFB334
 2783 11c0 01       		.uleb128 0x1
 2784 11c1 9C       		.byte	0x9c
 2785 11c2 E3110000 		.4byte	0x11e3
 2786 11c6 2C       		.uleb128 0x2c
 2787 11c7 9C070000 		.4byte	.LASF214
 2788 11cb 01       		.byte	0x1
 2789 11cc 9E       		.byte	0x9e
 2790 11cd 25       		.byte	0x25
 2791 11ce 170C0000 		.4byte	0xc17
 2792 11d2 01       		.uleb128 0x1
 2793 11d3 50       		.byte	0x50
ARM GAS  /tmp/ccwzYijT.s 			page 50


 2794 11d4 2C       		.uleb128 0x2c
 2795 11d5 53060000 		.4byte	.LASF167
 2796 11d9 01       		.byte	0x1
 2797 11da 9E       		.byte	0x9e
 2798 11db 40       		.byte	0x40
 2799 11dc E3110000 		.4byte	0x11e3
 2800 11e0 01       		.uleb128 0x1
 2801 11e1 51       		.byte	0x51
 2802 11e2 00       		.byte	0
 2803 11e3 0C       		.uleb128 0xc
 2804 11e4 04       		.byte	0x4
 2805 11e5 CC0E0000 		.4byte	0xecc
 2806 11e9 2D       		.uleb128 0x2d
 2807 11ea 87020000 		.4byte	.LASF215
 2808 11ee 87020000 		.4byte	.LASF215
 2809 11f2 13       		.byte	0x13
 2810 11f3 0301     		.2byte	0x103
 2811 11f5 08       		.byte	0x8
 2812 11f6 2D       		.uleb128 0x2d
 2813 11f7 59040000 		.4byte	.LASF216
 2814 11fb 59040000 		.4byte	.LASF216
 2815 11ff 14       		.byte	0x14
 2816 1200 1D01     		.2byte	0x11d
 2817 1202 08       		.byte	0x8
 2818 1203 2E       		.uleb128 0x2e
 2819 1204 D9010000 		.4byte	.LASF217
 2820 1208 D9010000 		.4byte	.LASF217
 2821 120c 15       		.byte	0x15
 2822 120d 1A       		.byte	0x1a
 2823 120e 06       		.byte	0x6
 2824 120f 2E       		.uleb128 0x2e
 2825 1210 3E070000 		.4byte	.LASF218
 2826 1214 3E070000 		.4byte	.LASF218
 2827 1218 15       		.byte	0x15
 2828 1219 1F       		.byte	0x1f
 2829 121a 06       		.byte	0x6
 2830 121b 2E       		.uleb128 0x2e
 2831 121c 90080000 		.4byte	.LASF219
 2832 1220 90080000 		.4byte	.LASF219
 2833 1224 16       		.byte	0x16
 2834 1225 4B       		.byte	0x4b
 2835 1226 06       		.byte	0x6
 2836 1227 2E       		.uleb128 0x2e
 2837 1228 A8060000 		.4byte	.LASF220
 2838 122c A8060000 		.4byte	.LASF220
 2839 1230 17       		.byte	0x17
 2840 1231 32       		.byte	0x32
 2841 1232 06       		.byte	0x6
 2842 1233 2D       		.uleb128 0x2d
 2843 1234 A7090000 		.4byte	.LASF221
 2844 1238 A7090000 		.4byte	.LASF221
 2845 123c 18       		.byte	0x18
 2846 123d 5D08     		.2byte	0x85d
 2847 123f 08       		.byte	0x8
 2848 1240 00       		.byte	0
 2849              		.section	.debug_abbrev,"",%progbits
 2850              	.Ldebug_abbrev0:
ARM GAS  /tmp/ccwzYijT.s 			page 51


 2851 0000 01       		.uleb128 0x1
 2852 0001 11       		.uleb128 0x11
 2853 0002 01       		.byte	0x1
 2854 0003 25       		.uleb128 0x25
 2855 0004 0E       		.uleb128 0xe
 2856 0005 13       		.uleb128 0x13
 2857 0006 0B       		.uleb128 0xb
 2858 0007 03       		.uleb128 0x3
 2859 0008 0E       		.uleb128 0xe
 2860 0009 1B       		.uleb128 0x1b
 2861 000a 0E       		.uleb128 0xe
 2862 000b 55       		.uleb128 0x55
 2863 000c 17       		.uleb128 0x17
 2864 000d 11       		.uleb128 0x11
 2865 000e 01       		.uleb128 0x1
 2866 000f 10       		.uleb128 0x10
 2867 0010 17       		.uleb128 0x17
 2868 0011 00       		.byte	0
 2869 0012 00       		.byte	0
 2870 0013 02       		.uleb128 0x2
 2871 0014 24       		.uleb128 0x24
 2872 0015 00       		.byte	0
 2873 0016 0B       		.uleb128 0xb
 2874 0017 0B       		.uleb128 0xb
 2875 0018 3E       		.uleb128 0x3e
 2876 0019 0B       		.uleb128 0xb
 2877 001a 03       		.uleb128 0x3
 2878 001b 08       		.uleb128 0x8
 2879 001c 00       		.byte	0
 2880 001d 00       		.byte	0
 2881 001e 03       		.uleb128 0x3
 2882 001f 16       		.uleb128 0x16
 2883 0020 00       		.byte	0
 2884 0021 03       		.uleb128 0x3
 2885 0022 0E       		.uleb128 0xe
 2886 0023 3A       		.uleb128 0x3a
 2887 0024 0B       		.uleb128 0xb
 2888 0025 3B       		.uleb128 0x3b
 2889 0026 0B       		.uleb128 0xb
 2890 0027 39       		.uleb128 0x39
 2891 0028 0B       		.uleb128 0xb
 2892 0029 49       		.uleb128 0x49
 2893 002a 13       		.uleb128 0x13
 2894 002b 00       		.byte	0
 2895 002c 00       		.byte	0
 2896 002d 04       		.uleb128 0x4
 2897 002e 24       		.uleb128 0x24
 2898 002f 00       		.byte	0
 2899 0030 0B       		.uleb128 0xb
 2900 0031 0B       		.uleb128 0xb
 2901 0032 3E       		.uleb128 0x3e
 2902 0033 0B       		.uleb128 0xb
 2903 0034 03       		.uleb128 0x3
 2904 0035 0E       		.uleb128 0xe
 2905 0036 00       		.byte	0
 2906 0037 00       		.byte	0
 2907 0038 05       		.uleb128 0x5
ARM GAS  /tmp/ccwzYijT.s 			page 52


 2908 0039 26       		.uleb128 0x26
 2909 003a 00       		.byte	0
 2910 003b 49       		.uleb128 0x49
 2911 003c 13       		.uleb128 0x13
 2912 003d 00       		.byte	0
 2913 003e 00       		.byte	0
 2914 003f 06       		.uleb128 0x6
 2915 0040 35       		.uleb128 0x35
 2916 0041 00       		.byte	0
 2917 0042 49       		.uleb128 0x49
 2918 0043 13       		.uleb128 0x13
 2919 0044 00       		.byte	0
 2920 0045 00       		.byte	0
 2921 0046 07       		.uleb128 0x7
 2922 0047 13       		.uleb128 0x13
 2923 0048 01       		.byte	0x1
 2924 0049 03       		.uleb128 0x3
 2925 004a 0E       		.uleb128 0xe
 2926 004b 0B       		.uleb128 0xb
 2927 004c 0B       		.uleb128 0xb
 2928 004d 3A       		.uleb128 0x3a
 2929 004e 0B       		.uleb128 0xb
 2930 004f 3B       		.uleb128 0x3b
 2931 0050 0B       		.uleb128 0xb
 2932 0051 39       		.uleb128 0x39
 2933 0052 0B       		.uleb128 0xb
 2934 0053 01       		.uleb128 0x1
 2935 0054 13       		.uleb128 0x13
 2936 0055 00       		.byte	0
 2937 0056 00       		.byte	0
 2938 0057 08       		.uleb128 0x8
 2939 0058 0D       		.uleb128 0xd
 2940 0059 00       		.byte	0
 2941 005a 03       		.uleb128 0x3
 2942 005b 0E       		.uleb128 0xe
 2943 005c 3A       		.uleb128 0x3a
 2944 005d 0B       		.uleb128 0xb
 2945 005e 3B       		.uleb128 0x3b
 2946 005f 0B       		.uleb128 0xb
 2947 0060 39       		.uleb128 0x39
 2948 0061 0B       		.uleb128 0xb
 2949 0062 49       		.uleb128 0x49
 2950 0063 13       		.uleb128 0x13
 2951 0064 38       		.uleb128 0x38
 2952 0065 0B       		.uleb128 0xb
 2953 0066 00       		.byte	0
 2954 0067 00       		.byte	0
 2955 0068 09       		.uleb128 0x9
 2956 0069 0D       		.uleb128 0xd
 2957 006a 00       		.byte	0
 2958 006b 03       		.uleb128 0x3
 2959 006c 08       		.uleb128 0x8
 2960 006d 3A       		.uleb128 0x3a
 2961 006e 0B       		.uleb128 0xb
 2962 006f 3B       		.uleb128 0x3b
 2963 0070 0B       		.uleb128 0xb
 2964 0071 39       		.uleb128 0x39
ARM GAS  /tmp/ccwzYijT.s 			page 53


 2965 0072 0B       		.uleb128 0xb
 2966 0073 49       		.uleb128 0x49
 2967 0074 13       		.uleb128 0x13
 2968 0075 38       		.uleb128 0x38
 2969 0076 0B       		.uleb128 0xb
 2970 0077 00       		.byte	0
 2971 0078 00       		.byte	0
 2972 0079 0A       		.uleb128 0xa
 2973 007a 0D       		.uleb128 0xd
 2974 007b 00       		.byte	0
 2975 007c 03       		.uleb128 0x3
 2976 007d 08       		.uleb128 0x8
 2977 007e 3A       		.uleb128 0x3a
 2978 007f 0B       		.uleb128 0xb
 2979 0080 3B       		.uleb128 0x3b
 2980 0081 05       		.uleb128 0x5
 2981 0082 39       		.uleb128 0x39
 2982 0083 0B       		.uleb128 0xb
 2983 0084 49       		.uleb128 0x49
 2984 0085 13       		.uleb128 0x13
 2985 0086 38       		.uleb128 0x38
 2986 0087 0B       		.uleb128 0xb
 2987 0088 00       		.byte	0
 2988 0089 00       		.byte	0
 2989 008a 0B       		.uleb128 0xb
 2990 008b 0D       		.uleb128 0xd
 2991 008c 00       		.byte	0
 2992 008d 03       		.uleb128 0x3
 2993 008e 0E       		.uleb128 0xe
 2994 008f 3A       		.uleb128 0x3a
 2995 0090 0B       		.uleb128 0xb
 2996 0091 3B       		.uleb128 0x3b
 2997 0092 05       		.uleb128 0x5
 2998 0093 39       		.uleb128 0x39
 2999 0094 0B       		.uleb128 0xb
 3000 0095 49       		.uleb128 0x49
 3001 0096 13       		.uleb128 0x13
 3002 0097 38       		.uleb128 0x38
 3003 0098 0B       		.uleb128 0xb
 3004 0099 00       		.byte	0
 3005 009a 00       		.byte	0
 3006 009b 0C       		.uleb128 0xc
 3007 009c 0F       		.uleb128 0xf
 3008 009d 00       		.byte	0
 3009 009e 0B       		.uleb128 0xb
 3010 009f 0B       		.uleb128 0xb
 3011 00a0 49       		.uleb128 0x49
 3012 00a1 13       		.uleb128 0x13
 3013 00a2 00       		.byte	0
 3014 00a3 00       		.byte	0
 3015 00a4 0D       		.uleb128 0xd
 3016 00a5 0F       		.uleb128 0xf
 3017 00a6 00       		.byte	0
 3018 00a7 0B       		.uleb128 0xb
 3019 00a8 0B       		.uleb128 0xb
 3020 00a9 00       		.byte	0
 3021 00aa 00       		.byte	0
ARM GAS  /tmp/ccwzYijT.s 			page 54


 3022 00ab 0E       		.uleb128 0xe
 3023 00ac 01       		.uleb128 0x1
 3024 00ad 01       		.byte	0x1
 3025 00ae 49       		.uleb128 0x49
 3026 00af 13       		.uleb128 0x13
 3027 00b0 01       		.uleb128 0x1
 3028 00b1 13       		.uleb128 0x13
 3029 00b2 00       		.byte	0
 3030 00b3 00       		.byte	0
 3031 00b4 0F       		.uleb128 0xf
 3032 00b5 21       		.uleb128 0x21
 3033 00b6 00       		.byte	0
 3034 00b7 49       		.uleb128 0x49
 3035 00b8 13       		.uleb128 0x13
 3036 00b9 2F       		.uleb128 0x2f
 3037 00ba 0B       		.uleb128 0xb
 3038 00bb 00       		.byte	0
 3039 00bc 00       		.byte	0
 3040 00bd 10       		.uleb128 0x10
 3041 00be 13       		.uleb128 0x13
 3042 00bf 01       		.byte	0x1
 3043 00c0 0B       		.uleb128 0xb
 3044 00c1 0B       		.uleb128 0xb
 3045 00c2 3A       		.uleb128 0x3a
 3046 00c3 0B       		.uleb128 0xb
 3047 00c4 3B       		.uleb128 0x3b
 3048 00c5 05       		.uleb128 0x5
 3049 00c6 39       		.uleb128 0x39
 3050 00c7 0B       		.uleb128 0xb
 3051 00c8 01       		.uleb128 0x1
 3052 00c9 13       		.uleb128 0x13
 3053 00ca 00       		.byte	0
 3054 00cb 00       		.byte	0
 3055 00cc 11       		.uleb128 0x11
 3056 00cd 16       		.uleb128 0x16
 3057 00ce 00       		.byte	0
 3058 00cf 03       		.uleb128 0x3
 3059 00d0 0E       		.uleb128 0xe
 3060 00d1 3A       		.uleb128 0x3a
 3061 00d2 0B       		.uleb128 0xb
 3062 00d3 3B       		.uleb128 0x3b
 3063 00d4 05       		.uleb128 0x5
 3064 00d5 39       		.uleb128 0x39
 3065 00d6 0B       		.uleb128 0xb
 3066 00d7 49       		.uleb128 0x49
 3067 00d8 13       		.uleb128 0x13
 3068 00d9 00       		.byte	0
 3069 00da 00       		.byte	0
 3070 00db 12       		.uleb128 0x12
 3071 00dc 13       		.uleb128 0x13
 3072 00dd 01       		.byte	0x1
 3073 00de 03       		.uleb128 0x3
 3074 00df 0E       		.uleb128 0xe
 3075 00e0 0B       		.uleb128 0xb
 3076 00e1 0B       		.uleb128 0xb
 3077 00e2 3A       		.uleb128 0x3a
 3078 00e3 0B       		.uleb128 0xb
ARM GAS  /tmp/ccwzYijT.s 			page 55


 3079 00e4 3B       		.uleb128 0x3b
 3080 00e5 05       		.uleb128 0x5
 3081 00e6 39       		.uleb128 0x39
 3082 00e7 0B       		.uleb128 0xb
 3083 00e8 01       		.uleb128 0x1
 3084 00e9 13       		.uleb128 0x13
 3085 00ea 00       		.byte	0
 3086 00eb 00       		.byte	0
 3087 00ec 13       		.uleb128 0x13
 3088 00ed 13       		.uleb128 0x13
 3089 00ee 01       		.byte	0x1
 3090 00ef 0B       		.uleb128 0xb
 3091 00f0 0B       		.uleb128 0xb
 3092 00f1 3A       		.uleb128 0x3a
 3093 00f2 0B       		.uleb128 0xb
 3094 00f3 3B       		.uleb128 0x3b
 3095 00f4 0B       		.uleb128 0xb
 3096 00f5 39       		.uleb128 0x39
 3097 00f6 0B       		.uleb128 0xb
 3098 00f7 01       		.uleb128 0x1
 3099 00f8 13       		.uleb128 0x13
 3100 00f9 00       		.byte	0
 3101 00fa 00       		.byte	0
 3102 00fb 14       		.uleb128 0x14
 3103 00fc 17       		.uleb128 0x17
 3104 00fd 01       		.byte	0x1
 3105 00fe 0B       		.uleb128 0xb
 3106 00ff 0B       		.uleb128 0xb
 3107 0100 3A       		.uleb128 0x3a
 3108 0101 0B       		.uleb128 0xb
 3109 0102 3B       		.uleb128 0x3b
 3110 0103 0B       		.uleb128 0xb
 3111 0104 39       		.uleb128 0x39
 3112 0105 0B       		.uleb128 0xb
 3113 0106 01       		.uleb128 0x1
 3114 0107 13       		.uleb128 0x13
 3115 0108 00       		.byte	0
 3116 0109 00       		.byte	0
 3117 010a 15       		.uleb128 0x15
 3118 010b 0D       		.uleb128 0xd
 3119 010c 00       		.byte	0
 3120 010d 03       		.uleb128 0x3
 3121 010e 0E       		.uleb128 0xe
 3122 010f 3A       		.uleb128 0x3a
 3123 0110 0B       		.uleb128 0xb
 3124 0111 3B       		.uleb128 0x3b
 3125 0112 0B       		.uleb128 0xb
 3126 0113 39       		.uleb128 0x39
 3127 0114 0B       		.uleb128 0xb
 3128 0115 49       		.uleb128 0x49
 3129 0116 13       		.uleb128 0x13
 3130 0117 00       		.byte	0
 3131 0118 00       		.byte	0
 3132 0119 16       		.uleb128 0x16
 3133 011a 0D       		.uleb128 0xd
 3134 011b 00       		.byte	0
 3135 011c 03       		.uleb128 0x3
ARM GAS  /tmp/ccwzYijT.s 			page 56


 3136 011d 0E       		.uleb128 0xe
 3137 011e 3A       		.uleb128 0x3a
 3138 011f 0B       		.uleb128 0xb
 3139 0120 3B       		.uleb128 0x3b
 3140 0121 05       		.uleb128 0x5
 3141 0122 39       		.uleb128 0x39
 3142 0123 0B       		.uleb128 0xb
 3143 0124 49       		.uleb128 0x49
 3144 0125 13       		.uleb128 0x13
 3145 0126 00       		.byte	0
 3146 0127 00       		.byte	0
 3147 0128 17       		.uleb128 0x17
 3148 0129 04       		.uleb128 0x4
 3149 012a 01       		.byte	0x1
 3150 012b 3E       		.uleb128 0x3e
 3151 012c 0B       		.uleb128 0xb
 3152 012d 0B       		.uleb128 0xb
 3153 012e 0B       		.uleb128 0xb
 3154 012f 49       		.uleb128 0x49
 3155 0130 13       		.uleb128 0x13
 3156 0131 3A       		.uleb128 0x3a
 3157 0132 0B       		.uleb128 0xb
 3158 0133 3B       		.uleb128 0x3b
 3159 0134 0B       		.uleb128 0xb
 3160 0135 39       		.uleb128 0x39
 3161 0136 0B       		.uleb128 0xb
 3162 0137 01       		.uleb128 0x1
 3163 0138 13       		.uleb128 0x13
 3164 0139 00       		.byte	0
 3165 013a 00       		.byte	0
 3166 013b 18       		.uleb128 0x18
 3167 013c 28       		.uleb128 0x28
 3168 013d 00       		.byte	0
 3169 013e 03       		.uleb128 0x3
 3170 013f 0E       		.uleb128 0xe
 3171 0140 1C       		.uleb128 0x1c
 3172 0141 0B       		.uleb128 0xb
 3173 0142 00       		.byte	0
 3174 0143 00       		.byte	0
 3175 0144 19       		.uleb128 0x19
 3176 0145 15       		.uleb128 0x15
 3177 0146 01       		.byte	0x1
 3178 0147 27       		.uleb128 0x27
 3179 0148 19       		.uleb128 0x19
 3180 0149 49       		.uleb128 0x49
 3181 014a 13       		.uleb128 0x13
 3182 014b 01       		.uleb128 0x1
 3183 014c 13       		.uleb128 0x13
 3184 014d 00       		.byte	0
 3185 014e 00       		.byte	0
 3186 014f 1A       		.uleb128 0x1a
 3187 0150 05       		.uleb128 0x5
 3188 0151 00       		.byte	0
 3189 0152 49       		.uleb128 0x49
 3190 0153 13       		.uleb128 0x13
 3191 0154 00       		.byte	0
 3192 0155 00       		.byte	0
ARM GAS  /tmp/ccwzYijT.s 			page 57


 3193 0156 1B       		.uleb128 0x1b
 3194 0157 0D       		.uleb128 0xd
 3195 0158 00       		.byte	0
 3196 0159 03       		.uleb128 0x3
 3197 015a 08       		.uleb128 0x8
 3198 015b 3A       		.uleb128 0x3a
 3199 015c 0B       		.uleb128 0xb
 3200 015d 3B       		.uleb128 0x3b
 3201 015e 0B       		.uleb128 0xb
 3202 015f 39       		.uleb128 0x39
 3203 0160 0B       		.uleb128 0xb
 3204 0161 49       		.uleb128 0x49
 3205 0162 13       		.uleb128 0x13
 3206 0163 00       		.byte	0
 3207 0164 00       		.byte	0
 3208 0165 1C       		.uleb128 0x1c
 3209 0166 13       		.uleb128 0x13
 3210 0167 00       		.byte	0
 3211 0168 03       		.uleb128 0x3
 3212 0169 0E       		.uleb128 0xe
 3213 016a 3C       		.uleb128 0x3c
 3214 016b 19       		.uleb128 0x19
 3215 016c 00       		.byte	0
 3216 016d 00       		.byte	0
 3217 016e 1D       		.uleb128 0x1d
 3218 016f 13       		.uleb128 0x13
 3219 0170 01       		.byte	0x1
 3220 0171 0B       		.uleb128 0xb
 3221 0172 05       		.uleb128 0x5
 3222 0173 3A       		.uleb128 0x3a
 3223 0174 0B       		.uleb128 0xb
 3224 0175 3B       		.uleb128 0x3b
 3225 0176 0B       		.uleb128 0xb
 3226 0177 39       		.uleb128 0x39
 3227 0178 0B       		.uleb128 0xb
 3228 0179 01       		.uleb128 0x1
 3229 017a 13       		.uleb128 0x13
 3230 017b 00       		.byte	0
 3231 017c 00       		.byte	0
 3232 017d 1E       		.uleb128 0x1e
 3233 017e 0D       		.uleb128 0xd
 3234 017f 00       		.byte	0
 3235 0180 03       		.uleb128 0x3
 3236 0181 0E       		.uleb128 0xe
 3237 0182 3A       		.uleb128 0x3a
 3238 0183 0B       		.uleb128 0xb
 3239 0184 3B       		.uleb128 0x3b
 3240 0185 0B       		.uleb128 0xb
 3241 0186 39       		.uleb128 0x39
 3242 0187 0B       		.uleb128 0xb
 3243 0188 49       		.uleb128 0x49
 3244 0189 13       		.uleb128 0x13
 3245 018a 38       		.uleb128 0x38
 3246 018b 05       		.uleb128 0x5
 3247 018c 00       		.byte	0
 3248 018d 00       		.byte	0
 3249 018e 1F       		.uleb128 0x1f
ARM GAS  /tmp/ccwzYijT.s 			page 58


 3250 018f 34       		.uleb128 0x34
 3251 0190 00       		.byte	0
 3252 0191 03       		.uleb128 0x3
 3253 0192 0E       		.uleb128 0xe
 3254 0193 3A       		.uleb128 0x3a
 3255 0194 0B       		.uleb128 0xb
 3256 0195 3B       		.uleb128 0x3b
 3257 0196 0B       		.uleb128 0xb
 3258 0197 39       		.uleb128 0x39
 3259 0198 0B       		.uleb128 0xb
 3260 0199 49       		.uleb128 0x49
 3261 019a 13       		.uleb128 0x13
 3262 019b 02       		.uleb128 0x2
 3263 019c 18       		.uleb128 0x18
 3264 019d 00       		.byte	0
 3265 019e 00       		.byte	0
 3266 019f 20       		.uleb128 0x20
 3267 01a0 2E       		.uleb128 0x2e
 3268 01a1 00       		.byte	0
 3269 01a2 3F       		.uleb128 0x3f
 3270 01a3 19       		.uleb128 0x19
 3271 01a4 03       		.uleb128 0x3
 3272 01a5 0E       		.uleb128 0xe
 3273 01a6 3A       		.uleb128 0x3a
 3274 01a7 0B       		.uleb128 0xb
 3275 01a8 3B       		.uleb128 0x3b
 3276 01a9 05       		.uleb128 0x5
 3277 01aa 39       		.uleb128 0x39
 3278 01ab 0B       		.uleb128 0xb
 3279 01ac 27       		.uleb128 0x27
 3280 01ad 19       		.uleb128 0x19
 3281 01ae 11       		.uleb128 0x11
 3282 01af 01       		.uleb128 0x1
 3283 01b0 12       		.uleb128 0x12
 3284 01b1 06       		.uleb128 0x6
 3285 01b2 40       		.uleb128 0x40
 3286 01b3 18       		.uleb128 0x18
 3287 01b4 9742     		.uleb128 0x2117
 3288 01b6 19       		.uleb128 0x19
 3289 01b7 00       		.byte	0
 3290 01b8 00       		.byte	0
 3291 01b9 21       		.uleb128 0x21
 3292 01ba 2E       		.uleb128 0x2e
 3293 01bb 01       		.byte	0x1
 3294 01bc 3F       		.uleb128 0x3f
 3295 01bd 19       		.uleb128 0x19
 3296 01be 03       		.uleb128 0x3
 3297 01bf 0E       		.uleb128 0xe
 3298 01c0 3A       		.uleb128 0x3a
 3299 01c1 0B       		.uleb128 0xb
 3300 01c2 3B       		.uleb128 0x3b
 3301 01c3 05       		.uleb128 0x5
 3302 01c4 39       		.uleb128 0x39
 3303 01c5 0B       		.uleb128 0xb
 3304 01c6 27       		.uleb128 0x27
 3305 01c7 19       		.uleb128 0x19
 3306 01c8 49       		.uleb128 0x49
ARM GAS  /tmp/ccwzYijT.s 			page 59


 3307 01c9 13       		.uleb128 0x13
 3308 01ca 11       		.uleb128 0x11
 3309 01cb 01       		.uleb128 0x1
 3310 01cc 12       		.uleb128 0x12
 3311 01cd 06       		.uleb128 0x6
 3312 01ce 40       		.uleb128 0x40
 3313 01cf 18       		.uleb128 0x18
 3314 01d0 9742     		.uleb128 0x2117
 3315 01d2 19       		.uleb128 0x19
 3316 01d3 01       		.uleb128 0x1
 3317 01d4 13       		.uleb128 0x13
 3318 01d5 00       		.byte	0
 3319 01d6 00       		.byte	0
 3320 01d7 22       		.uleb128 0x22
 3321 01d8 05       		.uleb128 0x5
 3322 01d9 00       		.byte	0
 3323 01da 03       		.uleb128 0x3
 3324 01db 0E       		.uleb128 0xe
 3325 01dc 3A       		.uleb128 0x3a
 3326 01dd 0B       		.uleb128 0xb
 3327 01de 3B       		.uleb128 0x3b
 3328 01df 05       		.uleb128 0x5
 3329 01e0 39       		.uleb128 0x39
 3330 01e1 0B       		.uleb128 0xb
 3331 01e2 49       		.uleb128 0x49
 3332 01e3 13       		.uleb128 0x13
 3333 01e4 02       		.uleb128 0x2
 3334 01e5 17       		.uleb128 0x17
 3335 01e6 B742     		.uleb128 0x2137
 3336 01e8 17       		.uleb128 0x17
 3337 01e9 00       		.byte	0
 3338 01ea 00       		.byte	0
 3339 01eb 23       		.uleb128 0x23
 3340 01ec 2E       		.uleb128 0x2e
 3341 01ed 01       		.byte	0x1
 3342 01ee 3F       		.uleb128 0x3f
 3343 01ef 19       		.uleb128 0x19
 3344 01f0 03       		.uleb128 0x3
 3345 01f1 0E       		.uleb128 0xe
 3346 01f2 3A       		.uleb128 0x3a
 3347 01f3 0B       		.uleb128 0xb
 3348 01f4 3B       		.uleb128 0x3b
 3349 01f5 0B       		.uleb128 0xb
 3350 01f6 39       		.uleb128 0x39
 3351 01f7 0B       		.uleb128 0xb
 3352 01f8 27       		.uleb128 0x27
 3353 01f9 19       		.uleb128 0x19
 3354 01fa 11       		.uleb128 0x11
 3355 01fb 01       		.uleb128 0x1
 3356 01fc 12       		.uleb128 0x12
 3357 01fd 06       		.uleb128 0x6
 3358 01fe 40       		.uleb128 0x40
 3359 01ff 18       		.uleb128 0x18
 3360 0200 9742     		.uleb128 0x2117
 3361 0202 19       		.uleb128 0x19
 3362 0203 01       		.uleb128 0x1
 3363 0204 13       		.uleb128 0x13
ARM GAS  /tmp/ccwzYijT.s 			page 60


 3364 0205 00       		.byte	0
 3365 0206 00       		.byte	0
 3366 0207 24       		.uleb128 0x24
 3367 0208 898201   		.uleb128 0x4109
 3368 020b 00       		.byte	0
 3369 020c 11       		.uleb128 0x11
 3370 020d 01       		.uleb128 0x1
 3371 020e 31       		.uleb128 0x31
 3372 020f 13       		.uleb128 0x13
 3373 0210 00       		.byte	0
 3374 0211 00       		.byte	0
 3375 0212 25       		.uleb128 0x25
 3376 0213 898201   		.uleb128 0x4109
 3377 0216 00       		.byte	0
 3378 0217 11       		.uleb128 0x11
 3379 0218 01       		.uleb128 0x1
 3380 0219 9542     		.uleb128 0x2115
 3381 021b 19       		.uleb128 0x19
 3382 021c 31       		.uleb128 0x31
 3383 021d 13       		.uleb128 0x13
 3384 021e 00       		.byte	0
 3385 021f 00       		.byte	0
 3386 0220 26       		.uleb128 0x26
 3387 0221 1D       		.uleb128 0x1d
 3388 0222 01       		.byte	0x1
 3389 0223 31       		.uleb128 0x31
 3390 0224 13       		.uleb128 0x13
 3391 0225 52       		.uleb128 0x52
 3392 0226 01       		.uleb128 0x1
 3393 0227 B842     		.uleb128 0x2138
 3394 0229 0B       		.uleb128 0xb
 3395 022a 55       		.uleb128 0x55
 3396 022b 17       		.uleb128 0x17
 3397 022c 58       		.uleb128 0x58
 3398 022d 0B       		.uleb128 0xb
 3399 022e 59       		.uleb128 0x59
 3400 022f 0B       		.uleb128 0xb
 3401 0230 57       		.uleb128 0x57
 3402 0231 0B       		.uleb128 0xb
 3403 0232 01       		.uleb128 0x1
 3404 0233 13       		.uleb128 0x13
 3405 0234 00       		.byte	0
 3406 0235 00       		.byte	0
 3407 0236 27       		.uleb128 0x27
 3408 0237 898201   		.uleb128 0x4109
 3409 023a 01       		.byte	0x1
 3410 023b 11       		.uleb128 0x11
 3411 023c 01       		.uleb128 0x1
 3412 023d 31       		.uleb128 0x31
 3413 023e 13       		.uleb128 0x13
 3414 023f 01       		.uleb128 0x1
 3415 0240 13       		.uleb128 0x13
 3416 0241 00       		.byte	0
 3417 0242 00       		.byte	0
 3418 0243 28       		.uleb128 0x28
 3419 0244 8A8201   		.uleb128 0x410a
 3420 0247 00       		.byte	0
ARM GAS  /tmp/ccwzYijT.s 			page 61


 3421 0248 02       		.uleb128 0x2
 3422 0249 18       		.uleb128 0x18
 3423 024a 9142     		.uleb128 0x2111
 3424 024c 18       		.uleb128 0x18
 3425 024d 00       		.byte	0
 3426 024e 00       		.byte	0
 3427 024f 29       		.uleb128 0x29
 3428 0250 898201   		.uleb128 0x4109
 3429 0253 01       		.byte	0x1
 3430 0254 11       		.uleb128 0x11
 3431 0255 01       		.uleb128 0x1
 3432 0256 31       		.uleb128 0x31
 3433 0257 13       		.uleb128 0x13
 3434 0258 00       		.byte	0
 3435 0259 00       		.byte	0
 3436 025a 2A       		.uleb128 0x2a
 3437 025b 2E       		.uleb128 0x2e
 3438 025c 00       		.byte	0
 3439 025d 03       		.uleb128 0x3
 3440 025e 0E       		.uleb128 0xe
 3441 025f 3A       		.uleb128 0x3a
 3442 0260 0B       		.uleb128 0xb
 3443 0261 3B       		.uleb128 0x3b
 3444 0262 0B       		.uleb128 0xb
 3445 0263 39       		.uleb128 0x39
 3446 0264 0B       		.uleb128 0xb
 3447 0265 27       		.uleb128 0x27
 3448 0266 19       		.uleb128 0x19
 3449 0267 20       		.uleb128 0x20
 3450 0268 0B       		.uleb128 0xb
 3451 0269 00       		.byte	0
 3452 026a 00       		.byte	0
 3453 026b 2B       		.uleb128 0x2b
 3454 026c 2E       		.uleb128 0x2e
 3455 026d 01       		.byte	0x1
 3456 026e 03       		.uleb128 0x3
 3457 026f 0E       		.uleb128 0xe
 3458 0270 3A       		.uleb128 0x3a
 3459 0271 0B       		.uleb128 0xb
 3460 0272 3B       		.uleb128 0x3b
 3461 0273 0B       		.uleb128 0xb
 3462 0274 39       		.uleb128 0x39
 3463 0275 0B       		.uleb128 0xb
 3464 0276 27       		.uleb128 0x27
 3465 0277 19       		.uleb128 0x19
 3466 0278 11       		.uleb128 0x11
 3467 0279 01       		.uleb128 0x1
 3468 027a 12       		.uleb128 0x12
 3469 027b 06       		.uleb128 0x6
 3470 027c 40       		.uleb128 0x40
 3471 027d 18       		.uleb128 0x18
 3472 027e 9742     		.uleb128 0x2117
 3473 0280 19       		.uleb128 0x19
 3474 0281 01       		.uleb128 0x1
 3475 0282 13       		.uleb128 0x13
 3476 0283 00       		.byte	0
 3477 0284 00       		.byte	0
ARM GAS  /tmp/ccwzYijT.s 			page 62


 3478 0285 2C       		.uleb128 0x2c
 3479 0286 05       		.uleb128 0x5
 3480 0287 00       		.byte	0
 3481 0288 03       		.uleb128 0x3
 3482 0289 0E       		.uleb128 0xe
 3483 028a 3A       		.uleb128 0x3a
 3484 028b 0B       		.uleb128 0xb
 3485 028c 3B       		.uleb128 0x3b
 3486 028d 0B       		.uleb128 0xb
 3487 028e 39       		.uleb128 0x39
 3488 028f 0B       		.uleb128 0xb
 3489 0290 49       		.uleb128 0x49
 3490 0291 13       		.uleb128 0x13
 3491 0292 02       		.uleb128 0x2
 3492 0293 18       		.uleb128 0x18
 3493 0294 00       		.byte	0
 3494 0295 00       		.byte	0
 3495 0296 2D       		.uleb128 0x2d
 3496 0297 2E       		.uleb128 0x2e
 3497 0298 00       		.byte	0
 3498 0299 3F       		.uleb128 0x3f
 3499 029a 19       		.uleb128 0x19
 3500 029b 3C       		.uleb128 0x3c
 3501 029c 19       		.uleb128 0x19
 3502 029d 6E       		.uleb128 0x6e
 3503 029e 0E       		.uleb128 0xe
 3504 029f 03       		.uleb128 0x3
 3505 02a0 0E       		.uleb128 0xe
 3506 02a1 3A       		.uleb128 0x3a
 3507 02a2 0B       		.uleb128 0xb
 3508 02a3 3B       		.uleb128 0x3b
 3509 02a4 05       		.uleb128 0x5
 3510 02a5 39       		.uleb128 0x39
 3511 02a6 0B       		.uleb128 0xb
 3512 02a7 00       		.byte	0
 3513 02a8 00       		.byte	0
 3514 02a9 2E       		.uleb128 0x2e
 3515 02aa 2E       		.uleb128 0x2e
 3516 02ab 00       		.byte	0
 3517 02ac 3F       		.uleb128 0x3f
 3518 02ad 19       		.uleb128 0x19
 3519 02ae 3C       		.uleb128 0x3c
 3520 02af 19       		.uleb128 0x19
 3521 02b0 6E       		.uleb128 0x6e
 3522 02b1 0E       		.uleb128 0xe
 3523 02b2 03       		.uleb128 0x3
 3524 02b3 0E       		.uleb128 0xe
 3525 02b4 3A       		.uleb128 0x3a
 3526 02b5 0B       		.uleb128 0xb
 3527 02b6 3B       		.uleb128 0x3b
 3528 02b7 0B       		.uleb128 0xb
 3529 02b8 39       		.uleb128 0x39
 3530 02b9 0B       		.uleb128 0xb
 3531 02ba 00       		.byte	0
 3532 02bb 00       		.byte	0
 3533 02bc 00       		.byte	0
 3534              		.section	.debug_loc,"",%progbits
ARM GAS  /tmp/ccwzYijT.s 			page 63


 3535              	.Ldebug_loc0:
 3536              	.LVUS1:
 3537 0000 00       		.uleb128 0
 3538 0001 00       		.uleb128 .LVU75
 3539 0002 00       		.uleb128 .LVU75
 3540 0003 00       		.uleb128 0
 3541              	.LLST1:
 3542 0004 00000000 		.4byte	.LVL21
 3543 0008 02000000 		.4byte	.LVL22
 3544 000c 0100     		.2byte	0x1
 3545 000e 50       		.byte	0x50
 3546 000f 02000000 		.4byte	.LVL22
 3547 0013 04000000 		.4byte	.LFE339
 3548 0017 0400     		.2byte	0x4
 3549 0019 F3       		.byte	0xf3
 3550 001a 01       		.uleb128 0x1
 3551 001b 50       		.byte	0x50
 3552 001c 9F       		.byte	0x9f
 3553 001d 00000000 		.4byte	0
 3554 0021 00000000 		.4byte	0
 3555              	.LVUS0:
 3556 0025 00       		.uleb128 0
 3557 0026 00       		.uleb128 .LVU70
 3558 0027 00       		.uleb128 .LVU70
 3559 0028 00       		.uleb128 0
 3560              	.LLST0:
 3561 0029 00000000 		.4byte	.LVL19
 3562 002d 02000000 		.4byte	.LVL20
 3563 0031 0100     		.2byte	0x1
 3564 0033 50       		.byte	0x50
 3565 0034 02000000 		.4byte	.LVL20
 3566 0038 04000000 		.4byte	.LFE338
 3567 003c 0400     		.2byte	0x4
 3568 003e F3       		.byte	0xf3
 3569 003f 01       		.uleb128 0x1
 3570 0040 50       		.byte	0x50
 3571 0041 9F       		.byte	0x9f
 3572 0042 00000000 		.4byte	0
 3573 0046 00000000 		.4byte	0
 3574              		.section	.debug_aranges,"",%progbits
 3575 0000 44000000 		.4byte	0x44
 3576 0004 0200     		.2byte	0x2
 3577 0006 00000000 		.4byte	.Ldebug_info0
 3578 000a 04       		.byte	0x4
 3579 000b 00       		.byte	0
 3580 000c 0000     		.2byte	0
 3581 000e 0000     		.2byte	0
 3582 0010 00000000 		.4byte	.LFB334
 3583 0014 1E000000 		.4byte	.LFE334-.LFB334
 3584 0018 00000000 		.4byte	.LFB336
 3585 001c C0000000 		.4byte	.LFE336-.LFB336
 3586 0020 00000000 		.4byte	.LFB337
 3587 0024 1E000000 		.4byte	.LFE337-.LFB337
 3588 0028 00000000 		.4byte	.LFB338
 3589 002c 04000000 		.4byte	.LFE338-.LFB338
 3590 0030 00000000 		.4byte	.LFB339
 3591 0034 04000000 		.4byte	.LFE339-.LFB339
ARM GAS  /tmp/ccwzYijT.s 			page 64


 3592 0038 00000000 		.4byte	.LFB340
 3593 003c 02000000 		.4byte	.LFE340-.LFB340
 3594 0040 00000000 		.4byte	0
 3595 0044 00000000 		.4byte	0
 3596              		.section	.debug_ranges,"",%progbits
 3597              	.Ldebug_ranges0:
 3598 0000 00000000 		.4byte	.LBB4
 3599 0004 00000000 		.4byte	.LBE4
 3600 0008 02000000 		.4byte	.LBB7
 3601 000c AC000000 		.4byte	.LBE7
 3602 0010 00000000 		.4byte	0
 3603 0014 00000000 		.4byte	0
 3604 0018 00000000 		.4byte	.LFB334
 3605 001c 1E000000 		.4byte	.LFE334
 3606 0020 00000000 		.4byte	.LFB336
 3607 0024 C0000000 		.4byte	.LFE336
 3608 0028 00000000 		.4byte	.LFB337
 3609 002c 1E000000 		.4byte	.LFE337
 3610 0030 00000000 		.4byte	.LFB338
 3611 0034 04000000 		.4byte	.LFE338
 3612 0038 00000000 		.4byte	.LFB339
 3613 003c 04000000 		.4byte	.LFE339
 3614 0040 00000000 		.4byte	.LFB340
 3615 0044 02000000 		.4byte	.LFE340
 3616 0048 00000000 		.4byte	0
 3617 004c 00000000 		.4byte	0
 3618              		.section	.debug_line,"",%progbits
 3619              	.Ldebug_line0:
 3620 0000 3F050000 		.section	.debug_str,"MS",%progbits,1
 3620      03000C04 
 3620      00000201 
 3620      FB0E0D00 
 3620      01010101 
 3621              	.LASF51:
 3622 0000 63685F74 		.ascii	"ch_threads_list\000"
 3622      68726561 
 3622      64735F6C 
 3622      69737400 
 3623              	.LASF199:
 3624 0010 50434461 		.ascii	"PCData\000"
 3624      746100
 3625              	.LASF36:
 3626 0017 6E616D65 		.ascii	"name\000"
 3626      00
 3627              	.LASF48:
 3628 001c 74687265 		.ascii	"thread_reference_t\000"
 3628      61645F72 
 3628      65666572 
 3628      656E6365 
 3628      5F7400
 3629              	.LASF154:
 3630 002f 42535252 		.ascii	"BSRR\000"
 3630      00
 3631              	.LASF106:
 3632 0034 72656761 		.ascii	"regarm_t\000"
 3632      726D5F74 
 3632      00
ARM GAS  /tmp/ccwzYijT.s 			page 65


 3633              	.LASF176:
 3634 003d 73637261 		.ascii	"scratchpad\000"
 3634      74636870 
 3634      616400
 3635              	.LASF81:
 3636 0048 41504232 		.ascii	"APB2LPENR\000"
 3636      4C50454E 
 3636      5200
 3637              	.LASF166:
 3638 0052 63617061 		.ascii	"capacity\000"
 3638      63697479 
 3638      00
 3639              	.LASF173:
 3640 005b 646D616D 		.ascii	"dmamode\000"
 3640      6F646500 
 3641              	.LASF87:
 3642 0063 504C4C53 		.ascii	"PLLSAICFGR\000"
 3642      41494346 
 3642      475200
 3643              	.LASF67:
 3644 006e 41504232 		.ascii	"APB2RSTR\000"
 3644      52535452 
 3644      00
 3645              	.LASF212:
 3646 0077 5F5F6C61 		.ascii	"__late_init\000"
 3646      74655F69 
 3646      6E697400 
 3647              	.LASF39:
 3648 0083 666C6167 		.ascii	"flags\000"
 3648      7300
 3649              	.LASF45:
 3650 0089 7265616C 		.ascii	"realprio\000"
 3650      7072696F 
 3650      00
 3651              	.LASF138:
 3652 0092 424C4B5F 		.ascii	"BLK_ACTIVE\000"
 3652      41435449 
 3652      564500
 3653              	.LASF185:
 3654 009d 64697363 		.ascii	"disconnect\000"
 3654      6F6E6E65 
 3654      637400
 3655              	.LASF43:
 3656 00a8 6570656E 		.ascii	"epending\000"
 3656      64696E67 
 3656      00
 3657              	.LASF0:
 3658 00b1 756E7369 		.ascii	"unsigned int\000"
 3658      676E6564 
 3658      20696E74 
 3658      00
 3659              	.LASF52:
 3660 00be 6E657874 		.ascii	"next\000"
 3660      00
 3661              	.LASF49:
 3662 00c3 74687265 		.ascii	"threads_list_t\000"
 3662      6164735F 
ARM GAS  /tmp/ccwzYijT.s 			page 66


 3662      6C697374 
 3662      5F7400
 3663              	.LASF146:
 3664 00d2 626C6B5F 		.ascii	"blk_size\000"
 3664      73697A65 
 3664      00
 3665              	.LASF113:
 3666 00db 63756D75 		.ascii	"cumulative\000"
 3666      6C617469 
 3666      766500
 3667              	.LASF83:
 3668 00e6 42444352 		.ascii	"BDCR\000"
 3668      00
 3669              	.LASF10:
 3670 00eb 5F5F696E 		.ascii	"__int32_t\000"
 3670      7433325F 
 3670      7400
 3671              	.LASF40:
 3672 00f5 72656673 		.ascii	"refs\000"
 3672      00
 3673              	.LASF60:
 3674 00fa 504C4C43 		.ascii	"PLLCFGR\000"
 3674      46475200 
 3675              	.LASF131:
 3676 0102 64756D6D 		.ascii	"dummy\000"
 3676      7900
 3677              	.LASF90:
 3678 0108 5243435F 		.ascii	"RCC_TypeDef\000"
 3678      54797065 
 3678      44656600 
 3679              	.LASF117:
 3680 0114 77746F62 		.ascii	"wtobjp\000"
 3680      6A7000
 3681              	.LASF188:
 3682 011b 73796E63 		.ascii	"sync\000"
 3682      00
 3683              	.LASF108:
 3684 0120 706F7274 		.ascii	"port_context\000"
 3684      5F636F6E 
 3684      74657874 
 3684      00
 3685              	.LASF229:
 3686 012d 6770696F 		.ascii	"gpio_init\000"
 3686      5F696E69 
 3686      7400
 3687              	.LASF56:
 3688 0137 4E445452 		.ascii	"NDTR\000"
 3688      00
 3689              	.LASF99:
 3690 013c 444C454E 		.ascii	"DLEN\000"
 3690      00
 3691              	.LASF122:
 3692 0141 65776D61 		.ascii	"ewmask\000"
 3692      736B00
 3693              	.LASF180:
 3694 0148 53444344 		.ascii	"SDCDriverVMT\000"
 3694      72697665 
ARM GAS  /tmp/ccwzYijT.s 			page 67


 3694      72564D54 
 3694      00
 3695              	.LASF55:
 3696 0155 70726576 		.ascii	"prev\000"
 3696      00
 3697              	.LASF77:
 3698 015a 41484232 		.ascii	"AHB2LPENR\000"
 3698      4C50454E 
 3698      5200
 3699              	.LASF136:
 3700 0164 424C4B5F 		.ascii	"BLK_UNINIT\000"
 3700      554E494E 
 3700      495400
 3701              	.LASF23:
 3702 016f 746D6F64 		.ascii	"tmode_t\000"
 3702      655F7400 
 3703              	.LASF19:
 3704 0177 75696E74 		.ascii	"uint32_t\000"
 3704      33325F74 
 3704      00
 3705              	.LASF211:
 3706 0180 73646370 		.ascii	"sdcp\000"
 3706      00
 3707              	.LASF119:
 3708 0185 73656E74 		.ascii	"sentmsg\000"
 3708      6D736700 
 3709              	.LASF28:
 3710 018d 6576656E 		.ascii	"eventmask_t\000"
 3710      746D6173 
 3710      6B5F7400 
 3711              	.LASF130:
 3712 0199 69666372 		.ascii	"ifcr\000"
 3712      00
 3713              	.LASF191:
 3714 019e 6F747970 		.ascii	"otyper\000"
 3714      657200
 3715              	.LASF145:
 3716 01a5 626C6B73 		.ascii	"blkstate_t\000"
 3716      74617465 
 3716      5F7400
 3717              	.LASF132:
 3718 01b0 73686966 		.ascii	"shift\000"
 3718      7400
 3719              	.LASF123:
 3720 01b6 63685F73 		.ascii	"ch_semaphore\000"
 3720      656D6170 
 3720      686F7265 
 3720      00
 3721              	.LASF69:
 3722 01c3 41484231 		.ascii	"AHB1ENR\000"
 3722      454E5200 
 3723              	.LASF26:
 3724 01cb 74707269 		.ascii	"tprio_t\000"
 3724      6F5F7400 
 3725              	.LASF85:
 3726 01d3 53534347 		.ascii	"SSCGR\000"
 3726      5200
ARM GAS  /tmp/ccwzYijT.s 			page 68


 3727              	.LASF217:
 3728 01d9 73746D33 		.ascii	"stm32_watchdog_save_reason\000"
 3728      325F7761 
 3728      74636864 
 3728      6F675F73 
 3728      6176655F 
 3729              	.LASF15:
 3730 01f4 6C6F6E67 		.ascii	"long long unsigned int\000"
 3730      206C6F6E 
 3730      6720756E 
 3730      7369676E 
 3730      65642069 
 3731              	.LASF168:
 3732 020b 63617264 		.ascii	"cardmode\000"
 3732      6D6F6465 
 3732      00
 3733              	.LASF134:
 3734 0214 76656374 		.ascii	"vector\000"
 3734      6F7200
 3735              	.LASF204:
 3736 021b 50484461 		.ascii	"PHData\000"
 3736      746100
 3737              	.LASF169:
 3738 0222 6572726F 		.ascii	"errors\000"
 3738      727300
 3739              	.LASF8:
 3740 0229 5F5F7569 		.ascii	"__uint16_t\000"
 3740      6E743136 
 3740      5F7400
 3741              	.LASF29:
 3742 0234 636E745F 		.ascii	"cnt_t\000"
 3742      7400
 3743              	.LASF150:
 3744 023a 4D4F4445 		.ascii	"MODER\000"
 3744      5200
 3745              	.LASF196:
 3746 0240 6770696F 		.ascii	"gpio_setup_t\000"
 3746      5F736574 
 3746      75705F74 
 3746      00
 3747              	.LASF157:
 3748 024d 41465248 		.ascii	"AFRH\000"
 3748      00
 3749              	.LASF111:
 3750 0252 776F7273 		.ascii	"worst\000"
 3750      7400
 3751              	.LASF158:
 3752 0258 73746D33 		.ascii	"stm32_gpio_t\000"
 3752      325F6770 
 3752      696F5F74 
 3752      00
 3753              	.LASF125:
 3754 0265 6F776E65 		.ascii	"owner\000"
 3754      7200
 3755              	.LASF64:
 3756 026b 41484233 		.ascii	"AHB3RSTR\000"
 3756      52535452 
ARM GAS  /tmp/ccwzYijT.s 			page 69


 3756      00
 3757              	.LASF102:
 3758 0274 4D41534B 		.ascii	"MASK\000"
 3758      00
 3759              	.LASF149:
 3760 0279 636C6561 		.ascii	"clear\000"
 3760      7200
 3761              	.LASF44:
 3762 027f 6D74786C 		.ascii	"mtxlist\000"
 3762      69737400 
 3763              	.LASF215:
 3764 0287 68616C49 		.ascii	"halInit\000"
 3764      6E697400 
 3765              	.LASF31:
 3766 028f 74687265 		.ascii	"thread_t\000"
 3766      61645F74 
 3766      00
 3767              	.LASF201:
 3768 0298 50454461 		.ascii	"PEData\000"
 3768      746100
 3769              	.LASF202:
 3770 029f 50464461 		.ascii	"PFData\000"
 3770      746100
 3771              	.LASF144:
 3772 02a6 424C4B5F 		.ascii	"BLK_SYNCING\000"
 3772      53594E43 
 3772      494E4700 
 3773              	.LASF4:
 3774 02b2 73697A65 		.ascii	"size_t\000"
 3774      5F7400
 3775              	.LASF115:
 3776 02b9 7264796D 		.ascii	"rdymsg\000"
 3776      736700
 3777              	.LASF207:
 3778 02c0 504B4461 		.ascii	"PKData\000"
 3778      746100
 3779              	.LASF128:
 3780 02c7 5F426F6F 		.ascii	"_Bool\000"
 3780      6C00
 3781              	.LASF198:
 3782 02cd 50424461 		.ascii	"PBData\000"
 3782      746100
 3783              	.LASF189:
 3784 02d4 6765745F 		.ascii	"get_info\000"
 3784      696E666F 
 3784      00
 3785              	.LASF124:
 3786 02dd 63685F6D 		.ascii	"ch_mutex\000"
 3786      75746578 
 3786      00
 3787              	.LASF88:
 3788 02e6 44434B43 		.ascii	"DCKCFGR1\000"
 3788      46475231 
 3788      00
 3789              	.LASF222:
 3790 02ef 474E5520 		.ascii	"GNU C17 10.2.1 20201103 (release) -mcpu=cortex-m7 -"
 3790      43313720 
ARM GAS  /tmp/ccwzYijT.s 			page 70


 3790      31302E32 
 3790      2E312032 
 3790      30323031 
 3791 0322 6D666C6F 		.ascii	"mfloat-abi=hard -mfpu=fpv4-sp-d16 -mno-thumb-interw"
 3791      61742D61 
 3791      62693D68 
 3791      61726420 
 3791      2D6D6670 
 3792 0355 6F726B20 		.ascii	"ork -mthumb -march=armv7e-m+fp -g -Os -fomit-frame-"
 3792      2D6D7468 
 3792      756D6220 
 3792      2D6D6172 
 3792      63683D61 
 3793 0388 706F696E 		.ascii	"pointer -falign-functions=16 -ffunction-sections -f"
 3793      74657220 
 3793      2D66616C 
 3793      69676E2D 
 3793      66756E63 
 3794 03bb 64617461 		.ascii	"data-sections -fno-common -fsingle-precision-consta"
 3794      2D736563 
 3794      74696F6E 
 3794      73202D66 
 3794      6E6F2D63 
 3795 03ee 6E7400   		.ascii	"nt\000"
 3796              	.LASF89:
 3797 03f1 44434B43 		.ascii	"DCKCFGR2\000"
 3797      46475232 
 3797      00
 3798              	.LASF57:
 3799 03fa 4D304152 		.ascii	"M0AR\000"
 3799      00
 3800              	.LASF71:
 3801 03ff 41484233 		.ascii	"AHB3ENR\000"
 3801      454E5200 
 3802              	.LASF153:
 3803 0407 50555044 		.ascii	"PUPDR\000"
 3803      5200
 3804              	.LASF172:
 3805 040d 77746D6F 		.ascii	"wtmo\000"
 3805      00
 3806              	.LASF66:
 3807 0412 41504231 		.ascii	"APB1RSTR\000"
 3807      52535452 
 3807      00
 3808              	.LASF33:
 3809 041b 7072696F 		.ascii	"prio\000"
 3809      00
 3810              	.LASF140:
 3811 0420 424C4B5F 		.ascii	"BLK_DISCONNECTING\000"
 3811      44495343 
 3811      4F4E4E45 
 3811      4354494E 
 3811      4700
 3812              	.LASF94:
 3813 0432 52455350 		.ascii	"RESP1\000"
 3813      3100
 3814              	.LASF95:
ARM GAS  /tmp/ccwzYijT.s 			page 71


 3815 0438 52455350 		.ascii	"RESP2\000"
 3815      3200
 3816              	.LASF96:
 3817 043e 52455350 		.ascii	"RESP3\000"
 3817      3300
 3818              	.LASF97:
 3819 0444 52455350 		.ascii	"RESP4\000"
 3819      3400
 3820              	.LASF227:
 3821 044a 626F6172 		.ascii	"boardInit\000"
 3821      64496E69 
 3821      7400
 3822              	.LASF126:
 3823 0454 63686172 		.ascii	"char\000"
 3823      00
 3824              	.LASF216:
 3825 0459 63685379 		.ascii	"chSysInit\000"
 3825      73496E69 
 3825      7400
 3826              	.LASF22:
 3827 0463 72747469 		.ascii	"rttime_t\000"
 3827      6D655F74 
 3827      00
 3828              	.LASF37:
 3829 046c 77616261 		.ascii	"wabase\000"
 3829      736500
 3830              	.LASF24:
 3831 0473 74737461 		.ascii	"tstate_t\000"
 3831      74655F74 
 3831      00
 3832              	.LASF147:
 3833 047c 626C6B5F 		.ascii	"blk_num\000"
 3833      6E756D00 
 3834              	.LASF135:
 3835 0484 73746D33 		.ascii	"stm32_dma_stream_t\000"
 3835      325F646D 
 3835      615F7374 
 3835      7265616D 
 3835      5F7400
 3836              	.LASF1:
 3837 0497 6C6F6E67 		.ascii	"long long int\000"
 3837      206C6F6E 
 3837      6720696E 
 3837      7400
 3838              	.LASF14:
 3839 04a5 5F5F7569 		.ascii	"__uint64_t\000"
 3839      6E743634 
 3839      5F7400
 3840              	.LASF224:
 3841 04b0 2F686F6D 		.ascii	"/home/mahathi/mathur407_payload2/4.0.7/build/CUAVv5"
 3841      652F6D61 
 3841      68617468 
 3841      692F6D61 
 3841      74687572 
 3842 04e3 00       		.ascii	"\000"
 3843              	.LASF16:
 3844 04e4 75696E74 		.ascii	"uint8_t\000"
ARM GAS  /tmp/ccwzYijT.s 			page 72


 3844      385F7400 
 3845              	.LASF42:
 3846 04ec 6D736771 		.ascii	"msgqueue\000"
 3846      75657565 
 3846      00
 3847              	.LASF129:
 3848 04f5 73747265 		.ascii	"stream\000"
 3848      616D00
 3849              	.LASF50:
 3850 04fc 63685F74 		.ascii	"ch_thread\000"
 3850      68726561 
 3850      6400
 3851              	.LASF114:
 3852 0506 74696D65 		.ascii	"time_measurement_t\000"
 3852      5F6D6561 
 3852      73757265 
 3852      6D656E74 
 3852      5F7400
 3853              	.LASF141:
 3854 0519 424C4B5F 		.ascii	"BLK_READY\000"
 3854      52454144 
 3854      5900
 3855              	.LASF165:
 3856 0523 53444344 		.ascii	"SDCDriver\000"
 3856      72697665 
 3856      7200
 3857              	.LASF54:
 3858 052d 63685F74 		.ascii	"ch_threads_queue\000"
 3858      68726561 
 3858      64735F71 
 3858      75657565 
 3858      00
 3859              	.LASF187:
 3860 053e 77726974 		.ascii	"write\000"
 3860      6500
 3861              	.LASF171:
 3862 0544 72746D6F 		.ascii	"rtmo\000"
 3862      00
 3863              	.LASF80:
 3864 0549 41504231 		.ascii	"APB1LPENR\000"
 3864      4C50454E 
 3864      5200
 3865              	.LASF27:
 3866 0553 6D73675F 		.ascii	"msg_t\000"
 3866      7400
 3867              	.LASF193:
 3868 0559 70757064 		.ascii	"pupdr\000"
 3868      7200
 3869              	.LASF190:
 3870 055f 6D6F6465 		.ascii	"moder\000"
 3870      7200
 3871              	.LASF226:
 3872 0565 6770696F 		.ascii	"gpio_default_config\000"
 3872      5F646566 
 3872      61756C74 
 3872      5F636F6E 
 3872      66696700 
ARM GAS  /tmp/ccwzYijT.s 			page 73


 3873              	.LASF181:
 3874 0579 696E7374 		.ascii	"instance_offset\000"
 3874      616E6365 
 3874      5F6F6666 
 3874      73657400 
 3875              	.LASF137:
 3876 0589 424C4B5F 		.ascii	"BLK_STOP\000"
 3876      53544F50 
 3876      00
 3877              	.LASF59:
 3878 0592 444D415F 		.ascii	"DMA_Stream_TypeDef\000"
 3878      53747265 
 3878      616D5F54 
 3878      79706544 
 3878      656600
 3879              	.LASF139:
 3880 05a5 424C4B5F 		.ascii	"BLK_CONNECTING\000"
 3880      434F4E4E 
 3880      45435449 
 3880      4E4700
 3881              	.LASF206:
 3882 05b4 504A4461 		.ascii	"PJData\000"
 3882      746100
 3883              	.LASF195:
 3884 05bb 61667268 		.ascii	"afrh\000"
 3884      00
 3885              	.LASF194:
 3886 05c0 6166726C 		.ascii	"afrl\000"
 3886      00
 3887              	.LASF182:
 3888 05c5 69735F69 		.ascii	"is_inserted\000"
 3888      6E736572 
 3888      74656400 
 3889              	.LASF104:
 3890 05d1 4649464F 		.ascii	"FIFO\000"
 3890      00
 3891              	.LASF53:
 3892 05d6 74687265 		.ascii	"threads_queue_t\000"
 3892      6164735F 
 3892      71756575 
 3892      655F7400 
 3893              	.LASF74:
 3894 05e6 41504232 		.ascii	"APB2ENR\000"
 3894      454E5200 
 3895              	.LASF203:
 3896 05ee 50474461 		.ascii	"PGData\000"
 3896      746100
 3897              	.LASF30:
 3898 05f5 75636E74 		.ascii	"ucnt_t\000"
 3898      5F7400
 3899              	.LASF208:
 3900 05fc 6770696F 		.ascii	"gpio_config_t\000"
 3900      5F636F6E 
 3900      6669675F 
 3900      7400
 3901              	.LASF160:
 3902 060a 5344435F 		.ascii	"SDC_MODE_4BIT\000"
ARM GAS  /tmp/ccwzYijT.s 			page 74


 3902      4D4F4445 
 3902      5F344249 
 3902      5400
 3903              	.LASF152:
 3904 0618 4F535045 		.ascii	"OSPEEDR\000"
 3904      45445200 
 3905              	.LASF155:
 3906 0620 4C4F434B 		.ascii	"LOCKR\000"
 3906      5200
 3907              	.LASF2:
 3908 0626 6C6F6E67 		.ascii	"long double\000"
 3908      20646F75 
 3908      626C6500 
 3909              	.LASF17:
 3910 0632 75696E74 		.ascii	"uint16_t\000"
 3910      31365F74 
 3910      00
 3911              	.LASF63:
 3912 063b 41484232 		.ascii	"AHB2RSTR\000"
 3912      52535452 
 3912      00
 3913              	.LASF21:
 3914 0644 7274636E 		.ascii	"rtcnt_t\000"
 3914      745F7400 
 3915              	.LASF200:
 3916 064c 50444461 		.ascii	"PDData\000"
 3916      746100
 3917              	.LASF167:
 3918 0653 636F6E66 		.ascii	"config\000"
 3918      696700
 3919              	.LASF65:
 3920 065a 52455345 		.ascii	"RESERVED0\000"
 3920      52564544 
 3920      3000
 3921              	.LASF68:
 3922 0664 52455345 		.ascii	"RESERVED1\000"
 3922      52564544 
 3922      3100
 3923              	.LASF72:
 3924 066e 52455345 		.ascii	"RESERVED2\000"
 3924      52564544 
 3924      3200
 3925              	.LASF75:
 3926 0678 52455345 		.ascii	"RESERVED3\000"
 3926      52564544 
 3926      3300
 3927              	.LASF79:
 3928 0682 52455345 		.ascii	"RESERVED4\000"
 3928      52564544 
 3928      3400
 3929              	.LASF84:
 3930 068c 52455345 		.ascii	"RESERVED6\000"
 3930      52564544 
 3930      3600
 3931              	.LASF7:
 3932 0696 73686F72 		.ascii	"short int\000"
 3932      7420696E 
ARM GAS  /tmp/ccwzYijT.s 			page 75


 3932      7400
 3933              	.LASF184:
 3934 06a0 636F6E6E 		.ascii	"connect\000"
 3934      65637400 
 3935              	.LASF220:
 3936 06a8 73657475 		.ascii	"setup_usb_strings\000"
 3936      705F7573 
 3936      625F7374 
 3936      72696E67 
 3936      7300
 3937              	.LASF92:
 3938 06ba 434C4B43 		.ascii	"CLKCR\000"
 3938      5200
 3939              	.LASF11:
 3940 06c0 6C6F6E67 		.ascii	"long int\000"
 3940      20696E74 
 3940      00
 3941              	.LASF109:
 3942 06c9 706F7274 		.ascii	"port_intctx\000"
 3942      5F696E74 
 3942      63747800 
 3943              	.LASF98:
 3944 06d5 4454494D 		.ascii	"DTIMER\000"
 3944      455200
 3945              	.LASF175:
 3946 06dc 626F756E 		.ascii	"bouncebuffer\000"
 3946      63656275 
 3946      66666572 
 3946      00
 3947              	.LASF103:
 3948 06e9 4649464F 		.ascii	"FIFOCNT\000"
 3948      434E5400 
 3949              	.LASF197:
 3950 06f1 50414461 		.ascii	"PAData\000"
 3950      746100
 3951              	.LASF151:
 3952 06f8 4F545950 		.ascii	"OTYPER\000"
 3952      455200
 3953              	.LASF20:
 3954 06ff 75696E74 		.ascii	"uint64_t\000"
 3954      36345F74 
 3954      00
 3955              	.LASF142:
 3956 0708 424C4B5F 		.ascii	"BLK_READING\000"
 3956      52454144 
 3956      494E4700 
 3957              	.LASF61:
 3958 0714 43464752 		.ascii	"CFGR\000"
 3958      00
 3959              	.LASF100:
 3960 0719 44435452 		.ascii	"DCTRL\000"
 3960      4C00
 3961              	.LASF112:
 3962 071f 6C617374 		.ascii	"last\000"
 3962      00
 3963              	.LASF164:
 3964 0724 73646366 		.ascii	"sdcflags_t\000"
ARM GAS  /tmp/ccwzYijT.s 			page 76


 3964      6C616773 
 3964      5F7400
 3965              	.LASF5:
 3966 072f 5F5F7569 		.ascii	"__uint8_t\000"
 3966      6E74385F 
 3966      7400
 3967              	.LASF186:
 3968 0739 72656164 		.ascii	"read\000"
 3968      00
 3969              	.LASF218:
 3970 073e 73746D33 		.ascii	"stm32_watchdog_clear_reason\000"
 3970      325F7761 
 3970      74636864 
 3970      6F675F63 
 3970      6C656172 
 3971              	.LASF162:
 3972 075a 73646362 		.ascii	"sdcbusmode_t\000"
 3972      75736D6F 
 3972      64655F74 
 3972      00
 3973              	.LASF178:
 3974 0767 736C6F77 		.ascii	"slowdown\000"
 3974      646F776E 
 3974      00
 3975              	.LASF91:
 3976 0770 504F5745 		.ascii	"POWER\000"
 3976      5200
 3977              	.LASF58:
 3978 0776 4D314152 		.ascii	"M1AR\000"
 3978      00
 3979              	.LASF225:
 3980 077b 626F756E 		.ascii	"bouncebuffer_t\000"
 3980      63656275 
 3980      66666572 
 3980      5F7400
 3981              	.LASF78:
 3982 078a 41484233 		.ascii	"AHB3LPENR\000"
 3982      4C50454E 
 3982      5200
 3983              	.LASF25:
 3984 0794 74726566 		.ascii	"trefs_t\000"
 3984      735F7400 
 3985              	.LASF214:
 3986 079c 6770696F 		.ascii	"gpiop\000"
 3986      7000
 3987              	.LASF13:
 3988 07a2 6C6F6E67 		.ascii	"long unsigned int\000"
 3988      20756E73 
 3988      69676E65 
 3988      6420696E 
 3988      7400
 3989              	.LASF177:
 3990 07b4 6275735F 		.ascii	"bus_width\000"
 3990      77696474 
 3990      6800
 3991              	.LASF32:
 3992 07be 71756575 		.ascii	"queue\000"
ARM GAS  /tmp/ccwzYijT.s 			page 77


 3992      6500
 3993              	.LASF70:
 3994 07c4 41484232 		.ascii	"AHB2ENR\000"
 3994      454E5200 
 3995              	.LASF18:
 3996 07cc 696E7433 		.ascii	"int32_t\000"
 3996      325F7400 
 3997              	.LASF213:
 3998 07d4 5F5F6561 		.ascii	"__early_init\000"
 3998      726C795F 
 3998      696E6974 
 3998      00
 3999              	.LASF170:
 4000 07e1 74687265 		.ascii	"thread\000"
 4000      616400
 4001              	.LASF120:
 4002 07e8 77747365 		.ascii	"wtsemp\000"
 4002      6D7000
 4003              	.LASF127:
 4004 07ef 6D757465 		.ascii	"mutex_t\000"
 4004      785F7400 
 4005              	.LASF34:
 4006 07f7 6E657765 		.ascii	"newer\000"
 4006      7200
 4007              	.LASF86:
 4008 07fd 504C4C49 		.ascii	"PLLI2SCFGR\000"
 4008      32534346 
 4008      475200
 4009              	.LASF110:
 4010 0808 62657374 		.ascii	"best\000"
 4010      00
 4011              	.LASF223:
 4012 080d 2E2E2F2E 		.ascii	"../../libraries/AP_HAL_ChibiOS/hwdef/common/board.c"
 4012      2E2F6C69 
 4012      62726172 
 4012      6965732F 
 4012      41505F48 
 4013 0840 00       		.ascii	"\000"
 4014              	.LASF148:
 4015 0841 426C6F63 		.ascii	"BlockDeviceInfo\000"
 4015      6B446576 
 4015      69636549 
 4015      6E666F00 
 4016              	.LASF6:
 4017 0851 756E7369 		.ascii	"unsigned char\000"
 4017      676E6564 
 4017      20636861 
 4017      7200
 4018              	.LASF156:
 4019 085f 4146524C 		.ascii	"AFRL\000"
 4019      00
 4020              	.LASF12:
 4021 0864 5F5F7569 		.ascii	"__uint32_t\000"
 4021      6E743332 
 4021      5F7400
 4022              	.LASF41:
 4023 086f 77616974 		.ascii	"waiting\000"
ARM GAS  /tmp/ccwzYijT.s 			page 78


 4023      696E6700 
 4024              	.LASF101:
 4025 0877 44434F55 		.ascii	"DCOUNT\000"
 4025      4E5400
 4026              	.LASF143:
 4027 087e 424C4B5F 		.ascii	"BLK_WRITING\000"
 4027      57524954 
 4027      494E4700 
 4028              	.LASF38:
 4029 088a 73746174 		.ascii	"state\000"
 4029      6500
 4030              	.LASF219:
 4031 0890 6D616C6C 		.ascii	"malloc_init\000"
 4031      6F635F69 
 4031      6E697400 
 4032              	.LASF93:
 4033 089c 52455350 		.ascii	"RESPCMD\000"
 4033      434D4400 
 4034              	.LASF159:
 4035 08a4 5344435F 		.ascii	"SDC_MODE_1BIT\000"
 4035      4D4F4445 
 4035      5F314249 
 4035      5400
 4036              	.LASF47:
 4037 08b2 73746174 		.ascii	"stats\000"
 4037      7300
 4038              	.LASF179:
 4039 08b8 53444343 		.ascii	"SDCConfig\000"
 4039      6F6E6669 
 4039      6700
 4040              	.LASF76:
 4041 08c2 41484231 		.ascii	"AHB1LPENR\000"
 4041      4C50454E 
 4041      5200
 4042              	.LASF228:
 4043 08cc 73746D33 		.ascii	"stm32_gpio_init\000"
 4043      325F6770 
 4043      696F5F69 
 4043      6E697400 
 4044              	.LASF3:
 4045 08dc 7369676E 		.ascii	"signed char\000"
 4045      65642063 
 4045      68617200 
 4046              	.LASF205:
 4047 08e8 50494461 		.ascii	"PIData\000"
 4047      746100
 4048              	.LASF9:
 4049 08ef 73686F72 		.ascii	"short unsigned int\000"
 4049      7420756E 
 4049      7369676E 
 4049      65642069 
 4049      6E7400
 4050              	.LASF107:
 4051 0902 73746B61 		.ascii	"stkalign_t\000"
 4051      6C69676E 
 4051      5F7400
 4052              	.LASF161:
ARM GAS  /tmp/ccwzYijT.s 			page 79


 4053 090d 5344435F 		.ascii	"SDC_MODE_8BIT\000"
 4053      4D4F4445 
 4053      5F384249 
 4053      5400
 4054              	.LASF163:
 4055 091b 7364636D 		.ascii	"sdcmode_t\000"
 4055      6F64655F 
 4055      7400
 4056              	.LASF105:
 4057 0925 53444D4D 		.ascii	"SDMMC_TypeDef\000"
 4057      435F5479 
 4057      70654465 
 4057      6600
 4058              	.LASF209:
 4059 0933 7364635F 		.ascii	"sdc_lld_is_write_protected\000"
 4059      6C6C645F 
 4059      69735F77 
 4059      72697465 
 4059      5F70726F 
 4060              	.LASF174:
 4061 094e 73646D6D 		.ascii	"sdmmc\000"
 4061      6300
 4062              	.LASF183:
 4063 0954 69735F70 		.ascii	"is_protected\000"
 4063      726F7465 
 4063      63746564 
 4063      00
 4064              	.LASF82:
 4065 0961 52455345 		.ascii	"RESERVED5\000"
 4065      52564544 
 4065      3500
 4066              	.LASF210:
 4067 096b 7364635F 		.ascii	"sdc_lld_is_card_inserted\000"
 4067      6C6C645F 
 4067      69735F63 
 4067      6172645F 
 4067      696E7365 
 4068              	.LASF192:
 4069 0984 6F737065 		.ascii	"ospeedr\000"
 4069      65647200 
 4070              	.LASF118:
 4071 098c 77747472 		.ascii	"wttrp\000"
 4071      7000
 4072              	.LASF73:
 4073 0992 41504231 		.ascii	"APB1ENR\000"
 4073      454E5200 
 4074              	.LASF121:
 4075 099a 77746D74 		.ascii	"wtmtxp\000"
 4075      787000
 4076              	.LASF35:
 4077 09a1 6F6C6465 		.ascii	"older\000"
 4077      7200
 4078              	.LASF221:
 4079 09a7 73746D33 		.ascii	"stm32_clock_init\000"
 4079      325F636C 
 4079      6F636B5F 
 4079      696E6974 
ARM GAS  /tmp/ccwzYijT.s 			page 80


 4079      00
 4080              	.LASF116:
 4081 09b8 65786974 		.ascii	"exitcode\000"
 4081      636F6465 
 4081      00
 4082              	.LASF133:
 4083 09c1 73656C66 		.ascii	"selfindex\000"
 4083      696E6465 
 4083      7800
 4084              	.LASF62:
 4085 09cb 41484231 		.ascii	"AHB1RSTR\000"
 4085      52535452 
 4085      00
 4086              	.LASF46:
 4087 09d4 6D706F6F 		.ascii	"mpool\000"
 4087      6C00
 4088              		.ident	"GCC: (GNU Arm Embedded Toolchain 10-2020-q4-major) 10.2.1 20201103 (release)"
ARM GAS  /tmp/ccwzYijT.s 			page 81


DEFINED SYMBOLS
                            *ABS*:0000000000000000 board.c
     /tmp/ccwzYijT.s:18     .text.gpio_init:0000000000000000 $t
     /tmp/ccwzYijT.s:25     .text.gpio_init:0000000000000000 gpio_init
     /tmp/ccwzYijT.s:75     .text.__early_init:0000000000000000 $t
     /tmp/ccwzYijT.s:82     .text.__early_init:0000000000000000 __early_init
     /tmp/ccwzYijT.s:203    .text.__early_init:00000000000000b4 $d
     /tmp/ccwzYijT.s:210    .text.__late_init:0000000000000000 $t
     /tmp/ccwzYijT.s:217    .text.__late_init:0000000000000000 __late_init
     /tmp/ccwzYijT.s:257    .text.sdc_lld_is_card_inserted:0000000000000000 $t
     /tmp/ccwzYijT.s:264    .text.sdc_lld_is_card_inserted:0000000000000000 sdc_lld_is_card_inserted
     /tmp/ccwzYijT.s:283    .text.sdc_lld_is_write_protected:0000000000000000 $t
     /tmp/ccwzYijT.s:290    .text.sdc_lld_is_write_protected:0000000000000000 sdc_lld_is_write_protected
     /tmp/ccwzYijT.s:309    .text.boardInit:0000000000000000 $t
     /tmp/ccwzYijT.s:316    .text.boardInit:0000000000000000 boardInit
     /tmp/ccwzYijT.s:329    .rodata.gpio_default_config:0000000000000000 $d
     /tmp/ccwzYijT.s:333    .rodata.gpio_default_config:0000000000000000 gpio_default_config

UNDEFINED SYMBOLS
stm32_clock_init
halInit
chSysInit
stm32_watchdog_save_reason
stm32_watchdog_clear_reason
malloc_init
setup_usb_strings
