ARM GAS  /tmp/ccwzYijT.s 			page 1


   1              		.cpu cortex-m7
   2              		.eabi_attribute 27, 1
   3              		.eabi_attribute 28, 1
   4              		.eabi_attribute 20, 1
   5              		.eabi_attribute 21, 1
   6              		.eabi_attribute 23, 3
   7              		.eabi_attribute 24, 1
   8              		.eabi_attribute 25, 1
   9              		.eabi_attribute 26, 1
  10              		.eabi_attribute 30, 4
  11              		.eabi_attribute 34, 1
  12              		.eabi_attribute 18, 4
  13              		.file	"board.c"
  14              		.text
  15              	.Ltext0:
  16              		.cfi_sections	.debug_frame
  17              		.section	.text.gpio_init,"ax",%progbits
  18              		.align	1
  19              		.arch armv7e-m
  20              		.syntax unified
  21              		.thumb
  22              		.thumb_func
  23              		.fpu fpv4-sp-d16
  24              		.type	gpio_init, %function
  25              	gpio_init:
  26              	.LVL0:
  27              	.LFB334:
  28              		.file 1 "../../libraries/AP_HAL_ChibiOS/hwdef/common/board.c"
  29              		.loc 1 158 72 view -0
  30              		.cfi_startproc
  31              		@ args = 0, pretend = 0, frame = 0
  32              		@ frame_needed = 0, uses_anonymous_args = 0
  33              		@ link register save eliminated.
  34              		.loc 1 160 3 view .LVU1
  35              		.loc 1 160 26 is_stmt 0 view .LVU2
  36 0000 4B68     		ldr	r3, [r1, #4]
  37              		.loc 1 160 18 view .LVU3
  38 0002 4360     		str	r3, [r0, #4]
  39              		.loc 1 161 3 is_stmt 1 view .LVU4
  40              		.loc 1 161 26 is_stmt 0 view .LVU5
  41 0004 8B68     		ldr	r3, [r1, #8]
  42              		.loc 1 161 18 view .LVU6
  43 0006 8360     		str	r3, [r0, #8]
  44              		.loc 1 162 3 is_stmt 1 view .LVU7
  45              		.loc 1 162 26 is_stmt 0 view .LVU8
  46 0008 CB68     		ldr	r3, [r1, #12]
  47              		.loc 1 162 18 view .LVU9
  48 000a C360     		str	r3, [r0, #12]
  49              		.loc 1 163 3 is_stmt 1 view .LVU10
  50              		.loc 1 163 26 is_stmt 0 view .LVU11
  51 000c 0B69     		ldr	r3, [r1, #16]
  52              		.loc 1 163 18 view .LVU12
  53 000e 4361     		str	r3, [r0, #20]
  54              		.loc 1 164 3 is_stmt 1 view .LVU13
  55              		.loc 1 164 26 is_stmt 0 view .LVU14
  56 0010 4B69     		ldr	r3, [r1, #20]
  57              		.loc 1 164 18 view .LVU15
ARM GAS  /tmp/ccwzYijT.s 			page 2


  58 0012 0362     		str	r3, [r0, #32]
  59              		.loc 1 165 3 is_stmt 1 view .LVU16
  60              		.loc 1 165 26 is_stmt 0 view .LVU17
  61 0014 8B69     		ldr	r3, [r1, #24]
  62              		.loc 1 165 18 view .LVU18
  63 0016 4362     		str	r3, [r0, #36]
  64              		.loc 1 166 3 is_stmt 1 view .LVU19
  65              		.loc 1 166 26 is_stmt 0 view .LVU20
  66 0018 0B68     		ldr	r3, [r1]
  67              		.loc 1 166 18 view .LVU21
  68 001a 0360     		str	r3, [r0]
  69              		.loc 1 167 1 view .LVU22
  70 001c 7047     		bx	lr
  71              		.cfi_endproc
  72              	.LFE334:
  73              		.size	gpio_init, .-gpio_init
  74              		.section	.text.__early_init,"ax",%progbits
  75              		.align	1
  76              		.global	__early_init
  77              		.syntax unified
  78              		.thumb
  79              		.thumb_func
  80              		.fpu fpv4-sp-d16
  81              		.type	__early_init, %function
  82              	__early_init:
  83              	.LFB336:
  84              		.loc 1 227 25 is_stmt 1 view -0
  85              		.cfi_startproc
  86              		@ args = 0, pretend = 0, frame = 0
  87              		@ frame_needed = 0, uses_anonymous_args = 0
  88              		.loc 1 229 3 view .LVU24
  89              	.LBB4:
  90              	.LBI4:
  91              		.loc 1 169 13 view .LVU25
  92              	.LBB5:
  93              		.loc 1 180 3 view .LVU26
  94              	.LBE5:
  95              	.LBE4:
  96              		.loc 1 227 25 is_stmt 0 view .LVU27
  97 0000 08B5     		push	{r3, lr}
  98              		.cfi_def_cfa_offset 8
  99              		.cfi_offset 3, -8
 100              		.cfi_offset 14, -4
 101              	.LBB7:
 102              	.LBB6:
 103              		.loc 1 180 3 view .LVU28
 104 0002 2C4B     		ldr	r3, .L3
 105 0004 40F2FF71 		movw	r1, #2047
 106              		.loc 1 186 3 view .LVU29
 107 0008 2B48     		ldr	r0, .L3+4
 108              		.loc 1 180 3 view .LVU30
 109 000a 1A69     		ldr	r2, [r3, #16]
 110 000c 0A43     		orrs	r2, r2, r1
 111 000e 1A61     		str	r2, [r3, #16]
 112              		.loc 1 180 3 is_stmt 1 view .LVU31
 113 0010 1A69     		ldr	r2, [r3, #16]
 114 0012 22F4FF62 		bic	r2, r2, #2040
ARM GAS  /tmp/ccwzYijT.s 			page 3


 115 0016 22F00702 		bic	r2, r2, #7
 116 001a 1A61     		str	r2, [r3, #16]
 117              		.loc 1 180 3 view .LVU32
 118 001c 1A69     		ldr	r2, [r3, #16]
 119              		.loc 1 180 35 view .LVU33
 120              		.loc 1 181 3 view .LVU34
 121 001e 1A6B     		ldr	r2, [r3, #48]
 122 0020 0A43     		orrs	r2, r2, r1
 123 0022 1A63     		str	r2, [r3, #48]
 124              		.loc 1 181 3 view .LVU35
 125              		.loc 1 181 3 view .LVU36
 126 0024 1A6D     		ldr	r2, [r3, #80]
 127 0026 0A43     		orrs	r2, r2, r1
 128 0028 1A65     		str	r2, [r3, #80]
 129              		.loc 1 181 3 view .LVU37
 130              		.loc 1 186 3 is_stmt 0 view .LVU38
 131 002a 244A     		ldr	r2, .L3+8
 132              		.loc 1 181 3 view .LVU39
 133 002c 1B6D     		ldr	r3, [r3, #80]
 134              		.loc 1 181 42 is_stmt 1 view .LVU40
 135              		.loc 1 186 3 view .LVU41
 136 002e 1146     		mov	r1, r2
 137 0030 FFF7FEFF 		bl	gpio_init
 138              	.LVL1:
 139              		.loc 1 189 3 view .LVU42
 140 0034 00F58060 		add	r0, r0, #1024
 141 0038 02F11C01 		add	r1, r2, #28
 142 003c FFF7FEFF 		bl	gpio_init
 143              	.LVL2:
 144              		.loc 1 192 3 view .LVU43
 145 0040 00F58060 		add	r0, r0, #1024
 146 0044 02F13801 		add	r1, r2, #56
 147 0048 FFF7FEFF 		bl	gpio_init
 148              	.LVL3:
 149              		.loc 1 195 3 view .LVU44
 150 004c 00F58060 		add	r0, r0, #1024
 151 0050 02F15401 		add	r1, r2, #84
 152 0054 FFF7FEFF 		bl	gpio_init
 153              	.LVL4:
 154              		.loc 1 198 3 view .LVU45
 155 0058 00F58060 		add	r0, r0, #1024
 156 005c 02F17001 		add	r1, r2, #112
 157 0060 FFF7FEFF 		bl	gpio_init
 158              	.LVL5:
 159              		.loc 1 201 3 view .LVU46
 160 0064 00F58060 		add	r0, r0, #1024
 161 0068 02F18C01 		add	r1, r2, #140
 162 006c FFF7FEFF 		bl	gpio_init
 163              	.LVL6:
 164              		.loc 1 204 3 view .LVU47
 165 0070 00F58060 		add	r0, r0, #1024
 166 0074 02F1A801 		add	r1, r2, #168
 167 0078 FFF7FEFF 		bl	gpio_init
 168              	.LVL7:
 169              		.loc 1 207 3 view .LVU48
 170 007c 00F58060 		add	r0, r0, #1024
 171 0080 02F1C401 		add	r1, r2, #196
ARM GAS  /tmp/ccwzYijT.s 			page 4


 172 0084 FFF7FEFF 		bl	gpio_init
 173              	.LVL8:
 174              		.loc 1 210 3 view .LVU49
 175 0088 00F58060 		add	r0, r0, #1024
 176 008c 02F1E001 		add	r1, r2, #224
 177 0090 FFF7FEFF 		bl	gpio_init
 178              	.LVL9:
 179              		.loc 1 213 3 view .LVU50
 180 0094 00F58060 		add	r0, r0, #1024
 181 0098 02F1FC01 		add	r1, r2, #252
 182 009c FFF7FEFF 		bl	gpio_init
 183              	.LVL10:
 184              		.loc 1 216 3 view .LVU51
 185 00a0 02F58C71 		add	r1, r2, #280
 186 00a4 00F58060 		add	r0, r0, #1024
 187 00a8 FFF7FEFF 		bl	gpio_init
 188              	.LVL11:
 189              	.LBE6:
 190              	.LBE7:
 191              		.loc 1 231 3 view .LVU52
 192              		.loc 1 235 1 is_stmt 0 view .LVU53
 193 00ac BDE80840 		pop	{r3, lr}
 194              		.cfi_restore 14
 195              		.cfi_restore 3
 196              		.cfi_def_cfa_offset 0
 197              		.loc 1 231 3 view .LVU54
 198 00b0 FFF7FEBF 		b	stm32_clock_init
 199              	.LVL12:
 200              	.L4:
 201              		.align	2
 202              	.L3:
 203 00b4 00380240 		.word	1073887232
 204 00b8 00000240 		.word	1073872896
 205 00bc 00000000 		.word	.LANCHOR0
 206              		.cfi_endproc
 207              	.LFE336:
 208              		.size	__early_init, .-__early_init
 209              		.section	.text.__late_init,"ax",%progbits
 210              		.align	1
 211              		.global	__late_init
 212              		.syntax unified
 213              		.thumb
 214              		.thumb_func
 215              		.fpu fpv4-sp-d16
 216              		.type	__late_init, %function
 217              	__late_init:
 218              	.LFB337:
 219              		.loc 1 237 24 is_stmt 1 view -0
 220              		.cfi_startproc
 221              		@ args = 0, pretend = 0, frame = 0
 222              		@ frame_needed = 0, uses_anonymous_args = 0
 223              		.loc 1 238 3 view .LVU56
 224              		.loc 1 237 24 is_stmt 0 view .LVU57
 225 0000 08B5     		push	{r3, lr}
 226              		.cfi_def_cfa_offset 8
 227              		.cfi_offset 3, -8
 228              		.cfi_offset 14, -4
ARM GAS  /tmp/ccwzYijT.s 			page 5


 229              		.loc 1 238 3 view .LVU58
 230 0002 FFF7FEFF 		bl	halInit
 231              	.LVL13:
 232              		.loc 1 239 3 is_stmt 1 view .LVU59
 233 0006 FFF7FEFF 		bl	chSysInit
 234              	.LVL14:
 235              		.loc 1 240 3 view .LVU60
 236 000a FFF7FEFF 		bl	stm32_watchdog_save_reason
 237              	.LVL15:
 238              		.loc 1 242 3 view .LVU61
 239 000e FFF7FEFF 		bl	stm32_watchdog_clear_reason
 240              	.LVL16:
 241              		.loc 1 245 3 view .LVU62
 242 0012 FFF7FEFF 		bl	malloc_init
 243              	.LVL17:
 244              		.loc 1 248 3 view .LVU63
 245              		.loc 1 250 1 is_stmt 0 view .LVU64
 246 0016 BDE80840 		pop	{r3, lr}
 247              		.cfi_restore 14
 248              		.cfi_restore 3
 249              		.cfi_def_cfa_offset 0
 250              		.loc 1 248 3 view .LVU65
 251 001a FFF7FEBF 		b	setup_usb_strings
 252              	.LVL18:
 253              		.cfi_endproc
 254              	.LFE337:
 255              		.size	__late_init, .-__late_init
 256              		.section	.text.sdc_lld_is_card_inserted,"ax",%progbits
 257              		.align	1
 258              		.global	sdc_lld_is_card_inserted
 259              		.syntax unified
 260              		.thumb
 261              		.thumb_func
 262              		.fpu fpv4-sp-d16
 263              		.type	sdc_lld_is_card_inserted, %function
 264              	sdc_lld_is_card_inserted:
 265              	.LVL19:
 266              	.LFB338:
 267              		.loc 1 256 48 is_stmt 1 view -0
 268              		.cfi_startproc
 269              		@ args = 0, pretend = 0, frame = 0
 270              		@ frame_needed = 0, uses_anonymous_args = 0
 271              		@ link register save eliminated.
 272              		.loc 1 257 5 view .LVU67
 273              		.loc 1 258 5 view .LVU68
 274              		.loc 1 259 1 is_stmt 0 view .LVU69
 275 0000 0120     		movs	r0, #1
 276              	.LVL20:
 277              		.loc 1 259 1 view .LVU70
 278 0002 7047     		bx	lr
 279              		.cfi_endproc
 280              	.LFE338:
 281              		.size	sdc_lld_is_card_inserted, .-sdc_lld_is_card_inserted
 282              		.section	.text.sdc_lld_is_write_protected,"ax",%progbits
 283              		.align	1
 284              		.global	sdc_lld_is_write_protected
 285              		.syntax unified
ARM GAS  /tmp/ccwzYijT.s 			page 6


 286              		.thumb
 287              		.thumb_func
 288              		.fpu fpv4-sp-d16
 289              		.type	sdc_lld_is_write_protected, %function
 290              	sdc_lld_is_write_protected:
 291              	.LVL21:
 292              	.LFB339:
 293              		.loc 1 264 50 is_stmt 1 view -0
 294              		.cfi_startproc
 295              		@ args = 0, pretend = 0, frame = 0
 296              		@ frame_needed = 0, uses_anonymous_args = 0
 297              		@ link register save eliminated.
 298              		.loc 1 266 3 view .LVU72
 299              		.loc 1 267 3 view .LVU73
 300              		.loc 1 268 1 is_stmt 0 view .LVU74
 301 0000 0020     		movs	r0, #0
 302              	.LVL22:
 303              		.loc 1 268 1 view .LVU75
 304 0002 7047     		bx	lr
 305              		.cfi_endproc
 306              	.LFE339:
 307              		.size	sdc_lld_is_write_protected, .-sdc_lld_is_write_protected
 308              		.section	.text.boardInit,"ax",%progbits
 309              		.align	1
 310              		.global	boardInit
 311              		.syntax unified
 312              		.thumb
 313              		.thumb_func
 314              		.fpu fpv4-sp-d16
 315              		.type	boardInit, %function
 316              	boardInit:
 317              	.LFB340:
 318              		.loc 1 295 22 is_stmt 1 view -0
 319              		.cfi_startproc
 320              		@ args = 0, pretend = 0, frame = 0
 321              		@ frame_needed = 0, uses_anonymous_args = 0
 322              		@ link register save eliminated.
 323              		.loc 1 297 1 view .LVU77
 324 0000 7047     		bx	lr
 325              		.cfi_endproc
 326              	.LFE340:
 327              		.size	boardInit, .-boardInit
 328              		.section	.rodata.gpio_default_config,"a"
 329              		.align	2
 330              		.set	.LANCHOR0,. + 0
 331              		.type	gpio_default_config, %object
 332              		.size	gpio_default_config, 308
 333              	gpio_default_config:
 334 0000 FF63A02A 		.word	715154431
 335 0004 00000000 		.word	0
 336 0008 AAAAAAAA 		.word	-1431655766
 337 000c 00000000 		.word	0
 338 0010 7FFF0000 		.word	65407
 339 0014 00000005 		.word	83886080
 340 0018 00A10A00 		.word	696576
 341 001c 07A01A0A 		.word	169517063
 342 0020 02030000 		.word	770
ARM GAS  /tmp/ccwzYijT.s 			page 7


 343 0024 AAAAAAAA 		.word	-1431655766
 344 0028 00500000 		.word	20480
 345 002c FFFF0000 		.word	65535
 346 0030 00000077 		.word	1996488704
 347 0034 44009900 		.word	10027076
 348 0038 0F53AA02 		.word	44716815
 349 003c 00000000 		.word	0
 350 0040 AAAAAAAA 		.word	-1431655766
 351 0044 00005500 		.word	5570560
 352 0048 BFFF0000 		.word	65471
 353 004c 00000000 		.word	0
 354 0050 CCCC0C00 		.word	838860
 355 0054 AAA98A29 		.word	696953258
 356 0058 00000000 		.word	0
 357 005c AAAAAAAA 		.word	-1431655766
 358 0060 55154501 		.word	21304661
 359 0064 FFFF0000 		.word	65535
 360 0068 887C7057 		.word	1466989704
 361 006c 77702002 		.word	35680375
 362 0070 6A298A28 		.word	680143210
 363 0074 00000000 		.word	0
 364 0078 AAAAAAAA 		.word	-1431655766
 365 007c 05000140 		.word	1073807365
 366 0080 FFFF0000 		.word	65535
 367 0084 88053005 		.word	87033224
 368 0088 18105001 		.word	22024216
 369 008c 5A2550A1 		.word	-1588583078
 370 0090 03C00000 		.word	49155
 371 0094 0AA2AAAA 		.word	-1431657974
 372 0098 50155004 		.word	72357200
 373 009c FFFF0000 		.word	65535
 374 00a0 44000008 		.word	134217796
 375 00a4 00000044 		.word	1140850688
 376 00a8 00559980 		.word	-2137434880
 377 00ac 00000000 		.word	0
 378 00b0 AAAAAAAA 		.word	-1431655766
 379 00b4 54001540 		.word	1075118164
 380 00b8 FFFF0000 		.word	65535
 381 00bc 00000000 		.word	0
 382 00c0 80500080 		.word	-2147463040
 383 00c4 50A55A09 		.word	156935504
 384 00c8 801D0000 		.word	7552
 385 00cc 5AA9AAAA 		.word	-1431656102
 386 00d0 00040000 		.word	1024
 387 00d4 E3FF0000 		.word	65507
 388 00d8 00000049 		.word	1224736768
 389 00dc 94009000 		.word	9437332
 390 00e0 A8515900 		.word	5853608
 391 00e4 00000000 		.word	0
 392 00e8 AAAAAAAA 		.word	-1431655766
 393 00ec 00515100 		.word	5329152
 394 00f0 FFFF0000 		.word	65535
 395 00f4 50550000 		.word	21840
 396 00f8 90000000 		.word	144
 397 00fc 00000000 		.word	0
 398 0100 00000000 		.word	0
 399 0104 00000000 		.word	0
ARM GAS  /tmp/ccwzYijT.s 			page 8


 400 0108 00000000 		.word	0
 401 010c 00000000 		.word	0
 402 0110 00000000 		.word	0
 403 0114 00000000 		.word	0
 404 0118 00000000 		.word	0
 405 011c 00000000 		.word	0
 406 0120 00000000 		.word	0
 407 0124 00000000 		.word	0
 408 0128 00000000 		.word	0
 409 012c 00000000 		.word	0
 410 0130 00000000 		.word	0
 411              		.text
 412              	.Letext0:
 413              		.file 2 "/opt/gcc-arm-none-eabi-10-2020-q4-major/lib/gcc/arm-none-eabi/10.2.1/include/stddef.h"
 414              		.file 3 "/opt/gcc-arm-none-eabi-10-2020-q4-major/arm-none-eabi/include/machine/_default_types.h"
 415              		.file 4 "/opt/gcc-arm-none-eabi-10-2020-q4-major/arm-none-eabi/include/sys/_stdint.h"
 416              		.file 5 "../../modules/ChibiOS/os/common/ports/ARMCMx/compilers/GCC/chtypes.h"
 417              		.file 6 "../../modules/ChibiOS/os/rt/include/chsystypes.h"
 418              		.file 7 "../../modules/ChibiOS/os/rt/include/chschd.h"
 419              		.file 8 "../../modules/ChibiOS/os/common/ext/ST/STM32F7xx/stm32f767xx.h"
 420              		.file 9 "../../modules/ChibiOS/os/common/ports/ARMCMx/chcore.h"
 421              		.file 10 "../../modules/ChibiOS/os/common/ports/ARMCMx/chcore_v7m.h"
 422              		.file 11 "../../modules/ChibiOS/os/rt/include/chtm.h"
 423              		.file 12 "../../modules/ChibiOS/os/rt/include/chsem.h"
 424              		.file 13 "../../modules/ChibiOS/os/rt/include/chmtx.h"
 425              		.file 14 "../../modules/ChibiOS/os/hal/ports/STM32/LLD/DMAv2/stm32_dma.h"
 426              		.file 15 "../../modules/ChibiOS/os/hal/include/hal_ioblock.h"
 427              		.file 16 "../../modules/ChibiOS/os/hal/ports/STM32/LLD/GPIOv2/stm32_gpio.h"
 428              		.file 17 "../../modules/ChibiOS/os/hal/include/hal_sdc.h"
 429              		.file 18 "../../modules/ChibiOS/os/hal/ports/STM32/LLD/SDMMCv1/hal_sdc_lld.h"
 430              		.file 19 "../../modules/ChibiOS/os/hal/include/hal.h"
 431              		.file 20 "../../modules/ChibiOS/os/rt/include/chsys.h"
 432              		.file 21 "../../libraries/AP_HAL_ChibiOS/hwdef/common/watchdog.h"
 433              		.file 22 "../../libraries/AP_HAL_ChibiOS/hwdef/common/stm32_util.h"
 434              		.file 23 "../../libraries/AP_HAL_ChibiOS/hwdef/common/usbcfg.h"
 435              		.file 24 "../../modules/ChibiOS/os/hal/ports/STM32/STM32F7xx/hal_lld.h"