ARM GAS  /tmp/ccDKXUnV.s 			page 1


   1              		.cpu cortex-m7
   2              		.eabi_attribute 27, 1
   3              		.eabi_attribute 28, 1
   4              		.eabi_attribute 20, 1
   5              		.eabi_attribute 21, 1
   6              		.eabi_attribute 23, 3
   7              		.eabi_attribute 24, 1
   8              		.eabi_attribute 25, 1
   9              		.eabi_attribute 26, 1
  10              		.eabi_attribute 30, 6
  11              		.eabi_attribute 34, 1
  12              		.eabi_attribute 18, 4
  13              		.file	"ch.cpp"
  14              		.text
  15              	.Ltext0:
  16              		.cfi_sections	.debug_frame
  17              		.section	.text._ZL19chSysGetIdleThreadXv,"ax",%progbits
  18              		.align	1
  19              		.p2align 4,,15
  20              		.arch armv7e-m
  21              		.syntax unified
  22              		.thumb
  23              		.thumb_func
  24              		.fpu fpv4-sp-d16
  25              		.type	_ZL19chSysGetIdleThreadXv, %function
  26              	_ZL19chSysGetIdleThreadXv:
  27              		.fnstart
  28              	.LFB201:
  29              		.file 1 "../../modules/ChibiOS/os/rt/include/chsys.h"
  30              		.loc 1 461 51
  31              		.cfi_startproc
  32              		@ args = 0, pretend = 0, frame = 0
  33              		@ frame_needed = 0, uses_anonymous_args = 0
  34              		@ link register save eliminated.
  35              		.loc 1 463 25
  36 0000 014B     		ldr	r3, .L3
  37 0002 5B68     		ldr	r3, [r3, #4]
  38              		.loc 1 464 1
  39 0004 1846     		mov	r0, r3
  40 0006 7047     		bx	lr
  41              	.L4:
  42              		.align	2
  43              	.L3:
  44 0008 00000000 		.word	ch
  45              		.cfi_endproc
  46              	.LFE201:
  47              		.cantunwind
  48              		.fnend
  49              		.size	_ZL19chSysGetIdleThreadXv, .-_ZL19chSysGetIdleThreadXv
  50              		.section	.text._ZN10chibios_rt15ThreadReferenceC2EP9ch_thread,"axG",%progbits,_ZN10chibios_rt15Thr
  51              		.align	1
  52              		.p2align 4,,15
  53              		.weak	_ZN10chibios_rt15ThreadReferenceC2EP9ch_thread
  54              		.syntax unified
  55              		.thumb
  56              		.thumb_func
  57              		.fpu fpv4-sp-d16
ARM GAS  /tmp/ccDKXUnV.s 			page 2


  58              		.type	_ZN10chibios_rt15ThreadReferenceC2EP9ch_thread, %function
  59              	_ZN10chibios_rt15ThreadReferenceC2EP9ch_thread:
  60              		.fnstart
  61              	.LFB340:
  62              		.file 2 "../../modules/ChibiOS/os/various/cpp_wrappers/ch.hpp"
  63              		.loc 2 622 5
  64              		.cfi_startproc
  65              		@ args = 0, pretend = 0, frame = 8
  66              		@ frame_needed = 0, uses_anonymous_args = 0
  67              		@ link register save eliminated.
  68 0000 82B0     		sub	sp, sp, #8
  69              		.cfi_def_cfa_offset 8
  70 0002 0190     		str	r0, [sp, #4]
  71 0004 0091     		str	r1, [sp]
  72              	.LBB2:
  73              		.loc 2 622 50
  74 0006 019B     		ldr	r3, [sp, #4]
  75 0008 009A     		ldr	r2, [sp]
  76 000a 1A60     		str	r2, [r3]
  77              	.LBE2:
  78              		.loc 2 624 5
  79 000c 019B     		ldr	r3, [sp, #4]
  80 000e 1846     		mov	r0, r3
  81 0010 02B0     		add	sp, sp, #8
  82              		.cfi_def_cfa_offset 0
  83              		@ sp needed
  84 0012 7047     		bx	lr
  85              		.cfi_endproc
  86              	.LFE340:
  87              		.cantunwind
  88              		.fnend
  89              		.size	_ZN10chibios_rt15ThreadReferenceC2EP9ch_thread, .-_ZN10chibios_rt15ThreadReferenceC2EP9ch_th
  90              		.weak	_ZN10chibios_rt15ThreadReferenceC1EP9ch_thread
  91              		.thumb_set _ZN10chibios_rt15ThreadReferenceC1EP9ch_thread,_ZN10chibios_rt15ThreadReferenceC2EP9ch_
  92              		.section	.text._ZN10chibios_rt6System14getIdleThreadXEv,"ax",%progbits
  93              		.align	1
  94              		.p2align 4,,15
  95              		.global	_ZN10chibios_rt6System14getIdleThreadXEv
  96              		.syntax unified
  97              		.thumb
  98              		.thumb_func
  99              		.fpu fpv4-sp-d16
 100              		.type	_ZN10chibios_rt6System14getIdleThreadXEv, %function
 101              	_ZN10chibios_rt6System14getIdleThreadXEv:
 102              		.fnstart
 103              	.LFB494:
 104              		.file 3 "../../modules/ChibiOS/os/various/cpp_wrappers/ch.cpp"
 105              		.loc 3 29 48
 106              		.cfi_startproc
 107              		@ args = 0, pretend = 0, frame = 8
 108              		@ frame_needed = 0, uses_anonymous_args = 0
 109 0000 00B5     		push	{lr}
 110              		.cfi_def_cfa_offset 4
 111              		.cfi_offset 14, -4
 112 0002 83B0     		sub	sp, sp, #12
 113              		.cfi_def_cfa_offset 16
 114              		.loc 3 31 49
ARM GAS  /tmp/ccDKXUnV.s 			page 3


 115 0004 FFF7FEFF 		bl	_ZL19chSysGetIdleThreadXv
 116 0008 0246     		mov	r2, r0
 117 000a 01AB     		add	r3, sp, #4
 118 000c 1146     		mov	r1, r2
 119 000e 1846     		mov	r0, r3
 120 0010 FFF7FEFF 		bl	_ZN10chibios_rt15ThreadReferenceC1EP9ch_thread
 121 0014 019B     		ldr	r3, [sp, #4]
 122              		.loc 3 32 3
 123 0016 1846     		mov	r0, r3
 124 0018 03B0     		add	sp, sp, #12
 125              		.cfi_def_cfa_offset 4
 126              		@ sp needed
 127 001a 5DF804FB 		ldr	pc, [sp], #4
 128              		.cfi_endproc
 129              	.LFE494:
 130              		.cantunwind
 131              		.fnend
 132              		.size	_ZN10chibios_rt6System14getIdleThreadXEv, .-_ZN10chibios_rt6System14getIdleThreadXEv
 133 001e 00BF     		.section	.text._ZN10chibios_rt10_thd_startEPv,"ax",%progbits
 134              		.align	1
 135              		.p2align 4,,15
 136              		.global	_ZN10chibios_rt10_thd_startEPv
 137              		.syntax unified
 138              		.thumb
 139              		.thumb_func
 140              		.fpu fpv4-sp-d16
 141              		.type	_ZN10chibios_rt10_thd_startEPv, %function
 142              	_ZN10chibios_rt10_thd_startEPv:
 143              		.fnstart
 144              	.LFB495:
 145              		.loc 3 39 30
 146              		.cfi_startproc
 147              		@ args = 0, pretend = 0, frame = 8
 148              		@ frame_needed = 0, uses_anonymous_args = 0
 149 0000 00B5     		push	{lr}
 150              		.save {lr}
 151              		.cfi_def_cfa_offset 4
 152              		.cfi_offset 14, -4
 153              		.pad #12
 154 0002 83B0     		sub	sp, sp, #12
 155              		.cfi_def_cfa_offset 16
 156 0004 0190     		str	r0, [sp, #4]
 157              		.loc 3 41 31
 158 0006 019B     		ldr	r3, [sp, #4]
 159 0008 1B68     		ldr	r3, [r3]
 160 000a 1B68     		ldr	r3, [r3]
 161              		.loc 3 41 30
 162 000c 0198     		ldr	r0, [sp, #4]
 163 000e 9847     		blx	r3
 164              	.LVL0:
 165              		.loc 3 42 3
 166 0010 00BF     		nop
 167 0012 03B0     		add	sp, sp, #12
 168              		.cfi_def_cfa_offset 4
 169              		@ sp needed
 170 0014 5DF804FB 		ldr	pc, [sp], #4
 171              		.cfi_endproc
ARM GAS  /tmp/ccDKXUnV.s 			page 4


 172              	.LFE495:
 173              		.fnend
 174              		.size	_ZN10chibios_rt10_thd_startEPv, .-_ZN10chibios_rt10_thd_startEPv
 175              		.text
 176              	.Letext0:
 177              		.file 4 "/opt/gcc-arm-none-eabi-10-2020-q4-major/arm-none-eabi/include/machine/_default_types.h"
 178              		.file 5 "/opt/gcc-arm-none-eabi-10-2020-q4-major/arm-none-eabi/include/sys/_stdint.h"
 179              		.file 6 "../../modules/ChibiOS/os/common/ports/ARMCMx/compilers/GCC/chtypes.h"
 180              		.file 7 "../../modules/ChibiOS/os/rt/include/chsystypes.h"
 181              		.file 8 "../../modules/ChibiOS/os/rt/include/chschd.h"
 182              		.file 9 "../../modules/ChibiOS/os/rt/include/chtime.h"
 183              		.file 10 "../../modules/ChibiOS/os/common/ports/ARMCMx/chcore.h"
 184              		.file 11 "../../modules/ChibiOS/os/common/ports/ARMCMx/chcore_v7m.h"
 185              		.file 12 "../../modules/ChibiOS/os/rt/include/chtm.h"
 186              		.file 13 "../../modules/ChibiOS/os/rt/include/chstats.h"
 187              		.file 14 "../../modules/ChibiOS/os/rt/include/chsem.h"
 188              		.file 15 "../../modules/ChibiOS/os/rt/include/chmtx.h"
 189              		.file 16 "../../modules/ChibiOS/os/rt/include/chevents.h"