ARM GAS  /tmp/ccDKXUnV.s 			page 1


   1              		.cpu cortex-m7
   2              		.eabi_attribute 27, 1
   3              		.eabi_attribute 28, 1
   4              		.eabi_attribute 20, 1
   5              		.eabi_attribute 21, 1
   6              		.eabi_attribute 23, 3
   7              		.eabi_attribute 24, 1
   8              		.eabi_attribute 25, 1
   9              		.eabi_attribute 26, 1
  10              		.eabi_attribute 30, 6
  11              		.eabi_attribute 34, 1
  12              		.eabi_attribute 18, 4
  13              		.file	"ch.cpp"
  14              		.text
  15              	.Ltext0:
  16              		.cfi_sections	.debug_frame
  17              		.section	.text._ZL19chSysGetIdleThreadXv,"ax",%progbits
  18              		.align	1
  19              		.p2align 4,,15
  20              		.arch armv7e-m
  21              		.syntax unified
  22              		.thumb
  23              		.thumb_func
  24              		.fpu fpv4-sp-d16
  25              		.type	_ZL19chSysGetIdleThreadXv, %function
  26              	_ZL19chSysGetIdleThreadXv:
  27              		.fnstart
  28              	.LFB201:
  29              		.file 1 "../../modules/ChibiOS/os/rt/include/chsys.h"
  30              		.loc 1 461 51
  31              		.cfi_startproc
  32              		@ args = 0, pretend = 0, frame = 0
  33              		@ frame_needed = 0, uses_anonymous_args = 0
  34              		@ link register save eliminated.
  35              		.loc 1 463 25
  36 0000 014B     		ldr	r3, .L3
  37 0002 5B68     		ldr	r3, [r3, #4]
  38              		.loc 1 464 1
  39 0004 1846     		mov	r0, r3
  40 0006 7047     		bx	lr
  41              	.L4:
  42              		.align	2
  43              	.L3:
  44 0008 00000000 		.word	ch
  45              		.cfi_endproc
  46              	.LFE201:
  47              		.cantunwind
  48              		.fnend
  49              		.size	_ZL19chSysGetIdleThreadXv, .-_ZL19chSysGetIdleThreadXv
  50              		.section	.text._ZN10chibios_rt15ThreadReferenceC2EP9ch_thread,"axG",%progbits,_ZN10chibios_rt15Thr
  51              		.align	1
  52              		.p2align 4,,15
  53              		.weak	_ZN10chibios_rt15ThreadReferenceC2EP9ch_thread
  54              		.syntax unified
  55              		.thumb
  56              		.thumb_func
  57              		.fpu fpv4-sp-d16
ARM GAS  /tmp/ccDKXUnV.s 			page 2


  58              		.type	_ZN10chibios_rt15ThreadReferenceC2EP9ch_thread, %function
  59              	_ZN10chibios_rt15ThreadReferenceC2EP9ch_thread:
  60              		.fnstart
  61              	.LFB340:
  62              		.file 2 "../../modules/ChibiOS/os/various/cpp_wrappers/ch.hpp"
  63              		.loc 2 622 5
  64              		.cfi_startproc
  65              		@ args = 0, pretend = 0, frame = 8
  66              		@ frame_needed = 0, uses_anonymous_args = 0
  67              		@ link register save eliminated.
  68 0000 82B0     		sub	sp, sp, #8
  69              		.cfi_def_cfa_offset 8
  70 0002 0190     		str	r0, [sp, #4]
  71 0004 0091     		str	r1, [sp]
  72              	.LBB2:
  73              		.loc 2 622 50
  74 0006 019B     		ldr	r3, [sp, #4]
  75 0008 009A     		ldr	r2, [sp]
  76 000a 1A60     		str	r2, [r3]
  77              	.LBE2:
  78              		.loc 2 624 5
  79 000c 019B     		ldr	r3, [sp, #4]
  80 000e 1846     		mov	r0, r3
  81 0010 02B0     		add	sp, sp, #8
  82              		.cfi_def_cfa_offset 0
  83              		@ sp needed
  84 0012 7047     		bx	lr
  85              		.cfi_endproc
  86              	.LFE340:
  87              		.cantunwind
  88              		.fnend
  89              		.size	_ZN10chibios_rt15ThreadReferenceC2EP9ch_thread, .-_ZN10chibios_rt15ThreadReferenceC2EP9ch_th
  90              		.weak	_ZN10chibios_rt15ThreadReferenceC1EP9ch_thread
  91              		.thumb_set _ZN10chibios_rt15ThreadReferenceC1EP9ch_thread,_ZN10chibios_rt15ThreadReferenceC2EP9ch_
  92              		.section	.text._ZN10chibios_rt6System14getIdleThreadXEv,"ax",%progbits
  93              		.align	1
  94              		.p2align 4,,15
  95              		.global	_ZN10chibios_rt6System14getIdleThreadXEv
  96              		.syntax unified
  97              		.thumb
  98              		.thumb_func
  99              		.fpu fpv4-sp-d16
 100              		.type	_ZN10chibios_rt6System14getIdleThreadXEv, %function
 101              	_ZN10chibios_rt6System14getIdleThreadXEv:
 102              		.fnstart
 103              	.LFB494:
 104              		.file 3 "../../modules/ChibiOS/os/various/cpp_wrappers/ch.cpp"
 105              		.loc 3 29 48
 106              		.cfi_startproc
 107              		@ args = 0, pretend = 0, frame = 8
 108              		@ frame_needed = 0, uses_anonymous_args = 0
 109 0000 00B5     		push	{lr}
 110              		.cfi_def_cfa_offset 4
 111              		.cfi_offset 14, -4
 112 0002 83B0     		sub	sp, sp, #12
 113              		.cfi_def_cfa_offset 16
 114              		.loc 3 31 49
ARM GAS  /tmp/ccDKXUnV.s 			page 3


 115 0004 FFF7FEFF 		bl	_ZL19chSysGetIdleThreadXv
 116 0008 0246     		mov	r2, r0
 117 000a 01AB     		add	r3, sp, #4
 118 000c 1146     		mov	r1, r2
 119 000e 1846     		mov	r0, r3
 120 0010 FFF7FEFF 		bl	_ZN10chibios_rt15ThreadReferenceC1EP9ch_thread
 121 0014 019B     		ldr	r3, [sp, #4]
 122              		.loc 3 32 3
 123 0016 1846     		mov	r0, r3
 124 0018 03B0     		add	sp, sp, #12
 125              		.cfi_def_cfa_offset 4
 126              		@ sp needed
 127 001a 5DF804FB 		ldr	pc, [sp], #4
 128              		.cfi_endproc
 129              	.LFE494:
 130              		.cantunwind
 131              		.fnend
 132              		.size	_ZN10chibios_rt6System14getIdleThreadXEv, .-_ZN10chibios_rt6System14getIdleThreadXEv
 133 001e 00BF     		.section	.text._ZN10chibios_rt10_thd_startEPv,"ax",%progbits
 134              		.align	1
 135              		.p2align 4,,15
 136              		.global	_ZN10chibios_rt10_thd_startEPv
 137              		.syntax unified
 138              		.thumb
 139              		.thumb_func
 140              		.fpu fpv4-sp-d16
 141              		.type	_ZN10chibios_rt10_thd_startEPv, %function
 142              	_ZN10chibios_rt10_thd_startEPv:
 143              		.fnstart
 144              	.LFB495:
 145              		.loc 3 39 30
 146              		.cfi_startproc
 147              		@ args = 0, pretend = 0, frame = 8
 148              		@ frame_needed = 0, uses_anonymous_args = 0
 149 0000 00B5     		push	{lr}
 150              		.save {lr}
 151              		.cfi_def_cfa_offset 4
 152              		.cfi_offset 14, -4
 153              		.pad #12
 154 0002 83B0     		sub	sp, sp, #12
 155              		.cfi_def_cfa_offset 16
 156 0004 0190     		str	r0, [sp, #4]
 157              		.loc 3 41 31
 158 0006 019B     		ldr	r3, [sp, #4]
 159 0008 1B68     		ldr	r3, [r3]
 160 000a 1B68     		ldr	r3, [r3]
 161              		.loc 3 41 30
 162 000c 0198     		ldr	r0, [sp, #4]
 163 000e 9847     		blx	r3
 164              	.LVL0:
 165              		.loc 3 42 3
 166 0010 00BF     		nop
 167 0012 03B0     		add	sp, sp, #12
 168              		.cfi_def_cfa_offset 4
 169              		@ sp needed
 170 0014 5DF804FB 		ldr	pc, [sp], #4
 171              		.cfi_endproc
ARM GAS  /tmp/ccDKXUnV.s 			page 4


 172              	.LFE495:
 173              		.fnend
 174              		.size	_ZN10chibios_rt10_thd_startEPv, .-_ZN10chibios_rt10_thd_startEPv
 175              		.text
 176              	.Letext0:
 177              		.file 4 "/opt/gcc-arm-none-eabi-10-2020-q4-major/arm-none-eabi/include/machine/_default_types.h"
 178              		.file 5 "/opt/gcc-arm-none-eabi-10-2020-q4-major/arm-none-eabi/include/sys/_stdint.h"
 179              		.file 6 "../../modules/ChibiOS/os/common/ports/ARMCMx/compilers/GCC/chtypes.h"
 180              		.file 7 "../../modules/ChibiOS/os/rt/include/chsystypes.h"
 181              		.file 8 "../../modules/ChibiOS/os/rt/include/chschd.h"
 182              		.file 9 "../../modules/ChibiOS/os/rt/include/chtime.h"
 183              		.file 10 "../../modules/ChibiOS/os/common/ports/ARMCMx/chcore.h"
 184              		.file 11 "../../modules/ChibiOS/os/common/ports/ARMCMx/chcore_v7m.h"
 185              		.file 12 "../../modules/ChibiOS/os/rt/include/chtm.h"
 186              		.file 13 "../../modules/ChibiOS/os/rt/include/chstats.h"
 187              		.file 14 "../../modules/ChibiOS/os/rt/include/chsem.h"
 188              		.file 15 "../../modules/ChibiOS/os/rt/include/chmtx.h"
 189              		.file 16 "../../modules/ChibiOS/os/rt/include/chevents.h"
 190              		.section	.debug_info,"",%progbits
 191              	.Ldebug_info0:
 192 0000 A50F0000 		.4byte	0xfa5
 193 0004 0400     		.2byte	0x4
 194 0006 00000000 		.4byte	.Ldebug_abbrev0
 195 000a 04       		.byte	0x4
 196 000b 01       		.uleb128 0x1
 197 000c A8080000 		.4byte	.LASF226
 198 0010 04       		.byte	0x4
 199 0011 3F0C0000 		.4byte	.LASF227
 200 0015 DE070000 		.4byte	.LASF228
 201 0019 00000000 		.4byte	.Ldebug_ranges0+0
 202 001d 00000000 		.4byte	0
 203 0021 00000000 		.4byte	.Ldebug_line0
 204 0025 02       		.uleb128 0x2
 205 0026 04       		.byte	0x4
 206 0027 05       		.byte	0x5
 207 0028 696E7400 		.ascii	"int\000"
 208 002c 03       		.uleb128 0x3
 209 002d 04       		.byte	0x4
 210 002e 07       		.byte	0x7
 211 002f EA010000 		.4byte	.LASF0
 212 0033 03       		.uleb128 0x3
 213 0034 08       		.byte	0x8
 214 0035 05       		.byte	0x5
 215 0036 C5070000 		.4byte	.LASF1
 216 003a 03       		.uleb128 0x3
 217 003b 08       		.byte	0x8
 218 003c 04       		.byte	0x4
 219 003d 330C0000 		.4byte	.LASF2
 220 0041 04       		.uleb128 0x4
 221 0042 36030000 		.4byte	.LASF229
 222 0046 03       		.uleb128 0x3
 223 0047 01       		.byte	0x1
 224 0048 06       		.byte	0x6
 225 0049 E8110000 		.4byte	.LASF3
 226 004d 05       		.uleb128 0x5
 227 004e 9F0E0000 		.4byte	.LASF7
 228 0052 04       		.byte	0x4
ARM GAS  /tmp/ccDKXUnV.s 			page 5


 229 0053 2B       		.byte	0x2b
 230 0054 18       		.byte	0x18
 231 0055 59000000 		.4byte	0x59
 232 0059 03       		.uleb128 0x3
 233 005a 01       		.byte	0x1
 234 005b 08       		.byte	0x8
 235 005c 12100000 		.4byte	.LASF4
 236 0060 03       		.uleb128 0x3
 237 0061 02       		.byte	0x2
 238 0062 05       		.byte	0x5
 239 0063 2C0D0000 		.4byte	.LASF5
 240 0067 03       		.uleb128 0x3
 241 0068 02       		.byte	0x2
 242 0069 07       		.byte	0x7
 243 006a FA110000 		.4byte	.LASF6
 244 006e 05       		.uleb128 0x5
 245 006f 8E070000 		.4byte	.LASF8
 246 0073 04       		.byte	0x4
 247 0074 4D       		.byte	0x4d
 248 0075 18       		.byte	0x18
 249 0076 7A000000 		.4byte	0x7a
 250 007a 03       		.uleb128 0x3
 251 007b 04       		.byte	0x4
 252 007c 05       		.byte	0x5
 253 007d 4A0D0000 		.4byte	.LASF9
 254 0081 05       		.uleb128 0x5
 255 0082 20100000 		.4byte	.LASF10
 256 0086 04       		.byte	0x4
 257 0087 4F       		.byte	0x4f
 258 0088 19       		.byte	0x19
 259 0089 8D000000 		.4byte	0x8d
 260 008d 03       		.uleb128 0x3
 261 008e 04       		.byte	0x4
 262 008f 07       		.byte	0x7
 263 0090 100F0000 		.4byte	.LASF11
 264 0094 05       		.uleb128 0x5
 265 0095 D3070000 		.4byte	.LASF12
 266 0099 04       		.byte	0x4
 267 009a 69       		.byte	0x69
 268 009b 19       		.byte	0x19
 269 009c A0000000 		.4byte	0xa0
 270 00a0 03       		.uleb128 0x3
 271 00a1 08       		.byte	0x8
 272 00a2 07       		.byte	0x7
 273 00a3 4F050000 		.4byte	.LASF13
 274 00a7 05       		.uleb128 0x5
 275 00a8 1E080000 		.4byte	.LASF14
 276 00ac 05       		.byte	0x5
 277 00ad 18       		.byte	0x18
 278 00ae 13       		.byte	0x13
 279 00af 4D000000 		.4byte	0x4d
 280 00b3 05       		.uleb128 0x5
 281 00b4 850F0000 		.4byte	.LASF15
 282 00b8 05       		.byte	0x5
 283 00b9 2C       		.byte	0x2c
 284 00ba 13       		.byte	0x13
 285 00bb 6E000000 		.4byte	0x6e
ARM GAS  /tmp/ccDKXUnV.s 			page 6


 286 00bf 05       		.uleb128 0x5
 287 00c0 0A130000 		.4byte	.LASF16
 288 00c4 05       		.byte	0x5
 289 00c5 30       		.byte	0x30
 290 00c6 14       		.byte	0x14
 291 00c7 81000000 		.4byte	0x81
 292 00cb 05       		.uleb128 0x5
 293 00cc 1C0E0000 		.4byte	.LASF17
 294 00d0 05       		.byte	0x5
 295 00d1 3C       		.byte	0x3c
 296 00d2 14       		.byte	0x14
 297 00d3 94000000 		.4byte	0x94
 298 00d7 05       		.uleb128 0x5
 299 00d8 C50C0000 		.4byte	.LASF18
 300 00dc 06       		.byte	0x6
 301 00dd 27       		.byte	0x27
 302 00de 1D       		.byte	0x1d
 303 00df BF000000 		.4byte	0xbf
 304 00e3 05       		.uleb128 0x5
 305 00e4 98070000 		.4byte	.LASF19
 306 00e8 06       		.byte	0x6
 307 00e9 28       		.byte	0x28
 308 00ea 1D       		.byte	0x1d
 309 00eb CB000000 		.4byte	0xcb
 310 00ef 05       		.uleb128 0x5
 311 00f0 07020000 		.4byte	.LASF20
 312 00f4 06       		.byte	0x6
 313 00f5 29       		.byte	0x29
 314 00f6 1D       		.byte	0x1d
 315 00f7 BF000000 		.4byte	0xbf
 316 00fb 05       		.uleb128 0x5
 317 00fc 090C0000 		.4byte	.LASF21
 318 0100 06       		.byte	0x6
 319 0101 2A       		.byte	0x2a
 320 0102 1D       		.byte	0x1d
 321 0103 A7000000 		.4byte	0xa7
 322 0107 05       		.uleb128 0x5
 323 0108 B7070000 		.4byte	.LASF22
 324 010c 06       		.byte	0x6
 325 010d 2B       		.byte	0x2b
 326 010e 1D       		.byte	0x1d
 327 010f A7000000 		.4byte	0xa7
 328 0113 05       		.uleb128 0x5
 329 0114 080F0000 		.4byte	.LASF23
 330 0118 06       		.byte	0x6
 331 0119 2C       		.byte	0x2c
 332 011a 1D       		.byte	0x1d
 333 011b A7000000 		.4byte	0xa7
 334 011f 05       		.uleb128 0x5
 335 0120 1F050000 		.4byte	.LASF24
 336 0124 06       		.byte	0x6
 337 0125 2E       		.byte	0x2e
 338 0126 1D       		.byte	0x1d
 339 0127 BF000000 		.4byte	0xbf
 340 012b 05       		.uleb128 0x5
 341 012c 520A0000 		.4byte	.LASF25
 342 0130 06       		.byte	0x6
ARM GAS  /tmp/ccDKXUnV.s 			page 7


 343 0131 2F       		.byte	0x2f
 344 0132 1D       		.byte	0x1d
 345 0133 B3000000 		.4byte	0xb3
 346 0137 05       		.uleb128 0x5
 347 0138 00130000 		.4byte	.LASF26
 348 013c 06       		.byte	0x6
 349 013d 30       		.byte	0x30
 350 013e 1D       		.byte	0x1d
 351 013f B3000000 		.4byte	0xb3
 352 0143 05       		.uleb128 0x5
 353 0144 A5040000 		.4byte	.LASF27
 354 0148 06       		.byte	0x6
 355 0149 31       		.byte	0x31
 356 014a 1D       		.byte	0x1d
 357 014b BF000000 		.4byte	0xbf
 358 014f 05       		.uleb128 0x5
 359 0150 66050000 		.4byte	.LASF28
 360 0154 06       		.byte	0x6
 361 0155 33       		.byte	0x33
 362 0156 1D       		.byte	0x1d
 363 0157 B3000000 		.4byte	0xb3
 364 015b 05       		.uleb128 0x5
 365 015c 110C0000 		.4byte	.LASF29
 366 0160 06       		.byte	0x6
 367 0161 34       		.byte	0x34
 368 0162 1D       		.byte	0x1d
 369 0163 BF000000 		.4byte	0xbf
 370 0167 05       		.uleb128 0x5
 371 0168 49060000 		.4byte	.LASF30
 372 016c 07       		.byte	0x7
 373 016d 34       		.byte	0x34
 374 016e 1A       		.byte	0x1a
 375 016f 73010000 		.4byte	0x173
 376 0173 06       		.uleb128 0x6
 377 0174 45080000 		.4byte	.LASF57
 378 0178 60       		.byte	0x60
 379 0179 08       		.byte	0x8
 380 017a 8E       		.byte	0x8e
 381 017b 08       		.byte	0x8
 382 017c DC020000 		.4byte	0x2dc
 383 0180 07       		.uleb128 0x7
 384 0181 04       		.byte	0x4
 385 0182 08       		.byte	0x8
 386 0183 C6       		.byte	0xc6
 387 0184 09       		.byte	0x9
 388 0185 EB010000 		.4byte	0x1eb
 389 0189 08       		.uleb128 0x8
 390 018a 79060000 		.4byte	.LASF31
 391 018e 08       		.byte	0x8
 392 018f CD       		.byte	0xcd
 393 0190 19       		.byte	0x19
 394 0191 2B010000 		.4byte	0x12b
 395 0195 08       		.uleb128 0x8
 396 0196 5A130000 		.4byte	.LASF32
 397 019a 08       		.byte	0x8
 398 019b D4       		.byte	0xd4
 399 019c 19       		.byte	0x19
ARM GAS  /tmp/ccDKXUnV.s 			page 8


 400 019d 2B010000 		.4byte	0x12b
 401 01a1 08       		.uleb128 0x8
 402 01a2 D8020000 		.4byte	.LASF33
 403 01a6 08       		.byte	0x8
 404 01a7 DB       		.byte	0xdb
 405 01a8 1A       		.byte	0x1a
 406 01a9 D5030000 		.4byte	0x3d5
 407 01ad 08       		.uleb128 0x8
 408 01ae 64110000 		.4byte	.LASF34
 409 01b2 08       		.byte	0x8
 410 01b3 E2       		.byte	0xe2
 411 01b4 1A       		.byte	0x1a
 412 01b5 A6070000 		.4byte	0x7a6
 413 01b9 08       		.uleb128 0x8
 414 01ba 5F040000 		.4byte	.LASF35
 415 01be 08       		.byte	0x8
 416 01bf E7       		.byte	0xe7
 417 01c0 19       		.byte	0x19
 418 01c1 2B010000 		.4byte	0x12b
 419 01c5 08       		.uleb128 0x8
 420 01c6 A10F0000 		.4byte	.LASF36
 421 01ca 08       		.byte	0x8
 422 01cb F0       		.byte	0xf0
 423 01cc 1A       		.byte	0x1a
 424 01cd D4070000 		.4byte	0x7d4
 425 01d1 08       		.uleb128 0x8
 426 01d2 1D130000 		.4byte	.LASF37
 427 01d6 08       		.byte	0x8
 428 01d7 F9       		.byte	0xf9
 429 01d8 1A       		.byte	0x1a
 430 01d9 1C080000 		.4byte	0x81c
 431 01dd 09       		.uleb128 0x9
 432 01de 4D030000 		.4byte	.LASF38
 433 01e2 08       		.byte	0x8
 434 01e3 0101     		.2byte	0x101
 435 01e5 19       		.byte	0x19
 436 01e6 43010000 		.4byte	0x143
 437 01ea 00       		.byte	0
 438 01eb 0A       		.uleb128 0xa
 439 01ec 7F0F0000 		.4byte	.LASF39
 440 01f0 08       		.byte	0x8
 441 01f1 8F       		.byte	0x8f
 442 01f2 19       		.byte	0x19
 443 01f3 15030000 		.4byte	0x315
 444 01f7 00       		.byte	0
 445 01f8 0A       		.uleb128 0xa
 446 01f9 56070000 		.4byte	.LASF40
 447 01fd 08       		.byte	0x8
 448 01fe 90       		.byte	0x90
 449 01ff 19       		.byte	0x19
 450 0200 1F010000 		.4byte	0x11f
 451 0204 08       		.byte	0x8
 452 0205 0B       		.uleb128 0xb
 453 0206 63747800 		.ascii	"ctx\000"
 454 020a 08       		.byte	0x8
 455 020b 91       		.byte	0x91
 456 020c 19       		.byte	0x19
ARM GAS  /tmp/ccDKXUnV.s 			page 9


 457 020d 52050000 		.4byte	0x552
 458 0211 0C       		.byte	0xc
 459 0212 0A       		.uleb128 0xa
 460 0213 07100000 		.4byte	.LASF41
 461 0217 08       		.byte	0x8
 462 0218 93       		.byte	0x93
 463 0219 1A       		.byte	0x1a
 464 021a E8020000 		.4byte	0x2e8
 465 021e 10       		.byte	0x10
 466 021f 0A       		.uleb128 0xa
 467 0220 24130000 		.4byte	.LASF42
 468 0224 08       		.byte	0x8
 469 0225 94       		.byte	0x94
 470 0226 1A       		.byte	0x1a
 471 0227 E8020000 		.4byte	0x2e8
 472 022b 14       		.byte	0x14
 473 022c 0A       		.uleb128 0xa
 474 022d D10E0000 		.4byte	.LASF43
 475 0231 08       		.byte	0x8
 476 0232 9B       		.byte	0x9b
 477 0233 1A       		.byte	0x1a
 478 0234 22080000 		.4byte	0x822
 479 0238 18       		.byte	0x18
 480 0239 0A       		.uleb128 0xa
 481 023a A1070000 		.4byte	.LASF44
 482 023e 08       		.byte	0x8
 483 023f A4       		.byte	0xa4
 484 0240 1A       		.byte	0x1a
 485 0241 39080000 		.4byte	0x839
 486 0245 1C       		.byte	0x1c
 487 0246 0A       		.uleb128 0xa
 488 0247 F7100000 		.4byte	.LASF45
 489 024b 08       		.byte	0x8
 490 024c A9       		.byte	0xa9
 491 024d 19       		.byte	0x19
 492 024e 07010000 		.4byte	0x107
 493 0252 20       		.byte	0x20
 494 0253 0A       		.uleb128 0xa
 495 0254 CD0C0000 		.4byte	.LASF46
 496 0258 08       		.byte	0x8
 497 0259 AD       		.byte	0xad
 498 025a 19       		.byte	0x19
 499 025b FB000000 		.4byte	0xfb
 500 025f 21       		.byte	0x21
 501 0260 0A       		.uleb128 0xa
 502 0261 A0020000 		.4byte	.LASF47
 503 0265 08       		.byte	0x8
 504 0266 B2       		.byte	0xb2
 505 0267 19       		.byte	0x19
 506 0268 13010000 		.4byte	0x113
 507 026c 22       		.byte	0x22
 508 026d 0C       		.uleb128 0xc
 509 026e 7500     		.ascii	"u\000"
 510 0270 08       		.byte	0x8
 511 0271 0301     		.2byte	0x103
 512 0273 19       		.byte	0x19
 513 0274 80010000 		.4byte	0x180
ARM GAS  /tmp/ccDKXUnV.s 			page 10


 514 0278 24       		.byte	0x24
 515 0279 0D       		.uleb128 0xd
 516 027a 2B100000 		.4byte	.LASF48
 517 027e 08       		.byte	0x8
 518 027f 0801     		.2byte	0x108
 519 0281 19       		.byte	0x19
 520 0282 EE020000 		.4byte	0x2ee
 521 0286 28       		.byte	0x28
 522 0287 0D       		.uleb128 0xd
 523 0288 2E080000 		.4byte	.LASF49
 524 028c 08       		.byte	0x8
 525 028d 0E01     		.2byte	0x10e
 526 028f 19       		.byte	0x19
 527 0290 15030000 		.4byte	0x315
 528 0294 2C       		.byte	0x2c
 529 0295 0D       		.uleb128 0xd
 530 0296 E1010000 		.4byte	.LASF50
 531 029a 08       		.byte	0x8
 532 029b 1401     		.2byte	0x114
 533 029d 19       		.byte	0x19
 534 029e 43010000 		.4byte	0x143
 535 02a2 34       		.byte	0x34
 536 02a3 0D       		.uleb128 0xd
 537 02a4 16060000 		.4byte	.LASF51
 538 02a8 08       		.byte	0x8
 539 02a9 1B01     		.2byte	0x11b
 540 02ab 1A       		.byte	0x1a
 541 02ac 1C080000 		.4byte	0x81c
 542 02b0 38       		.byte	0x38
 543 02b1 0D       		.uleb128 0xd
 544 02b2 9B010000 		.4byte	.LASF52
 545 02b6 08       		.byte	0x8
 546 02b7 1F01     		.2byte	0x11f
 547 02b9 19       		.byte	0x19
 548 02ba 1F010000 		.4byte	0x11f
 549 02be 3C       		.byte	0x3c
 550 02bf 0D       		.uleb128 0xd
 551 02c0 63130000 		.4byte	.LASF53
 552 02c4 08       		.byte	0x8
 553 02c5 2601     		.2byte	0x126
 554 02c7 1A       		.byte	0x1a
 555 02c8 D5030000 		.4byte	0x3d5
 556 02cc 40       		.byte	0x40
 557 02cd 0D       		.uleb128 0xd
 558 02ce 4B110000 		.4byte	.LASF54
 559 02d2 08       		.byte	0x8
 560 02d3 2C01     		.2byte	0x12c
 561 02d5 19       		.byte	0x19
 562 02d6 4C070000 		.4byte	0x74c
 563 02da 48       		.byte	0x48
 564 02db 00       		.byte	0
 565 02dc 05       		.uleb128 0x5
 566 02dd FB000000 		.4byte	.LASF55
 567 02e1 07       		.byte	0x7
 568 02e2 39       		.byte	0x39
 569 02e3 14       		.byte	0x14
 570 02e4 E8020000 		.4byte	0x2e8
ARM GAS  /tmp/ccDKXUnV.s 			page 11


 571 02e8 0E       		.uleb128 0xe
 572 02e9 04       		.byte	0x4
 573 02ea 67010000 		.4byte	0x167
 574 02ee 05       		.uleb128 0x5
 575 02ef 10020000 		.4byte	.LASF56
 576 02f3 07       		.byte	0x7
 577 02f4 3E       		.byte	0x3e
 578 02f5 20       		.byte	0x20
 579 02f6 FA020000 		.4byte	0x2fa
 580 02fa 06       		.uleb128 0x6
 581 02fb 08000000 		.4byte	.LASF58
 582 02ff 04       		.byte	0x4
 583 0300 08       		.byte	0x8
 584 0301 7C       		.byte	0x7c
 585 0302 08       		.byte	0x8
 586 0303 15030000 		.4byte	0x315
 587 0307 0A       		.uleb128 0xa
 588 0308 F7010000 		.4byte	.LASF59
 589 030c 08       		.byte	0x8
 590 030d 7D       		.byte	0x7d
 591 030e 1A       		.byte	0x1a
 592 030f E8020000 		.4byte	0x2e8
 593 0313 00       		.byte	0
 594 0314 00       		.byte	0
 595 0315 05       		.uleb128 0x5
 596 0316 FF050000 		.4byte	.LASF60
 597 031a 07       		.byte	0x7
 598 031b 45       		.byte	0x45
 599 031c 21       		.byte	0x21
 600 031d 21030000 		.4byte	0x321
 601 0321 06       		.uleb128 0x6
 602 0322 0E0A0000 		.4byte	.LASF61
 603 0326 08       		.byte	0x8
 604 0327 08       		.byte	0x8
 605 0328 83       		.byte	0x83
 606 0329 08       		.byte	0x8
 607 032a 49030000 		.4byte	0x349
 608 032e 0A       		.uleb128 0xa
 609 032f F7010000 		.4byte	.LASF59
 610 0333 08       		.byte	0x8
 611 0334 84       		.byte	0x84
 612 0335 1A       		.byte	0x1a
 613 0336 E8020000 		.4byte	0x2e8
 614 033a 00       		.byte	0
 615 033b 0A       		.uleb128 0xa
 616 033c C5020000 		.4byte	.LASF62
 617 0340 08       		.byte	0x8
 618 0341 85       		.byte	0x85
 619 0342 1A       		.byte	0x1a
 620 0343 E8020000 		.4byte	0x2e8
 621 0347 04       		.byte	0x4
 622 0348 00       		.byte	0
 623 0349 05       		.uleb128 0x5
 624 034a 350F0000 		.4byte	.LASF63
 625 034e 07       		.byte	0x7
 626 034f 4C       		.byte	0x4c
 627 0350 1E       		.byte	0x1e
ARM GAS  /tmp/ccDKXUnV.s 			page 12


 628 0351 55030000 		.4byte	0x355
 629 0355 0F       		.uleb128 0xf
 630 0356 FE020000 		.4byte	.LASF64
 631 035a 1C       		.byte	0x1c
 632 035b 08       		.byte	0x8
 633 035c 5E01     		.2byte	0x15e
 634 035e 08       		.byte	0x8
 635 035f B8030000 		.4byte	0x3b8
 636 0363 0D       		.uleb128 0xd
 637 0364 7F0F0000 		.4byte	.LASF39
 638 0368 08       		.byte	0x8
 639 0369 5F01     		.2byte	0x15f
 640 036b 19       		.byte	0x19
 641 036c 15030000 		.4byte	0x315
 642 0370 00       		.byte	0
 643 0371 0D       		.uleb128 0xd
 644 0372 56070000 		.4byte	.LASF40
 645 0376 08       		.byte	0x8
 646 0377 6001     		.2byte	0x160
 647 0379 19       		.byte	0x19
 648 037a 1F010000 		.4byte	0x11f
 649 037e 08       		.byte	0x8
 650 037f 0C       		.uleb128 0xc
 651 0380 63747800 		.ascii	"ctx\000"
 652 0384 08       		.byte	0x8
 653 0385 6201     		.2byte	0x162
 654 0387 19       		.byte	0x19
 655 0388 52050000 		.4byte	0x552
 656 038c 0C       		.byte	0xc
 657 038d 0D       		.uleb128 0xd
 658 038e 07100000 		.4byte	.LASF41
 659 0392 08       		.byte	0x8
 660 0393 6501     		.2byte	0x165
 661 0395 1A       		.byte	0x1a
 662 0396 E8020000 		.4byte	0x2e8
 663 039a 10       		.byte	0x10
 664 039b 0D       		.uleb128 0xd
 665 039c 24130000 		.4byte	.LASF42
 666 03a0 08       		.byte	0x8
 667 03a1 6601     		.2byte	0x166
 668 03a3 1A       		.byte	0x1a
 669 03a4 E8020000 		.4byte	0x2e8
 670 03a8 14       		.byte	0x14
 671 03a9 0D       		.uleb128 0xd
 672 03aa EF0E0000 		.4byte	.LASF65
 673 03ae 08       		.byte	0x8
 674 03af 6901     		.2byte	0x169
 675 03b1 1A       		.byte	0x1a
 676 03b2 E8020000 		.4byte	0x2e8
 677 03b6 18       		.byte	0x18
 678 03b7 00       		.byte	0
 679 03b8 05       		.uleb128 0x5
 680 03b9 CB030000 		.4byte	.LASF66
 681 03bd 07       		.byte	0x7
 682 03be 51       		.byte	0x51
 683 03bf 10       		.byte	0x10
 684 03c0 C4030000 		.4byte	0x3c4
ARM GAS  /tmp/ccDKXUnV.s 			page 13


 685 03c4 0E       		.uleb128 0xe
 686 03c5 04       		.byte	0x4
 687 03c6 CA030000 		.4byte	0x3ca
 688 03ca 10       		.uleb128 0x10
 689 03cb D5030000 		.4byte	0x3d5
 690 03cf 11       		.uleb128 0x11
 691 03d0 D5030000 		.4byte	0x3d5
 692 03d4 00       		.byte	0
 693 03d5 12       		.uleb128 0x12
 694 03d6 04       		.byte	0x4
 695 03d7 05       		.uleb128 0x5
 696 03d8 900A0000 		.4byte	.LASF67
 697 03dc 07       		.byte	0x7
 698 03dd 56       		.byte	0x56
 699 03de 21       		.byte	0x21
 700 03df E3030000 		.4byte	0x3e3
 701 03e3 0F       		.uleb128 0xf
 702 03e4 27050000 		.4byte	.LASF68
 703 03e8 14       		.byte	0x14
 704 03e9 08       		.byte	0x8
 705 03ea 3901     		.2byte	0x139
 706 03ec 08       		.byte	0x8
 707 03ed 38040000 		.4byte	0x438
 708 03f1 0D       		.uleb128 0xd
 709 03f2 F7010000 		.4byte	.LASF59
 710 03f6 08       		.byte	0x8
 711 03f7 3A01     		.2byte	0x13a
 712 03f9 1A       		.byte	0x1a
 713 03fa 3F080000 		.4byte	0x83f
 714 03fe 00       		.byte	0
 715 03ff 0D       		.uleb128 0xd
 716 0400 C5020000 		.4byte	.LASF62
 717 0404 08       		.byte	0x8
 718 0405 3B01     		.2byte	0x13b
 719 0407 1A       		.byte	0x1a
 720 0408 3F080000 		.4byte	0x83f
 721 040c 04       		.byte	0x4
 722 040d 0D       		.uleb128 0xd
 723 040e F4110000 		.4byte	.LASF69
 724 0412 08       		.byte	0x8
 725 0413 3C01     		.2byte	0x13c
 726 0415 19       		.byte	0x19
 727 0416 2E050000 		.4byte	0x52e
 728 041a 08       		.byte	0x8
 729 041b 0D       		.uleb128 0xd
 730 041c 48030000 		.4byte	.LASF70
 731 0420 08       		.byte	0x8
 732 0421 3D01     		.2byte	0x13d
 733 0423 19       		.byte	0x19
 734 0424 B8030000 		.4byte	0x3b8
 735 0428 0C       		.byte	0xc
 736 0429 0C       		.uleb128 0xc
 737 042a 70617200 		.ascii	"par\000"
 738 042e 08       		.byte	0x8
 739 042f 3F01     		.2byte	0x13f
 740 0431 1A       		.byte	0x1a
 741 0432 D5030000 		.4byte	0x3d5
ARM GAS  /tmp/ccDKXUnV.s 			page 14


 742 0436 10       		.byte	0x10
 743 0437 00       		.byte	0
 744 0438 05       		.uleb128 0x5
 745 0439 33100000 		.4byte	.LASF71
 746 043d 07       		.byte	0x7
 747 043e 5B       		.byte	0x5b
 748 043f 28       		.byte	0x28
 749 0440 44040000 		.4byte	0x444
 750 0444 0F       		.uleb128 0xf
 751 0445 1E060000 		.4byte	.LASF72
 752 0449 10       		.byte	0x10
 753 044a 08       		.byte	0x8
 754 044b 4901     		.2byte	0x149
 755 044d 08       		.byte	0x8
 756 044e 8B040000 		.4byte	0x48b
 757 0452 0D       		.uleb128 0xd
 758 0453 F7010000 		.4byte	.LASF59
 759 0457 08       		.byte	0x8
 760 0458 4A01     		.2byte	0x14a
 761 045a 1A       		.byte	0x1a
 762 045b 3F080000 		.4byte	0x83f
 763 045f 00       		.byte	0
 764 0460 0D       		.uleb128 0xd
 765 0461 C5020000 		.4byte	.LASF62
 766 0465 08       		.byte	0x8
 767 0466 4C01     		.2byte	0x14c
 768 0468 1A       		.byte	0x1a
 769 0469 3F080000 		.4byte	0x83f
 770 046d 04       		.byte	0x4
 771 046e 0D       		.uleb128 0xd
 772 046f F4110000 		.4byte	.LASF69
 773 0473 08       		.byte	0x8
 774 0474 4E01     		.2byte	0x14e
 775 0476 19       		.byte	0x19
 776 0477 2E050000 		.4byte	0x52e
 777 047b 08       		.byte	0x8
 778 047c 0D       		.uleb128 0xd
 779 047d 130E0000 		.4byte	.LASF73
 780 0481 08       		.byte	0x8
 781 0482 5601     		.2byte	0x156
 782 0484 19       		.byte	0x19
 783 0485 22050000 		.4byte	0x522
 784 0489 0C       		.byte	0xc
 785 048a 00       		.byte	0
 786 048b 05       		.uleb128 0x5
 787 048c A8070000 		.4byte	.LASF74
 788 0490 07       		.byte	0x7
 789 0491 60       		.byte	0x60
 790 0492 20       		.byte	0x20
 791 0493 97040000 		.4byte	0x497
 792 0497 0F       		.uleb128 0xf
 793 0498 D4030000 		.4byte	.LASF75
 794 049c 04       		.byte	0x4
 795 049d 08       		.byte	0x8
 796 049e 7001     		.2byte	0x170
 797 04a0 08       		.byte	0x8
 798 04a1 B4040000 		.4byte	0x4b4
ARM GAS  /tmp/ccDKXUnV.s 			page 15


 799 04a5 0D       		.uleb128 0xd
 800 04a6 13130000 		.4byte	.LASF76
 801 04aa 08       		.byte	0x8
 802 04ab 7801     		.2byte	0x178
 803 04ad 24       		.byte	0x24
 804 04ae 28080000 		.4byte	0x828
 805 04b2 00       		.byte	0
 806 04b3 00       		.byte	0
 807 04b4 05       		.uleb128 0x5
 808 04b5 51110000 		.4byte	.LASF77
 809 04b9 07       		.byte	0x7
 810 04ba 65       		.byte	0x65
 811 04bb 1A       		.byte	0x1a
 812 04bc C0040000 		.4byte	0x4c0
 813 04c0 0F       		.uleb128 0xf
 814 04c1 A10D0000 		.4byte	.LASF78
 815 04c5 D0       		.byte	0xd0
 816 04c6 08       		.byte	0x8
 817 04c7 9001     		.2byte	0x190
 818 04c9 08       		.byte	0x8
 819 04ca 22050000 		.4byte	0x522
 820 04ce 0D       		.uleb128 0xd
 821 04cf 5A0E0000 		.4byte	.LASF79
 822 04d3 08       		.byte	0x8
 823 04d4 9401     		.2byte	0x194
 824 04d6 19       		.byte	0x19
 825 04d7 49030000 		.4byte	0x349
 826 04db 00       		.byte	0
 827 04dc 0D       		.uleb128 0xd
 828 04dd DF020000 		.4byte	.LASF80
 829 04e1 08       		.byte	0x8
 830 04e2 9801     		.2byte	0x198
 831 04e4 19       		.byte	0x19
 832 04e5 38040000 		.4byte	0x438
 833 04e9 1C       		.byte	0x1c
 834 04ea 0C       		.uleb128 0xc
 835 04eb 64626700 		.ascii	"dbg\000"
 836 04ef 08       		.byte	0x8
 837 04f0 9C01     		.2byte	0x19c
 838 04f2 19       		.byte	0x19
 839 04f3 8B040000 		.4byte	0x48b
 840 04f7 2C       		.byte	0x2c
 841 04f8 0D       		.uleb128 0xd
 842 04f9 280C0000 		.4byte	.LASF81
 843 04fd 08       		.byte	0x8
 844 04fe A001     		.2byte	0x1a0
 845 0500 19       		.byte	0x19
 846 0501 67010000 		.4byte	0x167
 847 0505 30       		.byte	0x30
 848 0506 0C       		.uleb128 0xc
 849 0507 746D00   		.ascii	"tm\000"
 850 050a 08       		.byte	0x8
 851 050b A501     		.2byte	0x1a5
 852 050d 19       		.byte	0x19
 853 050e F3060000 		.4byte	0x6f3
 854 0512 90       		.byte	0x90
 855 0513 0D       		.uleb128 0xd
ARM GAS  /tmp/ccDKXUnV.s 			page 16


 856 0514 B1040000 		.4byte	.LASF82
 857 0518 08       		.byte	0x8
 858 0519 AB01     		.2byte	0x1ab
 859 051b 19       		.byte	0x19
 860 051c 9A070000 		.4byte	0x79a
 861 0520 98       		.byte	0x98
 862 0521 00       		.byte	0
 863 0522 05       		.uleb128 0x5
 864 0523 91010000 		.4byte	.LASF83
 865 0527 09       		.byte	0x9
 866 0528 6D       		.byte	0x6d
 867 0529 12       		.byte	0x12
 868 052a BF000000 		.4byte	0xbf
 869 052e 05       		.uleb128 0x5
 870 052f B20B0000 		.4byte	.LASF84
 871 0533 09       		.byte	0x9
 872 0534 79       		.byte	0x79
 873 0535 12       		.byte	0x12
 874 0536 BF000000 		.4byte	0xbf
 875 053a 05       		.uleb128 0x5
 876 053b 16010000 		.4byte	.LASF85
 877 053f 0A       		.byte	0xa
 878 0540 65       		.byte	0x65
 879 0541 0F       		.byte	0xf
 880 0542 D5030000 		.4byte	0x3d5
 881 0546 05       		.uleb128 0x5
 882 0547 45120000 		.4byte	.LASF86
 883 054b 0A       		.byte	0xa
 884 054c 6D       		.byte	0x6d
 885 054d 12       		.byte	0x12
 886 054e CB000000 		.4byte	0xcb
 887 0552 06       		.uleb128 0x6
 888 0553 F1020000 		.4byte	.LASF87
 889 0557 04       		.byte	0x4
 890 0558 0A       		.byte	0xa
 891 0559 89       		.byte	0x89
 892 055a 08       		.byte	0x8
 893 055b 6C050000 		.4byte	0x56c
 894 055f 0B       		.uleb128 0xb
 895 0560 737000   		.ascii	"sp\000"
 896 0563 0A       		.byte	0xa
 897 0564 8A       		.byte	0x8a
 898 0565 17       		.byte	0x17
 899 0566 D2060000 		.4byte	0x6d2
 900 056a 00       		.byte	0
 901 056b 00       		.byte	0
 902 056c 0F       		.uleb128 0xf
 903 056d 770D0000 		.4byte	.LASF88
 904 0571 64       		.byte	0x64
 905 0572 0B       		.byte	0xb
 906 0573 5901     		.2byte	0x159
 907 0575 08       		.byte	0x8
 908 0576 D2060000 		.4byte	0x6d2
 909 057a 0C       		.uleb128 0xc
 910 057b 73313600 		.ascii	"s16\000"
 911 057f 0B       		.byte	0xb
 912 0580 5B01     		.2byte	0x15b
ARM GAS  /tmp/ccDKXUnV.s 			page 17


 913 0582 11       		.byte	0x11
 914 0583 3A050000 		.4byte	0x53a
 915 0587 00       		.byte	0
 916 0588 0C       		.uleb128 0xc
 917 0589 73313700 		.ascii	"s17\000"
 918 058d 0B       		.byte	0xb
 919 058e 5C01     		.2byte	0x15c
 920 0590 11       		.byte	0x11
 921 0591 3A050000 		.4byte	0x53a
 922 0595 04       		.byte	0x4
 923 0596 0C       		.uleb128 0xc
 924 0597 73313800 		.ascii	"s18\000"
 925 059b 0B       		.byte	0xb
 926 059c 5D01     		.2byte	0x15d
 927 059e 11       		.byte	0x11
 928 059f 3A050000 		.4byte	0x53a
 929 05a3 08       		.byte	0x8
 930 05a4 0C       		.uleb128 0xc
 931 05a5 73313900 		.ascii	"s19\000"
 932 05a9 0B       		.byte	0xb
 933 05aa 5E01     		.2byte	0x15e
 934 05ac 11       		.byte	0x11
 935 05ad 3A050000 		.4byte	0x53a
 936 05b1 0C       		.byte	0xc
 937 05b2 0C       		.uleb128 0xc
 938 05b3 73323000 		.ascii	"s20\000"
 939 05b7 0B       		.byte	0xb
 940 05b8 5F01     		.2byte	0x15f
 941 05ba 11       		.byte	0x11
 942 05bb 3A050000 		.4byte	0x53a
 943 05bf 10       		.byte	0x10
 944 05c0 0C       		.uleb128 0xc
 945 05c1 73323100 		.ascii	"s21\000"
 946 05c5 0B       		.byte	0xb
 947 05c6 6001     		.2byte	0x160
 948 05c8 11       		.byte	0x11
 949 05c9 3A050000 		.4byte	0x53a
 950 05cd 14       		.byte	0x14
 951 05ce 0C       		.uleb128 0xc
 952 05cf 73323200 		.ascii	"s22\000"
 953 05d3 0B       		.byte	0xb
 954 05d4 6101     		.2byte	0x161
 955 05d6 11       		.byte	0x11
 956 05d7 3A050000 		.4byte	0x53a
 957 05db 18       		.byte	0x18
 958 05dc 0C       		.uleb128 0xc
 959 05dd 73323300 		.ascii	"s23\000"
 960 05e1 0B       		.byte	0xb
 961 05e2 6201     		.2byte	0x162
 962 05e4 11       		.byte	0x11
 963 05e5 3A050000 		.4byte	0x53a
 964 05e9 1C       		.byte	0x1c
 965 05ea 0C       		.uleb128 0xc
 966 05eb 73323400 		.ascii	"s24\000"
 967 05ef 0B       		.byte	0xb
 968 05f0 6301     		.2byte	0x163
 969 05f2 11       		.byte	0x11
ARM GAS  /tmp/ccDKXUnV.s 			page 18


 970 05f3 3A050000 		.4byte	0x53a
 971 05f7 20       		.byte	0x20
 972 05f8 0C       		.uleb128 0xc
 973 05f9 73323500 		.ascii	"s25\000"
 974 05fd 0B       		.byte	0xb
 975 05fe 6401     		.2byte	0x164
 976 0600 11       		.byte	0x11
 977 0601 3A050000 		.4byte	0x53a
 978 0605 24       		.byte	0x24
 979 0606 0C       		.uleb128 0xc
 980 0607 73323600 		.ascii	"s26\000"
 981 060b 0B       		.byte	0xb
 982 060c 6501     		.2byte	0x165
 983 060e 11       		.byte	0x11
 984 060f 3A050000 		.4byte	0x53a
 985 0613 28       		.byte	0x28
 986 0614 0C       		.uleb128 0xc
 987 0615 73323700 		.ascii	"s27\000"
 988 0619 0B       		.byte	0xb
 989 061a 6601     		.2byte	0x166
 990 061c 11       		.byte	0x11
 991 061d 3A050000 		.4byte	0x53a
 992 0621 2C       		.byte	0x2c
 993 0622 0C       		.uleb128 0xc
 994 0623 73323800 		.ascii	"s28\000"
 995 0627 0B       		.byte	0xb
 996 0628 6701     		.2byte	0x167
 997 062a 11       		.byte	0x11
 998 062b 3A050000 		.4byte	0x53a
 999 062f 30       		.byte	0x30
 1000 0630 0C       		.uleb128 0xc
 1001 0631 73323900 		.ascii	"s29\000"
 1002 0635 0B       		.byte	0xb
 1003 0636 6801     		.2byte	0x168
 1004 0638 11       		.byte	0x11
 1005 0639 3A050000 		.4byte	0x53a
 1006 063d 34       		.byte	0x34
 1007 063e 0C       		.uleb128 0xc
 1008 063f 73333000 		.ascii	"s30\000"
 1009 0643 0B       		.byte	0xb
 1010 0644 6901     		.2byte	0x169
 1011 0646 11       		.byte	0x11
 1012 0647 3A050000 		.4byte	0x53a
 1013 064b 38       		.byte	0x38
 1014 064c 0C       		.uleb128 0xc
 1015 064d 73333100 		.ascii	"s31\000"
 1016 0651 0B       		.byte	0xb
 1017 0652 6A01     		.2byte	0x16a
 1018 0654 11       		.byte	0x11
 1019 0655 3A050000 		.4byte	0x53a
 1020 0659 3C       		.byte	0x3c
 1021 065a 0C       		.uleb128 0xc
 1022 065b 723400   		.ascii	"r4\000"
 1023 065e 0B       		.byte	0xb
 1024 065f 6C01     		.2byte	0x16c
 1025 0661 11       		.byte	0x11
 1026 0662 3A050000 		.4byte	0x53a
ARM GAS  /tmp/ccDKXUnV.s 			page 19


 1027 0666 40       		.byte	0x40
 1028 0667 0C       		.uleb128 0xc
 1029 0668 723500   		.ascii	"r5\000"
 1030 066b 0B       		.byte	0xb
 1031 066c 6D01     		.2byte	0x16d
 1032 066e 11       		.byte	0x11
 1033 066f 3A050000 		.4byte	0x53a
 1034 0673 44       		.byte	0x44
 1035 0674 0C       		.uleb128 0xc
 1036 0675 723600   		.ascii	"r6\000"
 1037 0678 0B       		.byte	0xb
 1038 0679 6E01     		.2byte	0x16e
 1039 067b 11       		.byte	0x11
 1040 067c 3A050000 		.4byte	0x53a
 1041 0680 48       		.byte	0x48
 1042 0681 0C       		.uleb128 0xc
 1043 0682 723700   		.ascii	"r7\000"
 1044 0685 0B       		.byte	0xb
 1045 0686 6F01     		.2byte	0x16f
 1046 0688 11       		.byte	0x11
 1047 0689 3A050000 		.4byte	0x53a
 1048 068d 4C       		.byte	0x4c
 1049 068e 0C       		.uleb128 0xc
 1050 068f 723800   		.ascii	"r8\000"
 1051 0692 0B       		.byte	0xb
 1052 0693 7001     		.2byte	0x170
 1053 0695 11       		.byte	0x11
 1054 0696 3A050000 		.4byte	0x53a
 1055 069a 50       		.byte	0x50
 1056 069b 0C       		.uleb128 0xc
 1057 069c 723900   		.ascii	"r9\000"
 1058 069f 0B       		.byte	0xb
 1059 06a0 7101     		.2byte	0x171
 1060 06a2 11       		.byte	0x11
 1061 06a3 3A050000 		.4byte	0x53a
 1062 06a7 54       		.byte	0x54
 1063 06a8 0C       		.uleb128 0xc
 1064 06a9 72313000 		.ascii	"r10\000"
 1065 06ad 0B       		.byte	0xb
 1066 06ae 7201     		.2byte	0x172
 1067 06b0 11       		.byte	0x11
 1068 06b1 3A050000 		.4byte	0x53a
 1069 06b5 58       		.byte	0x58
 1070 06b6 0C       		.uleb128 0xc
 1071 06b7 72313100 		.ascii	"r11\000"
 1072 06bb 0B       		.byte	0xb
 1073 06bc 7301     		.2byte	0x173
 1074 06be 11       		.byte	0x11
 1075 06bf 3A050000 		.4byte	0x53a
 1076 06c3 5C       		.byte	0x5c
 1077 06c4 0C       		.uleb128 0xc
 1078 06c5 6C7200   		.ascii	"lr\000"
 1079 06c8 0B       		.byte	0xb
 1080 06c9 7401     		.2byte	0x174
 1081 06cb 11       		.byte	0x11
 1082 06cc 3A050000 		.4byte	0x53a
 1083 06d0 60       		.byte	0x60
ARM GAS  /tmp/ccDKXUnV.s 			page 20


 1084 06d1 00       		.byte	0
 1085 06d2 0E       		.uleb128 0xe
 1086 06d3 04       		.byte	0x4
 1087 06d4 6C050000 		.4byte	0x56c
 1088 06d8 13       		.uleb128 0x13
 1089 06d9 04       		.byte	0x4
 1090 06da 0C       		.byte	0xc
 1091 06db 38       		.byte	0x38
 1092 06dc 10       		.byte	0x10
 1093 06dd 220F0000 		.4byte	.LASF91
 1094 06e1 F3060000 		.4byte	0x6f3
 1095 06e5 0A       		.uleb128 0xa
 1096 06e6 B4060000 		.4byte	.LASF89
 1097 06ea 0C       		.byte	0xc
 1098 06eb 3C       		.byte	0x3c
 1099 06ec 19       		.byte	0x19
 1100 06ed D7000000 		.4byte	0xd7
 1101 06f1 00       		.byte	0
 1102 06f2 00       		.byte	0
 1103 06f3 05       		.uleb128 0x5
 1104 06f4 F80B0000 		.4byte	.LASF90
 1105 06f8 0C       		.byte	0xc
 1106 06f9 3D       		.byte	0x3d
 1107 06fa 03       		.byte	0x3
 1108 06fb D8060000 		.4byte	0x6d8
 1109 06ff 13       		.uleb128 0x13
 1110 0700 18       		.byte	0x18
 1111 0701 0C       		.byte	0xc
 1112 0702 48       		.byte	0x48
 1113 0703 10       		.byte	0x10
 1114 0704 5C010000 		.4byte	.LASF92
 1115 0708 4C070000 		.4byte	0x74c
 1116 070c 0A       		.uleb128 0xa
 1117 070d 0D100000 		.4byte	.LASF93
 1118 0711 0C       		.byte	0xc
 1119 0712 49       		.byte	0x49
 1120 0713 19       		.byte	0x19
 1121 0714 D7000000 		.4byte	0xd7
 1122 0718 00       		.byte	0
 1123 0719 0A       		.uleb128 0xa
 1124 071a B6050000 		.4byte	.LASF94
 1125 071e 0C       		.byte	0xc
 1126 071f 4A       		.byte	0x4a
 1127 0720 19       		.byte	0x19
 1128 0721 D7000000 		.4byte	0xd7
 1129 0725 04       		.byte	0x4
 1130 0726 0A       		.uleb128 0xa
 1131 0727 9A0E0000 		.4byte	.LASF95
 1132 072b 0C       		.byte	0xc
 1133 072c 4B       		.byte	0x4b
 1134 072d 19       		.byte	0x19
 1135 072e D7000000 		.4byte	0xd7
 1136 0732 08       		.byte	0x8
 1137 0733 0B       		.uleb128 0xb
 1138 0734 6E00     		.ascii	"n\000"
 1139 0736 0C       		.byte	0xc
 1140 0737 4C       		.byte	0x4c
ARM GAS  /tmp/ccDKXUnV.s 			page 21


 1141 0738 19       		.byte	0x19
 1142 0739 5B010000 		.4byte	0x15b
 1143 073d 0C       		.byte	0xc
 1144 073e 0A       		.uleb128 0xa
 1145 073f 2C020000 		.4byte	.LASF96
 1146 0743 0C       		.byte	0xc
 1147 0744 4D       		.byte	0x4d
 1148 0745 19       		.byte	0x19
 1149 0746 E3000000 		.4byte	0xe3
 1150 074a 10       		.byte	0x10
 1151 074b 00       		.byte	0
 1152 074c 05       		.uleb128 0x5
 1153 074d 43070000 		.4byte	.LASF97
 1154 0751 0C       		.byte	0xc
 1155 0752 4E       		.byte	0x4e
 1156 0753 03       		.byte	0x3
 1157 0754 FF060000 		.4byte	0x6ff
 1158 0758 13       		.uleb128 0x13
 1159 0759 38       		.byte	0x38
 1160 075a 0D       		.byte	0xd
 1161 075b 38       		.byte	0x38
 1162 075c 10       		.byte	0x10
 1163 075d 22070000 		.4byte	.LASF98
 1164 0761 9A070000 		.4byte	0x79a
 1165 0765 0A       		.uleb128 0xa
 1166 0766 D30C0000 		.4byte	.LASF99
 1167 076a 0D       		.byte	0xd
 1168 076b 39       		.byte	0x39
 1169 076c 19       		.byte	0x19
 1170 076d 5B010000 		.4byte	0x15b
 1171 0771 00       		.byte	0
 1172 0772 0A       		.uleb128 0xa
 1173 0773 7A0B0000 		.4byte	.LASF100
 1174 0777 0D       		.byte	0xd
 1175 0778 3A       		.byte	0x3a
 1176 0779 19       		.byte	0x19
 1177 077a 5B010000 		.4byte	0x15b
 1178 077e 04       		.byte	0x4
 1179 077f 0A       		.uleb128 0xa
 1180 0780 570B0000 		.4byte	.LASF101
 1181 0784 0D       		.byte	0xd
 1182 0785 3B       		.byte	0x3b
 1183 0786 19       		.byte	0x19
 1184 0787 4C070000 		.4byte	0x74c
 1185 078b 08       		.byte	0x8
 1186 078c 0A       		.uleb128 0xa
 1187 078d FC010000 		.4byte	.LASF102
 1188 0791 0D       		.byte	0xd
 1189 0792 3D       		.byte	0x3d
 1190 0793 19       		.byte	0x19
 1191 0794 4C070000 		.4byte	0x74c
 1192 0798 20       		.byte	0x20
 1193 0799 00       		.byte	0
 1194 079a 05       		.uleb128 0x5
 1195 079b 67040000 		.4byte	.LASF103
 1196 079f 0D       		.byte	0xd
 1197 07a0 3F       		.byte	0x3f
ARM GAS  /tmp/ccDKXUnV.s 			page 22


 1198 07a1 03       		.byte	0x3
 1199 07a2 58070000 		.4byte	0x758
 1200 07a6 0E       		.uleb128 0xe
 1201 07a7 04       		.byte	0x4
 1202 07a8 DC020000 		.4byte	0x2dc
 1203 07ac 06       		.uleb128 0x6
 1204 07ad E6040000 		.4byte	.LASF104
 1205 07b1 0C       		.byte	0xc
 1206 07b2 0E       		.byte	0xe
 1207 07b3 34       		.byte	0x34
 1208 07b4 10       		.byte	0x10
 1209 07b5 D4070000 		.4byte	0x7d4
 1210 07b9 0A       		.uleb128 0xa
 1211 07ba 7F0F0000 		.4byte	.LASF39
 1212 07be 0E       		.byte	0xe
 1213 07bf 35       		.byte	0x35
 1214 07c0 19       		.byte	0x19
 1215 07c1 15030000 		.4byte	0x315
 1216 07c5 00       		.byte	0
 1217 07c6 0B       		.uleb128 0xb
 1218 07c7 636E7400 		.ascii	"cnt\000"
 1219 07cb 0E       		.byte	0xe
 1220 07cc 37       		.byte	0x37
 1221 07cd 19       		.byte	0x19
 1222 07ce 4F010000 		.4byte	0x14f
 1223 07d2 08       		.byte	0x8
 1224 07d3 00       		.byte	0
 1225 07d4 0E       		.uleb128 0xe
 1226 07d5 04       		.byte	0x4
 1227 07d6 AC070000 		.4byte	0x7ac
 1228 07da 06       		.uleb128 0x6
 1229 07db DB060000 		.4byte	.LASF105
 1230 07df 14       		.byte	0x14
 1231 07e0 0F       		.byte	0xf
 1232 07e1 39       		.byte	0x39
 1233 07e2 08       		.byte	0x8
 1234 07e3 1C080000 		.4byte	0x81c
 1235 07e7 0A       		.uleb128 0xa
 1236 07e8 7F0F0000 		.4byte	.LASF39
 1237 07ec 0F       		.byte	0xf
 1238 07ed 3A       		.byte	0x3a
 1239 07ee 19       		.byte	0x19
 1240 07ef 15030000 		.4byte	0x315
 1241 07f3 00       		.byte	0
 1242 07f4 0A       		.uleb128 0xa
 1243 07f5 F9050000 		.4byte	.LASF106
 1244 07f9 0F       		.byte	0xf
 1245 07fa 3C       		.byte	0x3c
 1246 07fb 1A       		.byte	0x1a
 1247 07fc E8020000 		.4byte	0x2e8
 1248 0800 08       		.byte	0x8
 1249 0801 0A       		.uleb128 0xa
 1250 0802 F7010000 		.4byte	.LASF59
 1251 0806 0F       		.byte	0xf
 1252 0807 3E       		.byte	0x3e
 1253 0808 1A       		.byte	0x1a
 1254 0809 5D080000 		.4byte	0x85d
ARM GAS  /tmp/ccDKXUnV.s 			page 23


 1255 080d 0C       		.byte	0xc
 1256 080e 0B       		.uleb128 0xb
 1257 080f 636E7400 		.ascii	"cnt\000"
 1258 0813 0F       		.byte	0xf
 1259 0814 41       		.byte	0x41
 1260 0815 19       		.byte	0x19
 1261 0816 4F010000 		.4byte	0x14f
 1262 081a 10       		.byte	0x10
 1263 081b 00       		.byte	0
 1264 081c 0E       		.uleb128 0xe
 1265 081d 04       		.byte	0x4
 1266 081e DA070000 		.4byte	0x7da
 1267 0822 0E       		.uleb128 0xe
 1268 0823 04       		.byte	0x4
 1269 0824 34080000 		.4byte	0x834
 1270 0828 14       		.uleb128 0x14
 1271 0829 22080000 		.4byte	0x822
 1272 082d 03       		.uleb128 0x3
 1273 082e 01       		.byte	0x1
 1274 082f 08       		.byte	0x8
 1275 0830 66070000 		.4byte	.LASF107
 1276 0834 15       		.uleb128 0x15
 1277 0835 2D080000 		.4byte	0x82d
 1278 0839 0E       		.uleb128 0xe
 1279 083a 04       		.byte	0x4
 1280 083b 46050000 		.4byte	0x546
 1281 083f 0E       		.uleb128 0xe
 1282 0840 04       		.byte	0x4
 1283 0841 D7030000 		.4byte	0x3d7
 1284 0845 16       		.uleb128 0x16
 1285 0846 636800   		.ascii	"ch\000"
 1286 0849 08       		.byte	0x8
 1287 084a C701     		.2byte	0x1c7
 1288 084c 14       		.byte	0x14
 1289 084d B4040000 		.4byte	0x4b4
 1290 0851 05       		.uleb128 0x5
 1291 0852 FF0F0000 		.4byte	.LASF108
 1292 0856 0F       		.byte	0xf
 1293 0857 34       		.byte	0x34
 1294 0858 19       		.byte	0x19
 1295 0859 DA070000 		.4byte	0x7da
 1296 085d 0E       		.uleb128 0xe
 1297 085e 04       		.byte	0x4
 1298 085f 51080000 		.4byte	0x851
 1299 0863 05       		.uleb128 0x5
 1300 0864 12080000 		.4byte	.LASF109
 1301 0868 10       		.byte	0x10
 1302 0869 53       		.byte	0x53
 1303 086a 10       		.byte	0x10
 1304 086b 74080000 		.4byte	0x874
 1305 086f 15       		.uleb128 0x15
 1306 0870 63080000 		.4byte	0x863
 1307 0874 0E       		.uleb128 0xe
 1308 0875 04       		.byte	0x4
 1309 0876 7A080000 		.4byte	0x87a
 1310 087a 10       		.uleb128 0x10
 1311 087b 85080000 		.4byte	0x885
ARM GAS  /tmp/ccDKXUnV.s 			page 24


 1312 087f 11       		.uleb128 0x11
 1313 0880 37010000 		.4byte	0x137
 1314 0884 00       		.byte	0
 1315 0885 03       		.uleb128 0x3
 1316 0886 01       		.byte	0x1
 1317 0887 02       		.byte	0x2
 1318 0888 580A0000 		.4byte	.LASF110
 1319 088c 17       		.uleb128 0x17
 1320 088d DB100000 		.4byte	.LASF230
 1321 0891 02       		.byte	0x2
 1322 0892 21       		.byte	0x21
 1323 0893 0B       		.byte	0xb
 1324 0894 D40E0000 		.4byte	0xed4
 1325 0898 18       		.uleb128 0x18
 1326 0899 0F060000 		.4byte	.LASF150
 1327 089d 01       		.byte	0x1
 1328 089e 02       		.byte	0x2
 1329 089f 2C       		.byte	0x2c
 1330 08a0 09       		.byte	0x9
 1331 08a1 2A0A0000 		.4byte	0xa2a
 1332 08a5 19       		.uleb128 0x19
 1333 08a6 030F0000 		.4byte	.LASF111
 1334 08aa 02       		.byte	0x2
 1335 08ab 3A       		.byte	0x3a
 1336 08ac 11       		.byte	0x11
 1337 08ad E4030000 		.4byte	.LASF113
 1338 08b1 01       		.byte	0x1
 1339 08b2 1A       		.uleb128 0x1a
 1340 08b3 8B0A0000 		.4byte	.LASF131
 1341 08b7 02       		.byte	0x2
 1342 08b8 4B       		.byte	0x4b
 1343 08b9 11       		.byte	0x11
 1344 08ba A5020000 		.4byte	.LASF231
 1345 08be 01       		.byte	0x1
 1346 08bf C9080000 		.4byte	0x8c9
 1347 08c3 11       		.uleb128 0x11
 1348 08c4 22080000 		.4byte	0x822
 1349 08c8 00       		.byte	0
 1350 08c9 1B       		.uleb128 0x1b
 1351 08ca 33070000 		.4byte	.LASF135
 1352 08ce 02       		.byte	0x2
 1353 08cf 69       		.byte	0x69
 1354 08d0 11       		.byte	0x11
 1355 08d1 740C0000 		.4byte	.LASF232
 1356 08d5 85080000 		.4byte	0x885
 1357 08d9 01       		.byte	0x1
 1358 08da E4080000 		.4byte	0x8e4
 1359 08de 11       		.uleb128 0x11
 1360 08df 2C000000 		.4byte	0x2c
 1361 08e3 00       		.byte	0
 1362 08e4 19       		.uleb128 0x19
 1363 08e5 770F0000 		.4byte	.LASF112
 1364 08e9 02       		.byte	0x2
 1365 08ea 76       		.byte	0x76
 1366 08eb 11       		.byte	0x11
 1367 08ec 5B020000 		.4byte	.LASF114
 1368 08f0 01       		.byte	0x1
ARM GAS  /tmp/ccDKXUnV.s 			page 25


 1369 08f1 19       		.uleb128 0x19
 1370 08f2 BB060000 		.4byte	.LASF115
 1371 08f6 02       		.byte	0x2
 1372 08f7 86       		.byte	0x86
 1373 08f8 11       		.byte	0x11
 1374 08f9 E30A0000 		.4byte	.LASF116
 1375 08fd 01       		.byte	0x1
 1376 08fe 19       		.uleb128 0x19
 1377 08ff BC050000 		.4byte	.LASF117
 1378 0903 02       		.byte	0x2
 1379 0904 94       		.byte	0x94
 1380 0905 11       		.byte	0x11
 1381 0906 96110000 		.4byte	.LASF118
 1382 090a 01       		.byte	0x1
 1383 090b 19       		.uleb128 0x19
 1384 090c 4D0A0000 		.4byte	.LASF119
 1385 0910 02       		.byte	0x2
 1386 0911 9E       		.byte	0x9e
 1387 0912 11       		.byte	0x11
 1388 0913 830D0000 		.4byte	.LASF120
 1389 0917 01       		.byte	0x1
 1390 0918 19       		.uleb128 0x19
 1391 0919 5D110000 		.4byte	.LASF121
 1392 091d 02       		.byte	0x2
 1393 091e A8       		.byte	0xa8
 1394 091f 11       		.byte	0x11
 1395 0920 71010000 		.4byte	.LASF122
 1396 0924 01       		.byte	0x1
 1397 0925 19       		.uleb128 0x19
 1398 0926 A00A0000 		.4byte	.LASF123
 1399 092a 02       		.byte	0x2
 1400 092b B9       		.byte	0xb9
 1401 092c 11       		.byte	0x11
 1402 092d E8090000 		.4byte	.LASF124
 1403 0931 01       		.byte	0x1
 1404 0932 19       		.uleb128 0x19
 1405 0933 37080000 		.4byte	.LASF125
 1406 0937 02       		.byte	0x2
 1407 0938 CB       		.byte	0xcb
 1408 0939 11       		.byte	0x11
 1409 093a A90E0000 		.4byte	.LASF126
 1410 093e 01       		.byte	0x1
 1411 093f 19       		.uleb128 0x19
 1412 0940 4F080000 		.4byte	.LASF127
 1413 0944 02       		.byte	0x2
 1414 0945 D7       		.byte	0xd7
 1415 0946 11       		.byte	0x11
 1416 0947 7D000000 		.4byte	.LASF128
 1417 094b 01       		.byte	0x1
 1418 094c 19       		.uleb128 0x19
 1419 094d 94080000 		.4byte	.LASF129
 1420 0951 02       		.byte	0x2
 1421 0952 E3       		.byte	0xe3
 1422 0953 11       		.byte	0x11
 1423 0954 A9000000 		.4byte	.LASF130
 1424 0958 01       		.byte	0x1
 1425 0959 1C       		.uleb128 0x1c
ARM GAS  /tmp/ccDKXUnV.s 			page 26


 1426 095a B30C0000 		.4byte	.LASF133
 1427 095e 02       		.byte	0x2
 1428 095f F5       		.byte	0xf5
 1429 0960 15       		.byte	0x15
 1430 0961 AF100000 		.4byte	.LASF233
 1431 0965 EF000000 		.4byte	0xef
 1432 0969 01       		.byte	0x1
 1433 096a 1D       		.uleb128 0x1d
 1434 096b B6110000 		.4byte	.LASF132
 1435 096f 02       		.byte	0x2
 1436 0970 0301     		.2byte	0x103
 1437 0972 11       		.byte	0x11
 1438 0973 8D050000 		.4byte	.LASF138
 1439 0977 01       		.byte	0x1
 1440 0978 82090000 		.4byte	0x982
 1441 097c 11       		.uleb128 0x11
 1442 097d EF000000 		.4byte	0xef
 1443 0981 00       		.byte	0
 1444 0982 1E       		.uleb128 0x1e
 1445 0983 35060000 		.4byte	.LASF134
 1446 0987 02       		.byte	0x2
 1447 0988 1301     		.2byte	0x113
 1448 098a 14       		.byte	0x14
 1449 098b 5D0A0000 		.4byte	.LASF141
 1450 098f D7000000 		.4byte	0xd7
 1451 0993 01       		.byte	0x1
 1452 0994 1F       		.uleb128 0x1f
 1453 0995 C3060000 		.4byte	.LASF136
 1454 0999 02       		.byte	0x2
 1455 099a 2A01     		.2byte	0x12a
 1456 099c 11       		.byte	0x11
 1457 099d 32040000 		.4byte	.LASF146
 1458 09a1 85080000 		.4byte	0x885
 1459 09a5 01       		.byte	0x1
 1460 09a6 BA090000 		.4byte	0x9ba
 1461 09aa 11       		.uleb128 0x11
 1462 09ab D7000000 		.4byte	0xd7
 1463 09af 11       		.uleb128 0x11
 1464 09b0 D7000000 		.4byte	0xd7
 1465 09b4 11       		.uleb128 0x11
 1466 09b5 D7000000 		.4byte	0xd7
 1467 09b9 00       		.byte	0
 1468 09ba 1D       		.uleb128 0x1d
 1469 09bb A4010000 		.4byte	.LASF137
 1470 09bf 02       		.byte	0x2
 1471 09c0 3C01     		.2byte	0x13c
 1472 09c2 11       		.byte	0x11
 1473 09c3 730E0000 		.4byte	.LASF139
 1474 09c7 01       		.byte	0x1
 1475 09c8 D2090000 		.4byte	0x9d2
 1476 09cc 11       		.uleb128 0x11
 1477 09cd D7000000 		.4byte	0xd7
 1478 09d1 00       		.byte	0
 1479 09d2 1E       		.uleb128 0x1e
 1480 09d3 00000000 		.4byte	.LASF140
 1481 09d7 02       		.byte	0x2
 1482 09d8 4A01     		.2byte	0x14a
ARM GAS  /tmp/ccDKXUnV.s 			page 27


 1483 09da 16       		.byte	0x16
 1484 09db 6C050000 		.4byte	.LASF142
 1485 09df 22050000 		.4byte	0x522
 1486 09e3 01       		.byte	0x1
 1487 09e4 1E       		.uleb128 0x1e
 1488 09e5 AB0D0000 		.4byte	.LASF143
 1489 09e9 02       		.byte	0x2
 1490 09ea 5701     		.2byte	0x157
 1491 09ec 16       		.byte	0x16
 1492 09ed C10A0000 		.4byte	.LASF144
 1493 09f1 22050000 		.4byte	0x522
 1494 09f5 01       		.byte	0x1
 1495 09f6 1F       		.uleb128 0x1f
 1496 09f7 600E0000 		.4byte	.LASF145
 1497 09fb 02       		.byte	0x2
 1498 09fc 6901     		.2byte	0x169
 1499 09fe 11       		.byte	0x11
 1500 09ff 2E010000 		.4byte	.LASF147
 1501 0a03 85080000 		.4byte	0x885
 1502 0a07 01       		.byte	0x1
 1503 0a08 170A0000 		.4byte	0xa17
 1504 0a0c 11       		.uleb128 0x11
 1505 0a0d 22050000 		.4byte	0x522
 1506 0a11 11       		.uleb128 0x11
 1507 0a12 22050000 		.4byte	0x522
 1508 0a16 00       		.byte	0
 1509 0a17 1E       		.uleb128 0x1e
 1510 0a18 13070000 		.4byte	.LASF148
 1511 0a1c 02       		.byte	0x2
 1512 0a1d 7B01     		.2byte	0x17b
 1513 0a1f 1C       		.byte	0x1c
 1514 0a20 BF090000 		.4byte	.LASF149
 1515 0a24 2A0A0000 		.4byte	0xa2a
 1516 0a28 01       		.byte	0x1
 1517 0a29 00       		.byte	0
 1518 0a2a 20       		.uleb128 0x20
 1519 0a2b 9E0C0000 		.4byte	.LASF151
 1520 0a2f 04       		.byte	0x4
 1521 0a30 02       		.byte	0x2
 1522 0a31 5002     		.2byte	0x250
 1523 0a33 09       		.byte	0x9
 1524 0a34 080C0000 		.4byte	0xc08
 1525 0a38 0D       		.uleb128 0xd
 1526 0a39 E6100000 		.4byte	.LASF152
 1527 0a3d 02       		.byte	0x2
 1528 0a3e 5402     		.2byte	0x254
 1529 0a40 0F       		.byte	0xf
 1530 0a41 E8020000 		.4byte	0x2e8
 1531 0a45 00       		.byte	0
 1532 0a46 21       		.uleb128 0x21
 1533 0a47 9E0C0000 		.4byte	.LASF151
 1534 0a4b 02       		.byte	0x2
 1535 0a4c 6302     		.2byte	0x263
 1536 0a4e 05       		.byte	0x5
 1537 0a4f 55120000 		.4byte	.LASF153
 1538 0a53 D40E0000 		.4byte	0xed4
 1539 0a57 01       		.byte	0x1
ARM GAS  /tmp/ccDKXUnV.s 			page 28


 1540 0a58 600A0000 		.4byte	0xa60
 1541 0a5c 660A0000 		.4byte	0xa66
 1542 0a60 22       		.uleb128 0x22
 1543 0a61 D40E0000 		.4byte	0xed4
 1544 0a65 00       		.byte	0
 1545 0a66 21       		.uleb128 0x21
 1546 0a67 9E0C0000 		.4byte	.LASF151
 1547 0a6b 02       		.byte	0x2
 1548 0a6c 6E02     		.2byte	0x26e
 1549 0a6e 05       		.byte	0x5
 1550 0a6f 76040000 		.4byte	.LASF154
 1551 0a73 D40E0000 		.4byte	0xed4
 1552 0a77 01       		.byte	0x1
 1553 0a78 800A0000 		.4byte	0xa80
 1554 0a7c 8B0A0000 		.4byte	0xa8b
 1555 0a80 22       		.uleb128 0x22
 1556 0a81 D40E0000 		.4byte	0xed4
 1557 0a85 11       		.uleb128 0x11
 1558 0a86 E8020000 		.4byte	0x2e8
 1559 0a8a 00       		.byte	0
 1560 0a8b 21       		.uleb128 0x21
 1561 0a8c 730B0000 		.4byte	.LASF155
 1562 0a90 02       		.byte	0x2
 1563 0a91 7902     		.2byte	0x279
 1564 0a93 0A       		.byte	0xa
 1565 0a94 D40F0000 		.4byte	.LASF156
 1566 0a98 85080000 		.4byte	0x885
 1567 0a9c 01       		.byte	0x1
 1568 0a9d A50A0000 		.4byte	0xaa5
 1569 0aa1 AB0A0000 		.4byte	0xaab
 1570 0aa5 22       		.uleb128 0x22
 1571 0aa6 DF0E0000 		.4byte	0xedf
 1572 0aaa 00       		.byte	0
 1573 0aab 21       		.uleb128 0x21
 1574 0aac 7A100000 		.4byte	.LASF157
 1575 0ab0 02       		.byte	0x2
 1576 0ab1 8102     		.2byte	0x281
 1577 0ab3 0F       		.byte	0xf
 1578 0ab4 83100000 		.4byte	.LASF158
 1579 0ab8 E8020000 		.4byte	0x2e8
 1580 0abc 01       		.byte	0x1
 1581 0abd C50A0000 		.4byte	0xac5
 1582 0ac1 CB0A0000 		.4byte	0xacb
 1583 0ac5 22       		.uleb128 0x22
 1584 0ac6 D40E0000 		.4byte	0xed4
 1585 0aca 00       		.byte	0
 1586 0acb 23       		.uleb128 0x23
 1587 0acc 6B070000 		.4byte	.LASF159
 1588 0ad0 02       		.byte	0x2
 1589 0ad1 9002     		.2byte	0x290
 1590 0ad3 0A       		.byte	0xa
 1591 0ad4 C3050000 		.4byte	.LASF160
 1592 0ad8 01       		.byte	0x1
 1593 0ad9 E10A0000 		.4byte	0xae1
 1594 0add E70A0000 		.4byte	0xae7
 1595 0ae1 22       		.uleb128 0x22
 1596 0ae2 DF0E0000 		.4byte	0xedf
ARM GAS  /tmp/ccDKXUnV.s 			page 29


 1597 0ae6 00       		.byte	0
 1598 0ae7 21       		.uleb128 0x21
 1599 0ae8 D4060000 		.4byte	.LASF161
 1600 0aec 02       		.byte	0x2
 1601 0aed 9F02     		.2byte	0x29f
 1602 0aef 15       		.byte	0x15
 1603 0af0 D90C0000 		.4byte	.LASF162
 1604 0af4 2A0A0000 		.4byte	0xa2a
 1605 0af8 01       		.byte	0x1
 1606 0af9 010B0000 		.4byte	0xb01
 1607 0afd 070B0000 		.4byte	0xb07
 1608 0b01 22       		.uleb128 0x22
 1609 0b02 DF0E0000 		.4byte	0xedf
 1610 0b06 00       		.byte	0
 1611 0b07 23       		.uleb128 0x23
 1612 0b08 26080000 		.4byte	.LASF163
 1613 0b0c 02       		.byte	0x2
 1614 0b0d B302     		.2byte	0x2b3
 1615 0b0f 0A       		.byte	0xa
 1616 0b10 89060000 		.4byte	.LASF164
 1617 0b14 01       		.byte	0x1
 1618 0b15 1D0B0000 		.4byte	0xb1d
 1619 0b19 230B0000 		.4byte	0xb23
 1620 0b1d 22       		.uleb128 0x22
 1621 0b1e D40E0000 		.4byte	0xed4
 1622 0b22 00       		.byte	0
 1623 0b23 21       		.uleb128 0x21
 1624 0b24 F30B0000 		.4byte	.LASF165
 1625 0b28 02       		.byte	0x2
 1626 0b29 DA02     		.2byte	0x2da
 1627 0b2b 0B       		.byte	0xb
 1628 0b2c 250A0000 		.4byte	.LASF166
 1629 0b30 2B010000 		.4byte	0x12b
 1630 0b34 01       		.byte	0x1
 1631 0b35 3D0B0000 		.4byte	0xb3d
 1632 0b39 430B0000 		.4byte	0xb43
 1633 0b3d 22       		.uleb128 0x22
 1634 0b3e D40E0000 		.4byte	0xed4
 1635 0b42 00       		.byte	0
 1636 0b43 21       		.uleb128 0x21
 1637 0b44 E4060000 		.4byte	.LASF167
 1638 0b48 02       		.byte	0x2
 1639 0b49 EC02     		.2byte	0x2ec
 1640 0b4b 0B       		.byte	0xb
 1641 0b4c 0B110000 		.4byte	.LASF168
 1642 0b50 2B010000 		.4byte	0x12b
 1643 0b54 01       		.byte	0x1
 1644 0b55 5D0B0000 		.4byte	0xb5d
 1645 0b59 680B0000 		.4byte	0xb68
 1646 0b5d 22       		.uleb128 0x22
 1647 0b5e DF0E0000 		.4byte	0xedf
 1648 0b62 11       		.uleb128 0x11
 1649 0b63 2B010000 		.4byte	0x12b
 1650 0b67 00       		.byte	0
 1651 0b68 21       		.uleb128 0x21
 1652 0b69 460B0000 		.4byte	.LASF169
 1653 0b6d 02       		.byte	0x2
ARM GAS  /tmp/ccDKXUnV.s 			page 30


 1654 0b6e F902     		.2byte	0x2f9
 1655 0b70 0A       		.byte	0xa
 1656 0b71 100B0000 		.4byte	.LASF170
 1657 0b75 85080000 		.4byte	0x885
 1658 0b79 01       		.byte	0x1
 1659 0b7a 820B0000 		.4byte	0xb82
 1660 0b7e 880B0000 		.4byte	0xb88
 1661 0b82 22       		.uleb128 0x22
 1662 0b83 DF0E0000 		.4byte	0xedf
 1663 0b87 00       		.byte	0
 1664 0b88 21       		.uleb128 0x21
 1665 0b89 5B070000 		.4byte	.LASF171
 1666 0b8d 02       		.byte	0x2
 1667 0b8e 0503     		.2byte	0x305
 1668 0b90 0B       		.byte	0xb
 1669 0b91 B1010000 		.4byte	.LASF172
 1670 0b95 2B010000 		.4byte	0x12b
 1671 0b99 01       		.byte	0x1
 1672 0b9a A20B0000 		.4byte	0xba2
 1673 0b9e A80B0000 		.4byte	0xba8
 1674 0ba2 22       		.uleb128 0x22
 1675 0ba3 DF0E0000 		.4byte	0xedf
 1676 0ba7 00       		.byte	0
 1677 0ba8 23       		.uleb128 0x23
 1678 0ba9 1F010000 		.4byte	.LASF173
 1679 0bad 02       		.byte	0x2
 1680 0bae 1203     		.2byte	0x312
 1681 0bb0 0A       		.byte	0xa
 1682 0bb1 C2120000 		.4byte	.LASF174
 1683 0bb5 01       		.byte	0x1
 1684 0bb6 BE0B0000 		.4byte	0xbbe
 1685 0bba C90B0000 		.4byte	0xbc9
 1686 0bbe 22       		.uleb128 0x22
 1687 0bbf D40E0000 		.4byte	0xed4
 1688 0bc3 11       		.uleb128 0x11
 1689 0bc4 2B010000 		.4byte	0x12b
 1690 0bc8 00       		.byte	0
 1691 0bc9 23       		.uleb128 0x23
 1692 0bca 1F020000 		.4byte	.LASF175
 1693 0bce 02       		.byte	0x2
 1694 0bcf 2203     		.2byte	0x322
 1695 0bd1 0A       		.byte	0xa
 1696 0bd2 83030000 		.4byte	.LASF176
 1697 0bd6 01       		.byte	0x1
 1698 0bd7 DF0B0000 		.4byte	0xbdf
 1699 0bdb EA0B0000 		.4byte	0xbea
 1700 0bdf 22       		.uleb128 0x22
 1701 0be0 DF0E0000 		.4byte	0xedf
 1702 0be4 11       		.uleb128 0x11
 1703 0be5 43010000 		.4byte	0x143
 1704 0be9 00       		.byte	0
 1705 0bea 24       		.uleb128 0x24
 1706 0beb CA020000 		.4byte	.LASF177
 1707 0bef 02       		.byte	0x2
 1708 0bf0 2E03     		.2byte	0x32e
 1709 0bf2 0A       		.byte	0xa
 1710 0bf3 C00B0000 		.4byte	.LASF178
ARM GAS  /tmp/ccDKXUnV.s 			page 31


 1711 0bf7 01       		.byte	0x1
 1712 0bf8 FC0B0000 		.4byte	0xbfc
 1713 0bfc 22       		.uleb128 0x22
 1714 0bfd DF0E0000 		.4byte	0xedf
 1715 0c01 11       		.uleb128 0x11
 1716 0c02 43010000 		.4byte	0x143
 1717 0c06 00       		.byte	0
 1718 0c07 00       		.byte	0
 1719 0c08 15       		.uleb128 0x15
 1720 0c09 2A0A0000 		.4byte	0xa2a
 1721 0c0d 25       		.uleb128 0x25
 1722 0c0e 080E0000 		.4byte	.LASF180
 1723 0c12 04       		.byte	0x4
 1724 0c13 02       		.byte	0x2
 1725 0c14 8803     		.2byte	0x388
 1726 0c16 09       		.byte	0x9
 1727 0c17 0D0C0000 		.4byte	0xc0d
 1728 0c1b C10E0000 		.4byte	0xec1
 1729 0c1f 26       		.uleb128 0x26
 1730 0c20 620B0000 		.4byte	.LASF179
 1731 0c24 F00E0000 		.4byte	0xef0
 1732 0c28 00       		.byte	0
 1733 0c29 01       		.byte	0x1
 1734 0c2a 21       		.uleb128 0x21
 1735 0c2b 080E0000 		.4byte	.LASF180
 1736 0c2f 02       		.byte	0x2
 1737 0c30 8F03     		.2byte	0x38f
 1738 0c32 05       		.byte	0x5
 1739 0c33 B40D0000 		.4byte	.LASF181
 1740 0c37 000F0000 		.4byte	0xf00
 1741 0c3b 01       		.byte	0x1
 1742 0c3c 440C0000 		.4byte	0xc44
 1743 0c40 4A0C0000 		.4byte	0xc4a
 1744 0c44 22       		.uleb128 0x22
 1745 0c45 000F0000 		.4byte	0xf00
 1746 0c49 00       		.byte	0
 1747 0c4a 27       		.uleb128 0x27
 1748 0c4b 50120000 		.4byte	.LASF234
 1749 0c4f 02       		.byte	0x2
 1750 0c50 9A03     		.2byte	0x39a
 1751 0c52 12       		.byte	0x12
 1752 0c53 C5110000 		.4byte	.LASF235
 1753 0c57 01       		.byte	0x1
 1754 0c58 02       		.uleb128 0x2
 1755 0c59 10       		.byte	0x10
 1756 0c5a 00       		.uleb128 0
 1757 0c5b 0D0C0000 		.4byte	0xc0d
 1758 0c5f 01       		.byte	0x1
 1759 0c60 680C0000 		.4byte	0xc68
 1760 0c64 6E0C0000 		.4byte	0xc6e
 1761 0c68 22       		.uleb128 0x22
 1762 0c69 000F0000 		.4byte	0xf00
 1763 0c6d 00       		.byte	0
 1764 0c6e 28       		.uleb128 0x28
 1765 0c6f D60E0000 		.4byte	.LASF236
 1766 0c73 02       		.byte	0x2
 1767 0c74 A503     		.2byte	0x3a5
ARM GAS  /tmp/ccDKXUnV.s 			page 32


 1768 0c76 1D       		.byte	0x1d
 1769 0c77 7C020000 		.4byte	.LASF237
 1770 0c7b 2A0A0000 		.4byte	0xa2a
 1771 0c7f 01       		.byte	0x1
 1772 0c80 02       		.uleb128 0x2
 1773 0c81 10       		.byte	0x10
 1774 0c82 01       		.uleb128 0x1
 1775 0c83 0D0C0000 		.4byte	0xc0d
 1776 0c87 01       		.byte	0x1
 1777 0c88 900C0000 		.4byte	0xc90
 1778 0c8c 9B0C0000 		.4byte	0xc9b
 1779 0c90 22       		.uleb128 0x22
 1780 0c91 000F0000 		.4byte	0xf00
 1781 0c95 11       		.uleb128 0x11
 1782 0c96 1F010000 		.4byte	0x11f
 1783 0c9a 00       		.byte	0
 1784 0c9b 1E       		.uleb128 0x1e
 1785 0c9c 80060000 		.4byte	.LASF182
 1786 0ca0 02       		.byte	0x2
 1787 0ca1 AE03     		.2byte	0x3ae
 1788 0ca3 1C       		.byte	0x1c
 1789 0ca4 52060000 		.4byte	.LASF183
 1790 0ca8 2A0A0000 		.4byte	0xa2a
 1791 0cac 01       		.byte	0x1
 1792 0cad 1D       		.uleb128 0x1d
 1793 0cae 0E010000 		.4byte	.LASF184
 1794 0cb2 02       		.byte	0x2
 1795 0cb3 BC03     		.2byte	0x3bc
 1796 0cb5 11       		.byte	0x11
 1797 0cb6 BE040000 		.4byte	.LASF185
 1798 0cba 01       		.byte	0x1
 1799 0cbb C50C0000 		.4byte	0xcc5
 1800 0cbf 11       		.uleb128 0x11
 1801 0cc0 22080000 		.4byte	0x822
 1802 0cc4 00       		.byte	0
 1803 0cc5 1F       		.uleb128 0x1f
 1804 0cc6 F70E0000 		.4byte	.LASF186
 1805 0cca 02       		.byte	0x2
 1806 0ccb CD03     		.2byte	0x3cd
 1807 0ccd 14       		.byte	0x14
 1808 0cce 1A120000 		.4byte	.LASF187
 1809 0cd2 1F010000 		.4byte	0x11f
 1810 0cd6 01       		.byte	0x1
 1811 0cd7 E10C0000 		.4byte	0xce1
 1812 0cdb 11       		.uleb128 0x11
 1813 0cdc 1F010000 		.4byte	0x11f
 1814 0ce0 00       		.byte	0
 1815 0ce1 1E       		.uleb128 0x1e
 1816 0ce2 42050000 		.4byte	.LASF188
 1817 0ce6 02       		.byte	0x2
 1818 0ce7 DA03     		.2byte	0x3da
 1819 0ce9 14       		.byte	0x14
 1820 0cea A80F0000 		.4byte	.LASF189
 1821 0cee 1F010000 		.4byte	0x11f
 1822 0cf2 01       		.byte	0x1
 1823 0cf3 1D       		.uleb128 0x1d
 1824 0cf4 C0070000 		.4byte	.LASF190
ARM GAS  /tmp/ccDKXUnV.s 			page 33


 1825 0cf8 02       		.byte	0x2
 1826 0cf9 ED03     		.2byte	0x3ed
 1827 0cfb 11       		.byte	0x11
 1828 0cfc F0060000 		.4byte	.LASF191
 1829 0d00 01       		.byte	0x1
 1830 0d01 0B0D0000 		.4byte	0xd0b
 1831 0d05 11       		.uleb128 0x11
 1832 0d06 2B010000 		.4byte	0x12b
 1833 0d0a 00       		.byte	0
 1834 0d0b 1D       		.uleb128 0x1d
 1835 0d0c C5030000 		.4byte	.LASF192
 1836 0d10 02       		.byte	0x2
 1837 0d11 0004     		.2byte	0x400
 1838 0d13 11       		.byte	0x11
 1839 0d14 D7000000 		.4byte	.LASF193
 1840 0d18 01       		.byte	0x1
 1841 0d19 230D0000 		.4byte	0xd23
 1842 0d1d 11       		.uleb128 0x11
 1843 0d1e 2B010000 		.4byte	0x12b
 1844 0d22 00       		.byte	0
 1845 0d23 1E       		.uleb128 0x1e
 1846 0d24 180C0000 		.4byte	.LASF194
 1847 0d28 02       		.byte	0x2
 1848 0d29 0F04     		.2byte	0x40f
 1849 0d2b 11       		.byte	0x11
 1850 0d2c 830B0000 		.4byte	.LASF195
 1851 0d30 85080000 		.4byte	0x885
 1852 0d34 01       		.byte	0x1
 1853 0d35 1D       		.uleb128 0x1d
 1854 0d36 F1100000 		.4byte	.LASF196
 1855 0d3a 02       		.byte	0x2
 1856 0d3b 2004     		.2byte	0x420
 1857 0d3d 11       		.byte	0x11
 1858 0d3e 37020000 		.4byte	.LASF197
 1859 0d42 01       		.byte	0x1
 1860 0d43 4D0D0000 		.4byte	0xd4d
 1861 0d47 11       		.uleb128 0x11
 1862 0d48 2E050000 		.4byte	0x52e
 1863 0d4c 00       		.byte	0
 1864 0d4d 1D       		.uleb128 0x1d
 1865 0d4e E6020000 		.4byte	.LASF198
 1866 0d52 02       		.byte	0x2
 1867 0d53 2D04     		.2byte	0x42d
 1868 0d55 11       		.byte	0x11
 1869 0d56 0C030000 		.4byte	.LASF199
 1870 0d5a 01       		.byte	0x1
 1871 0d5b 650D0000 		.4byte	0xd65
 1872 0d5f 11       		.uleb128 0x11
 1873 0d60 22050000 		.4byte	0x522
 1874 0d64 00       		.byte	0
 1875 0d65 1F       		.uleb128 0x1f
 1876 0d66 DC0E0000 		.4byte	.LASF200
 1877 0d6a 02       		.byte	0x2
 1878 0d6b 4004     		.2byte	0x440
 1879 0d6d 16       		.byte	0x16
 1880 0d6e 61080000 		.4byte	.LASF201
 1881 0d72 22050000 		.4byte	0x522
ARM GAS  /tmp/ccDKXUnV.s 			page 34


 1882 0d76 01       		.byte	0x1
 1883 0d77 860D0000 		.4byte	0xd86
 1884 0d7b 11       		.uleb128 0x11
 1885 0d7c 22050000 		.4byte	0x522
 1886 0d80 11       		.uleb128 0x11
 1887 0d81 22050000 		.4byte	0x522
 1888 0d85 00       		.byte	0
 1889 0d86 29       		.uleb128 0x29
 1890 0d87 1F0A0000 		.4byte	.LASF202
 1891 0d8b 02       		.byte	0x2
 1892 0d8c 4C04     		.2byte	0x44c
 1893 0d8e 11       		.byte	0x11
 1894 0d8f 530D0000 		.4byte	.LASF224
 1895 0d93 01       		.byte	0x1
 1896 0d94 1E       		.uleb128 0x1e
 1897 0d95 040B0000 		.4byte	.LASF203
 1898 0d99 02       		.byte	0x2
 1899 0d9a 5C04     		.2byte	0x45c
 1900 0d9c 1C       		.byte	0x1c
 1901 0d9d 52000000 		.4byte	.LASF204
 1902 0da1 2A0A0000 		.4byte	0xa2a
 1903 0da5 01       		.byte	0x1
 1904 0da6 1F       		.uleb128 0x1f
 1905 0da7 7C070000 		.4byte	.LASF205
 1906 0dab 02       		.byte	0x2
 1907 0dac 6B04     		.2byte	0x46b
 1908 0dae 18       		.byte	0x18
 1909 0daf 49100000 		.4byte	.LASF206
 1910 0db3 43010000 		.4byte	0x143
 1911 0db7 01       		.byte	0x1
 1912 0db8 C20D0000 		.4byte	0xdc2
 1913 0dbc 11       		.uleb128 0x11
 1914 0dbd 43010000 		.4byte	0x143
 1915 0dc1 00       		.byte	0
 1916 0dc2 1F       		.uleb128 0x1f
 1917 0dc3 38050000 		.4byte	.LASF207
 1918 0dc7 02       		.byte	0x2
 1919 0dc8 7A04     		.2byte	0x47a
 1920 0dca 18       		.byte	0x18
 1921 0dcb 040D0000 		.4byte	.LASF208
 1922 0dcf 43010000 		.4byte	0x143
 1923 0dd3 01       		.byte	0x1
 1924 0dd4 DE0D0000 		.4byte	0xdde
 1925 0dd8 11       		.uleb128 0x11
 1926 0dd9 43010000 		.4byte	0x143
 1927 0ddd 00       		.byte	0
 1928 0dde 1F       		.uleb128 0x1f
 1929 0ddf 0D120000 		.4byte	.LASF209
 1930 0de3 02       		.byte	0x2
 1931 0de4 9004     		.2byte	0x490
 1932 0de6 18       		.byte	0x18
 1933 0de7 F3040000 		.4byte	.LASF210
 1934 0deb 43010000 		.4byte	0x143
 1935 0def 01       		.byte	0x1
 1936 0df0 FA0D0000 		.4byte	0xdfa
 1937 0df4 11       		.uleb128 0x11
 1938 0df5 43010000 		.4byte	0x143
ARM GAS  /tmp/ccDKXUnV.s 			page 35


 1939 0df9 00       		.byte	0
 1940 0dfa 1F       		.uleb128 0x1f
 1941 0dfb 45000000 		.4byte	.LASF211
 1942 0dff 02       		.byte	0x2
 1943 0e00 A104     		.2byte	0x4a1
 1944 0e02 18       		.byte	0x18
 1945 0e03 6A110000 		.4byte	.LASF212
 1946 0e07 43010000 		.4byte	0x143
 1947 0e0b 01       		.byte	0x1
 1948 0e0c 160E0000 		.4byte	0xe16
 1949 0e10 11       		.uleb128 0x11
 1950 0e11 43010000 		.4byte	0x143
 1951 0e15 00       		.byte	0
 1952 0e16 1F       		.uleb128 0x1f
 1953 0e17 FD100000 		.4byte	.LASF213
 1954 0e1b 02       		.byte	0x2
 1955 0e1c B104     		.2byte	0x4b1
 1956 0e1e 18       		.byte	0x18
 1957 0e1f 18000000 		.4byte	.LASF214
 1958 0e23 43010000 		.4byte	0x143
 1959 0e27 01       		.byte	0x1
 1960 0e28 320E0000 		.4byte	0xe32
 1961 0e2c 11       		.uleb128 0x11
 1962 0e2d 43010000 		.4byte	0x143
 1963 0e31 00       		.byte	0
 1964 0e32 1F       		.uleb128 0x1f
 1965 0e33 360D0000 		.4byte	.LASF215
 1966 0e37 02       		.byte	0x2
 1967 0e38 CC04     		.2byte	0x4cc
 1968 0e3a 18       		.byte	0x18
 1969 0e3b 7A120000 		.4byte	.LASF216
 1970 0e3f 43010000 		.4byte	0x143
 1971 0e43 01       		.byte	0x1
 1972 0e44 530E0000 		.4byte	0xe53
 1973 0e48 11       		.uleb128 0x11
 1974 0e49 43010000 		.4byte	0x143
 1975 0e4d 11       		.uleb128 0x11
 1976 0e4e 2E050000 		.4byte	0x52e
 1977 0e52 00       		.byte	0
 1978 0e53 1F       		.uleb128 0x1f
 1979 0e54 8D0F0000 		.4byte	.LASF217
 1980 0e58 02       		.byte	0x2
 1981 0e59 E104     		.2byte	0x4e1
 1982 0e5b 18       		.byte	0x18
 1983 0e5c D40D0000 		.4byte	.LASF218
 1984 0e60 43010000 		.4byte	0x143
 1985 0e64 01       		.byte	0x1
 1986 0e65 740E0000 		.4byte	0xe74
 1987 0e69 11       		.uleb128 0x11
 1988 0e6a 43010000 		.4byte	0x143
 1989 0e6e 11       		.uleb128 0x11
 1990 0e6f 2E050000 		.4byte	0x52e
 1991 0e73 00       		.byte	0
 1992 0e74 1F       		.uleb128 0x1f
 1993 0e75 AC0A0000 		.4byte	.LASF219
 1994 0e79 02       		.byte	0x2
 1995 0e7a F504     		.2byte	0x4f5
ARM GAS  /tmp/ccDKXUnV.s 			page 36


 1996 0e7c 18       		.byte	0x18
 1997 0e7d 250E0000 		.4byte	.LASF220
 1998 0e81 43010000 		.4byte	0x143
 1999 0e85 01       		.byte	0x1
 2000 0e86 950E0000 		.4byte	0xe95
 2001 0e8a 11       		.uleb128 0x11
 2002 0e8b 43010000 		.4byte	0x143
 2003 0e8f 11       		.uleb128 0x11
 2004 0e90 2E050000 		.4byte	0x52e
 2005 0e94 00       		.byte	0
 2006 0e95 1D       		.uleb128 0x1d
 2007 0e96 3C110000 		.4byte	.LASF221
 2008 0e9a 02       		.byte	0x2
 2009 0e9b 0505     		.2byte	0x505
 2010 0e9d 11       		.byte	0x11
 2011 0e9e 420F0000 		.4byte	.LASF222
 2012 0ea2 01       		.byte	0x1
 2013 0ea3 B20E0000 		.4byte	0xeb2
 2014 0ea7 11       		.uleb128 0x11
 2015 0ea8 060F0000 		.4byte	0xf06
 2016 0eac 11       		.uleb128 0x11
 2017 0ead 43010000 		.4byte	0x143
 2018 0eb1 00       		.byte	0
 2019 0eb2 29       		.uleb128 0x29
 2020 0eb3 21040000 		.4byte	.LASF223
 2021 0eb7 02       		.byte	0x2
 2022 0eb8 1805     		.2byte	0x518
 2023 0eba 11       		.byte	0x11
 2024 0ebb 2A130000 		.4byte	.LASF225
 2025 0ebf 01       		.byte	0x1
 2026 0ec0 00       		.byte	0
 2027 0ec1 2A       		.uleb128 0x2a
 2028 0ec2 F5120000 		.4byte	.LASF238
 2029 0ec6 03       		.byte	0x3
 2030 0ec7 27       		.byte	0x27
 2031 0ec8 08       		.byte	0x8
 2032 0ec9 02040000 		.4byte	.LASF239
 2033 0ecd 11       		.uleb128 0x11
 2034 0ece D5030000 		.4byte	0x3d5
 2035 0ed2 00       		.byte	0
 2036 0ed3 00       		.byte	0
 2037 0ed4 0E       		.uleb128 0xe
 2038 0ed5 04       		.byte	0x4
 2039 0ed6 2A0A0000 		.4byte	0xa2a
 2040 0eda 15       		.uleb128 0x15
 2041 0edb D40E0000 		.4byte	0xed4
 2042 0edf 0E       		.uleb128 0xe
 2043 0ee0 04       		.byte	0x4
 2044 0ee1 080C0000 		.4byte	0xc08
 2045 0ee5 2B       		.uleb128 0x2b
 2046 0ee6 25000000 		.4byte	0x25
 2047 0eea F00E0000 		.4byte	0xef0
 2048 0eee 2C       		.uleb128 0x2c
 2049 0eef 00       		.byte	0
 2050 0ef0 0E       		.uleb128 0xe
 2051 0ef1 04       		.byte	0x4
 2052 0ef2 F60E0000 		.4byte	0xef6
ARM GAS  /tmp/ccDKXUnV.s 			page 37


 2053 0ef6 2D       		.uleb128 0x2d
 2054 0ef7 04       		.byte	0x4
 2055 0ef8 B5030000 		.4byte	.LASF240
 2056 0efc E50E0000 		.4byte	0xee5
 2057 0f00 0E       		.uleb128 0xe
 2058 0f01 04       		.byte	0x4
 2059 0f02 0D0C0000 		.4byte	0xc0d
 2060 0f06 0E       		.uleb128 0xe
 2061 0f07 04       		.byte	0x4
 2062 0f08 6F080000 		.4byte	0x86f
 2063 0f0c 2E       		.uleb128 0x2e
 2064 0f0d C10E0000 		.4byte	0xec1
 2065 0f11 00000000 		.4byte	.LFB495
 2066 0f15 18000000 		.4byte	.LFE495-.LFB495
 2067 0f19 01       		.uleb128 0x1
 2068 0f1a 9C       		.byte	0x9c
 2069 0f1b 2F0F0000 		.4byte	0xf2f
 2070 0f1f 2F       		.uleb128 0x2f
 2071 0f20 61726700 		.ascii	"arg\000"
 2072 0f24 03       		.byte	0x3
 2073 0f25 27       		.byte	0x27
 2074 0f26 19       		.byte	0x19
 2075 0f27 D5030000 		.4byte	0x3d5
 2076 0f2b 02       		.uleb128 0x2
 2077 0f2c 91       		.byte	0x91
 2078 0f2d 74       		.sleb128 -12
 2079 0f2e 00       		.byte	0
 2080 0f2f 30       		.uleb128 0x30
 2081 0f30 170A0000 		.4byte	0xa17
 2082 0f34 03       		.byte	0x3
 2083 0f35 1D       		.byte	0x1d
 2084 0f36 13       		.byte	0x13
 2085 0f37 00000000 		.4byte	.LFB494
 2086 0f3b 1E000000 		.4byte	.LFE494-.LFB494
 2087 0f3f 01       		.uleb128 0x1
 2088 0f40 9C       		.byte	0x9c
 2089 0f41 31       		.uleb128 0x31
 2090 0f42 660A0000 		.4byte	0xa66
 2091 0f46 4F0F0000 		.4byte	0xf4f
 2092 0f4a 02       		.byte	0x2
 2093 0f4b 650F0000 		.4byte	0xf65
 2094 0f4f 32       		.uleb128 0x32
 2095 0f50 AE0C0000 		.4byte	.LASF241
 2096 0f54 DA0E0000 		.4byte	0xeda
 2097 0f58 33       		.uleb128 0x33
 2098 0f59 747000   		.ascii	"tp\000"
 2099 0f5c 02       		.byte	0x2
 2100 0f5d 6E02     		.2byte	0x26e
 2101 0f5f 1F       		.byte	0x1f
 2102 0f60 E8020000 		.4byte	0x2e8
 2103 0f64 00       		.byte	0
 2104 0f65 34       		.uleb128 0x34
 2105 0f66 410F0000 		.4byte	0xf41
 2106 0f6a 54030000 		.4byte	.LASF242
 2107 0f6e 800F0000 		.4byte	0xf80
 2108 0f72 00000000 		.4byte	.LFB340
 2109 0f76 14000000 		.4byte	.LFE340-.LFB340
ARM GAS  /tmp/ccDKXUnV.s 			page 38


 2110 0f7a 01       		.uleb128 0x1
 2111 0f7b 9C       		.byte	0x9c
 2112 0f7c 910F0000 		.4byte	0xf91
 2113 0f80 35       		.uleb128 0x35
 2114 0f81 4F0F0000 		.4byte	0xf4f
 2115 0f85 02       		.uleb128 0x2
 2116 0f86 91       		.byte	0x91
 2117 0f87 7C       		.sleb128 -4
 2118 0f88 35       		.uleb128 0x35
 2119 0f89 580F0000 		.4byte	0xf58
 2120 0f8d 02       		.uleb128 0x2
 2121 0f8e 91       		.byte	0x91
 2122 0f8f 78       		.sleb128 -8
 2123 0f90 00       		.byte	0
 2124 0f91 36       		.uleb128 0x36
 2125 0f92 AE120000 		.4byte	.LASF243
 2126 0f96 01       		.byte	0x1
 2127 0f97 CD01     		.2byte	0x1cd
 2128 0f99 19       		.byte	0x19
 2129 0f9a E8020000 		.4byte	0x2e8
 2130 0f9e 00000000 		.4byte	.LFB201
 2131 0fa2 0C000000 		.4byte	.LFE201-.LFB201
 2132 0fa6 01       		.uleb128 0x1
 2133 0fa7 9C       		.byte	0x9c
 2134 0fa8 00       		.byte	0
 2135              		.section	.debug_abbrev,"",%progbits
 2136              	.Ldebug_abbrev0:
 2137 0000 01       		.uleb128 0x1
 2138 0001 11       		.uleb128 0x11
 2139 0002 01       		.byte	0x1
 2140 0003 25       		.uleb128 0x25
 2141 0004 0E       		.uleb128 0xe
 2142 0005 13       		.uleb128 0x13
 2143 0006 0B       		.uleb128 0xb
 2144 0007 03       		.uleb128 0x3
 2145 0008 0E       		.uleb128 0xe
 2146 0009 1B       		.uleb128 0x1b
 2147 000a 0E       		.uleb128 0xe
 2148 000b 55       		.uleb128 0x55
 2149 000c 17       		.uleb128 0x17
 2150 000d 11       		.uleb128 0x11
 2151 000e 01       		.uleb128 0x1
 2152 000f 10       		.uleb128 0x10
 2153 0010 17       		.uleb128 0x17
 2154 0011 00       		.byte	0
 2155 0012 00       		.byte	0
 2156 0013 02       		.uleb128 0x2
 2157 0014 24       		.uleb128 0x24
 2158 0015 00       		.byte	0
 2159 0016 0B       		.uleb128 0xb
 2160 0017 0B       		.uleb128 0xb
 2161 0018 3E       		.uleb128 0x3e
 2162 0019 0B       		.uleb128 0xb
 2163 001a 03       		.uleb128 0x3
 2164 001b 08       		.uleb128 0x8
 2165 001c 00       		.byte	0
 2166 001d 00       		.byte	0
ARM GAS  /tmp/ccDKXUnV.s 			page 39


 2167 001e 03       		.uleb128 0x3
 2168 001f 24       		.uleb128 0x24
 2169 0020 00       		.byte	0
 2170 0021 0B       		.uleb128 0xb
 2171 0022 0B       		.uleb128 0xb
 2172 0023 3E       		.uleb128 0x3e
 2173 0024 0B       		.uleb128 0xb
 2174 0025 03       		.uleb128 0x3
 2175 0026 0E       		.uleb128 0xe
 2176 0027 00       		.byte	0
 2177 0028 00       		.byte	0
 2178 0029 04       		.uleb128 0x4
 2179 002a 3B       		.uleb128 0x3b
 2180 002b 00       		.byte	0
 2181 002c 03       		.uleb128 0x3
 2182 002d 0E       		.uleb128 0xe
 2183 002e 00       		.byte	0
 2184 002f 00       		.byte	0
 2185 0030 05       		.uleb128 0x5
 2186 0031 16       		.uleb128 0x16
 2187 0032 00       		.byte	0
 2188 0033 03       		.uleb128 0x3
 2189 0034 0E       		.uleb128 0xe
 2190 0035 3A       		.uleb128 0x3a
 2191 0036 0B       		.uleb128 0xb
 2192 0037 3B       		.uleb128 0x3b
 2193 0038 0B       		.uleb128 0xb
 2194 0039 39       		.uleb128 0x39
 2195 003a 0B       		.uleb128 0xb
 2196 003b 49       		.uleb128 0x49
 2197 003c 13       		.uleb128 0x13
 2198 003d 00       		.byte	0
 2199 003e 00       		.byte	0
 2200 003f 06       		.uleb128 0x6
 2201 0040 13       		.uleb128 0x13
 2202 0041 01       		.byte	0x1
 2203 0042 03       		.uleb128 0x3
 2204 0043 0E       		.uleb128 0xe
 2205 0044 0B       		.uleb128 0xb
 2206 0045 0B       		.uleb128 0xb
 2207 0046 3A       		.uleb128 0x3a
 2208 0047 0B       		.uleb128 0xb
 2209 0048 3B       		.uleb128 0x3b
 2210 0049 0B       		.uleb128 0xb
 2211 004a 39       		.uleb128 0x39
 2212 004b 0B       		.uleb128 0xb
 2213 004c 01       		.uleb128 0x1
 2214 004d 13       		.uleb128 0x13
 2215 004e 00       		.byte	0
 2216 004f 00       		.byte	0
 2217 0050 07       		.uleb128 0x7
 2218 0051 17       		.uleb128 0x17
 2219 0052 01       		.byte	0x1
 2220 0053 0B       		.uleb128 0xb
 2221 0054 0B       		.uleb128 0xb
 2222 0055 3A       		.uleb128 0x3a
 2223 0056 0B       		.uleb128 0xb
ARM GAS  /tmp/ccDKXUnV.s 			page 40


 2224 0057 3B       		.uleb128 0x3b
 2225 0058 0B       		.uleb128 0xb
 2226 0059 39       		.uleb128 0x39
 2227 005a 0B       		.uleb128 0xb
 2228 005b 01       		.uleb128 0x1
 2229 005c 13       		.uleb128 0x13
 2230 005d 00       		.byte	0
 2231 005e 00       		.byte	0
 2232 005f 08       		.uleb128 0x8
 2233 0060 0D       		.uleb128 0xd
 2234 0061 00       		.byte	0
 2235 0062 03       		.uleb128 0x3
 2236 0063 0E       		.uleb128 0xe
 2237 0064 3A       		.uleb128 0x3a
 2238 0065 0B       		.uleb128 0xb
 2239 0066 3B       		.uleb128 0x3b
 2240 0067 0B       		.uleb128 0xb
 2241 0068 39       		.uleb128 0x39
 2242 0069 0B       		.uleb128 0xb
 2243 006a 49       		.uleb128 0x49
 2244 006b 13       		.uleb128 0x13
 2245 006c 00       		.byte	0
 2246 006d 00       		.byte	0
 2247 006e 09       		.uleb128 0x9
 2248 006f 0D       		.uleb128 0xd
 2249 0070 00       		.byte	0
 2250 0071 03       		.uleb128 0x3
 2251 0072 0E       		.uleb128 0xe
 2252 0073 3A       		.uleb128 0x3a
 2253 0074 0B       		.uleb128 0xb
 2254 0075 3B       		.uleb128 0x3b
 2255 0076 05       		.uleb128 0x5
 2256 0077 39       		.uleb128 0x39
 2257 0078 0B       		.uleb128 0xb
 2258 0079 49       		.uleb128 0x49
 2259 007a 13       		.uleb128 0x13
 2260 007b 00       		.byte	0
 2261 007c 00       		.byte	0
 2262 007d 0A       		.uleb128 0xa
 2263 007e 0D       		.uleb128 0xd
 2264 007f 00       		.byte	0
 2265 0080 03       		.uleb128 0x3
 2266 0081 0E       		.uleb128 0xe
 2267 0082 3A       		.uleb128 0x3a
 2268 0083 0B       		.uleb128 0xb
 2269 0084 3B       		.uleb128 0x3b
 2270 0085 0B       		.uleb128 0xb
 2271 0086 39       		.uleb128 0x39
 2272 0087 0B       		.uleb128 0xb
 2273 0088 49       		.uleb128 0x49
 2274 0089 13       		.uleb128 0x13
 2275 008a 38       		.uleb128 0x38
 2276 008b 0B       		.uleb128 0xb
 2277 008c 00       		.byte	0
 2278 008d 00       		.byte	0
 2279 008e 0B       		.uleb128 0xb
 2280 008f 0D       		.uleb128 0xd
ARM GAS  /tmp/ccDKXUnV.s 			page 41


 2281 0090 00       		.byte	0
 2282 0091 03       		.uleb128 0x3
 2283 0092 08       		.uleb128 0x8
 2284 0093 3A       		.uleb128 0x3a
 2285 0094 0B       		.uleb128 0xb
 2286 0095 3B       		.uleb128 0x3b
 2287 0096 0B       		.uleb128 0xb
 2288 0097 39       		.uleb128 0x39
 2289 0098 0B       		.uleb128 0xb
 2290 0099 49       		.uleb128 0x49
 2291 009a 13       		.uleb128 0x13
 2292 009b 38       		.uleb128 0x38
 2293 009c 0B       		.uleb128 0xb
 2294 009d 00       		.byte	0
 2295 009e 00       		.byte	0
 2296 009f 0C       		.uleb128 0xc
 2297 00a0 0D       		.uleb128 0xd
 2298 00a1 00       		.byte	0
 2299 00a2 03       		.uleb128 0x3
 2300 00a3 08       		.uleb128 0x8
 2301 00a4 3A       		.uleb128 0x3a
 2302 00a5 0B       		.uleb128 0xb
 2303 00a6 3B       		.uleb128 0x3b
 2304 00a7 05       		.uleb128 0x5
 2305 00a8 39       		.uleb128 0x39
 2306 00a9 0B       		.uleb128 0xb
 2307 00aa 49       		.uleb128 0x49
 2308 00ab 13       		.uleb128 0x13
 2309 00ac 38       		.uleb128 0x38
 2310 00ad 0B       		.uleb128 0xb
 2311 00ae 00       		.byte	0
 2312 00af 00       		.byte	0
 2313 00b0 0D       		.uleb128 0xd
 2314 00b1 0D       		.uleb128 0xd
 2315 00b2 00       		.byte	0
 2316 00b3 03       		.uleb128 0x3
 2317 00b4 0E       		.uleb128 0xe
 2318 00b5 3A       		.uleb128 0x3a
 2319 00b6 0B       		.uleb128 0xb
 2320 00b7 3B       		.uleb128 0x3b
 2321 00b8 05       		.uleb128 0x5
 2322 00b9 39       		.uleb128 0x39
 2323 00ba 0B       		.uleb128 0xb
 2324 00bb 49       		.uleb128 0x49
 2325 00bc 13       		.uleb128 0x13
 2326 00bd 38       		.uleb128 0x38
 2327 00be 0B       		.uleb128 0xb
 2328 00bf 00       		.byte	0
 2329 00c0 00       		.byte	0
 2330 00c1 0E       		.uleb128 0xe
 2331 00c2 0F       		.uleb128 0xf
 2332 00c3 00       		.byte	0
 2333 00c4 0B       		.uleb128 0xb
 2334 00c5 0B       		.uleb128 0xb
 2335 00c6 49       		.uleb128 0x49
 2336 00c7 13       		.uleb128 0x13
 2337 00c8 00       		.byte	0
ARM GAS  /tmp/ccDKXUnV.s 			page 42


 2338 00c9 00       		.byte	0
 2339 00ca 0F       		.uleb128 0xf
 2340 00cb 13       		.uleb128 0x13
 2341 00cc 01       		.byte	0x1
 2342 00cd 03       		.uleb128 0x3
 2343 00ce 0E       		.uleb128 0xe
 2344 00cf 0B       		.uleb128 0xb
 2345 00d0 0B       		.uleb128 0xb
 2346 00d1 3A       		.uleb128 0x3a
 2347 00d2 0B       		.uleb128 0xb
 2348 00d3 3B       		.uleb128 0x3b
 2349 00d4 05       		.uleb128 0x5
 2350 00d5 39       		.uleb128 0x39
 2351 00d6 0B       		.uleb128 0xb
 2352 00d7 01       		.uleb128 0x1
 2353 00d8 13       		.uleb128 0x13
 2354 00d9 00       		.byte	0
 2355 00da 00       		.byte	0
 2356 00db 10       		.uleb128 0x10
 2357 00dc 15       		.uleb128 0x15
 2358 00dd 01       		.byte	0x1
 2359 00de 01       		.uleb128 0x1
 2360 00df 13       		.uleb128 0x13
 2361 00e0 00       		.byte	0
 2362 00e1 00       		.byte	0
 2363 00e2 11       		.uleb128 0x11
 2364 00e3 05       		.uleb128 0x5
 2365 00e4 00       		.byte	0
 2366 00e5 49       		.uleb128 0x49
 2367 00e6 13       		.uleb128 0x13
 2368 00e7 00       		.byte	0
 2369 00e8 00       		.byte	0
 2370 00e9 12       		.uleb128 0x12
 2371 00ea 0F       		.uleb128 0xf
 2372 00eb 00       		.byte	0
 2373 00ec 0B       		.uleb128 0xb
 2374 00ed 0B       		.uleb128 0xb
 2375 00ee 00       		.byte	0
 2376 00ef 00       		.byte	0
 2377 00f0 13       		.uleb128 0x13
 2378 00f1 13       		.uleb128 0x13
 2379 00f2 01       		.byte	0x1
 2380 00f3 0B       		.uleb128 0xb
 2381 00f4 0B       		.uleb128 0xb
 2382 00f5 3A       		.uleb128 0x3a
 2383 00f6 0B       		.uleb128 0xb
 2384 00f7 3B       		.uleb128 0x3b
 2385 00f8 0B       		.uleb128 0xb
 2386 00f9 39       		.uleb128 0x39
 2387 00fa 0B       		.uleb128 0xb
 2388 00fb 6E       		.uleb128 0x6e
 2389 00fc 0E       		.uleb128 0xe
 2390 00fd 01       		.uleb128 0x1
 2391 00fe 13       		.uleb128 0x13
 2392 00ff 00       		.byte	0
 2393 0100 00       		.byte	0
 2394 0101 14       		.uleb128 0x14
ARM GAS  /tmp/ccDKXUnV.s 			page 43


 2395 0102 35       		.uleb128 0x35
 2396 0103 00       		.byte	0
 2397 0104 49       		.uleb128 0x49
 2398 0105 13       		.uleb128 0x13
 2399 0106 00       		.byte	0
 2400 0107 00       		.byte	0
 2401 0108 15       		.uleb128 0x15
 2402 0109 26       		.uleb128 0x26
 2403 010a 00       		.byte	0
 2404 010b 49       		.uleb128 0x49
 2405 010c 13       		.uleb128 0x13
 2406 010d 00       		.byte	0
 2407 010e 00       		.byte	0
 2408 010f 16       		.uleb128 0x16
 2409 0110 34       		.uleb128 0x34
 2410 0111 00       		.byte	0
 2411 0112 03       		.uleb128 0x3
 2412 0113 08       		.uleb128 0x8
 2413 0114 3A       		.uleb128 0x3a
 2414 0115 0B       		.uleb128 0xb
 2415 0116 3B       		.uleb128 0x3b
 2416 0117 05       		.uleb128 0x5
 2417 0118 39       		.uleb128 0x39
 2418 0119 0B       		.uleb128 0xb
 2419 011a 49       		.uleb128 0x49
 2420 011b 13       		.uleb128 0x13
 2421 011c 3F       		.uleb128 0x3f
 2422 011d 19       		.uleb128 0x19
 2423 011e 3C       		.uleb128 0x3c
 2424 011f 19       		.uleb128 0x19
 2425 0120 00       		.byte	0
 2426 0121 00       		.byte	0
 2427 0122 17       		.uleb128 0x17
 2428 0123 39       		.uleb128 0x39
 2429 0124 01       		.byte	0x1
 2430 0125 03       		.uleb128 0x3
 2431 0126 0E       		.uleb128 0xe
 2432 0127 3A       		.uleb128 0x3a
 2433 0128 0B       		.uleb128 0xb
 2434 0129 3B       		.uleb128 0x3b
 2435 012a 0B       		.uleb128 0xb
 2436 012b 39       		.uleb128 0x39
 2437 012c 0B       		.uleb128 0xb
 2438 012d 01       		.uleb128 0x1
 2439 012e 13       		.uleb128 0x13
 2440 012f 00       		.byte	0
 2441 0130 00       		.byte	0
 2442 0131 18       		.uleb128 0x18
 2443 0132 02       		.uleb128 0x2
 2444 0133 01       		.byte	0x1
 2445 0134 03       		.uleb128 0x3
 2446 0135 0E       		.uleb128 0xe
 2447 0136 0B       		.uleb128 0xb
 2448 0137 0B       		.uleb128 0xb
 2449 0138 3A       		.uleb128 0x3a
 2450 0139 0B       		.uleb128 0xb
 2451 013a 3B       		.uleb128 0x3b
ARM GAS  /tmp/ccDKXUnV.s 			page 44


 2452 013b 0B       		.uleb128 0xb
 2453 013c 39       		.uleb128 0x39
 2454 013d 0B       		.uleb128 0xb
 2455 013e 01       		.uleb128 0x1
 2456 013f 13       		.uleb128 0x13
 2457 0140 00       		.byte	0
 2458 0141 00       		.byte	0
 2459 0142 19       		.uleb128 0x19
 2460 0143 2E       		.uleb128 0x2e
 2461 0144 00       		.byte	0
 2462 0145 3F       		.uleb128 0x3f
 2463 0146 19       		.uleb128 0x19
 2464 0147 03       		.uleb128 0x3
 2465 0148 0E       		.uleb128 0xe
 2466 0149 3A       		.uleb128 0x3a
 2467 014a 0B       		.uleb128 0xb
 2468 014b 3B       		.uleb128 0x3b
 2469 014c 0B       		.uleb128 0xb
 2470 014d 39       		.uleb128 0x39
 2471 014e 0B       		.uleb128 0xb
 2472 014f 6E       		.uleb128 0x6e
 2473 0150 0E       		.uleb128 0xe
 2474 0151 32       		.uleb128 0x32
 2475 0152 0B       		.uleb128 0xb
 2476 0153 3C       		.uleb128 0x3c
 2477 0154 19       		.uleb128 0x19
 2478 0155 00       		.byte	0
 2479 0156 00       		.byte	0
 2480 0157 1A       		.uleb128 0x1a
 2481 0158 2E       		.uleb128 0x2e
 2482 0159 01       		.byte	0x1
 2483 015a 3F       		.uleb128 0x3f
 2484 015b 19       		.uleb128 0x19
 2485 015c 03       		.uleb128 0x3
 2486 015d 0E       		.uleb128 0xe
 2487 015e 3A       		.uleb128 0x3a
 2488 015f 0B       		.uleb128 0xb
 2489 0160 3B       		.uleb128 0x3b
 2490 0161 0B       		.uleb128 0xb
 2491 0162 39       		.uleb128 0x39
 2492 0163 0B       		.uleb128 0xb
 2493 0164 6E       		.uleb128 0x6e
 2494 0165 0E       		.uleb128 0xe
 2495 0166 32       		.uleb128 0x32
 2496 0167 0B       		.uleb128 0xb
 2497 0168 3C       		.uleb128 0x3c
 2498 0169 19       		.uleb128 0x19
 2499 016a 01       		.uleb128 0x1
 2500 016b 13       		.uleb128 0x13
 2501 016c 00       		.byte	0
 2502 016d 00       		.byte	0
 2503 016e 1B       		.uleb128 0x1b
 2504 016f 2E       		.uleb128 0x2e
 2505 0170 01       		.byte	0x1
 2506 0171 3F       		.uleb128 0x3f
 2507 0172 19       		.uleb128 0x19
 2508 0173 03       		.uleb128 0x3
ARM GAS  /tmp/ccDKXUnV.s 			page 45


 2509 0174 0E       		.uleb128 0xe
 2510 0175 3A       		.uleb128 0x3a
 2511 0176 0B       		.uleb128 0xb
 2512 0177 3B       		.uleb128 0x3b
 2513 0178 0B       		.uleb128 0xb
 2514 0179 39       		.uleb128 0x39
 2515 017a 0B       		.uleb128 0xb
 2516 017b 6E       		.uleb128 0x6e
 2517 017c 0E       		.uleb128 0xe
 2518 017d 49       		.uleb128 0x49
 2519 017e 13       		.uleb128 0x13
 2520 017f 32       		.uleb128 0x32
 2521 0180 0B       		.uleb128 0xb
 2522 0181 3C       		.uleb128 0x3c
 2523 0182 19       		.uleb128 0x19
 2524 0183 01       		.uleb128 0x1
 2525 0184 13       		.uleb128 0x13
 2526 0185 00       		.byte	0
 2527 0186 00       		.byte	0
 2528 0187 1C       		.uleb128 0x1c
 2529 0188 2E       		.uleb128 0x2e
 2530 0189 00       		.byte	0
 2531 018a 3F       		.uleb128 0x3f
 2532 018b 19       		.uleb128 0x19
 2533 018c 03       		.uleb128 0x3
 2534 018d 0E       		.uleb128 0xe
 2535 018e 3A       		.uleb128 0x3a
 2536 018f 0B       		.uleb128 0xb
 2537 0190 3B       		.uleb128 0x3b
 2538 0191 0B       		.uleb128 0xb
 2539 0192 39       		.uleb128 0x39
 2540 0193 0B       		.uleb128 0xb
 2541 0194 6E       		.uleb128 0x6e
 2542 0195 0E       		.uleb128 0xe
 2543 0196 49       		.uleb128 0x49
 2544 0197 13       		.uleb128 0x13
 2545 0198 32       		.uleb128 0x32
 2546 0199 0B       		.uleb128 0xb
 2547 019a 3C       		.uleb128 0x3c
 2548 019b 19       		.uleb128 0x19
 2549 019c 00       		.byte	0
 2550 019d 00       		.byte	0
 2551 019e 1D       		.uleb128 0x1d
 2552 019f 2E       		.uleb128 0x2e
 2553 01a0 01       		.byte	0x1
 2554 01a1 3F       		.uleb128 0x3f
 2555 01a2 19       		.uleb128 0x19
 2556 01a3 03       		.uleb128 0x3
 2557 01a4 0E       		.uleb128 0xe
 2558 01a5 3A       		.uleb128 0x3a
 2559 01a6 0B       		.uleb128 0xb
 2560 01a7 3B       		.uleb128 0x3b
 2561 01a8 05       		.uleb128 0x5
 2562 01a9 39       		.uleb128 0x39
 2563 01aa 0B       		.uleb128 0xb
 2564 01ab 6E       		.uleb128 0x6e
 2565 01ac 0E       		.uleb128 0xe
ARM GAS  /tmp/ccDKXUnV.s 			page 46


 2566 01ad 32       		.uleb128 0x32
 2567 01ae 0B       		.uleb128 0xb
 2568 01af 3C       		.uleb128 0x3c
 2569 01b0 19       		.uleb128 0x19
 2570 01b1 01       		.uleb128 0x1
 2571 01b2 13       		.uleb128 0x13
 2572 01b3 00       		.byte	0
 2573 01b4 00       		.byte	0
 2574 01b5 1E       		.uleb128 0x1e
 2575 01b6 2E       		.uleb128 0x2e
 2576 01b7 00       		.byte	0
 2577 01b8 3F       		.uleb128 0x3f
 2578 01b9 19       		.uleb128 0x19
 2579 01ba 03       		.uleb128 0x3
 2580 01bb 0E       		.uleb128 0xe
 2581 01bc 3A       		.uleb128 0x3a
 2582 01bd 0B       		.uleb128 0xb
 2583 01be 3B       		.uleb128 0x3b
 2584 01bf 05       		.uleb128 0x5
 2585 01c0 39       		.uleb128 0x39
 2586 01c1 0B       		.uleb128 0xb
 2587 01c2 6E       		.uleb128 0x6e
 2588 01c3 0E       		.uleb128 0xe
 2589 01c4 49       		.uleb128 0x49
 2590 01c5 13       		.uleb128 0x13
 2591 01c6 32       		.uleb128 0x32
 2592 01c7 0B       		.uleb128 0xb
 2593 01c8 3C       		.uleb128 0x3c
 2594 01c9 19       		.uleb128 0x19
 2595 01ca 00       		.byte	0
 2596 01cb 00       		.byte	0
 2597 01cc 1F       		.uleb128 0x1f
 2598 01cd 2E       		.uleb128 0x2e
 2599 01ce 01       		.byte	0x1
 2600 01cf 3F       		.uleb128 0x3f
 2601 01d0 19       		.uleb128 0x19
 2602 01d1 03       		.uleb128 0x3
 2603 01d2 0E       		.uleb128 0xe
 2604 01d3 3A       		.uleb128 0x3a
 2605 01d4 0B       		.uleb128 0xb
 2606 01d5 3B       		.uleb128 0x3b
 2607 01d6 05       		.uleb128 0x5
 2608 01d7 39       		.uleb128 0x39
 2609 01d8 0B       		.uleb128 0xb
 2610 01d9 6E       		.uleb128 0x6e
 2611 01da 0E       		.uleb128 0xe
 2612 01db 49       		.uleb128 0x49
 2613 01dc 13       		.uleb128 0x13
 2614 01dd 32       		.uleb128 0x32
 2615 01de 0B       		.uleb128 0xb
 2616 01df 3C       		.uleb128 0x3c
 2617 01e0 19       		.uleb128 0x19
 2618 01e1 01       		.uleb128 0x1
 2619 01e2 13       		.uleb128 0x13
 2620 01e3 00       		.byte	0
 2621 01e4 00       		.byte	0
 2622 01e5 20       		.uleb128 0x20
ARM GAS  /tmp/ccDKXUnV.s 			page 47


 2623 01e6 02       		.uleb128 0x2
 2624 01e7 01       		.byte	0x1
 2625 01e8 03       		.uleb128 0x3
 2626 01e9 0E       		.uleb128 0xe
 2627 01ea 0B       		.uleb128 0xb
 2628 01eb 0B       		.uleb128 0xb
 2629 01ec 3A       		.uleb128 0x3a
 2630 01ed 0B       		.uleb128 0xb
 2631 01ee 3B       		.uleb128 0x3b
 2632 01ef 05       		.uleb128 0x5
 2633 01f0 39       		.uleb128 0x39
 2634 01f1 0B       		.uleb128 0xb
 2635 01f2 01       		.uleb128 0x1
 2636 01f3 13       		.uleb128 0x13
 2637 01f4 00       		.byte	0
 2638 01f5 00       		.byte	0
 2639 01f6 21       		.uleb128 0x21
 2640 01f7 2E       		.uleb128 0x2e
 2641 01f8 01       		.byte	0x1
 2642 01f9 3F       		.uleb128 0x3f
 2643 01fa 19       		.uleb128 0x19
 2644 01fb 03       		.uleb128 0x3
 2645 01fc 0E       		.uleb128 0xe
 2646 01fd 3A       		.uleb128 0x3a
 2647 01fe 0B       		.uleb128 0xb
 2648 01ff 3B       		.uleb128 0x3b
 2649 0200 05       		.uleb128 0x5
 2650 0201 39       		.uleb128 0x39
 2651 0202 0B       		.uleb128 0xb
 2652 0203 6E       		.uleb128 0x6e
 2653 0204 0E       		.uleb128 0xe
 2654 0205 49       		.uleb128 0x49
 2655 0206 13       		.uleb128 0x13
 2656 0207 32       		.uleb128 0x32
 2657 0208 0B       		.uleb128 0xb
 2658 0209 3C       		.uleb128 0x3c
 2659 020a 19       		.uleb128 0x19
 2660 020b 64       		.uleb128 0x64
 2661 020c 13       		.uleb128 0x13
 2662 020d 01       		.uleb128 0x1
 2663 020e 13       		.uleb128 0x13
 2664 020f 00       		.byte	0
 2665 0210 00       		.byte	0
 2666 0211 22       		.uleb128 0x22
 2667 0212 05       		.uleb128 0x5
 2668 0213 00       		.byte	0
 2669 0214 49       		.uleb128 0x49
 2670 0215 13       		.uleb128 0x13
 2671 0216 34       		.uleb128 0x34
 2672 0217 19       		.uleb128 0x19
 2673 0218 00       		.byte	0
 2674 0219 00       		.byte	0
 2675 021a 23       		.uleb128 0x23
 2676 021b 2E       		.uleb128 0x2e
 2677 021c 01       		.byte	0x1
 2678 021d 3F       		.uleb128 0x3f
 2679 021e 19       		.uleb128 0x19
ARM GAS  /tmp/ccDKXUnV.s 			page 48


 2680 021f 03       		.uleb128 0x3
 2681 0220 0E       		.uleb128 0xe
 2682 0221 3A       		.uleb128 0x3a
 2683 0222 0B       		.uleb128 0xb
 2684 0223 3B       		.uleb128 0x3b
 2685 0224 05       		.uleb128 0x5
 2686 0225 39       		.uleb128 0x39
 2687 0226 0B       		.uleb128 0xb
 2688 0227 6E       		.uleb128 0x6e
 2689 0228 0E       		.uleb128 0xe
 2690 0229 32       		.uleb128 0x32
 2691 022a 0B       		.uleb128 0xb
 2692 022b 3C       		.uleb128 0x3c
 2693 022c 19       		.uleb128 0x19
 2694 022d 64       		.uleb128 0x64
 2695 022e 13       		.uleb128 0x13
 2696 022f 01       		.uleb128 0x1
 2697 0230 13       		.uleb128 0x13
 2698 0231 00       		.byte	0
 2699 0232 00       		.byte	0
 2700 0233 24       		.uleb128 0x24
 2701 0234 2E       		.uleb128 0x2e
 2702 0235 01       		.byte	0x1
 2703 0236 3F       		.uleb128 0x3f
 2704 0237 19       		.uleb128 0x19
 2705 0238 03       		.uleb128 0x3
 2706 0239 0E       		.uleb128 0xe
 2707 023a 3A       		.uleb128 0x3a
 2708 023b 0B       		.uleb128 0xb
 2709 023c 3B       		.uleb128 0x3b
 2710 023d 05       		.uleb128 0x5
 2711 023e 39       		.uleb128 0x39
 2712 023f 0B       		.uleb128 0xb
 2713 0240 6E       		.uleb128 0x6e
 2714 0241 0E       		.uleb128 0xe
 2715 0242 32       		.uleb128 0x32
 2716 0243 0B       		.uleb128 0xb
 2717 0244 3C       		.uleb128 0x3c
 2718 0245 19       		.uleb128 0x19
 2719 0246 64       		.uleb128 0x64
 2720 0247 13       		.uleb128 0x13
 2721 0248 00       		.byte	0
 2722 0249 00       		.byte	0
 2723 024a 25       		.uleb128 0x25
 2724 024b 02       		.uleb128 0x2
 2725 024c 01       		.byte	0x1
 2726 024d 03       		.uleb128 0x3
 2727 024e 0E       		.uleb128 0xe
 2728 024f 0B       		.uleb128 0xb
 2729 0250 0B       		.uleb128 0xb
 2730 0251 3A       		.uleb128 0x3a
 2731 0252 0B       		.uleb128 0xb
 2732 0253 3B       		.uleb128 0x3b
 2733 0254 05       		.uleb128 0x5
 2734 0255 39       		.uleb128 0x39
 2735 0256 0B       		.uleb128 0xb
 2736 0257 1D       		.uleb128 0x1d
ARM GAS  /tmp/ccDKXUnV.s 			page 49


 2737 0258 13       		.uleb128 0x13
 2738 0259 01       		.uleb128 0x1
 2739 025a 13       		.uleb128 0x13
 2740 025b 00       		.byte	0
 2741 025c 00       		.byte	0
 2742 025d 26       		.uleb128 0x26
 2743 025e 0D       		.uleb128 0xd
 2744 025f 00       		.byte	0
 2745 0260 03       		.uleb128 0x3
 2746 0261 0E       		.uleb128 0xe
 2747 0262 49       		.uleb128 0x49
 2748 0263 13       		.uleb128 0x13
 2749 0264 38       		.uleb128 0x38
 2750 0265 0B       		.uleb128 0xb
 2751 0266 34       		.uleb128 0x34
 2752 0267 19       		.uleb128 0x19
 2753 0268 32       		.uleb128 0x32
 2754 0269 0B       		.uleb128 0xb
 2755 026a 00       		.byte	0
 2756 026b 00       		.byte	0
 2757 026c 27       		.uleb128 0x27
 2758 026d 2E       		.uleb128 0x2e
 2759 026e 01       		.byte	0x1
 2760 026f 3F       		.uleb128 0x3f
 2761 0270 19       		.uleb128 0x19
 2762 0271 03       		.uleb128 0x3
 2763 0272 0E       		.uleb128 0xe
 2764 0273 3A       		.uleb128 0x3a
 2765 0274 0B       		.uleb128 0xb
 2766 0275 3B       		.uleb128 0x3b
 2767 0276 05       		.uleb128 0x5
 2768 0277 39       		.uleb128 0x39
 2769 0278 0B       		.uleb128 0xb
 2770 0279 6E       		.uleb128 0x6e
 2771 027a 0E       		.uleb128 0xe
 2772 027b 4C       		.uleb128 0x4c
 2773 027c 0B       		.uleb128 0xb
 2774 027d 4D       		.uleb128 0x4d
 2775 027e 18       		.uleb128 0x18
 2776 027f 1D       		.uleb128 0x1d
 2777 0280 13       		.uleb128 0x13
 2778 0281 32       		.uleb128 0x32
 2779 0282 0B       		.uleb128 0xb
 2780 0283 3C       		.uleb128 0x3c
 2781 0284 19       		.uleb128 0x19
 2782 0285 64       		.uleb128 0x64
 2783 0286 13       		.uleb128 0x13
 2784 0287 01       		.uleb128 0x1
 2785 0288 13       		.uleb128 0x13
 2786 0289 00       		.byte	0
 2787 028a 00       		.byte	0
 2788 028b 28       		.uleb128 0x28
 2789 028c 2E       		.uleb128 0x2e
 2790 028d 01       		.byte	0x1
 2791 028e 3F       		.uleb128 0x3f
 2792 028f 19       		.uleb128 0x19
 2793 0290 03       		.uleb128 0x3
ARM GAS  /tmp/ccDKXUnV.s 			page 50


 2794 0291 0E       		.uleb128 0xe
 2795 0292 3A       		.uleb128 0x3a
 2796 0293 0B       		.uleb128 0xb
 2797 0294 3B       		.uleb128 0x3b
 2798 0295 05       		.uleb128 0x5
 2799 0296 39       		.uleb128 0x39
 2800 0297 0B       		.uleb128 0xb
 2801 0298 6E       		.uleb128 0x6e
 2802 0299 0E       		.uleb128 0xe
 2803 029a 49       		.uleb128 0x49
 2804 029b 13       		.uleb128 0x13
 2805 029c 4C       		.uleb128 0x4c
 2806 029d 0B       		.uleb128 0xb
 2807 029e 4D       		.uleb128 0x4d
 2808 029f 18       		.uleb128 0x18
 2809 02a0 1D       		.uleb128 0x1d
 2810 02a1 13       		.uleb128 0x13
 2811 02a2 32       		.uleb128 0x32
 2812 02a3 0B       		.uleb128 0xb
 2813 02a4 3C       		.uleb128 0x3c
 2814 02a5 19       		.uleb128 0x19
 2815 02a6 64       		.uleb128 0x64
 2816 02a7 13       		.uleb128 0x13
 2817 02a8 01       		.uleb128 0x1
 2818 02a9 13       		.uleb128 0x13
 2819 02aa 00       		.byte	0
 2820 02ab 00       		.byte	0
 2821 02ac 29       		.uleb128 0x29
 2822 02ad 2E       		.uleb128 0x2e
 2823 02ae 00       		.byte	0
 2824 02af 3F       		.uleb128 0x3f
 2825 02b0 19       		.uleb128 0x19
 2826 02b1 03       		.uleb128 0x3
 2827 02b2 0E       		.uleb128 0xe
 2828 02b3 3A       		.uleb128 0x3a
 2829 02b4 0B       		.uleb128 0xb
 2830 02b5 3B       		.uleb128 0x3b
 2831 02b6 05       		.uleb128 0x5
 2832 02b7 39       		.uleb128 0x39
 2833 02b8 0B       		.uleb128 0xb
 2834 02b9 6E       		.uleb128 0x6e
 2835 02ba 0E       		.uleb128 0xe
 2836 02bb 32       		.uleb128 0x32
 2837 02bc 0B       		.uleb128 0xb
 2838 02bd 3C       		.uleb128 0x3c
 2839 02be 19       		.uleb128 0x19
 2840 02bf 00       		.byte	0
 2841 02c0 00       		.byte	0
 2842 02c1 2A       		.uleb128 0x2a
 2843 02c2 2E       		.uleb128 0x2e
 2844 02c3 01       		.byte	0x1
 2845 02c4 3F       		.uleb128 0x3f
 2846 02c5 19       		.uleb128 0x19
 2847 02c6 03       		.uleb128 0x3
 2848 02c7 0E       		.uleb128 0xe
 2849 02c8 3A       		.uleb128 0x3a
 2850 02c9 0B       		.uleb128 0xb
ARM GAS  /tmp/ccDKXUnV.s 			page 51


 2851 02ca 3B       		.uleb128 0x3b
 2852 02cb 0B       		.uleb128 0xb
 2853 02cc 39       		.uleb128 0x39
 2854 02cd 0B       		.uleb128 0xb
 2855 02ce 6E       		.uleb128 0x6e
 2856 02cf 0E       		.uleb128 0xe
 2857 02d0 3C       		.uleb128 0x3c
 2858 02d1 19       		.uleb128 0x19
 2859 02d2 00       		.byte	0
 2860 02d3 00       		.byte	0
 2861 02d4 2B       		.uleb128 0x2b
 2862 02d5 15       		.uleb128 0x15
 2863 02d6 01       		.byte	0x1
 2864 02d7 49       		.uleb128 0x49
 2865 02d8 13       		.uleb128 0x13
 2866 02d9 01       		.uleb128 0x1
 2867 02da 13       		.uleb128 0x13
 2868 02db 00       		.byte	0
 2869 02dc 00       		.byte	0
 2870 02dd 2C       		.uleb128 0x2c
 2871 02de 18       		.uleb128 0x18
 2872 02df 00       		.byte	0
 2873 02e0 00       		.byte	0
 2874 02e1 00       		.byte	0
 2875 02e2 2D       		.uleb128 0x2d
 2876 02e3 0F       		.uleb128 0xf
 2877 02e4 00       		.byte	0
 2878 02e5 0B       		.uleb128 0xb
 2879 02e6 0B       		.uleb128 0xb
 2880 02e7 03       		.uleb128 0x3
 2881 02e8 0E       		.uleb128 0xe
 2882 02e9 49       		.uleb128 0x49
 2883 02ea 13       		.uleb128 0x13
 2884 02eb 00       		.byte	0
 2885 02ec 00       		.byte	0
 2886 02ed 2E       		.uleb128 0x2e
 2887 02ee 2E       		.uleb128 0x2e
 2888 02ef 01       		.byte	0x1
 2889 02f0 47       		.uleb128 0x47
 2890 02f1 13       		.uleb128 0x13
 2891 02f2 11       		.uleb128 0x11
 2892 02f3 01       		.uleb128 0x1
 2893 02f4 12       		.uleb128 0x12
 2894 02f5 06       		.uleb128 0x6
 2895 02f6 40       		.uleb128 0x40
 2896 02f7 18       		.uleb128 0x18
 2897 02f8 9642     		.uleb128 0x2116
 2898 02fa 19       		.uleb128 0x19
 2899 02fb 01       		.uleb128 0x1
 2900 02fc 13       		.uleb128 0x13
 2901 02fd 00       		.byte	0
 2902 02fe 00       		.byte	0
 2903 02ff 2F       		.uleb128 0x2f
 2904 0300 05       		.uleb128 0x5
 2905 0301 00       		.byte	0
 2906 0302 03       		.uleb128 0x3
 2907 0303 08       		.uleb128 0x8
ARM GAS  /tmp/ccDKXUnV.s 			page 52


 2908 0304 3A       		.uleb128 0x3a
 2909 0305 0B       		.uleb128 0xb
 2910 0306 3B       		.uleb128 0x3b
 2911 0307 0B       		.uleb128 0xb
 2912 0308 39       		.uleb128 0x39
 2913 0309 0B       		.uleb128 0xb
 2914 030a 49       		.uleb128 0x49
 2915 030b 13       		.uleb128 0x13
 2916 030c 02       		.uleb128 0x2
 2917 030d 18       		.uleb128 0x18
 2918 030e 00       		.byte	0
 2919 030f 00       		.byte	0
 2920 0310 30       		.uleb128 0x30
 2921 0311 2E       		.uleb128 0x2e
 2922 0312 00       		.byte	0
 2923 0313 47       		.uleb128 0x47
 2924 0314 13       		.uleb128 0x13
 2925 0315 3A       		.uleb128 0x3a
 2926 0316 0B       		.uleb128 0xb
 2927 0317 3B       		.uleb128 0x3b
 2928 0318 0B       		.uleb128 0xb
 2929 0319 39       		.uleb128 0x39
 2930 031a 0B       		.uleb128 0xb
 2931 031b 11       		.uleb128 0x11
 2932 031c 01       		.uleb128 0x1
 2933 031d 12       		.uleb128 0x12
 2934 031e 06       		.uleb128 0x6
 2935 031f 40       		.uleb128 0x40
 2936 0320 18       		.uleb128 0x18
 2937 0321 9642     		.uleb128 0x2116
 2938 0323 19       		.uleb128 0x19
 2939 0324 00       		.byte	0
 2940 0325 00       		.byte	0
 2941 0326 31       		.uleb128 0x31
 2942 0327 2E       		.uleb128 0x2e
 2943 0328 01       		.byte	0x1
 2944 0329 47       		.uleb128 0x47
 2945 032a 13       		.uleb128 0x13
 2946 032b 64       		.uleb128 0x64
 2947 032c 13       		.uleb128 0x13
 2948 032d 20       		.uleb128 0x20
 2949 032e 0B       		.uleb128 0xb
 2950 032f 01       		.uleb128 0x1
 2951 0330 13       		.uleb128 0x13
 2952 0331 00       		.byte	0
 2953 0332 00       		.byte	0
 2954 0333 32       		.uleb128 0x32
 2955 0334 05       		.uleb128 0x5
 2956 0335 00       		.byte	0
 2957 0336 03       		.uleb128 0x3
 2958 0337 0E       		.uleb128 0xe
 2959 0338 49       		.uleb128 0x49
 2960 0339 13       		.uleb128 0x13
 2961 033a 34       		.uleb128 0x34
 2962 033b 19       		.uleb128 0x19
 2963 033c 00       		.byte	0
 2964 033d 00       		.byte	0
ARM GAS  /tmp/ccDKXUnV.s 			page 53


 2965 033e 33       		.uleb128 0x33
 2966 033f 05       		.uleb128 0x5
 2967 0340 00       		.byte	0
 2968 0341 03       		.uleb128 0x3
 2969 0342 08       		.uleb128 0x8
 2970 0343 3A       		.uleb128 0x3a
 2971 0344 0B       		.uleb128 0xb
 2972 0345 3B       		.uleb128 0x3b
 2973 0346 05       		.uleb128 0x5
 2974 0347 39       		.uleb128 0x39
 2975 0348 0B       		.uleb128 0xb
 2976 0349 49       		.uleb128 0x49
 2977 034a 13       		.uleb128 0x13
 2978 034b 00       		.byte	0
 2979 034c 00       		.byte	0
 2980 034d 34       		.uleb128 0x34
 2981 034e 2E       		.uleb128 0x2e
 2982 034f 01       		.byte	0x1
 2983 0350 31       		.uleb128 0x31
 2984 0351 13       		.uleb128 0x13
 2985 0352 6E       		.uleb128 0x6e
 2986 0353 0E       		.uleb128 0xe
 2987 0354 64       		.uleb128 0x64
 2988 0355 13       		.uleb128 0x13
 2989 0356 11       		.uleb128 0x11
 2990 0357 01       		.uleb128 0x1
 2991 0358 12       		.uleb128 0x12
 2992 0359 06       		.uleb128 0x6
 2993 035a 40       		.uleb128 0x40
 2994 035b 18       		.uleb128 0x18
 2995 035c 9742     		.uleb128 0x2117
 2996 035e 19       		.uleb128 0x19
 2997 035f 01       		.uleb128 0x1
 2998 0360 13       		.uleb128 0x13
 2999 0361 00       		.byte	0
 3000 0362 00       		.byte	0
 3001 0363 35       		.uleb128 0x35
 3002 0364 05       		.uleb128 0x5
 3003 0365 00       		.byte	0
 3004 0366 31       		.uleb128 0x31
 3005 0367 13       		.uleb128 0x13
 3006 0368 02       		.uleb128 0x2
 3007 0369 18       		.uleb128 0x18
 3008 036a 00       		.byte	0
 3009 036b 00       		.byte	0
 3010 036c 36       		.uleb128 0x36
 3011 036d 2E       		.uleb128 0x2e
 3012 036e 00       		.byte	0
 3013 036f 03       		.uleb128 0x3
 3014 0370 0E       		.uleb128 0xe
 3015 0371 3A       		.uleb128 0x3a
 3016 0372 0B       		.uleb128 0xb
 3017 0373 3B       		.uleb128 0x3b
 3018 0374 05       		.uleb128 0x5
 3019 0375 39       		.uleb128 0x39
 3020 0376 0B       		.uleb128 0xb
 3021 0377 49       		.uleb128 0x49
ARM GAS  /tmp/ccDKXUnV.s 			page 54


 3022 0378 13       		.uleb128 0x13
 3023 0379 11       		.uleb128 0x11
 3024 037a 01       		.uleb128 0x1
 3025 037b 12       		.uleb128 0x12
 3026 037c 06       		.uleb128 0x6
 3027 037d 40       		.uleb128 0x40
 3028 037e 18       		.uleb128 0x18
 3029 037f 9742     		.uleb128 0x2117
 3030 0381 19       		.uleb128 0x19
 3031 0382 00       		.byte	0
 3032 0383 00       		.byte	0
 3033 0384 00       		.byte	0
 3034              		.section	.debug_aranges,"",%progbits
 3035 0000 34000000 		.4byte	0x34
 3036 0004 0200     		.2byte	0x2
 3037 0006 00000000 		.4byte	.Ldebug_info0
 3038 000a 04       		.byte	0x4
 3039 000b 00       		.byte	0
 3040 000c 0000     		.2byte	0
 3041 000e 0000     		.2byte	0
 3042 0010 00000000 		.4byte	.LFB201
 3043 0014 0C000000 		.4byte	.LFE201-.LFB201
 3044 0018 00000000 		.4byte	.LFB340
 3045 001c 14000000 		.4byte	.LFE340-.LFB340
 3046 0020 00000000 		.4byte	.LFB494
 3047 0024 1E000000 		.4byte	.LFE494-.LFB494
 3048 0028 00000000 		.4byte	.LFB495
 3049 002c 18000000 		.4byte	.LFE495-.LFB495
 3050 0030 00000000 		.4byte	0
 3051 0034 00000000 		.4byte	0
 3052              		.section	.debug_ranges,"",%progbits
 3053              	.Ldebug_ranges0:
 3054 0000 00000000 		.4byte	.LFB201
 3055 0004 0C000000 		.4byte	.LFE201
 3056 0008 00000000 		.4byte	.LFB340
 3057 000c 14000000 		.4byte	.LFE340
 3058 0010 00000000 		.4byte	.LFB494
 3059 0014 1E000000 		.4byte	.LFE494
 3060 0018 00000000 		.4byte	.LFB495
 3061 001c 18000000 		.4byte	.LFE495
 3062 0020 00000000 		.4byte	0
 3063 0024 00000000 		.4byte	0
 3064              		.section	.debug_line,"",%progbits
 3065              	.Ldebug_line0:
 3066 0000 8E020000 		.section	.debug_str,"MS",%progbits,1
 3066      03002102 
 3066      00000201 
 3066      FB0E0D00 
 3066      01010101 
 3067              	.LASF140:
 3068 0000 67657454 		.ascii	"getTime\000"
 3068      696D6500 
 3069              	.LASF58:
 3070 0008 63685F74 		.ascii	"ch_threads_list\000"
 3070      68726561 
 3070      64735F6C 
 3070      69737400 
ARM GAS  /tmp/ccDKXUnV.s 			page 55


 3071              	.LASF214:
 3072 0018 5F5A4E31 		.ascii	"_ZN10chibios_rt10BaseThread13waitAllEventsEm\000"
 3072      30636869 
 3072      62696F73 
 3072      5F727431 
 3072      30426173 
 3073              	.LASF211:
 3074 0045 77616974 		.ascii	"waitAnyEvent\000"
 3074      416E7945 
 3074      76656E74 
 3074      00
 3075              	.LASF204:
 3076 0052 5F5A4E31 		.ascii	"_ZN10chibios_rt10BaseThread11waitMessageEv\000"
 3076      30636869 
 3076      62696F73 
 3076      5F727431 
 3076      30426173 
 3077              	.LASF128:
 3078 007d 5F5A4E31 		.ascii	"_ZN10chibios_rt6System17unconditionalLockEv\000"
 3078      30636869 
 3078      62696F73 
 3078      5F727436 
 3078      53797374 
 3079              	.LASF130:
 3080 00a9 5F5A4E31 		.ascii	"_ZN10chibios_rt6System19unconditionalUnlockEv\000"
 3080      30636869 
 3080      62696F73 
 3080      5F727436 
 3080      53797374 
 3081              	.LASF193:
 3082 00d7 5F5A4E31 		.ascii	"_ZN10chibios_rt10BaseThread5exitSEl\000"
 3082      30636869 
 3082      62696F73 
 3082      5F727431 
 3082      30426173 
 3083              	.LASF55:
 3084 00fb 74687265 		.ascii	"thread_reference_t\000"
 3084      61645F72 
 3084      65666572 
 3084      656E6365 
 3084      5F7400
 3085              	.LASF184:
 3086 010e 7365744E 		.ascii	"setName\000"
 3086      616D6500 
 3087              	.LASF85:
 3088 0116 72656761 		.ascii	"regarm_t\000"
 3088      726D5F74 
 3088      00
 3089              	.LASF173:
 3090 011f 72656C65 		.ascii	"releaseMessage\000"
 3090      6173654D 
 3090      65737361 
 3090      676500
 3091              	.LASF147:
 3092 012e 5F5A4E31 		.ascii	"_ZN10chibios_rt6System18isSystemTimeWithinEmm\000"
 3092      30636869 
 3092      62696F73 
ARM GAS  /tmp/ccDKXUnV.s 			page 56


 3092      5F727436 
 3092      53797374 
 3093              	.LASF92:
 3094 015c 31387469 		.ascii	"18time_measurement_t\000"
 3094      6D655F6D 
 3094      65617375 
 3094      72656D65 
 3094      6E745F74 
 3095              	.LASF122:
 3096 0171 5F5A4E31 		.ascii	"_ZN10chibios_rt6System6unlockEv\000"
 3096      30636869 
 3096      62696F73 
 3096      5F727436 
 3096      53797374 
 3097              	.LASF83:
 3098 0191 73797374 		.ascii	"systime_t\000"
 3098      696D655F 
 3098      7400
 3099              	.LASF52:
 3100 019b 7265616C 		.ascii	"realprio\000"
 3100      7072696F 
 3100      00
 3101              	.LASF137:
 3102 01a4 706F6C6C 		.ascii	"polledDelayX\000"
 3102      65644465 
 3102      6C617958 
 3102      00
 3103              	.LASF172:
 3104 01b1 5F5A4E4B 		.ascii	"_ZNK10chibios_rt15ThreadReference10getMessageEv\000"
 3104      31306368 
 3104      6962696F 
 3104      735F7274 
 3104      31355468 
 3105              	.LASF50:
 3106 01e1 6570656E 		.ascii	"epending\000"
 3106      64696E67 
 3106      00
 3107              	.LASF0:
 3108 01ea 756E7369 		.ascii	"unsigned int\000"
 3108      676E6564 
 3108      20696E74 
 3108      00
 3109              	.LASF59:
 3110 01f7 6E657874 		.ascii	"next\000"
 3110      00
 3111              	.LASF102:
 3112 01fc 6D5F6372 		.ascii	"m_crit_isr\000"
 3112      69745F69 
 3112      737200
 3113              	.LASF20:
 3114 0207 73797373 		.ascii	"syssts_t\000"
 3114      74735F74 
 3114      00
 3115              	.LASF56:
 3116 0210 74687265 		.ascii	"threads_list_t\000"
 3116      6164735F 
 3116      6C697374 
ARM GAS  /tmp/ccDKXUnV.s 			page 57


 3116      5F7400
 3117              	.LASF175:
 3118 021f 7369676E 		.ascii	"signalEvents\000"
 3118      616C4576 
 3118      656E7473 
 3118      00
 3119              	.LASF96:
 3120 022c 63756D75 		.ascii	"cumulative\000"
 3120      6C617469 
 3120      766500
 3121              	.LASF197:
 3122 0237 5F5A4E31 		.ascii	"_ZN10chibios_rt10BaseThread5sleepEm\000"
 3122      30636869 
 3122      62696F73 
 3122      5F727431 
 3122      30426173 
 3123              	.LASF114:
 3124 025b 5F5A4E31 		.ascii	"_ZN10chibios_rt6System7disableEv\000"
 3124      30636869 
 3124      62696F73 
 3124      5F727436 
 3124      53797374 
 3125              	.LASF237:
 3126 027c 5F5A4E31 		.ascii	"_ZN10chibios_rt10BaseThread5startEm\000"
 3126      30636869 
 3126      62696F73 
 3126      5F727431 
 3126      30426173 
 3127              	.LASF47:
 3128 02a0 72656673 		.ascii	"refs\000"
 3128      00
 3129              	.LASF231:
 3130 02a5 5F5A4E31 		.ascii	"_ZN10chibios_rt6System4haltEPKc\000"
 3130      30636869 
 3130      62696F73 
 3130      5F727436 
 3130      53797374 
 3131              	.LASF62:
 3132 02c5 70726576 		.ascii	"prev\000"
 3132      00
 3133              	.LASF177:
 3134 02ca 7369676E 		.ascii	"signalEventsI\000"
 3134      616C4576 
 3134      656E7473 
 3134      4900
 3135              	.LASF33:
 3136 02d8 77746F62 		.ascii	"wtobjp\000"
 3136      6A7000
 3137              	.LASF80:
 3138 02df 76746C69 		.ascii	"vtlist\000"
 3138      737400
 3139              	.LASF198:
 3140 02e6 736C6565 		.ascii	"sleepUntil\000"
 3140      70556E74 
 3140      696C00
 3141              	.LASF87:
 3142 02f1 706F7274 		.ascii	"port_context\000"
ARM GAS  /tmp/ccDKXUnV.s 			page 58


 3142      5F636F6E 
 3142      74657874 
 3142      00
 3143              	.LASF64:
 3144 02fe 63685F72 		.ascii	"ch_ready_list\000"
 3144      65616479 
 3144      5F6C6973 
 3144      7400
 3145              	.LASF199:
 3146 030c 5F5A4E31 		.ascii	"_ZN10chibios_rt10BaseThread10sleepUntilEm\000"
 3146      30636869 
 3146      62696F73 
 3146      5F727431 
 3146      30426173 
 3147              	.LASF229:
 3148 0336 6465636C 		.ascii	"decltype(nullptr)\000"
 3148      74797065 
 3148      286E756C 
 3148      6C707472 
 3148      2900
 3149              	.LASF70:
 3150 0348 66756E63 		.ascii	"func\000"
 3150      00
 3151              	.LASF38:
 3152 034d 65776D61 		.ascii	"ewmask\000"
 3152      736B00
 3153              	.LASF242:
 3154 0354 5F5A4E31 		.ascii	"_ZN10chibios_rt15ThreadReferenceC2EP9ch_thread\000"
 3154      30636869 
 3154      62696F73 
 3154      5F727431 
 3154      35546872 
 3155              	.LASF176:
 3156 0383 5F5A4E4B 		.ascii	"_ZNK10chibios_rt15ThreadReference12signalEventsEm\000"
 3156      31306368 
 3156      6962696F 
 3156      735F7274 
 3156      31355468 
 3157              	.LASF240:
 3158 03b5 5F5F7674 		.ascii	"__vtbl_ptr_type\000"
 3158      626C5F70 
 3158      74725F74 
 3158      79706500 
 3159              	.LASF192:
 3160 03c5 65786974 		.ascii	"exitS\000"
 3160      5300
 3161              	.LASF66:
 3162 03cb 76746675 		.ascii	"vtfunc_t\000"
 3162      6E635F74 
 3162      00
 3163              	.LASF75:
 3164 03d4 63685F73 		.ascii	"ch_system_debug\000"
 3164      79737465 
 3164      6D5F6465 
 3164      62756700 
 3165              	.LASF113:
 3166 03e4 5F5A4E31 		.ascii	"_ZN10chibios_rt6System4initEv\000"
ARM GAS  /tmp/ccDKXUnV.s 			page 59


 3166      30636869 
 3166      62696F73 
 3166      5F727436 
 3166      53797374 
 3167              	.LASF239:
 3168 0402 5F5A4E31 		.ascii	"_ZN10chibios_rt10_thd_startEPv\000"
 3168      30636869 
 3168      62696F73 
 3168      5F727431 
 3168      305F7468 
 3169              	.LASF223:
 3170 0421 756E6C6F 		.ascii	"unlockAllMutexes\000"
 3170      636B416C 
 3170      6C4D7574 
 3170      65786573 
 3170      00
 3171              	.LASF146:
 3172 0432 5F5A4E31 		.ascii	"_ZN10chibios_rt6System16isCounterWithinXEmmm\000"
 3172      30636869 
 3172      62696F73 
 3172      5F727436 
 3172      53797374 
 3173              	.LASF35:
 3174 045f 73656E74 		.ascii	"sentmsg\000"
 3174      6D736700 
 3175              	.LASF103:
 3176 0467 6B65726E 		.ascii	"kernel_stats_t\000"
 3176      656C5F73 
 3176      74617473 
 3176      5F7400
 3177              	.LASF154:
 3178 0476 5F5A4E31 		.ascii	"_ZN10chibios_rt15ThreadReferenceC4EP9ch_thread\000"
 3178      30636869 
 3178      62696F73 
 3178      5F727431 
 3178      35546872 
 3179              	.LASF27:
 3180 04a5 6576656E 		.ascii	"eventmask_t\000"
 3180      746D6173 
 3180      6B5F7400 
 3181              	.LASF82:
 3182 04b1 6B65726E 		.ascii	"kernel_stats\000"
 3182      656C5F73 
 3182      74617473 
 3182      00
 3183              	.LASF185:
 3184 04be 5F5A4E31 		.ascii	"_ZN10chibios_rt10BaseThread7setNameEPKc\000"
 3184      30636869 
 3184      62696F73 
 3184      5F727431 
 3184      30426173 
 3185              	.LASF104:
 3186 04e6 63685F73 		.ascii	"ch_semaphore\000"
 3186      656D6170 
 3186      686F7265 
 3186      00
 3187              	.LASF210:
ARM GAS  /tmp/ccDKXUnV.s 			page 60


 3188 04f3 5F5A4E31 		.ascii	"_ZN10chibios_rt10BaseThread12waitOneEventEm\000"
 3188      30636869 
 3188      62696F73 
 3188      5F727431 
 3188      30426173 
 3189              	.LASF24:
 3190 051f 74707269 		.ascii	"tprio_t\000"
 3190      6F5F7400 
 3191              	.LASF68:
 3192 0527 63685F76 		.ascii	"ch_virtual_timer\000"
 3192      69727475 
 3192      616C5F74 
 3192      696D6572 
 3192      00
 3193              	.LASF207:
 3194 0538 61646445 		.ascii	"addEvents\000"
 3194      76656E74 
 3194      7300
 3195              	.LASF188:
 3196 0542 67657450 		.ascii	"getPriorityX\000"
 3196      72696F72 
 3196      69747958 
 3196      00
 3197              	.LASF13:
 3198 054f 6C6F6E67 		.ascii	"long long unsigned int\000"
 3198      206C6F6E 
 3198      6720756E 
 3198      7369676E 
 3198      65642069 
 3199              	.LASF28:
 3200 0566 636E745F 		.ascii	"cnt_t\000"
 3200      7400
 3201              	.LASF142:
 3202 056c 5F5A4E31 		.ascii	"_ZN10chibios_rt6System7getTimeEv\000"
 3202      30636869 
 3202      62696F73 
 3202      5F727436 
 3202      53797374 
 3203              	.LASF138:
 3204 058d 5F5A4E31 		.ascii	"_ZN10chibios_rt6System14restoreStatusXEm\000"
 3204      30636869 
 3204      62696F73 
 3204      5F727436 
 3204      53797374 
 3205              	.LASF94:
 3206 05b6 776F7273 		.ascii	"worst\000"
 3206      7400
 3207              	.LASF117:
 3208 05bc 656E6162 		.ascii	"enable\000"
 3208      6C6500
 3209              	.LASF160:
 3210 05c3 5F5A4E4B 		.ascii	"_ZNK10chibios_rt15ThreadReference16requestTerminate"
 3210      31306368 
 3210      6962696F 
 3210      735F7274 
 3210      31355468 
 3211 05f6 457600   		.ascii	"Ev\000"
ARM GAS  /tmp/ccDKXUnV.s 			page 61


 3212              	.LASF106:
 3213 05f9 6F776E65 		.ascii	"owner\000"
 3213      7200
 3214              	.LASF60:
 3215 05ff 74687265 		.ascii	"threads_queue_t\000"
 3215      6164735F 
 3215      71756575 
 3215      655F7400 
 3216              	.LASF150:
 3217 060f 53797374 		.ascii	"System\000"
 3217      656D00
 3218              	.LASF51:
 3219 0616 6D74786C 		.ascii	"mtxlist\000"
 3219      69737400 
 3220              	.LASF72:
 3221 061e 63685F76 		.ascii	"ch_virtual_timers_list\000"
 3221      69727475 
 3221      616C5F74 
 3221      696D6572 
 3221      735F6C69 
 3222              	.LASF134:
 3223 0635 67657452 		.ascii	"getRealtimeCounterX\000"
 3223      65616C74 
 3223      696D6543 
 3223      6F756E74 
 3223      65725800 
 3224              	.LASF30:
 3225 0649 74687265 		.ascii	"thread_t\000"
 3225      61645F74 
 3225      00
 3226              	.LASF183:
 3227 0652 5F5A4E31 		.ascii	"_ZN10chibios_rt10BaseThread8getSelfXEv\000"
 3227      30636869 
 3227      62696F73 
 3227      5F727431 
 3227      30426173 
 3228              	.LASF31:
 3229 0679 7264796D 		.ascii	"rdymsg\000"
 3229      736700
 3230              	.LASF182:
 3231 0680 67657453 		.ascii	"getSelfX\000"
 3231      656C6658 
 3231      00
 3232              	.LASF164:
 3233 0689 5F5A4E31 		.ascii	"_ZN10chibios_rt15ThreadReference7releaseEv\000"
 3233      30636869 
 3233      62696F73 
 3233      5F727431 
 3233      35546872 
 3234              	.LASF89:
 3235 06b4 6F666673 		.ascii	"offset\000"
 3235      657400
 3236              	.LASF115:
 3237 06bb 73757370 		.ascii	"suspend\000"
 3237      656E6400 
 3238              	.LASF136:
 3239 06c3 6973436F 		.ascii	"isCounterWithinX\000"
ARM GAS  /tmp/ccDKXUnV.s 			page 62


 3239      756E7465 
 3239      72576974 
 3239      68696E58 
 3239      00
 3240              	.LASF161:
 3241 06d4 61646452 		.ascii	"addRef\000"
 3241      656600
 3242              	.LASF105:
 3243 06db 63685F6D 		.ascii	"ch_mutex\000"
 3243      75746578 
 3243      00
 3244              	.LASF167:
 3245 06e4 73656E64 		.ascii	"sendMessage\000"
 3245      4D657373 
 3245      61676500 
 3246              	.LASF191:
 3247 06f0 5F5A4E31 		.ascii	"_ZN10chibios_rt10BaseThread4exitEl\000"
 3247      30636869 
 3247      62696F73 
 3247      5F727431 
 3247      30426173 
 3248              	.LASF148:
 3249 0713 67657449 		.ascii	"getIdleThreadX\000"
 3249      646C6554 
 3249      68726561 
 3249      645800
 3250              	.LASF98:
 3251 0722 31346B65 		.ascii	"14kernel_stats_t\000"
 3251      726E656C 
 3251      5F737461 
 3251      74735F74 
 3251      00
 3252              	.LASF135:
 3253 0733 696E7465 		.ascii	"integrityCheckI\000"
 3253      67726974 
 3253      79436865 
 3253      636B4900 
 3254              	.LASF97:
 3255 0743 74696D65 		.ascii	"time_measurement_t\000"
 3255      5F6D6561 
 3255      73757265 
 3255      6D656E74 
 3255      5F7400
 3256              	.LASF40:
 3257 0756 7072696F 		.ascii	"prio\000"
 3257      00
 3258              	.LASF171:
 3259 075b 6765744D 		.ascii	"getMessage\000"
 3259      65737361 
 3259      676500
 3260              	.LASF107:
 3261 0766 63686172 		.ascii	"char\000"
 3261      00
 3262              	.LASF159:
 3263 076b 72657175 		.ascii	"requestTerminate\000"
 3263      65737454 
 3263      65726D69 
ARM GAS  /tmp/ccDKXUnV.s 			page 63


 3263      6E617465 
 3263      00
 3264              	.LASF205:
 3265 077c 67657441 		.ascii	"getAndClearEvents\000"
 3265      6E64436C 
 3265      65617245 
 3265      76656E74 
 3265      7300
 3266              	.LASF8:
 3267 078e 5F5F696E 		.ascii	"__int32_t\000"
 3267      7433325F 
 3267      7400
 3268              	.LASF19:
 3269 0798 72747469 		.ascii	"rttime_t\000"
 3269      6D655F74 
 3269      00
 3270              	.LASF44:
 3271 07a1 77616261 		.ascii	"wabase\000"
 3271      736500
 3272              	.LASF74:
 3273 07a8 73797374 		.ascii	"system_debug_t\000"
 3273      656D5F64 
 3273      65627567 
 3273      5F7400
 3274              	.LASF22:
 3275 07b7 74737461 		.ascii	"tstate_t\000"
 3275      74655F74 
 3275      00
 3276              	.LASF190:
 3277 07c0 65786974 		.ascii	"exit\000"
 3277      00
 3278              	.LASF1:
 3279 07c5 6C6F6E67 		.ascii	"long long int\000"
 3279      206C6F6E 
 3279      6720696E 
 3279      7400
 3280              	.LASF12:
 3281 07d3 5F5F7569 		.ascii	"__uint64_t\000"
 3281      6E743634 
 3281      5F7400
 3282              	.LASF228:
 3283 07de 2F686F6D 		.ascii	"/home/mahathi/mathur407_payload2/4.0.7/build/CUAVv5"
 3283      652F6D61 
 3283      68617468 
 3283      692F6D61 
 3283      74687572 
 3284 0811 00       		.ascii	"\000"
 3285              	.LASF109:
 3286 0812 65766861 		.ascii	"evhandler_t\000"
 3286      6E646C65 
 3286      725F7400 
 3287              	.LASF14:
 3288 081e 75696E74 		.ascii	"uint8_t\000"
 3288      385F7400 
 3289              	.LASF163:
 3290 0826 72656C65 		.ascii	"release\000"
 3290      61736500 
ARM GAS  /tmp/ccDKXUnV.s 			page 64


 3291              	.LASF49:
 3292 082e 6D736771 		.ascii	"msgqueue\000"
 3292      75657565 
 3292      00
 3293              	.LASF125:
 3294 0837 756E6C6F 		.ascii	"unlockFromIsr\000"
 3294      636B4672 
 3294      6F6D4973 
 3294      7200
 3295              	.LASF57:
 3296 0845 63685F74 		.ascii	"ch_thread\000"
 3296      68726561 
 3296      6400
 3297              	.LASF127:
 3298 084f 756E636F 		.ascii	"unconditionalLock\000"
 3298      6E646974 
 3298      696F6E61 
 3298      6C4C6F63 
 3298      6B00
 3299              	.LASF201:
 3300 0861 5F5A4E31 		.ascii	"_ZN10chibios_rt10BaseThread18sleepUntilWindowedEmm\000"
 3300      30636869 
 3300      62696F73 
 3300      5F727431 
 3300      30426173 
 3301              	.LASF129:
 3302 0894 756E636F 		.ascii	"unconditionalUnlock\000"
 3302      6E646974 
 3302      696F6E61 
 3302      6C556E6C 
 3302      6F636B00 
 3303              	.LASF226:
 3304 08a8 474E5520 		.ascii	"GNU C++11 10.2.1 20201103 (release) -mcpu=cortex-m7"
 3304      432B2B31 
 3304      31203130 
 3304      2E322E31 
 3304      20323032 
 3305 08db 202D6D66 		.ascii	" -mfloat-abi=hard -mfpu=fpv4-sp-d16 -mno-thumb-inte"
 3305      6C6F6174 
 3305      2D616269 
 3305      3D686172 
 3305      64202D6D 
 3306 090e 72776F72 		.ascii	"rwork -mthumb -march=armv7e-m+fp -g -std=gnu++11 -f"
 3306      6B202D6D 
 3306      7468756D 
 3306      62202D6D 
 3306      61726368 
 3307 0941 6F6D6974 		.ascii	"omit-frame-pointer -falign-functions=16 -ffunction-"
 3307      2D667261 
 3307      6D652D70 
 3307      6F696E74 
 3307      6572202D 
 3308 0974 73656374 		.ascii	"sections -fdata-sections -fno-common -fsingle-preci"
 3308      696F6E73 
 3308      202D6664 
 3308      6174612D 
 3308      73656374 
ARM GAS  /tmp/ccDKXUnV.s 			page 65


 3309 09a7 73696F6E 		.ascii	"sion-constant -fno-rtti\000"
 3309      2D636F6E 
 3309      7374616E 
 3309      74202D66 
 3309      6E6F2D72 
 3310              	.LASF149:
 3311 09bf 5F5A4E31 		.ascii	"_ZN10chibios_rt6System14getIdleThreadXEv\000"
 3311      30636869 
 3311      62696F73 
 3311      5F727436 
 3311      53797374 
 3312              	.LASF124:
 3313 09e8 5F5A4E31 		.ascii	"_ZN10chibios_rt6System11lockFromIsrEv\000"
 3313      30636869 
 3313      62696F73 
 3313      5F727436 
 3313      53797374 
 3314              	.LASF61:
 3315 0a0e 63685F74 		.ascii	"ch_threads_queue\000"
 3315      68726561 
 3315      64735F71 
 3315      75657565 
 3315      00
 3316              	.LASF202:
 3317 0a1f 7969656C 		.ascii	"yield\000"
 3317      6400
 3318              	.LASF166:
 3319 0a25 5F5A4E31 		.ascii	"_ZN10chibios_rt15ThreadReference4waitEv\000"
 3319      30636869 
 3319      62696F73 
 3319      5F727431 
 3319      35546872 
 3320              	.LASF119:
 3321 0a4d 6C6F636B 		.ascii	"lock\000"
 3321      00
 3322              	.LASF25:
 3323 0a52 6D73675F 		.ascii	"msg_t\000"
 3323      7400
 3324              	.LASF110:
 3325 0a58 626F6F6C 		.ascii	"bool\000"
 3325      00
 3326              	.LASF141:
 3327 0a5d 5F5A4E31 		.ascii	"_ZN10chibios_rt6System19getRealtimeCounterXEv\000"
 3327      30636869 
 3327      62696F73 
 3327      5F727436 
 3327      53797374 
 3328              	.LASF131:
 3329 0a8b 68616C74 		.ascii	"halt\000"
 3329      00
 3330              	.LASF67:
 3331 0a90 76697274 		.ascii	"virtual_timer_t\000"
 3331      75616C5F 
 3331      74696D65 
 3331      725F7400 
 3332              	.LASF123:
 3333 0aa0 6C6F636B 		.ascii	"lockFromIsr\000"
ARM GAS  /tmp/ccDKXUnV.s 			page 66


 3333      46726F6D 
 3333      49737200 
 3334              	.LASF219:
 3335 0aac 77616974 		.ascii	"waitAllEventsTimeout\000"
 3335      416C6C45 
 3335      76656E74 
 3335      7354696D 
 3335      656F7574 
 3336              	.LASF144:
 3337 0ac1 5F5A4E31 		.ascii	"_ZN10chibios_rt6System8getTimeXEv\000"
 3337      30636869 
 3337      62696F73 
 3337      5F727436 
 3337      53797374 
 3338              	.LASF116:
 3339 0ae3 5F5A4E31 		.ascii	"_ZN10chibios_rt6System7suspendEv\000"
 3339      30636869 
 3339      62696F73 
 3339      5F727436 
 3339      53797374 
 3340              	.LASF203:
 3341 0b04 77616974 		.ascii	"waitMessage\000"
 3341      4D657373 
 3341      61676500 
 3342              	.LASF170:
 3343 0b10 5F5A4E4B 		.ascii	"_ZNK10chibios_rt15ThreadReference16isPendingMessage"
 3343      31306368 
 3343      6962696F 
 3343      735F7274 
 3343      31355468 
 3344 0b43 457600   		.ascii	"Ev\000"
 3345              	.LASF169:
 3346 0b46 69735065 		.ascii	"isPendingMessage\000"
 3346      6E64696E 
 3346      674D6573 
 3346      73616765 
 3346      00
 3347              	.LASF101:
 3348 0b57 6D5F6372 		.ascii	"m_crit_thd\000"
 3348      69745F74 
 3348      686400
 3349              	.LASF179:
 3350 0b62 5F767074 		.ascii	"_vptr.BaseThread\000"
 3350      722E4261 
 3350      73655468 
 3350      72656164 
 3350      00
 3351              	.LASF155:
 3352 0b73 69734E75 		.ascii	"isNull\000"
 3352      6C6C00
 3353              	.LASF100:
 3354 0b7a 6E5F6374 		.ascii	"n_ctxswc\000"
 3354      78737763 
 3354      00
 3355              	.LASF195:
 3356 0b83 5F5A4E31 		.ascii	"_ZN10chibios_rt10BaseThread15shouldTerminateEv\000"
 3356      30636869 
ARM GAS  /tmp/ccDKXUnV.s 			page 67


 3356      62696F73 
 3356      5F727431 
 3356      30426173 
 3357              	.LASF84:
 3358 0bb2 73797369 		.ascii	"sysinterval_t\000"
 3358      6E746572 
 3358      76616C5F 
 3358      7400
 3359              	.LASF178:
 3360 0bc0 5F5A4E4B 		.ascii	"_ZNK10chibios_rt15ThreadReference13signalEventsIEm\000"
 3360      31306368 
 3360      6962696F 
 3360      735F7274 
 3360      31355468 
 3361              	.LASF165:
 3362 0bf3 77616974 		.ascii	"wait\000"
 3362      00
 3363              	.LASF90:
 3364 0bf8 746D5F63 		.ascii	"tm_calibration_t\000"
 3364      616C6962 
 3364      72617469 
 3364      6F6E5F74 
 3364      00
 3365              	.LASF21:
 3366 0c09 746D6F64 		.ascii	"tmode_t\000"
 3366      655F7400 
 3367              	.LASF29:
 3368 0c11 75636E74 		.ascii	"ucnt_t\000"
 3368      5F7400
 3369              	.LASF194:
 3370 0c18 73686F75 		.ascii	"shouldTerminate\000"
 3370      6C645465 
 3370      726D696E 
 3370      61746500 
 3371              	.LASF81:
 3372 0c28 6D61696E 		.ascii	"mainthread\000"
 3372      74687265 
 3372      616400
 3373              	.LASF2:
 3374 0c33 6C6F6E67 		.ascii	"long double\000"
 3374      20646F75 
 3374      626C6500 
 3375              	.LASF227:
 3376 0c3f 2E2E2F2E 		.ascii	"../../modules/ChibiOS/os/various/cpp_wrappers/ch.cp"
 3376      2E2F6D6F 
 3376      64756C65 
 3376      732F4368 
 3376      6962694F 
 3377 0c72 7000     		.ascii	"p\000"
 3378              	.LASF232:
 3379 0c74 5F5A4E31 		.ascii	"_ZN10chibios_rt6System15integrityCheckIEj\000"
 3379      30636869 
 3379      62696F73 
 3379      5F727436 
 3379      53797374 
 3380              	.LASF151:
 3381 0c9e 54687265 		.ascii	"ThreadReference\000"
ARM GAS  /tmp/ccDKXUnV.s 			page 68


 3381      61645265 
 3381      66657265 
 3381      6E636500 
 3382              	.LASF241:
 3383 0cae 74686973 		.ascii	"this\000"
 3383      00
 3384              	.LASF133:
 3385 0cb3 67657453 		.ascii	"getStatusAndLockX\000"
 3385      74617475 
 3385      73416E64 
 3385      4C6F636B 
 3385      5800
 3386              	.LASF18:
 3387 0cc5 7274636E 		.ascii	"rtcnt_t\000"
 3387      745F7400 
 3388              	.LASF46:
 3389 0ccd 666C6167 		.ascii	"flags\000"
 3389      7300
 3390              	.LASF99:
 3391 0cd3 6E5F6972 		.ascii	"n_irq\000"
 3391      7100
 3392              	.LASF162:
 3393 0cd9 5F5A4E4B 		.ascii	"_ZNK10chibios_rt15ThreadReference6addRefEv\000"
 3393      31306368 
 3393      6962696F 
 3393      735F7274 
 3393      31355468 
 3394              	.LASF208:
 3395 0d04 5F5A4E31 		.ascii	"_ZN10chibios_rt10BaseThread9addEventsEm\000"
 3395      30636869 
 3395      62696F73 
 3395      5F727431 
 3395      30426173 
 3396              	.LASF5:
 3397 0d2c 73686F72 		.ascii	"short int\000"
 3397      7420696E 
 3397      7400
 3398              	.LASF215:
 3399 0d36 77616974 		.ascii	"waitOneEventTimeout\000"
 3399      4F6E6545 
 3399      76656E74 
 3399      54696D65 
 3399      6F757400 
 3400              	.LASF9:
 3401 0d4a 6C6F6E67 		.ascii	"long int\000"
 3401      20696E74 
 3401      00
 3402              	.LASF224:
 3403 0d53 5F5A4E31 		.ascii	"_ZN10chibios_rt10BaseThread5yieldEv\000"
 3403      30636869 
 3403      62696F73 
 3403      5F727431 
 3403      30426173 
 3404              	.LASF88:
 3405 0d77 706F7274 		.ascii	"port_intctx\000"
 3405      5F696E74 
 3405      63747800 
ARM GAS  /tmp/ccDKXUnV.s 			page 69


 3406              	.LASF120:
 3407 0d83 5F5A4E31 		.ascii	"_ZN10chibios_rt6System4lockEv\000"
 3407      30636869 
 3407      62696F73 
 3407      5F727436 
 3407      53797374 
 3408              	.LASF78:
 3409 0da1 63685F73 		.ascii	"ch_system\000"
 3409      79737465 
 3409      6D00
 3410              	.LASF143:
 3411 0dab 67657454 		.ascii	"getTimeX\000"
 3411      696D6558 
 3411      00
 3412              	.LASF181:
 3413 0db4 5F5A4E31 		.ascii	"_ZN10chibios_rt10BaseThreadC4Ev\000"
 3413      30636869 
 3413      62696F73 
 3413      5F727431 
 3413      30426173 
 3414              	.LASF218:
 3415 0dd4 5F5A4E31 		.ascii	"_ZN10chibios_rt10BaseThread19waitAnyEventTimeoutEmm"
 3415      30636869 
 3415      62696F73 
 3415      5F727431 
 3415      30426173 
 3416 0e07 00       		.ascii	"\000"
 3417              	.LASF180:
 3418 0e08 42617365 		.ascii	"BaseThread\000"
 3418      54687265 
 3418      616400
 3419              	.LASF73:
 3420 0e13 6C617374 		.ascii	"lasttime\000"
 3420      74696D65 
 3420      00
 3421              	.LASF17:
 3422 0e1c 75696E74 		.ascii	"uint64_t\000"
 3422      36345F74 
 3422      00
 3423              	.LASF220:
 3424 0e25 5F5A4E31 		.ascii	"_ZN10chibios_rt10BaseThread20waitAllEventsTimeoutEm"
 3424      30636869 
 3424      62696F73 
 3424      5F727431 
 3424      30426173 
 3425 0e58 6D00     		.ascii	"m\000"
 3426              	.LASF79:
 3427 0e5a 726C6973 		.ascii	"rlist\000"
 3427      7400
 3428              	.LASF145:
 3429 0e60 69735379 		.ascii	"isSystemTimeWithin\000"
 3429      7374656D 
 3429      54696D65 
 3429      57697468 
 3429      696E00
 3430              	.LASF139:
 3431 0e73 5F5A4E31 		.ascii	"_ZN10chibios_rt6System12polledDelayXEm\000"
ARM GAS  /tmp/ccDKXUnV.s 			page 70


 3431      30636869 
 3431      62696F73 
 3431      5F727436 
 3431      53797374 
 3432              	.LASF95:
 3433 0e9a 6C617374 		.ascii	"last\000"
 3433      00
 3434              	.LASF7:
 3435 0e9f 5F5F7569 		.ascii	"__uint8_t\000"
 3435      6E74385F 
 3435      7400
 3436              	.LASF126:
 3437 0ea9 5F5A4E31 		.ascii	"_ZN10chibios_rt6System13unlockFromIsrEv\000"
 3437      30636869 
 3437      62696F73 
 3437      5F727436 
 3437      53797374 
 3438              	.LASF43:
 3439 0ed1 6E616D65 		.ascii	"name\000"
 3439      00
 3440              	.LASF236:
 3441 0ed6 73746172 		.ascii	"start\000"
 3441      7400
 3442              	.LASF200:
 3443 0edc 736C6565 		.ascii	"sleepUntilWindowed\000"
 3443      70556E74 
 3443      696C5769 
 3443      6E646F77 
 3443      656400
 3444              	.LASF65:
 3445 0eef 63757272 		.ascii	"current\000"
 3445      656E7400 
 3446              	.LASF186:
 3447 0ef7 73657450 		.ascii	"setPriority\000"
 3447      72696F72 
 3447      69747900 
 3448              	.LASF111:
 3449 0f03 696E6974 		.ascii	"init\000"
 3449      00
 3450              	.LASF23:
 3451 0f08 74726566 		.ascii	"trefs_t\000"
 3451      735F7400 
 3452              	.LASF11:
 3453 0f10 6C6F6E67 		.ascii	"long unsigned int\000"
 3453      20756E73 
 3453      69676E65 
 3453      6420696E 
 3453      7400
 3454              	.LASF91:
 3455 0f22 3136746D 		.ascii	"16tm_calibration_t\000"
 3455      5F63616C 
 3455      69627261 
 3455      74696F6E 
 3455      5F7400
 3456              	.LASF63:
 3457 0f35 72656164 		.ascii	"ready_list_t\000"
 3457      795F6C69 
ARM GAS  /tmp/ccDKXUnV.s 			page 71


 3457      73745F74 
 3457      00
 3458              	.LASF222:
 3459 0f42 5F5A4E31 		.ascii	"_ZN10chibios_rt10BaseThread14dispatchEventsEPKPFvlE"
 3459      30636869 
 3459      62696F73 
 3459      5F727431 
 3459      30426173 
 3460 0f75 6D00     		.ascii	"m\000"
 3461              	.LASF112:
 3462 0f77 64697361 		.ascii	"disable\000"
 3462      626C6500 
 3463              	.LASF39:
 3464 0f7f 71756575 		.ascii	"queue\000"
 3464      6500
 3465              	.LASF15:
 3466 0f85 696E7433 		.ascii	"int32_t\000"
 3466      325F7400 
 3467              	.LASF217:
 3468 0f8d 77616974 		.ascii	"waitAnyEventTimeout\000"
 3468      416E7945 
 3468      76656E74 
 3468      54696D65 
 3468      6F757400 
 3469              	.LASF36:
 3470 0fa1 77747365 		.ascii	"wtsemp\000"
 3470      6D7000
 3471              	.LASF189:
 3472 0fa8 5F5A4E31 		.ascii	"_ZN10chibios_rt10BaseThread12getPriorityXEv\000"
 3472      30636869 
 3472      62696F73 
 3472      5F727431 
 3472      30426173 
 3473              	.LASF156:
 3474 0fd4 5F5A4E4B 		.ascii	"_ZNK10chibios_rt15ThreadReference6isNullEv\000"
 3474      31306368 
 3474      6962696F 
 3474      735F7274 
 3474      31355468 
 3475              	.LASF108:
 3476 0fff 6D757465 		.ascii	"mutex_t\000"
 3476      785F7400 
 3477              	.LASF41:
 3478 1007 6E657765 		.ascii	"newer\000"
 3478      7200
 3479              	.LASF93:
 3480 100d 62657374 		.ascii	"best\000"
 3480      00
 3481              	.LASF4:
 3482 1012 756E7369 		.ascii	"unsigned char\000"
 3482      676E6564 
 3482      20636861 
 3482      7200
 3483              	.LASF10:
 3484 1020 5F5F7569 		.ascii	"__uint32_t\000"
 3484      6E743332 
 3484      5F7400
ARM GAS  /tmp/ccDKXUnV.s 			page 72


 3485              	.LASF48:
 3486 102b 77616974 		.ascii	"waiting\000"
 3486      696E6700 
 3487              	.LASF71:
 3488 1033 76697274 		.ascii	"virtual_timers_list_t\000"
 3488      75616C5F 
 3488      74696D65 
 3488      72735F6C 
 3488      6973745F 
 3489              	.LASF206:
 3490 1049 5F5A4E31 		.ascii	"_ZN10chibios_rt10BaseThread17getAndClearEventsEm\000"
 3490      30636869 
 3490      62696F73 
 3490      5F727431 
 3490      30426173 
 3491              	.LASF157:
 3492 107a 67657449 		.ascii	"getInner\000"
 3492      6E6E6572 
 3492      00
 3493              	.LASF158:
 3494 1083 5F5A4E31 		.ascii	"_ZN10chibios_rt15ThreadReference8getInnerEv\000"
 3494      30636869 
 3494      62696F73 
 3494      5F727431 
 3494      35546872 
 3495              	.LASF233:
 3496 10af 5F5A4E31 		.ascii	"_ZN10chibios_rt6System17getStatusAndLockXEv\000"
 3496      30636869 
 3496      62696F73 
 3496      5F727436 
 3496      53797374 
 3497              	.LASF230:
 3498 10db 63686962 		.ascii	"chibios_rt\000"
 3498      696F735F 
 3498      727400
 3499              	.LASF152:
 3500 10e6 74687265 		.ascii	"thread_ref\000"
 3500      61645F72 
 3500      656600
 3501              	.LASF196:
 3502 10f1 736C6565 		.ascii	"sleep\000"
 3502      7000
 3503              	.LASF45:
 3504 10f7 73746174 		.ascii	"state\000"
 3504      6500
 3505              	.LASF213:
 3506 10fd 77616974 		.ascii	"waitAllEvents\000"
 3506      416C6C45 
 3506      76656E74 
 3506      7300
 3507              	.LASF168:
 3508 110b 5F5A4E4B 		.ascii	"_ZNK10chibios_rt15ThreadReference11sendMessageEl\000"
 3508      31306368 
 3508      6962696F 
 3508      735F7274 
 3508      31355468 
 3509              	.LASF221:
ARM GAS  /tmp/ccDKXUnV.s 			page 73


 3510 113c 64697370 		.ascii	"dispatchEvents\000"
 3510      61746368 
 3510      4576656E 
 3510      747300
 3511              	.LASF54:
 3512 114b 73746174 		.ascii	"stats\000"
 3512      7300
 3513              	.LASF77:
 3514 1151 63685F73 		.ascii	"ch_system_t\000"
 3514      79737465 
 3514      6D5F7400 
 3515              	.LASF121:
 3516 115d 756E6C6F 		.ascii	"unlock\000"
 3516      636B00
 3517              	.LASF34:
 3518 1164 77747472 		.ascii	"wttrp\000"
 3518      7000
 3519              	.LASF212:
 3520 116a 5F5A4E31 		.ascii	"_ZN10chibios_rt10BaseThread12waitAnyEventEm\000"
 3520      30636869 
 3520      62696F73 
 3520      5F727431 
 3520      30426173 
 3521              	.LASF118:
 3522 1196 5F5A4E31 		.ascii	"_ZN10chibios_rt6System6enableEv\000"
 3522      30636869 
 3522      62696F73 
 3522      5F727436 
 3522      53797374 
 3523              	.LASF132:
 3524 11b6 72657374 		.ascii	"restoreStatusX\000"
 3524      6F726553 
 3524      74617475 
 3524      735800
 3525              	.LASF235:
 3526 11c5 5F5A4E31 		.ascii	"_ZN10chibios_rt10BaseThread4mainEv\000"
 3526      30636869 
 3526      62696F73 
 3526      5F727431 
 3526      30426173 
 3527              	.LASF3:
 3528 11e8 7369676E 		.ascii	"signed char\000"
 3528      65642063 
 3528      68617200 
 3529              	.LASF69:
 3530 11f4 64656C74 		.ascii	"delta\000"
 3530      6100
 3531              	.LASF6:
 3532 11fa 73686F72 		.ascii	"short unsigned int\000"
 3532      7420756E 
 3532      7369676E 
 3532      65642069 
 3532      6E7400
 3533              	.LASF209:
 3534 120d 77616974 		.ascii	"waitOneEvent\000"
 3534      4F6E6545 
 3534      76656E74 
ARM GAS  /tmp/ccDKXUnV.s 			page 74


 3534      00
 3535              	.LASF187:
 3536 121a 5F5A4E31 		.ascii	"_ZN10chibios_rt10BaseThread11setPriorityEm\000"
 3536      30636869 
 3536      62696F73 
 3536      5F727431 
 3536      30426173 
 3537              	.LASF86:
 3538 1245 73746B61 		.ascii	"stkalign_t\000"
 3538      6C69676E 
 3538      5F7400
 3539              	.LASF234:
 3540 1250 6D61696E 		.ascii	"main\000"
 3540      00
 3541              	.LASF153:
 3542 1255 5F5A4E31 		.ascii	"_ZN10chibios_rt15ThreadReferenceC4Ev\000"
 3542      30636869 
 3542      62696F73 
 3542      5F727431 
 3542      35546872 
 3543              	.LASF216:
 3544 127a 5F5A4E31 		.ascii	"_ZN10chibios_rt10BaseThread19waitOneEventTimeoutEmm"
 3544      30636869 
 3544      62696F73 
 3544      5F727431 
 3544      30426173 
 3545 12ad 00       		.ascii	"\000"
 3546              	.LASF243:
 3547 12ae 63685379 		.ascii	"chSysGetIdleThreadX\000"
 3547      73476574 
 3547      49646C65 
 3547      54687265 
 3547      61645800 
 3548              	.LASF174:
 3549 12c2 5F5A4E31 		.ascii	"_ZN10chibios_rt15ThreadReference14releaseMessageEl\000"
 3549      30636869 
 3549      62696F73 
 3549      5F727431 
 3549      35546872 
 3550              	.LASF238:
 3551 12f5 5F746864 		.ascii	"_thd_start\000"
 3551      5F737461 
 3551      727400
 3552              	.LASF26:
 3553 1300 6576656E 		.ascii	"eventid_t\000"
 3553      7469645F 
 3553      7400
 3554              	.LASF16:
 3555 130a 75696E74 		.ascii	"uint32_t\000"
 3555      33325F74 
 3555      00
 3556              	.LASF76:
 3557 1313 70616E69 		.ascii	"panic_msg\000"
 3557      635F6D73 
 3557      6700
 3558              	.LASF37:
 3559 131d 77746D74 		.ascii	"wtmtxp\000"
ARM GAS  /tmp/ccDKXUnV.s 			page 75


 3559      787000
 3560              	.LASF42:
 3561 1324 6F6C6465 		.ascii	"older\000"
 3561      7200
 3562              	.LASF225:
 3563 132a 5F5A4E31 		.ascii	"_ZN10chibios_rt10BaseThread16unlockAllMutexesEv\000"
 3563      30636869 
 3563      62696F73 
 3563      5F727431 
 3563      30426173 
 3564              	.LASF32:
 3565 135a 65786974 		.ascii	"exitcode\000"
 3565      636F6465 
 3565      00
 3566              	.LASF53:
 3567 1363 6D706F6F 		.ascii	"mpool\000"
 3567      6C00
 3568              		.ident	"GCC: (GNU Arm Embedded Toolchain 10-2020-q4-major) 10.2.1 20201103 (release)"
ARM GAS  /tmp/ccDKXUnV.s 			page 76


DEFINED SYMBOLS
                            *ABS*:0000000000000000 ch.cpp
     /tmp/ccDKXUnV.s:18     .text._ZL19chSysGetIdleThreadXv:0000000000000000 $t
     /tmp/ccDKXUnV.s:26     .text._ZL19chSysGetIdleThreadXv:0000000000000000 _ZL19chSysGetIdleThreadXv
     /tmp/ccDKXUnV.s:44     .text._ZL19chSysGetIdleThreadXv:0000000000000008 $d
.ARM.exidx.text._ZL19chSysGetIdleThreadXv:0000000000000000 $d
     /tmp/ccDKXUnV.s:51     .text._ZN10chibios_rt15ThreadReferenceC2EP9ch_thread:0000000000000000 $t
     /tmp/ccDKXUnV.s:59     .text._ZN10chibios_rt15ThreadReferenceC2EP9ch_thread:0000000000000000 _ZN10chibios_rt15ThreadReferenceC2EP9ch_thread
.ARM.exidx.text._ZN10chibios_rt15ThreadReferenceC2EP9ch_thread:0000000000000000 $d
     /tmp/ccDKXUnV.s:59     .text._ZN10chibios_rt15ThreadReferenceC2EP9ch_thread:0000000000000000 _ZN10chibios_rt15ThreadReferenceC1EP9ch_thread
     /tmp/ccDKXUnV.s:93     .text._ZN10chibios_rt6System14getIdleThreadXEv:0000000000000000 $t
     /tmp/ccDKXUnV.s:101    .text._ZN10chibios_rt6System14getIdleThreadXEv:0000000000000000 _ZN10chibios_rt6System14getIdleThreadXEv
.ARM.exidx.text._ZN10chibios_rt6System14getIdleThreadXEv:0000000000000000 $d
     /tmp/ccDKXUnV.s:134    .text._ZN10chibios_rt10_thd_startEPv:0000000000000000 $t
     /tmp/ccDKXUnV.s:142    .text._ZN10chibios_rt10_thd_startEPv:0000000000000000 _ZN10chibios_rt10_thd_startEPv
.ARM.exidx.text._ZN10chibios_rt10_thd_startEPv:0000000000000000 $d
                           .group:0000000000000000 _ZN10chibios_rt15ThreadReferenceC5EP9ch_thread

UNDEFINED SYMBOLS
ch
__aeabi_unwind_cpp_pr0
