ARM GAS  /tmp/ccQ9Jx7L.s 			page 1


   1              		.cpu cortex-m7
   2              		.eabi_attribute 27, 1
   3              		.eabi_attribute 28, 1
   4              		.eabi_attribute 20, 1
   5              		.eabi_attribute 21, 1
   6              		.eabi_attribute 23, 3
   7              		.eabi_attribute 24, 1
   8              		.eabi_attribute 25, 1
   9              		.eabi_attribute 26, 1
  10              		.eabi_attribute 30, 4
  11              		.eabi_attribute 34, 1
  12              		.eabi_attribute 18, 4
  13              		.file	"chcond.c"
  14              		.text
  15              	.Ltext0:
  16              		.cfi_sections	.debug_frame
  17              		.section	.text.queue_prio_insert,"ax",%progbits
  18              		.align	1
  19              		.arch armv7e-m
  20              		.syntax unified
  21              		.thumb
  22              		.thumb_func
  23              		.fpu fpv4-sp-d16
  24              		.type	queue_prio_insert, %function
  25              	queue_prio_insert:
  26              	.LVL0:
  27              	.LFB183:
  28              		.file 1 "../../modules/ChibiOS/os/rt/include/chschd.h"
  29              		.loc 1 586 74 view -0
  30              		.cfi_startproc
  31              		@ args = 0, pretend = 0, frame = 0
  32              		@ frame_needed = 0, uses_anonymous_args = 0
  33              		.loc 1 588 3 view .LVU1
  34              		.loc 1 588 13 is_stmt 0 view .LVU2
  35 0000 0B46     		mov	r3, r1
  36              		.loc 1 586 74 view .LVU3
  37 0002 10B5     		push	{r4, lr}
  38              		.cfi_def_cfa_offset 8
  39              		.cfi_offset 4, -8
  40              		.cfi_offset 14, -4
  41              	.LVL1:
  42              	.L3:
  43              		.loc 1 589 3 is_stmt 1 discriminator 2 view .LVU4
  44              		.loc 1 590 5 discriminator 2 view .LVU5
  45              		.loc 1 590 8 is_stmt 0 discriminator 2 view .LVU6
  46 0004 1B68     		ldr	r3, [r3]
  47              	.LVL2:
  48              		.loc 1 591 11 is_stmt 1 discriminator 2 view .LVU7
  49              		.loc 1 591 3 is_stmt 0 discriminator 2 view .LVU8
  50 0006 9942     		cmp	r1, r3
  51 0008 03D0     		beq	.L2
  52              		.loc 1 591 36 discriminator 1 view .LVU9
  53 000a 9C68     		ldr	r4, [r3, #8]
  54 000c 8268     		ldr	r2, [r0, #8]
  55 000e 9442     		cmp	r4, r2
  56 0010 F8D2     		bcs	.L3
  57              	.L2:
ARM GAS  /tmp/ccQ9Jx7L.s 			page 2


  58              		.loc 1 592 3 is_stmt 1 view .LVU10
  59              		.loc 1 593 41 is_stmt 0 view .LVU11
  60 0012 5A68     		ldr	r2, [r3, #4]
  61              		.loc 1 592 30 view .LVU12
  62 0014 0360     		str	r3, [r0]
  63              		.loc 1 593 3 is_stmt 1 view .LVU13
  64              		.loc 1 593 30 is_stmt 0 view .LVU14
  65 0016 4260     		str	r2, [r0, #4]
  66              		.loc 1 594 3 is_stmt 1 view .LVU15
  67              		.loc 1 594 30 is_stmt 0 view .LVU16
  68 0018 1060     		str	r0, [r2]
  69              		.loc 1 595 3 is_stmt 1 view .LVU17
  70              		.loc 1 595 30 is_stmt 0 view .LVU18
  71 001a 5860     		str	r0, [r3, #4]
  72              		.loc 1 596 1 view .LVU19
  73 001c 10BD     		pop	{r4, pc}
  74              		.cfi_endproc
  75              	.LFE183:
  76              		.size	queue_prio_insert, .-queue_prio_insert
  77              		.section	.text.chCondObjectInit,"ax",%progbits
  78              		.align	1
  79              		.global	chCondObjectInit
  80              		.syntax unified
  81              		.thumb
  82              		.thumb_func
  83              		.fpu fpv4-sp-d16
  84              		.type	chCondObjectInit, %function
  85              	chCondObjectInit:
  86              	.LVL3:
  87              	.LFB301:
  88              		.file 2 "../../modules/ChibiOS/os/rt/src/chcond.c"
  89              		.loc 2 75 49 is_stmt 1 view -0
  90              		.cfi_startproc
  91              		@ args = 0, pretend = 0, frame = 0
  92              		@ frame_needed = 0, uses_anonymous_args = 0
  93              		@ link register save eliminated.
  94              		.loc 2 77 3 view .LVU21
  95              		.loc 2 77 3 view .LVU22
  96              		.loc 2 77 3 view .LVU23
  97              		.loc 2 79 3 view .LVU24
  98              	.LBB39:
  99              	.LBI39:
 100              		.loc 1 537 20 view .LVU25
 101              	.LBB40:
 102              		.loc 1 539 3 view .LVU26
 103              		.loc 1 540 13 is_stmt 0 view .LVU27
 104 0000 C0E90000 		strd	r0, r0, [r0]
 105              	.LVL4:
 106              		.loc 1 540 13 view .LVU28
 107              	.LBE40:
 108              	.LBE39:
 109              		.loc 2 80 1 view .LVU29
 110 0004 7047     		bx	lr
 111              		.cfi_endproc
 112              	.LFE301:
 113              		.size	chCondObjectInit, .-chCondObjectInit
 114              		.section	.text.chCondSignal,"ax",%progbits
ARM GAS  /tmp/ccQ9Jx7L.s 			page 3


 115              		.align	1
 116              		.global	chCondSignal
 117              		.syntax unified
 118              		.thumb
 119              		.thumb_func
 120              		.fpu fpv4-sp-d16
 121              		.type	chCondSignal, %function
 122              	chCondSignal:
 123              	.LVL5:
 124              	.LFB302:
 125              		.loc 2 89 45 is_stmt 1 view -0
 126              		.cfi_startproc
 127              		@ args = 0, pretend = 0, frame = 0
 128              		@ frame_needed = 0, uses_anonymous_args = 0
 129              		.loc 2 91 3 view .LVU31
 130              		.loc 2 91 3 view .LVU32
 131              		.loc 2 91 3 view .LVU33
 132              		.loc 2 93 3 view .LVU34
 133              	.LBB55:
 134              	.LBI55:
 135              		.file 3 "../../modules/ChibiOS/os/rt/include/chsys.h"
 136              		.loc 3 353 20 view .LVU35
 137              	.LBB56:
 138              		.loc 3 355 3 view .LVU36
 139              	.LBB57:
 140              	.LBI57:
 141              		.file 4 "../../modules/ChibiOS/os/common/ports/ARMCMx/chcore_v7m.h"
 142              		.loc 4 602 20 view .LVU37
 143              	.LBE57:
 144              	.LBE56:
 145              	.LBE55:
 146              		.loc 4 610 3 view .LVU38
 147              	.LBB70:
 148              	.LBB67:
 149              	.LBB64:
 150              	.LBB58:
 151              	.LBI58:
 152              		.file 5 "../../modules/ChibiOS/os/common/ext/ARM/CMSIS/Core/Include/cmsis_gcc.h"
 153              		.loc 5 491 27 view .LVU39
 154              	.LBB59:
 155              		.loc 5 493 3 view .LVU40
 156              	.LBE59:
 157              	.LBE58:
 158              	.LBE64:
 159              	.LBE67:
 160              	.LBE70:
 161              		.loc 2 89 45 is_stmt 0 view .LVU41
 162 0000 10B5     		push	{r4, lr}
 163              		.cfi_def_cfa_offset 8
 164              		.cfi_offset 4, -8
 165              		.cfi_offset 14, -4
 166              	.LBB71:
 167              	.LBB68:
 168              	.LBB65:
 169              	.LBB62:
 170              	.LBB60:
 171              		.loc 5 493 3 view .LVU42
ARM GAS  /tmp/ccQ9Jx7L.s 			page 4


 172 0002 2023     		movs	r3, #32
 173              	.LBE60:
 174              	.LBE62:
 175              	.LBE65:
 176              	.LBE68:
 177              	.LBE71:
 178              		.loc 2 89 45 view .LVU43
 179 0004 0446     		mov	r4, r0
 180              	.LBB72:
 181              	.LBB69:
 182              	.LBB66:
 183              	.LBB63:
 184              	.LBB61:
 185              		.loc 5 493 3 view .LVU44
 186              		.syntax unified
 187              	@ 493 "../../modules/ChibiOS/os/common/ext/ARM/CMSIS/Core/Include/cmsis_gcc.h" 1
 188 0006 83F31188 		MSR basepri, r3
 189              	@ 0 "" 2
 190              	.LVL6:
 191              		.loc 5 493 3 view .LVU45
 192              		.thumb
 193              		.syntax unified
 194              	.LBE61:
 195              	.LBE63:
 196              	.LBE66:
 197              		.loc 3 356 3 is_stmt 1 view .LVU46
 198 000a FFF7FEFF 		bl	_stats_start_measure_crit_thd
 199              	.LVL7:
 200              		.loc 3 357 20 view .LVU47
 201              	.LBE69:
 202              	.LBE72:
 203              		.loc 2 94 3 view .LVU48
 204              	.LBB73:
 205              	.LBI73:
 206              		.loc 1 564 20 view .LVU49
 207              	.LBB74:
 208              		.loc 1 566 3 view .LVU50
 209              		.loc 1 566 20 is_stmt 0 view .LVU51
 210 000e 2068     		ldr	r0, [r4]
 211              	.LVL8:
 212              		.loc 1 566 20 view .LVU52
 213              	.LBE74:
 214              	.LBE73:
 215              		.loc 2 94 6 view .LVU53
 216 0010 8442     		cmp	r4, r0
 217 0012 05D0     		beq	.L7
 218              		.loc 2 95 5 is_stmt 1 view .LVU54
 219              	.LVL9:
 220              	.LBB75:
 221              	.LBI75:
 222              		.loc 1 606 25 view .LVU55
 223              	.LBB76:
 224              		.loc 1 607 3 view .LVU56
 225              		.loc 1 609 3 view .LVU57
 226              		.loc 1 609 36 is_stmt 0 view .LVU58
 227 0014 0368     		ldr	r3, [r0]
 228              	.LBE76:
ARM GAS  /tmp/ccQ9Jx7L.s 			page 5


 229              	.LBE75:
 230              		.loc 2 95 5 view .LVU59
 231 0016 0021     		movs	r1, #0
 232              	.LBB78:
 233              	.LBB77:
 234              		.loc 1 609 25 view .LVU60
 235 0018 2360     		str	r3, [r4]
 236              		.loc 1 610 3 is_stmt 1 view .LVU61
 237              		.loc 1 610 25 is_stmt 0 view .LVU62
 238 001a 5C60     		str	r4, [r3, #4]
 239              		.loc 1 612 3 is_stmt 1 view .LVU63
 240              	.LVL10:
 241              		.loc 1 612 3 is_stmt 0 view .LVU64
 242              	.LBE77:
 243              	.LBE78:
 244              		.loc 2 95 5 view .LVU65
 245 001c FFF7FEFF 		bl	chSchWakeupS
 246              	.LVL11:
 247              	.L7:
 248              		.loc 2 97 3 is_stmt 1 view .LVU66
 249              	.LBB79:
 250              	.LBI79:
 251              		.loc 3 365 20 view .LVU67
 252              	.LBB80:
 253              		.loc 3 367 22 view .LVU68
 254              		.loc 3 368 3 view .LVU69
 255 0020 FFF7FEFF 		bl	_stats_stop_measure_crit_thd
 256              	.LVL12:
 257              		.loc 3 374 3 view .LVU70
 258              		.loc 3 374 3 view .LVU71
 259              		.loc 3 374 3 view .LVU72
 260              		.loc 3 378 3 view .LVU73
 261              	.LBB81:
 262              	.LBI81:
 263              		.loc 4 626 20 view .LVU74
 264              	.LBE81:
 265              	.LBE80:
 266              	.LBE79:
 267              		.loc 4 629 3 view .LVU75
 268              	.LBB86:
 269              	.LBB85:
 270              	.LBB84:
 271              	.LBB82:
 272              	.LBI82:
 273              		.loc 5 491 27 view .LVU76
 274              	.LBB83:
 275              		.loc 5 493 3 view .LVU77
 276 0024 0023     		movs	r3, #0
 277              		.syntax unified
 278              	@ 493 "../../modules/ChibiOS/os/common/ext/ARM/CMSIS/Core/Include/cmsis_gcc.h" 1
 279 0026 83F31188 		MSR basepri, r3
 280              	@ 0 "" 2
 281              	.LVL13:
 282              		.loc 5 493 3 is_stmt 0 view .LVU78
 283              		.thumb
 284              		.syntax unified
 285              	.LBE83:
ARM GAS  /tmp/ccQ9Jx7L.s 			page 6


 286              	.LBE82:
 287              	.LBE84:
 288              	.LBE85:
 289              	.LBE86:
 290              		.loc 2 98 1 view .LVU79
 291 002a 10BD     		pop	{r4, pc}
 292              		.loc 2 98 1 view .LVU80
 293              		.cfi_endproc
 294              	.LFE302:
 295              		.size	chCondSignal, .-chCondSignal
 296              		.section	.text.chCondSignalI,"ax",%progbits
 297              		.align	1
 298              		.global	chCondSignalI
 299              		.syntax unified
 300              		.thumb
 301              		.thumb_func
 302              		.fpu fpv4-sp-d16
 303              		.type	chCondSignalI, %function
 304              	chCondSignalI:
 305              	.LVL14:
 306              	.LFB303:
 307              		.loc 2 111 46 is_stmt 1 view -0
 308              		.cfi_startproc
 309              		@ args = 0, pretend = 0, frame = 0
 310              		@ frame_needed = 0, uses_anonymous_args = 0
 311              		@ link register save eliminated.
 312              		.loc 2 113 21 view .LVU82
 313              		.loc 2 114 3 view .LVU83
 314              		.loc 2 114 3 view .LVU84
 315              		.loc 2 114 3 view .LVU85
 316              		.loc 2 116 3 view .LVU86
 317              	.LBB87:
 318              	.LBI87:
 319              		.loc 1 564 20 view .LVU87
 320              	.LBB88:
 321              		.loc 1 566 3 view .LVU88
 322              		.loc 1 566 20 is_stmt 0 view .LVU89
 323 0000 0368     		ldr	r3, [r0]
 324              	.LVL15:
 325              		.loc 1 566 20 view .LVU90
 326              	.LBE88:
 327              	.LBE87:
 328              		.loc 2 116 6 view .LVU91
 329 0002 9842     		cmp	r0, r3
 330 0004 07D0     		beq	.L8
 331              	.LBB89:
 332              		.loc 2 117 5 is_stmt 1 view .LVU92
 333              	.LVL16:
 334              	.LBB90:
 335              	.LBI90:
 336              		.loc 1 606 25 view .LVU93
 337              	.LBB91:
 338              		.loc 1 607 3 view .LVU94
 339              		.loc 1 609 3 view .LVU95
 340              		.loc 1 609 36 is_stmt 0 view .LVU96
 341 0006 1A68     		ldr	r2, [r3]
 342              		.loc 1 609 25 view .LVU97
ARM GAS  /tmp/ccQ9Jx7L.s 			page 7


 343 0008 0260     		str	r2, [r0]
 344              		.loc 1 610 3 is_stmt 1 view .LVU98
 345              		.loc 1 610 25 is_stmt 0 view .LVU99
 346 000a 5060     		str	r0, [r2, #4]
 347              		.loc 1 612 3 is_stmt 1 view .LVU100
 348              	.LVL17:
 349              		.loc 1 612 3 is_stmt 0 view .LVU101
 350              	.LBE91:
 351              	.LBE90:
 352              		.loc 2 118 5 is_stmt 1 view .LVU102
 353              		.loc 2 118 18 is_stmt 0 view .LVU103
 354 000c 0022     		movs	r2, #0
 355              		.loc 2 119 12 view .LVU104
 356 000e 1846     		mov	r0, r3
 357              	.LVL18:
 358              		.loc 2 118 18 view .LVU105
 359 0010 5A62     		str	r2, [r3, #36]
 360              		.loc 2 119 5 is_stmt 1 view .LVU106
 361              		.loc 2 119 12 is_stmt 0 view .LVU107
 362 0012 FFF7FEBF 		b	chSchReadyI
 363              	.LVL19:
 364              	.L8:
 365              		.loc 2 119 12 view .LVU108
 366              	.LBE89:
 367              		.loc 2 121 1 view .LVU109
 368 0016 7047     		bx	lr
 369              		.cfi_endproc
 370              	.LFE303:
 371              		.size	chCondSignalI, .-chCondSignalI
 372              		.section	.text.chCondBroadcastI,"ax",%progbits
 373              		.align	1
 374              		.global	chCondBroadcastI
 375              		.syntax unified
 376              		.thumb
 377              		.thumb_func
 378              		.fpu fpv4-sp-d16
 379              		.type	chCondBroadcastI, %function
 380              	chCondBroadcastI:
 381              	.LVL20:
 382              	.LFB305:
 383              		.loc 2 149 49 is_stmt 1 view -0
 384              		.cfi_startproc
 385              		@ args = 0, pretend = 0, frame = 0
 386              		@ frame_needed = 0, uses_anonymous_args = 0
 387              		.loc 2 151 21 view .LVU111
 388              		.loc 2 152 3 view .LVU112
 389              		.loc 2 152 3 view .LVU113
 390              		.loc 2 152 3 view .LVU114
 391              		.loc 2 157 3 view .LVU115
 392              		.loc 2 149 49 is_stmt 0 view .LVU116
 393 0000 38B5     		push	{r3, r4, r5, lr}
 394              		.cfi_def_cfa_offset 16
 395              		.cfi_offset 3, -16
 396              		.cfi_offset 4, -12
 397              		.cfi_offset 5, -8
 398              		.cfi_offset 14, -4
 399              		.loc 2 149 49 view .LVU117
ARM GAS  /tmp/ccQ9Jx7L.s 			page 8


 400 0002 0446     		mov	r4, r0
 401              		.loc 2 158 58 view .LVU118
 402 0004 6FF00105 		mvn	r5, #1
 403              	.LVL21:
 404              	.L11:
 405              		.loc 2 157 9 is_stmt 1 view .LVU119
 406              	.LBB92:
 407              	.LBI92:
 408              		.loc 1 564 20 view .LVU120
 409              	.LBB93:
 410              		.loc 1 566 3 view .LVU121
 411              		.loc 1 566 20 is_stmt 0 view .LVU122
 412 0008 2068     		ldr	r0, [r4]
 413              	.LVL22:
 414              		.loc 1 566 20 view .LVU123
 415              	.LBE93:
 416              	.LBE92:
 417              		.loc 2 157 9 view .LVU124
 418 000a 8442     		cmp	r4, r0
 419 000c 00D1     		bne	.L12
 420              		.loc 2 160 1 view .LVU125
 421 000e 38BD     		pop	{r3, r4, r5, pc}
 422              	.LVL23:
 423              	.L12:
 424              		.loc 2 158 5 is_stmt 1 view .LVU126
 425              	.LBB94:
 426              	.LBI94:
 427              		.loc 1 606 25 view .LVU127
 428              	.LBB95:
 429              		.loc 1 607 3 view .LVU128
 430              		.loc 1 609 3 view .LVU129
 431              		.loc 1 609 36 is_stmt 0 view .LVU130
 432 0010 0368     		ldr	r3, [r0]
 433              		.loc 1 609 25 view .LVU131
 434 0012 2360     		str	r3, [r4]
 435              		.loc 1 610 3 is_stmt 1 view .LVU132
 436              		.loc 1 610 25 is_stmt 0 view .LVU133
 437 0014 5C60     		str	r4, [r3, #4]
 438              		.loc 1 612 3 is_stmt 1 view .LVU134
 439              	.LVL24:
 440              		.loc 1 612 3 is_stmt 0 view .LVU135
 441              	.LBE95:
 442              	.LBE94:
 443              		.loc 2 158 5 view .LVU136
 444 0016 FFF7FEFF 		bl	chSchReadyI
 445              	.LVL25:
 446              		.loc 2 158 58 view .LVU137
 447 001a 4562     		str	r5, [r0, #36]
 448 001c F4E7     		b	.L11
 449              		.cfi_endproc
 450              	.LFE305:
 451              		.size	chCondBroadcastI, .-chCondBroadcastI
 452              		.section	.text.chCondBroadcast,"ax",%progbits
 453              		.align	1
 454              		.global	chCondBroadcast
 455              		.syntax unified
 456              		.thumb
ARM GAS  /tmp/ccQ9Jx7L.s 			page 9


 457              		.thumb_func
 458              		.fpu fpv4-sp-d16
 459              		.type	chCondBroadcast, %function
 460              	chCondBroadcast:
 461              	.LVL26:
 462              	.LFB304:
 463              		.loc 2 130 48 is_stmt 1 view -0
 464              		.cfi_startproc
 465              		@ args = 0, pretend = 0, frame = 8
 466              		@ frame_needed = 0, uses_anonymous_args = 0
 467              		.loc 2 132 3 view .LVU139
 468              	.LBB106:
 469              	.LBI106:
 470              		.loc 3 353 20 view .LVU140
 471              	.LBB107:
 472              		.loc 3 355 3 view .LVU141
 473              	.LBB108:
 474              	.LBI108:
 475              		.loc 4 602 20 view .LVU142
 476              	.LBE108:
 477              	.LBE107:
 478              	.LBE106:
 479              		.loc 4 610 3 view .LVU143
 480              	.LBB121:
 481              	.LBB118:
 482              	.LBB115:
 483              	.LBB109:
 484              	.LBI109:
 485              		.loc 5 491 27 view .LVU144
 486              	.LBB110:
 487              		.loc 5 493 3 view .LVU145
 488              	.LBE110:
 489              	.LBE109:
 490              	.LBE115:
 491              	.LBE118:
 492              	.LBE121:
 493              		.loc 2 130 48 is_stmt 0 view .LVU146
 494 0000 07B5     		push	{r0, r1, r2, lr}
 495              		.cfi_def_cfa_offset 16
 496              		.cfi_offset 14, -4
 497              	.LBB122:
 498              	.LBB119:
 499              	.LBB116:
 500              	.LBB113:
 501              	.LBB111:
 502              		.loc 5 493 3 view .LVU147
 503 0002 2023     		movs	r3, #32
 504              	.LBE111:
 505              	.LBE113:
 506              	.LBE116:
 507              	.LBE119:
 508              	.LBE122:
 509              		.loc 2 130 48 view .LVU148
 510 0004 0190     		str	r0, [sp, #4]
 511              	.LBB123:
 512              	.LBB120:
 513              	.LBB117:
ARM GAS  /tmp/ccQ9Jx7L.s 			page 10


 514              	.LBB114:
 515              	.LBB112:
 516              		.loc 5 493 3 view .LVU149
 517              		.syntax unified
 518              	@ 493 "../../modules/ChibiOS/os/common/ext/ARM/CMSIS/Core/Include/cmsis_gcc.h" 1
 519 0006 83F31188 		MSR basepri, r3
 520              	@ 0 "" 2
 521              	.LVL27:
 522              		.loc 5 493 3 view .LVU150
 523              		.thumb
 524              		.syntax unified
 525              	.LBE112:
 526              	.LBE114:
 527              	.LBE117:
 528              		.loc 3 356 3 is_stmt 1 view .LVU151
 529 000a FFF7FEFF 		bl	_stats_start_measure_crit_thd
 530              	.LVL28:
 531              		.loc 3 357 20 view .LVU152
 532              	.LBE120:
 533              	.LBE123:
 534              		.loc 2 133 3 view .LVU153
 535 000e 0198     		ldr	r0, [sp, #4]
 536 0010 FFF7FEFF 		bl	chCondBroadcastI
 537              	.LVL29:
 538              		.loc 2 134 3 view .LVU154
 539 0014 FFF7FEFF 		bl	chSchRescheduleS
 540              	.LVL30:
 541              		.loc 2 135 3 view .LVU155
 542              	.LBB124:
 543              	.LBI124:
 544              		.loc 3 365 20 view .LVU156
 545              	.LBB125:
 546              		.loc 3 367 22 view .LVU157
 547              		.loc 3 368 3 view .LVU158
 548 0018 FFF7FEFF 		bl	_stats_stop_measure_crit_thd
 549              	.LVL31:
 550              		.loc 3 374 3 view .LVU159
 551              		.loc 3 374 3 view .LVU160
 552              		.loc 3 374 3 view .LVU161
 553              		.loc 3 378 3 view .LVU162
 554              	.LBB126:
 555              	.LBI126:
 556              		.loc 4 626 20 view .LVU163
 557              	.LBE126:
 558              	.LBE125:
 559              	.LBE124:
 560              		.loc 4 629 3 view .LVU164
 561              	.LBB131:
 562              	.LBB130:
 563              	.LBB129:
 564              	.LBB127:
 565              	.LBI127:
 566              		.loc 5 491 27 view .LVU165
 567              	.LBB128:
 568              		.loc 5 493 3 view .LVU166
 569 001c 0023     		movs	r3, #0
 570              		.syntax unified
ARM GAS  /tmp/ccQ9Jx7L.s 			page 11


 571              	@ 493 "../../modules/ChibiOS/os/common/ext/ARM/CMSIS/Core/Include/cmsis_gcc.h" 1
 572 001e 83F31188 		MSR basepri, r3
 573              	@ 0 "" 2
 574              	.LVL32:
 575              		.loc 5 493 3 is_stmt 0 view .LVU167
 576              		.thumb
 577              		.syntax unified
 578              	.LBE128:
 579              	.LBE127:
 580              	.LBE129:
 581              	.LBE130:
 582              	.LBE131:
 583              		.loc 2 136 1 view .LVU168
 584 0022 03B0     		add	sp, sp, #12
 585              		.cfi_def_cfa_offset 4
 586              		@ sp needed
 587 0024 5DF804FB 		ldr	pc, [sp], #4
 588              		.loc 2 136 1 view .LVU169
 589              		.cfi_endproc
 590              	.LFE304:
 591              		.size	chCondBroadcast, .-chCondBroadcast
 592              		.section	.text.chCondWaitS,"ax",%progbits
 593              		.align	1
 594              		.global	chCondWaitS
 595              		.syntax unified
 596              		.thumb
 597              		.thumb_func
 598              		.fpu fpv4-sp-d16
 599              		.type	chCondWaitS, %function
 600              	chCondWaitS:
 601              	.LVL33:
 602              	.LFB307:
 603              		.loc 2 205 45 is_stmt 1 view -0
 604              		.cfi_startproc
 605              		@ args = 0, pretend = 0, frame = 0
 606              		@ frame_needed = 0, uses_anonymous_args = 0
 607              		.loc 2 206 3 view .LVU171
 608              		.loc 2 206 13 is_stmt 0 view .LVU172
 609 0000 0A4B     		ldr	r3, .L15
 610              		.loc 2 205 45 view .LVU173
 611 0002 70B5     		push	{r4, r5, r6, lr}
 612              		.cfi_def_cfa_offset 16
 613              		.cfi_offset 4, -16
 614              		.cfi_offset 5, -12
 615              		.cfi_offset 6, -8
 616              		.cfi_offset 14, -4
 617              		.loc 2 206 13 view .LVU174
 618 0004 9C69     		ldr	r4, [r3, #24]
 619              	.LVL34:
 620              		.loc 2 207 3 is_stmt 1 view .LVU175
 621              	.LBB132:
 622              	.LBI132:
 623              		.file 6 "../../modules/ChibiOS/os/rt/include/chmtx.h"
 624              		.loc 6 159 24 view .LVU176
 625              	.LBB133:
 626              		.loc 6 161 3 view .LVU177
 627              	.LBE133:
ARM GAS  /tmp/ccQ9Jx7L.s 			page 12


 628              	.LBE132:
 629              		.file 7 "../../modules/ChibiOS/os/rt/include/chthreads.h"
 630              		.loc 7 274 3 view .LVU178
 631              		.loc 2 205 45 is_stmt 0 view .LVU179
 632 0006 0546     		mov	r5, r0
 633              	.LBB135:
 634              	.LBB134:
 635              		.loc 6 161 25 view .LVU180
 636 0008 A66B     		ldr	r6, [r4, #56]
 637              	.LVL35:
 638              		.loc 6 161 25 view .LVU181
 639              	.LBE134:
 640              	.LBE135:
 641              		.loc 2 208 3 is_stmt 1 view .LVU182
 642              		.loc 2 210 21 view .LVU183
 643              		.loc 2 211 3 view .LVU184
 644              		.loc 2 211 3 view .LVU185
 645              		.loc 2 211 3 view .LVU186
 646              		.loc 2 212 3 view .LVU187
 647              		.loc 2 212 3 view .LVU188
 648              		.loc 2 212 3 view .LVU189
 649              		.loc 2 215 3 view .LVU190
 650 000a 3046     		mov	r0, r6
 651              	.LVL36:
 652              		.loc 2 215 3 is_stmt 0 view .LVU191
 653 000c FFF7FEFF 		bl	chMtxUnlockS
 654              	.LVL37:
 655              		.loc 2 219 3 is_stmt 1 view .LVU192
 656              		.loc 2 220 3 is_stmt 0 view .LVU193
 657 0010 2946     		mov	r1, r5
 658 0012 2046     		mov	r0, r4
 659              		.loc 2 219 17 view .LVU194
 660 0014 6562     		str	r5, [r4, #36]
 661              		.loc 2 220 3 is_stmt 1 view .LVU195
 662 0016 FFF7FEFF 		bl	queue_prio_insert
 663              	.LVL38:
 664              		.loc 2 221 3 view .LVU196
 665 001a 0720     		movs	r0, #7
 666 001c FFF7FEFF 		bl	chSchGoSleepS
 667              	.LVL39:
 668              		.loc 2 222 3 view .LVU197
 669              		.loc 2 222 7 is_stmt 0 view .LVU198
 670 0020 646A     		ldr	r4, [r4, #36]
 671              	.LVL40:
 672              		.loc 2 223 3 is_stmt 1 view .LVU199
 673 0022 3046     		mov	r0, r6
 674 0024 FFF7FEFF 		bl	chMtxLockS
 675              	.LVL41:
 676              		.loc 2 225 3 view .LVU200
 677              		.loc 2 226 1 is_stmt 0 view .LVU201
 678 0028 2046     		mov	r0, r4
 679 002a 70BD     		pop	{r4, r5, r6, pc}
 680              	.LVL42:
 681              	.L16:
 682              		.loc 2 226 1 view .LVU202
 683              		.align	2
 684              	.L15:
ARM GAS  /tmp/ccQ9Jx7L.s 			page 13


 685 002c 00000000 		.word	ch
 686              		.cfi_endproc
 687              	.LFE307:
 688              		.size	chCondWaitS, .-chCondWaitS
 689              		.section	.text.chCondWait,"ax",%progbits
 690              		.align	1
 691              		.global	chCondWait
 692              		.syntax unified
 693              		.thumb
 694              		.thumb_func
 695              		.fpu fpv4-sp-d16
 696              		.type	chCondWait, %function
 697              	chCondWait:
 698              	.LVL43:
 699              	.LFB306:
 700              		.loc 2 179 44 is_stmt 1 view -0
 701              		.cfi_startproc
 702              		@ args = 0, pretend = 0, frame = 8
 703              		@ frame_needed = 0, uses_anonymous_args = 0
 704              		.loc 2 180 3 view .LVU204
 705              		.loc 2 182 3 view .LVU205
 706              	.LBB146:
 707              	.LBI146:
 708              		.loc 3 353 20 view .LVU206
 709              	.LBB147:
 710              		.loc 3 355 3 view .LVU207
 711              	.LBB148:
 712              	.LBI148:
 713              		.loc 4 602 20 view .LVU208
 714              	.LBE148:
 715              	.LBE147:
 716              	.LBE146:
 717              		.loc 4 610 3 view .LVU209
 718              	.LBB161:
 719              	.LBB158:
 720              	.LBB155:
 721              	.LBB149:
 722              	.LBI149:
 723              		.loc 5 491 27 view .LVU210
 724              	.LBB150:
 725              		.loc 5 493 3 view .LVU211
 726              	.LBE150:
 727              	.LBE149:
 728              	.LBE155:
 729              	.LBE158:
 730              	.LBE161:
 731              		.loc 2 179 44 is_stmt 0 view .LVU212
 732 0000 07B5     		push	{r0, r1, r2, lr}
 733              		.cfi_def_cfa_offset 16
 734              		.cfi_offset 14, -4
 735              	.LBB162:
 736              	.LBB159:
 737              	.LBB156:
 738              	.LBB153:
 739              	.LBB151:
 740              		.loc 5 493 3 view .LVU213
 741 0002 2023     		movs	r3, #32
ARM GAS  /tmp/ccQ9Jx7L.s 			page 14


 742              	.LBE151:
 743              	.LBE153:
 744              	.LBE156:
 745              	.LBE159:
 746              	.LBE162:
 747              		.loc 2 179 44 view .LVU214
 748 0004 0190     		str	r0, [sp, #4]
 749              	.LBB163:
 750              	.LBB160:
 751              	.LBB157:
 752              	.LBB154:
 753              	.LBB152:
 754              		.loc 5 493 3 view .LVU215
 755              		.syntax unified
 756              	@ 493 "../../modules/ChibiOS/os/common/ext/ARM/CMSIS/Core/Include/cmsis_gcc.h" 1
 757 0006 83F31188 		MSR basepri, r3
 758              	@ 0 "" 2
 759              	.LVL44:
 760              		.loc 5 493 3 view .LVU216
 761              		.thumb
 762              		.syntax unified
 763              	.LBE152:
 764              	.LBE154:
 765              	.LBE157:
 766              		.loc 3 356 3 is_stmt 1 view .LVU217
 767 000a FFF7FEFF 		bl	_stats_start_measure_crit_thd
 768              	.LVL45:
 769              		.loc 3 357 20 view .LVU218
 770              	.LBE160:
 771              	.LBE163:
 772              		.loc 2 183 3 view .LVU219
 773              		.loc 2 183 9 is_stmt 0 view .LVU220
 774 000e 0198     		ldr	r0, [sp, #4]
 775 0010 FFF7FEFF 		bl	chCondWaitS
 776              	.LVL46:
 777 0014 0190     		str	r0, [sp, #4]
 778              	.LVL47:
 779              		.loc 2 184 3 is_stmt 1 view .LVU221
 780              	.LBB164:
 781              	.LBI164:
 782              		.loc 3 365 20 view .LVU222
 783              	.LBB165:
 784              		.loc 3 367 22 view .LVU223
 785              		.loc 3 368 3 view .LVU224
 786 0016 FFF7FEFF 		bl	_stats_stop_measure_crit_thd
 787              	.LVL48:
 788              		.loc 3 374 3 view .LVU225
 789              		.loc 3 374 3 view .LVU226
 790              		.loc 3 374 3 view .LVU227
 791              		.loc 3 378 3 view .LVU228
 792              	.LBB166:
 793              	.LBI166:
 794              		.loc 4 626 20 view .LVU229
 795              	.LBE166:
 796              	.LBE165:
 797              	.LBE164:
 798              		.loc 4 629 3 view .LVU230
ARM GAS  /tmp/ccQ9Jx7L.s 			page 15


 799              	.LBB171:
 800              	.LBB170:
 801              	.LBB169:
 802              	.LBB167:
 803              	.LBI167:
 804              		.loc 5 491 27 view .LVU231
 805              	.LBB168:
 806              		.loc 5 493 3 view .LVU232
 807 001a 0023     		movs	r3, #0
 808              		.syntax unified
 809              	@ 493 "../../modules/ChibiOS/os/common/ext/ARM/CMSIS/Core/Include/cmsis_gcc.h" 1
 810 001c 83F31188 		MSR basepri, r3
 811              	@ 0 "" 2
 812              	.LVL49:
 813              		.loc 5 493 3 is_stmt 0 view .LVU233
 814              		.thumb
 815              		.syntax unified
 816              	.LBE168:
 817              	.LBE167:
 818              	.LBE169:
 819              	.LBE170:
 820              	.LBE171:
 821              		.loc 2 185 3 is_stmt 1 view .LVU234
 822              		.loc 2 186 1 is_stmt 0 view .LVU235
 823 0020 0198     		ldr	r0, [sp, #4]
 824 0022 03B0     		add	sp, sp, #12
 825              		.cfi_def_cfa_offset 4
 826              		@ sp needed
 827 0024 5DF804FB 		ldr	pc, [sp], #4
 828              		.loc 2 186 1 view .LVU236
 829              		.cfi_endproc
 830              	.LFE306:
 831              		.size	chCondWait, .-chCondWait
 832              		.section	.text.chCondWaitTimeoutS,"ax",%progbits
 833              		.align	1
 834              		.global	chCondWaitTimeoutS
 835              		.syntax unified
 836              		.thumb
 837              		.thumb_func
 838              		.fpu fpv4-sp-d16
 839              		.type	chCondWaitTimeoutS, %function
 840              	chCondWaitTimeoutS:
 841              	.LVL50:
 842              	.LFB309:
 843              		.loc 2 295 75 is_stmt 1 view -0
 844              		.cfi_startproc
 845              		@ args = 0, pretend = 0, frame = 0
 846              		@ frame_needed = 0, uses_anonymous_args = 0
 847              		.loc 2 296 3 view .LVU238
 848              	.LBB172:
 849              	.LBI172:
 850              		.loc 6 159 24 view .LVU239
 851              	.LBB173:
 852              		.loc 6 161 3 view .LVU240
 853              	.LBB174:
 854              	.LBI174:
 855              		.loc 7 272 25 view .LVU241
ARM GAS  /tmp/ccQ9Jx7L.s 			page 16


 856              	.LBB175:
 857              		.loc 7 274 3 view .LVU242
 858              	.LBE175:
 859              	.LBE174:
 860              	.LBE173:
 861              	.LBE172:
 862              		.loc 2 295 75 is_stmt 0 view .LVU243
 863 0000 F8B5     		push	{r3, r4, r5, r6, r7, lr}
 864              		.cfi_def_cfa_offset 24
 865              		.cfi_offset 3, -24
 866              		.cfi_offset 4, -20
 867              		.cfi_offset 5, -16
 868              		.cfi_offset 6, -12
 869              		.cfi_offset 7, -8
 870              		.cfi_offset 14, -4
 871              	.LBB180:
 872              	.LBB178:
 873              	.LBB177:
 874              	.LBB176:
 875              		.loc 7 274 18 view .LVU244
 876 0002 0C4F     		ldr	r7, .L23
 877              	.LBE176:
 878              	.LBE177:
 879              	.LBE178:
 880              	.LBE180:
 881              		.loc 2 295 75 view .LVU245
 882 0004 0446     		mov	r4, r0
 883 0006 0D46     		mov	r5, r1
 884              	.LBB181:
 885              	.LBB179:
 886              		.loc 6 161 25 view .LVU246
 887 0008 BB69     		ldr	r3, [r7, #24]
 888 000a 9E6B     		ldr	r6, [r3, #56]
 889              	.LVL51:
 890              		.loc 6 161 25 view .LVU247
 891              	.LBE179:
 892              	.LBE181:
 893              		.loc 2 297 3 is_stmt 1 view .LVU248
 894              		.loc 2 299 21 view .LVU249
 895              		.loc 2 300 3 view .LVU250
 896              		.loc 2 300 3 view .LVU251
 897              		.loc 2 300 3 view .LVU252
 898              		.loc 2 301 3 view .LVU253
 899              		.loc 2 301 3 view .LVU254
 900              		.loc 2 301 3 view .LVU255
 901              		.loc 2 304 3 view .LVU256
 902 000c 3046     		mov	r0, r6
 903              	.LVL52:
 904              		.loc 2 304 3 is_stmt 0 view .LVU257
 905 000e FFF7FEFF 		bl	chMtxUnlockS
 906              	.LVL53:
 907              		.loc 2 308 3 is_stmt 1 view .LVU258
 908 0012 B869     		ldr	r0, [r7, #24]
 909              		.loc 2 309 3 is_stmt 0 view .LVU259
 910 0014 2146     		mov	r1, r4
 911              		.loc 2 308 19 view .LVU260
 912 0016 4462     		str	r4, [r0, #36]
ARM GAS  /tmp/ccQ9Jx7L.s 			page 17


 913              		.loc 2 309 3 is_stmt 1 view .LVU261
 914 0018 FFF7FEFF 		bl	queue_prio_insert
 915              	.LVL54:
 916              		.loc 2 310 3 view .LVU262
 917              		.loc 2 310 9 is_stmt 0 view .LVU263
 918 001c 2946     		mov	r1, r5
 919 001e 0720     		movs	r0, #7
 920 0020 FFF7FEFF 		bl	chSchGoSleepTimeoutS
 921              	.LVL55:
 922              		.loc 2 311 6 view .LVU264
 923 0024 431C     		adds	r3, r0, #1
 924              		.loc 2 310 9 view .LVU265
 925 0026 0446     		mov	r4, r0
 926              	.LVL56:
 927              		.loc 2 311 3 is_stmt 1 view .LVU266
 928              		.loc 2 311 6 is_stmt 0 view .LVU267
 929 0028 02D0     		beq	.L18
 930              		.loc 2 312 5 is_stmt 1 view .LVU268
 931 002a 3046     		mov	r0, r6
 932              	.LVL57:
 933              		.loc 2 312 5 is_stmt 0 view .LVU269
 934 002c FFF7FEFF 		bl	chMtxLockS
 935              	.LVL58:
 936              		.loc 2 315 3 is_stmt 1 view .LVU270
 937              	.L18:
 938              		.loc 2 316 1 is_stmt 0 view .LVU271
 939 0030 2046     		mov	r0, r4
 940 0032 F8BD     		pop	{r3, r4, r5, r6, r7, pc}
 941              	.LVL59:
 942              	.L24:
 943              		.loc 2 316 1 view .LVU272
 944              		.align	2
 945              	.L23:
 946 0034 00000000 		.word	ch
 947              		.cfi_endproc
 948              	.LFE309:
 949              		.size	chCondWaitTimeoutS, .-chCondWaitTimeoutS
 950              		.section	.text.chCondWaitTimeout,"ax",%progbits
 951              		.align	1
 952              		.global	chCondWaitTimeout
 953              		.syntax unified
 954              		.thumb
 955              		.thumb_func
 956              		.fpu fpv4-sp-d16
 957              		.type	chCondWaitTimeout, %function
 958              	chCondWaitTimeout:
 959              	.LVL60:
 960              	.LFB308:
 961              		.loc 2 257 74 is_stmt 1 view -0
 962              		.cfi_startproc
 963              		@ args = 0, pretend = 0, frame = 8
 964              		@ frame_needed = 0, uses_anonymous_args = 0
 965              		.loc 2 258 3 view .LVU274
 966              		.loc 2 260 3 view .LVU275
 967              	.LBB192:
 968              	.LBI192:
 969              		.loc 3 353 20 view .LVU276
ARM GAS  /tmp/ccQ9Jx7L.s 			page 18


 970              	.LBB193:
 971              		.loc 3 355 3 view .LVU277
 972              	.LBB194:
 973              	.LBI194:
 974              		.loc 4 602 20 view .LVU278
 975              	.LBE194:
 976              	.LBE193:
 977              	.LBE192:
 978              		.loc 4 610 3 view .LVU279
 979              	.LBB207:
 980              	.LBB204:
 981              	.LBB201:
 982              	.LBB195:
 983              	.LBI195:
 984              		.loc 5 491 27 view .LVU280
 985              	.LBB196:
 986              		.loc 5 493 3 view .LVU281
 987              	.LBE196:
 988              	.LBE195:
 989              	.LBE201:
 990              	.LBE204:
 991              	.LBE207:
 992              		.loc 2 257 74 is_stmt 0 view .LVU282
 993 0000 07B5     		push	{r0, r1, r2, lr}
 994              		.cfi_def_cfa_offset 16
 995              		.cfi_offset 14, -4
 996              	.LBB208:
 997              	.LBB205:
 998              	.LBB202:
 999              	.LBB199:
 1000              	.LBB197:
 1001              		.loc 5 493 3 view .LVU283
 1002 0002 2023     		movs	r3, #32
 1003              	.LBE197:
 1004              	.LBE199:
 1005              	.LBE202:
 1006              	.LBE205:
 1007              	.LBE208:
 1008              		.loc 2 257 74 view .LVU284
 1009 0004 CDE90010 		strd	r1, r0, [sp]
 1010              	.LBB209:
 1011              	.LBB206:
 1012              	.LBB203:
 1013              	.LBB200:
 1014              	.LBB198:
 1015              		.loc 5 493 3 view .LVU285
 1016              		.syntax unified
 1017              	@ 493 "../../modules/ChibiOS/os/common/ext/ARM/CMSIS/Core/Include/cmsis_gcc.h" 1
 1018 0008 83F31188 		MSR basepri, r3
 1019              	@ 0 "" 2
 1020              	.LVL61:
 1021              		.loc 5 493 3 view .LVU286
 1022              		.thumb
 1023              		.syntax unified
 1024              	.LBE198:
 1025              	.LBE200:
 1026              	.LBE203:
ARM GAS  /tmp/ccQ9Jx7L.s 			page 19


 1027              		.loc 3 356 3 is_stmt 1 view .LVU287
 1028 000c FFF7FEFF 		bl	_stats_start_measure_crit_thd
 1029              	.LVL62:
 1030              		.loc 3 357 20 view .LVU288
 1031              	.LBE206:
 1032              	.LBE209:
 1033              		.loc 2 261 3 view .LVU289
 1034              		.loc 2 261 9 is_stmt 0 view .LVU290
 1035 0010 DDE90010 		ldrd	r1, r0, [sp]
 1036 0014 FFF7FEFF 		bl	chCondWaitTimeoutS
 1037              	.LVL63:
 1038 0018 0090     		str	r0, [sp]
 1039              	.LVL64:
 1040              		.loc 2 262 3 is_stmt 1 view .LVU291
 1041              	.LBB210:
 1042              	.LBI210:
 1043              		.loc 3 365 20 view .LVU292
 1044              	.LBB211:
 1045              		.loc 3 367 22 view .LVU293
 1046              		.loc 3 368 3 view .LVU294
 1047 001a FFF7FEFF 		bl	_stats_stop_measure_crit_thd
 1048              	.LVL65:
 1049              		.loc 3 374 3 view .LVU295
 1050              		.loc 3 374 3 view .LVU296
 1051              		.loc 3 374 3 view .LVU297
 1052              		.loc 3 378 3 view .LVU298
 1053              	.LBB212:
 1054              	.LBI212:
 1055              		.loc 4 626 20 view .LVU299
 1056              	.LBE212:
 1057              	.LBE211:
 1058              	.LBE210:
 1059              		.loc 4 629 3 view .LVU300
 1060              	.LBB217:
 1061              	.LBB216:
 1062              	.LBB215:
 1063              	.LBB213:
 1064              	.LBI213:
 1065              		.loc 5 491 27 view .LVU301
 1066              	.LBB214:
 1067              		.loc 5 493 3 view .LVU302
 1068 001e 0023     		movs	r3, #0
 1069              		.syntax unified
 1070              	@ 493 "../../modules/ChibiOS/os/common/ext/ARM/CMSIS/Core/Include/cmsis_gcc.h" 1
 1071 0020 83F31188 		MSR basepri, r3
 1072              	@ 0 "" 2
 1073              	.LVL66:
 1074              		.loc 5 493 3 is_stmt 0 view .LVU303
 1075              		.thumb
 1076              		.syntax unified
 1077              	.LBE214:
 1078              	.LBE213:
 1079              	.LBE215:
 1080              	.LBE216:
 1081              	.LBE217:
 1082              		.loc 2 264 3 is_stmt 1 view .LVU304
 1083              		.loc 2 265 1 is_stmt 0 view .LVU305
ARM GAS  /tmp/ccQ9Jx7L.s 			page 20


 1084 0024 0098     		ldr	r0, [sp]
 1085 0026 03B0     		add	sp, sp, #12
 1086              		.cfi_def_cfa_offset 4
 1087              	.LVL67:
 1088              		.loc 2 265 1 view .LVU306
 1089              		@ sp needed
 1090 0028 5DF804FB 		ldr	pc, [sp], #4
 1091              		.loc 2 265 1 view .LVU307
 1092              		.cfi_endproc
 1093              	.LFE308:
 1094              		.size	chCondWaitTimeout, .-chCondWaitTimeout
 1095              		.text
 1096              	.Letext0:
 1097              		.file 8 "/opt/gcc-arm-none-eabi-10-2020-q4-major/arm-none-eabi/include/machine/_default_types.h"
 1098              		.file 9 "/opt/gcc-arm-none-eabi-10-2020-q4-major/arm-none-eabi/include/sys/_stdint.h"
 1099              		.file 10 "../../modules/ChibiOS/os/common/ports/ARMCMx/compilers/GCC/chtypes.h"
 1100              		.file 11 "../../modules/ChibiOS/os/rt/include/chsystypes.h"
 1101              		.file 12 "../../modules/ChibiOS/os/rt/include/chtime.h"
 1102              		.file 13 "../../modules/ChibiOS/os/common/ports/ARMCMx/chcore.h"
 1103              		.file 14 "../../modules/ChibiOS/os/rt/include/chtm.h"
 1104              		.file 15 "../../modules/ChibiOS/os/rt/include/chstats.h"
 1105              		.file 16 "../../modules/ChibiOS/os/rt/include/chsem.h"
 1106              		.file 17 "../../modules/ChibiOS/os/rt/include/chcond.h"