ARM GAS  /tmp/cc61CcxL.s 			page 1


   1              		.cpu cortex-m7
   2              		.eabi_attribute 27, 1
   3              		.eabi_attribute 28, 1
   4              		.eabi_attribute 20, 1
   5              		.eabi_attribute 21, 1
   6              		.eabi_attribute 23, 3
   7              		.eabi_attribute 24, 1
   8              		.eabi_attribute 25, 1
   9              		.eabi_attribute 26, 1
  10              		.eabi_attribute 30, 4
  11              		.eabi_attribute 34, 1
  12              		.eabi_attribute 18, 4
  13              		.file	"chdynamic.c"
  14              		.text
  15              	.Ltext0:
  16              		.cfi_sections	.debug_frame
  17              		.section	.text.chThdCreateFromHeap,"ax",%progbits
  18              		.align	1
  19              		.global	chThdCreateFromHeap
  20              		.arch armv7e-m
  21              		.syntax unified
  22              		.thumb
  23              		.thumb_func
  24              		.fpu fpv4-sp-d16
  25              		.type	chThdCreateFromHeap, %function
  26              	chThdCreateFromHeap:
  27              	.LVL0:
  28              	.LFB301:
  29              		.file 1 "../../modules/ChibiOS/os/rt/src/chdynamic.c"
  30              		.loc 1 84 54 view -0
  31              		.cfi_startproc
  32              		@ args = 8, pretend = 0, frame = 24
  33              		@ frame_needed = 0, uses_anonymous_args = 0
  34              		.loc 1 85 3 view .LVU1
  35              		.loc 1 86 3 view .LVU2
  36              		.loc 1 88 3 view .LVU3
  37              		.loc 1 84 54 is_stmt 0 view .LVU4
  38 0000 F0B5     		push	{r4, r5, r6, r7, lr}
  39              		.cfi_def_cfa_offset 20
  40              		.cfi_offset 4, -20
  41              		.cfi_offset 5, -16
  42              		.cfi_offset 6, -12
  43              		.cfi_offset 7, -8
  44              		.cfi_offset 14, -4
  45 0002 1746     		mov	r7, r2
  46 0004 87B0     		sub	sp, sp, #28
  47              		.cfi_def_cfa_offset 48
  48              		.loc 1 88 9 view .LVU5
  49 0006 0822     		movs	r2, #8
  50              	.LVL1:
  51              		.loc 1 84 54 view .LVU6
  52 0008 0E46     		mov	r6, r1
  53 000a 1D46     		mov	r5, r3
  54              		.loc 1 88 9 view .LVU7
  55 000c FFF7FEFF 		bl	chHeapAllocAligned
  56              	.LVL2:
  57              		.loc 1 89 3 is_stmt 1 view .LVU8
ARM GAS  /tmp/cc61CcxL.s 			page 2


  58              		.loc 1 89 6 is_stmt 0 view .LVU9
  59 0010 0446     		mov	r4, r0
  60 0012 F8B1     		cbz	r0, .L1
  61              		.loc 1 93 3 is_stmt 1 view .LVU10
  62              		.loc 1 93 23 is_stmt 0 view .LVU11
  63 0014 0C9B     		ldr	r3, [sp, #48]
  64              		.loc 1 96 5 view .LVU12
  65 0016 8119     		adds	r1, r0, r6
  66              		.loc 1 103 3 view .LVU13
  67 0018 5522     		movs	r2, #85
  68              		.loc 1 93 23 view .LVU14
  69 001a 0493     		str	r3, [sp, #16]
  70 001c 0D9B     		ldr	r3, [sp, #52]
  71 001e CDE90070 		strd	r7, r0, [sp]
  72 0022 0593     		str	r3, [sp, #20]
  73              		.loc 1 103 3 is_stmt 1 view .LVU15
  74              		.loc 1 93 23 is_stmt 0 view .LVU16
  75 0024 CDE90215 		strd	r1, r5, [sp, #8]
  76              		.loc 1 103 3 view .LVU17
  77 0028 FFF7FEFF 		bl	_thread_memfill
  78              	.LVL3:
  79              		.loc 1 108 3 is_stmt 1 view .LVU18
  80              	.LBB24:
  81              	.LBI24:
  82              		.file 2 "../../modules/ChibiOS/os/rt/include/chsys.h"
  83              		.loc 2 353 20 view .LVU19
  84              	.LBB25:
  85              		.loc 2 355 3 view .LVU20
  86              	.LBB26:
  87              	.LBI26:
  88              		.file 3 "../../modules/ChibiOS/os/common/ports/ARMCMx/chcore_v7m.h"
  89              		.loc 3 602 20 view .LVU21
  90              	.LBE26:
  91              	.LBE25:
  92              	.LBE24:
  93              		.loc 3 610 3 view .LVU22
  94              	.LBB31:
  95              	.LBB30:
  96              	.LBB29:
  97              	.LBB27:
  98              	.LBI27:
  99              		.file 4 "../../modules/ChibiOS/os/common/ext/ARM/CMSIS/Core/Include/cmsis_gcc.h"
 100              		.loc 4 491 27 view .LVU23
 101              	.LBB28:
 102              		.loc 4 493 3 view .LVU24
 103 002c 2023     		movs	r3, #32
 104              		.syntax unified
 105              	@ 493 "../../modules/ChibiOS/os/common/ext/ARM/CMSIS/Core/Include/cmsis_gcc.h" 1
 106 002e 83F31188 		MSR basepri, r3
 107              	@ 0 "" 2
 108              	.LVL4:
 109              		.loc 4 493 3 is_stmt 0 view .LVU25
 110              		.thumb
 111              		.syntax unified
 112              	.LBE28:
 113              	.LBE27:
 114              	.LBE29:
ARM GAS  /tmp/cc61CcxL.s 			page 3


 115              		.loc 2 356 3 is_stmt 1 view .LVU26
 116 0032 FFF7FEFF 		bl	_stats_start_measure_crit_thd
 117              	.LVL5:
 118              		.loc 2 357 20 view .LVU27
 119              	.LBE30:
 120              	.LBE31:
 121              		.loc 1 109 3 view .LVU28
 122              		.loc 1 109 8 is_stmt 0 view .LVU29
 123 0036 6846     		mov	r0, sp
 124 0038 FFF7FEFF 		bl	chThdCreateSuspendedI
 125              	.LVL6:
 126              		.loc 1 110 13 view .LVU30
 127 003c 0123     		movs	r3, #1
 128              		.loc 1 111 3 view .LVU31
 129 003e 0021     		movs	r1, #0
 130              		.loc 1 109 8 view .LVU32
 131 0040 0446     		mov	r4, r0
 132              	.LVL7:
 133              		.loc 1 110 3 is_stmt 1 view .LVU33
 134              		.loc 1 110 13 is_stmt 0 view .LVU34
 135 0042 80F82130 		strb	r3, [r0, #33]
 136              		.loc 1 111 3 is_stmt 1 view .LVU35
 137 0046 FFF7FEFF 		bl	chSchWakeupS
 138              	.LVL8:
 139              		.loc 1 112 3 view .LVU36
 140              	.LBB32:
 141              	.LBI32:
 142              		.loc 2 365 20 view .LVU37
 143              	.LBB33:
 144              		.loc 2 367 22 view .LVU38
 145              		.loc 2 368 3 view .LVU39
 146 004a FFF7FEFF 		bl	_stats_stop_measure_crit_thd
 147              	.LVL9:
 148              		.loc 2 374 3 view .LVU40
 149              		.loc 2 374 3 view .LVU41
 150              		.loc 2 374 3 view .LVU42
 151              		.loc 2 378 3 view .LVU43
 152              	.LBB34:
 153              	.LBI34:
 154              		.loc 3 626 20 view .LVU44
 155              	.LBE34:
 156              	.LBE33:
 157              	.LBE32:
 158              		.loc 3 629 3 view .LVU45
 159              	.LBB39:
 160              	.LBB38:
 161              	.LBB37:
 162              	.LBB35:
 163              	.LBI35:
 164              		.loc 4 491 27 view .LVU46
 165              	.LBB36:
 166              		.loc 4 493 3 view .LVU47
 167 004e 0023     		movs	r3, #0
 168              		.syntax unified
 169              	@ 493 "../../modules/ChibiOS/os/common/ext/ARM/CMSIS/Core/Include/cmsis_gcc.h" 1
 170 0050 83F31188 		MSR basepri, r3
 171              	@ 0 "" 2
ARM GAS  /tmp/cc61CcxL.s 			page 4


 172              	.LVL10:
 173              		.thumb
 174              		.syntax unified
 175              	.L1:
 176              		.loc 4 493 3 is_stmt 0 view .LVU48
 177              	.LBE36:
 178              	.LBE35:
 179              	.LBE37:
 180              	.LBE38:
 181              	.LBE39:
 182              		.loc 1 115 1 view .LVU49
 183 0054 2046     		mov	r0, r4
 184 0056 07B0     		add	sp, sp, #28
 185              		.cfi_def_cfa_offset 20
 186              		@ sp needed
 187 0058 F0BD     		pop	{r4, r5, r6, r7, pc}
 188              		.loc 1 115 1 view .LVU50
 189              		.cfi_endproc
 190              	.LFE301:
 191              		.size	chThdCreateFromHeap, .-chThdCreateFromHeap
 192              		.section	.text.chThdCreateFromMemoryPool,"ax",%progbits
 193              		.align	1
 194              		.global	chThdCreateFromMemoryPool
 195              		.syntax unified
 196              		.thumb
 197              		.thumb_func
 198              		.fpu fpv4-sp-d16
 199              		.type	chThdCreateFromMemoryPool, %function
 200              	chThdCreateFromMemoryPool:
 201              	.LVL11:
 202              	.LFB302:
 203              		.loc 1 146 74 is_stmt 1 view -0
 204              		.cfi_startproc
 205              		@ args = 4, pretend = 0, frame = 24
 206              		@ frame_needed = 0, uses_anonymous_args = 0
 207              		.loc 1 147 3 view .LVU52
 208              		.loc 1 148 3 view .LVU53
 209              		.loc 1 150 3 view .LVU54
 210              		.loc 1 150 3 view .LVU55
 211              		.loc 1 150 3 view .LVU56
 212              		.loc 1 152 3 view .LVU57
 213              		.loc 1 146 74 is_stmt 0 view .LVU58
 214 0000 2DE9F041 		push	{r4, r5, r6, r7, r8, lr}
 215              		.cfi_def_cfa_offset 24
 216              		.cfi_offset 4, -24
 217              		.cfi_offset 5, -20
 218              		.cfi_offset 6, -16
 219              		.cfi_offset 7, -12
 220              		.cfi_offset 8, -8
 221              		.cfi_offset 14, -4
 222 0004 86B0     		sub	sp, sp, #24
 223              		.cfi_def_cfa_offset 48
 224              		.loc 1 146 74 view .LVU59
 225 0006 0546     		mov	r5, r0
 226 0008 8846     		mov	r8, r1
 227 000a 1746     		mov	r7, r2
 228 000c 1E46     		mov	r6, r3
ARM GAS  /tmp/cc61CcxL.s 			page 5


 229              		.loc 1 152 9 view .LVU60
 230 000e FFF7FEFF 		bl	chPoolAlloc
 231              	.LVL12:
 232              		.loc 1 153 3 is_stmt 1 view .LVU61
 233              		.loc 1 153 6 is_stmt 0 view .LVU62
 234 0012 0446     		mov	r4, r0
 235 0014 00B3     		cbz	r0, .L6
 236              		.loc 1 157 3 is_stmt 1 view .LVU63
 237              		.loc 1 160 5 is_stmt 0 view .LVU64
 238 0016 6968     		ldr	r1, [r5, #4]
 239              		.loc 1 167 3 view .LVU65
 240 0018 5522     		movs	r2, #85
 241              		.loc 1 157 23 view .LVU66
 242 001a 0C9B     		ldr	r3, [sp, #48]
 243              		.loc 1 160 5 view .LVU67
 244 001c 0144     		add	r1, r1, r0
 245              		.loc 1 157 23 view .LVU68
 246 001e 0496     		str	r6, [sp, #16]
 247 0020 0593     		str	r3, [sp, #20]
 248              		.loc 1 167 3 is_stmt 1 view .LVU69
 249              		.loc 1 157 23 is_stmt 0 view .LVU70
 250 0022 CDE90080 		strd	r8, r0, [sp]
 251 0026 CDE90217 		strd	r1, r7, [sp, #8]
 252              		.loc 1 167 3 view .LVU71
 253 002a FFF7FEFF 		bl	_thread_memfill
 254              	.LVL13:
 255              		.loc 1 172 3 is_stmt 1 view .LVU72
 256              	.LBB50:
 257              	.LBI50:
 258              		.loc 2 353 20 view .LVU73
 259              	.LBB51:
 260              		.loc 2 355 3 view .LVU74
 261              	.LBB52:
 262              	.LBI52:
 263              		.loc 3 602 20 view .LVU75
 264              	.LBE52:
 265              	.LBE51:
 266              	.LBE50:
 267              		.loc 3 610 3 view .LVU76
 268              	.LBB57:
 269              	.LBB56:
 270              	.LBB55:
 271              	.LBB53:
 272              	.LBI53:
 273              		.loc 4 491 27 view .LVU77
 274              	.LBB54:
 275              		.loc 4 493 3 view .LVU78
 276 002e 2023     		movs	r3, #32
 277              		.syntax unified
 278              	@ 493 "../../modules/ChibiOS/os/common/ext/ARM/CMSIS/Core/Include/cmsis_gcc.h" 1
 279 0030 83F31188 		MSR basepri, r3
 280              	@ 0 "" 2
 281              	.LVL14:
 282              		.loc 4 493 3 is_stmt 0 view .LVU79
 283              		.thumb
 284              		.syntax unified
 285              	.LBE54:
ARM GAS  /tmp/cc61CcxL.s 			page 6


 286              	.LBE53:
 287              	.LBE55:
 288              		.loc 2 356 3 is_stmt 1 view .LVU80
 289 0034 FFF7FEFF 		bl	_stats_start_measure_crit_thd
 290              	.LVL15:
 291              		.loc 2 357 20 view .LVU81
 292              	.LBE56:
 293              	.LBE57:
 294              		.loc 1 173 3 view .LVU82
 295              		.loc 1 173 8 is_stmt 0 view .LVU83
 296 0038 6846     		mov	r0, sp
 297 003a FFF7FEFF 		bl	chThdCreateSuspendedI
 298              	.LVL16:
 299              		.loc 1 174 13 view .LVU84
 300 003e 0223     		movs	r3, #2
 301              		.loc 1 176 3 view .LVU85
 302 0040 0021     		movs	r1, #0
 303              		.loc 1 175 13 view .LVU86
 304 0042 0564     		str	r5, [r0, #64]
 305              		.loc 1 174 13 view .LVU87
 306 0044 80F82130 		strb	r3, [r0, #33]
 307              		.loc 1 173 8 view .LVU88
 308 0048 0446     		mov	r4, r0
 309              	.LVL17:
 310              		.loc 1 174 3 is_stmt 1 view .LVU89
 311              		.loc 1 175 3 view .LVU90
 312              		.loc 1 176 3 view .LVU91
 313 004a FFF7FEFF 		bl	chSchWakeupS
 314              	.LVL18:
 315              		.loc 1 177 3 view .LVU92
 316              	.LBB58:
 317              	.LBI58:
 318              		.loc 2 365 20 view .LVU93
 319              	.LBB59:
 320              		.loc 2 367 22 view .LVU94
 321              		.loc 2 368 3 view .LVU95
 322 004e FFF7FEFF 		bl	_stats_stop_measure_crit_thd
 323              	.LVL19:
 324              		.loc 2 374 3 view .LVU96
 325              		.loc 2 374 3 view .LVU97
 326              		.loc 2 374 3 view .LVU98
 327              		.loc 2 378 3 view .LVU99
 328              	.LBB60:
 329              	.LBI60:
 330              		.loc 3 626 20 view .LVU100
 331              	.LBE60:
 332              	.LBE59:
 333              	.LBE58:
 334              		.loc 3 629 3 view .LVU101
 335              	.LBB65:
 336              	.LBB64:
 337              	.LBB63:
 338              	.LBB61:
 339              	.LBI61:
 340              		.loc 4 491 27 view .LVU102
 341              	.LBB62:
 342              		.loc 4 493 3 view .LVU103
ARM GAS  /tmp/cc61CcxL.s 			page 7


 343 0052 0023     		movs	r3, #0
 344              		.syntax unified
 345              	@ 493 "../../modules/ChibiOS/os/common/ext/ARM/CMSIS/Core/Include/cmsis_gcc.h" 1
 346 0054 83F31188 		MSR basepri, r3
 347              	@ 0 "" 2
 348              	.LVL20:
 349              		.thumb
 350              		.syntax unified
 351              	.L6:
 352              		.loc 4 493 3 is_stmt 0 view .LVU104
 353              	.LBE62:
 354              	.LBE61:
 355              	.LBE63:
 356              	.LBE64:
 357              	.LBE65:
 358              		.loc 1 180 1 view .LVU105
 359 0058 2046     		mov	r0, r4
 360 005a 06B0     		add	sp, sp, #24
 361              		.cfi_def_cfa_offset 24
 362              		@ sp needed
 363 005c BDE8F081 		pop	{r4, r5, r6, r7, r8, pc}
 364              		.loc 1 180 1 view .LVU106
 365              		.cfi_endproc
 366              	.LFE302:
 367              		.size	chThdCreateFromMemoryPool, .-chThdCreateFromMemoryPool
 368              		.text
 369              	.Letext0:
 370              		.file 5 "/opt/gcc-arm-none-eabi-10-2020-q4-major/lib/gcc/arm-none-eabi/10.2.1/include/stddef.h"
 371              		.file 6 "/opt/gcc-arm-none-eabi-10-2020-q4-major/arm-none-eabi/include/machine/_default_types.h"
 372              		.file 7 "/opt/gcc-arm-none-eabi-10-2020-q4-major/arm-none-eabi/include/sys/_stdint.h"
 373              		.file 8 "../../modules/ChibiOS/os/common/ports/ARMCMx/compilers/GCC/chtypes.h"
 374              		.file 9 "../../modules/ChibiOS/os/rt/include/chsystypes.h"
 375              		.file 10 "../../modules/ChibiOS/os/rt/include/chschd.h"
 376              		.file 11 "../../modules/ChibiOS/os/common/ports/ARMCMx/chcore.h"
 377              		.file 12 "../../modules/ChibiOS/os/rt/include/chtm.h"
 378              		.file 13 "../../modules/ChibiOS/os/rt/include/chsem.h"
 379              		.file 14 "../../modules/ChibiOS/os/rt/include/chmtx.h"
 380              		.file 15 "../../modules/ChibiOS/os/rt/include/chthreads.h"
 381              		.file 16 "../../modules/ChibiOS/os/oslib/include/chmemcore.h"
 382              		.file 17 "../../modules/ChibiOS/os/oslib/include/chmemheaps.h"
 383              		.file 18 "../../modules/ChibiOS/os/oslib/include/chmempools.h"
 384              		.file 19 "../../modules/ChibiOS/os/rt/include/chstats.h"
 385              		.section	.debug_info,"",%progbits
 386              	.Ldebug_info0:
 387 0000 5C0C0000 		.4byte	0xc5c
 388 0004 0400     		.2byte	0x4
 389 0006 00000000 		.4byte	.Ldebug_abbrev0
 390 000a 04       		.byte	0x4
 391 000b 01       		.uleb128 0x1
 392 000c 8B040000 		.4byte	.LASF114
 393 0010 0C       		.byte	0xc
 394 0011 39030000 		.4byte	.LASF115
 395 0015 D0030000 		.4byte	.LASF116
 396 0019 C0000000 		.4byte	.Ldebug_ranges0+0xc0
 397 001d 00000000 		.4byte	0
 398 0021 00000000 		.4byte	.Ldebug_line0
 399 0025 02       		.uleb128 0x2
ARM GAS  /tmp/cc61CcxL.s 			page 8


 400 0026 04       		.byte	0x4
 401 0027 05       		.byte	0x5
 402 0028 696E7400 		.ascii	"int\000"
 403 002c 03       		.uleb128 0x3
 404 002d 08000000 		.4byte	.LASF4
 405 0031 05       		.byte	0x5
 406 0032 D1       		.byte	0xd1
 407 0033 17       		.byte	0x17
 408 0034 38000000 		.4byte	0x38
 409 0038 04       		.uleb128 0x4
 410 0039 04       		.byte	0x4
 411 003a 07       		.byte	0x7
 412 003b 88010000 		.4byte	.LASF0
 413 003f 04       		.uleb128 0x4
 414 0040 08       		.byte	0x8
 415 0041 05       		.byte	0x5
 416 0042 CC000000 		.4byte	.LASF1
 417 0046 04       		.uleb128 0x4
 418 0047 08       		.byte	0x8
 419 0048 04       		.byte	0x4
 420 0049 7C020000 		.4byte	.LASF2
 421 004d 04       		.uleb128 0x4
 422 004e 01       		.byte	0x1
 423 004f 06       		.byte	0x6
 424 0050 DA000000 		.4byte	.LASF3
 425 0054 03       		.uleb128 0x3
 426 0055 2A000000 		.4byte	.LASF5
 427 0059 06       		.byte	0x6
 428 005a 2B       		.byte	0x2b
 429 005b 18       		.byte	0x18
 430 005c 60000000 		.4byte	0x60
 431 0060 04       		.uleb128 0x4
 432 0061 01       		.byte	0x1
 433 0062 08       		.byte	0x8
 434 0063 05030000 		.4byte	.LASF6
 435 0067 04       		.uleb128 0x4
 436 0068 02       		.byte	0x2
 437 0069 05       		.byte	0x5
 438 006a 1F030000 		.4byte	.LASF7
 439 006e 04       		.uleb128 0x4
 440 006f 02       		.byte	0x2
 441 0070 07       		.byte	0x7
 442 0071 C1010000 		.4byte	.LASF8
 443 0075 03       		.uleb128 0x3
 444 0076 20020000 		.4byte	.LASF9
 445 007a 06       		.byte	0x6
 446 007b 4D       		.byte	0x4d
 447 007c 18       		.byte	0x18
 448 007d 81000000 		.4byte	0x81
 449 0081 04       		.uleb128 0x4
 450 0082 04       		.byte	0x4
 451 0083 05       		.byte	0x5
 452 0084 1F010000 		.4byte	.LASF10
 453 0088 03       		.uleb128 0x3
 454 0089 4B010000 		.4byte	.LASF11
 455 008d 06       		.byte	0x6
 456 008e 4F       		.byte	0x4f
ARM GAS  /tmp/cc61CcxL.s 			page 9


 457 008f 19       		.byte	0x19
 458 0090 94000000 		.4byte	0x94
 459 0094 04       		.uleb128 0x4
 460 0095 04       		.byte	0x4
 461 0096 07       		.byte	0x7
 462 0097 BE030000 		.4byte	.LASF12
 463 009b 03       		.uleb128 0x3
 464 009c C7020000 		.4byte	.LASF13
 465 00a0 06       		.byte	0x6
 466 00a1 69       		.byte	0x69
 467 00a2 19       		.byte	0x19
 468 00a3 A7000000 		.4byte	0xa7
 469 00a7 04       		.uleb128 0x4
 470 00a8 08       		.byte	0x8
 471 00a9 07       		.byte	0x7
 472 00aa 90000000 		.4byte	.LASF14
 473 00ae 03       		.uleb128 0x3
 474 00af 8D050000 		.4byte	.LASF15
 475 00b3 07       		.byte	0x7
 476 00b4 18       		.byte	0x18
 477 00b5 13       		.byte	0x13
 478 00b6 54000000 		.4byte	0x54
 479 00ba 03       		.uleb128 0x3
 480 00bb FD020000 		.4byte	.LASF16
 481 00bf 07       		.byte	0x7
 482 00c0 2C       		.byte	0x2c
 483 00c1 13       		.byte	0x13
 484 00c2 75000000 		.4byte	0x75
 485 00c6 03       		.uleb128 0x3
 486 00c7 93030000 		.4byte	.LASF17
 487 00cb 07       		.byte	0x7
 488 00cc 30       		.byte	0x30
 489 00cd 14       		.byte	0x14
 490 00ce 88000000 		.4byte	0x88
 491 00d2 03       		.uleb128 0x3
 492 00d3 21000000 		.4byte	.LASF18
 493 00d7 07       		.byte	0x7
 494 00d8 3C       		.byte	0x3c
 495 00d9 14       		.byte	0x14
 496 00da 9B000000 		.4byte	0x9b
 497 00de 03       		.uleb128 0x3
 498 00df 61020000 		.4byte	.LASF19
 499 00e3 08       		.byte	0x8
 500 00e4 27       		.byte	0x27
 501 00e5 1D       		.byte	0x1d
 502 00e6 C6000000 		.4byte	0xc6
 503 00ea 03       		.uleb128 0x3
 504 00eb C3000000 		.4byte	.LASF20
 505 00ef 08       		.byte	0x8
 506 00f0 28       		.byte	0x28
 507 00f1 1D       		.byte	0x1d
 508 00f2 D2000000 		.4byte	0xd2
 509 00f6 03       		.uleb128 0x3
 510 00f7 0C020000 		.4byte	.LASF21
 511 00fb 08       		.byte	0x8
 512 00fc 2A       		.byte	0x2a
 513 00fd 1D       		.byte	0x1d
ARM GAS  /tmp/cc61CcxL.s 			page 10


 514 00fe AE000000 		.4byte	0xae
 515 0102 03       		.uleb128 0x3
 516 0103 3C010000 		.4byte	.LASF22
 517 0107 08       		.byte	0x8
 518 0108 2B       		.byte	0x2b
 519 0109 1D       		.byte	0x1d
 520 010a AE000000 		.4byte	0xae
 521 010e 03       		.uleb128 0x3
 522 010f E2020000 		.4byte	.LASF23
 523 0113 08       		.byte	0x8
 524 0114 2C       		.byte	0x2c
 525 0115 1D       		.byte	0x1d
 526 0116 AE000000 		.4byte	0xae
 527 011a 03       		.uleb128 0x3
 528 011b EF020000 		.4byte	.LASF24
 529 011f 08       		.byte	0x8
 530 0120 2E       		.byte	0x2e
 531 0121 1D       		.byte	0x1d
 532 0122 C6000000 		.4byte	0xc6
 533 0126 03       		.uleb128 0x3
 534 0127 E3010000 		.4byte	.LASF25
 535 012b 08       		.byte	0x8
 536 012c 2F       		.byte	0x2f
 537 012d 1D       		.byte	0x1d
 538 012e BA000000 		.4byte	0xba
 539 0132 03       		.uleb128 0x3
 540 0133 14020000 		.4byte	.LASF26
 541 0137 08       		.byte	0x8
 542 0138 31       		.byte	0x31
 543 0139 1D       		.byte	0x1d
 544 013a C6000000 		.4byte	0xc6
 545 013e 03       		.uleb128 0x3
 546 013f 82010000 		.4byte	.LASF27
 547 0143 08       		.byte	0x8
 548 0144 33       		.byte	0x33
 549 0145 1D       		.byte	0x1d
 550 0146 BA000000 		.4byte	0xba
 551 014a 03       		.uleb128 0x3
 552 014b EE010000 		.4byte	.LASF28
 553 014f 08       		.byte	0x8
 554 0150 34       		.byte	0x34
 555 0151 1D       		.byte	0x1d
 556 0152 C6000000 		.4byte	0xc6
 557 0156 03       		.uleb128 0x3
 558 0157 0F040000 		.4byte	.LASF29
 559 015b 09       		.byte	0x9
 560 015c 34       		.byte	0x34
 561 015d 1A       		.byte	0x1a
 562 015e 62010000 		.4byte	0x162
 563 0162 05       		.uleb128 0x5
 564 0163 D4010000 		.4byte	.LASF48
 565 0167 60       		.byte	0x60
 566 0168 0A       		.byte	0xa
 567 0169 8E       		.byte	0x8e
 568 016a 08       		.byte	0x8
 569 016b 60020000 		.4byte	0x260
 570 016f 06       		.uleb128 0x6
ARM GAS  /tmp/cc61CcxL.s 			page 11


 571 0170 B0010000 		.4byte	.LASF30
 572 0174 0A       		.byte	0xa
 573 0175 8F       		.byte	0x8f
 574 0176 19       		.byte	0x19
 575 0177 99020000 		.4byte	0x299
 576 017b 00       		.byte	0
 577 017c 06       		.uleb128 0x6
 578 017d C2020000 		.4byte	.LASF31
 579 0181 0A       		.byte	0xa
 580 0182 90       		.byte	0x90
 581 0183 19       		.byte	0x19
 582 0184 1A010000 		.4byte	0x11a
 583 0188 08       		.byte	0x8
 584 0189 07       		.uleb128 0x7
 585 018a 63747800 		.ascii	"ctx\000"
 586 018e 0A       		.byte	0xa
 587 018f 91       		.byte	0x91
 588 0190 19       		.byte	0x19
 589 0191 F8020000 		.4byte	0x2f8
 590 0195 0C       		.byte	0xc
 591 0196 06       		.uleb128 0x6
 592 0197 35020000 		.4byte	.LASF32
 593 019b 0A       		.byte	0xa
 594 019c 93       		.byte	0x93
 595 019d 1A       		.byte	0x1a
 596 019e 6C020000 		.4byte	0x26c
 597 01a2 10       		.byte	0x10
 598 01a3 06       		.uleb128 0x6
 599 01a4 09040000 		.4byte	.LASF33
 600 01a8 0A       		.byte	0xa
 601 01a9 94       		.byte	0x94
 602 01aa 1A       		.byte	0x1a
 603 01ab 6C020000 		.4byte	0x26c
 604 01af 14       		.byte	0x14
 605 01b0 06       		.uleb128 0x6
 606 01b1 DE010000 		.4byte	.LASF34
 607 01b5 0A       		.byte	0xa
 608 01b6 9B       		.byte	0x9b
 609 01b7 1A       		.byte	0x1a
 610 01b8 BA050000 		.4byte	0x5ba
 611 01bc 18       		.byte	0x18
 612 01bd 06       		.uleb128 0x6
 613 01be 7F030000 		.4byte	.LASF35
 614 01c2 0A       		.byte	0xa
 615 01c3 A4       		.byte	0xa4
 616 01c4 1A       		.byte	0x1a
 617 01c5 CC050000 		.4byte	0x5cc
 618 01c9 1C       		.byte	0x1c
 619 01ca 06       		.uleb128 0x6
 620 01cb 19010000 		.4byte	.LASF36
 621 01cf 0A       		.byte	0xa
 622 01d0 A9       		.byte	0xa9
 623 01d1 19       		.byte	0x19
 624 01d2 02010000 		.4byte	0x102
 625 01d6 20       		.byte	0x20
 626 01d7 06       		.uleb128 0x6
 627 01d8 A1050000 		.4byte	.LASF37
ARM GAS  /tmp/cc61CcxL.s 			page 12


 628 01dc 0A       		.byte	0xa
 629 01dd AD       		.byte	0xad
 630 01de 19       		.byte	0x19
 631 01df F6000000 		.4byte	0xf6
 632 01e3 21       		.byte	0x21
 633 01e4 06       		.uleb128 0x6
 634 01e5 EA020000 		.4byte	.LASF38
 635 01e9 0A       		.byte	0xa
 636 01ea B2       		.byte	0xb2
 637 01eb 19       		.byte	0x19
 638 01ec 0E010000 		.4byte	0x10e
 639 01f0 22       		.byte	0x22
 640 01f1 08       		.uleb128 0x8
 641 01f2 7500     		.ascii	"u\000"
 642 01f4 0A       		.byte	0xa
 643 01f5 0301     		.2byte	0x103
 644 01f7 19       		.byte	0x19
 645 01f8 D3040000 		.4byte	0x4d3
 646 01fc 24       		.byte	0x24
 647 01fd 09       		.uleb128 0x9
 648 01fe 5F010000 		.4byte	.LASF39
 649 0202 0A       		.byte	0xa
 650 0203 0801     		.2byte	0x108
 651 0205 19       		.byte	0x19
 652 0206 72020000 		.4byte	0x272
 653 020a 28       		.byte	0x28
 654 020b 09       		.uleb128 0x9
 655 020c 10010000 		.4byte	.LASF40
 656 0210 0A       		.byte	0xa
 657 0211 0E01     		.2byte	0x10e
 658 0213 19       		.byte	0x19
 659 0214 99020000 		.4byte	0x299
 660 0218 2C       		.byte	0x2c
 661 0219 09       		.uleb128 0x9
 662 021a F5010000 		.4byte	.LASF41
 663 021e 0A       		.byte	0xa
 664 021f 1401     		.2byte	0x114
 665 0221 19       		.byte	0x19
 666 0222 32010000 		.4byte	0x132
 667 0226 34       		.byte	0x34
 668 0227 09       		.uleb128 0x9
 669 0228 E7050000 		.4byte	.LASF42
 670 022c 0A       		.byte	0xa
 671 022d 1B01     		.2byte	0x11b
 672 022f 1A       		.byte	0x1a
 673 0230 B4050000 		.4byte	0x5b4
 674 0234 38       		.byte	0x38
 675 0235 09       		.uleb128 0x9
 676 0236 3B020000 		.4byte	.LASF43
 677 023a 0A       		.byte	0xa
 678 023b 1F01     		.2byte	0x11f
 679 023d 19       		.byte	0x19
 680 023e 1A010000 		.4byte	0x11a
 681 0242 3C       		.byte	0x3c
 682 0243 09       		.uleb128 0x9
 683 0244 B6010000 		.4byte	.LASF44
 684 0248 0A       		.byte	0xa
ARM GAS  /tmp/cc61CcxL.s 			page 13


 685 0249 2601     		.2byte	0x126
 686 024b 1A       		.byte	0x1a
 687 024c DE020000 		.4byte	0x2de
 688 0250 40       		.byte	0x40
 689 0251 09       		.uleb128 0x9
 690 0252 45010000 		.4byte	.LASF45
 691 0256 0A       		.byte	0xa
 692 0257 2C01     		.2byte	0x12c
 693 0259 19       		.byte	0x19
 694 025a C7040000 		.4byte	0x4c7
 695 025e 48       		.byte	0x48
 696 025f 00       		.byte	0
 697 0260 03       		.uleb128 0x3
 698 0261 69020000 		.4byte	.LASF46
 699 0265 09       		.byte	0x9
 700 0266 39       		.byte	0x39
 701 0267 14       		.byte	0x14
 702 0268 6C020000 		.4byte	0x26c
 703 026c 0A       		.uleb128 0xa
 704 026d 04       		.byte	0x4
 705 026e 56010000 		.4byte	0x156
 706 0272 03       		.uleb128 0x3
 707 0273 CC050000 		.4byte	.LASF47
 708 0277 09       		.byte	0x9
 709 0278 3E       		.byte	0x3e
 710 0279 20       		.byte	0x20
 711 027a 7E020000 		.4byte	0x27e
 712 027e 05       		.uleb128 0x5
 713 027f A3030000 		.4byte	.LASF49
 714 0283 04       		.byte	0x4
 715 0284 0A       		.byte	0xa
 716 0285 7C       		.byte	0x7c
 717 0286 08       		.byte	0x8
 718 0287 99020000 		.4byte	0x299
 719 028b 06       		.uleb128 0x6
 720 028c 0F000000 		.4byte	.LASF50
 721 0290 0A       		.byte	0xa
 722 0291 7D       		.byte	0x7d
 723 0292 1A       		.byte	0x1a
 724 0293 6C020000 		.4byte	0x26c
 725 0297 00       		.byte	0
 726 0298 00       		.byte	0
 727 0299 03       		.uleb128 0x3
 728 029a 6F040000 		.4byte	.LASF51
 729 029e 09       		.byte	0x9
 730 029f 45       		.byte	0x45
 731 02a0 21       		.byte	0x21
 732 02a1 A5020000 		.4byte	0x2a5
 733 02a5 05       		.uleb128 0x5
 734 02a6 F6050000 		.4byte	.LASF52
 735 02aa 08       		.byte	0x8
 736 02ab 0A       		.byte	0xa
 737 02ac 83       		.byte	0x83
 738 02ad 08       		.byte	0x8
 739 02ae CD020000 		.4byte	0x2cd
 740 02b2 06       		.uleb128 0x6
 741 02b3 0F000000 		.4byte	.LASF50
ARM GAS  /tmp/cc61CcxL.s 			page 14


 742 02b7 0A       		.byte	0xa
 743 02b8 84       		.byte	0x84
 744 02b9 1A       		.byte	0x1a
 745 02ba 6C020000 		.4byte	0x26c
 746 02be 00       		.byte	0
 747 02bf 06       		.uleb128 0x6
 748 02c0 34000000 		.4byte	.LASF53
 749 02c4 0A       		.byte	0xa
 750 02c5 85       		.byte	0x85
 751 02c6 1A       		.byte	0x1a
 752 02c7 6C020000 		.4byte	0x26c
 753 02cb 04       		.byte	0x4
 754 02cc 00       		.byte	0
 755 02cd 0A       		.uleb128 0xa
 756 02ce 04       		.byte	0x4
 757 02cf D3020000 		.4byte	0x2d3
 758 02d3 0B       		.uleb128 0xb
 759 02d4 DE020000 		.4byte	0x2de
 760 02d8 0C       		.uleb128 0xc
 761 02d9 DE020000 		.4byte	0x2de
 762 02dd 00       		.byte	0
 763 02de 0D       		.uleb128 0xd
 764 02df 04       		.byte	0x4
 765 02e0 03       		.uleb128 0x3
 766 02e1 56010000 		.4byte	.LASF54
 767 02e5 0B       		.byte	0xb
 768 02e6 65       		.byte	0x65
 769 02e7 0F       		.byte	0xf
 770 02e8 DE020000 		.4byte	0x2de
 771 02ec 03       		.uleb128 0x3
 772 02ed 2A020000 		.4byte	.LASF55
 773 02f1 0B       		.byte	0xb
 774 02f2 6D       		.byte	0x6d
 775 02f3 12       		.byte	0x12
 776 02f4 D2000000 		.4byte	0xd2
 777 02f8 05       		.uleb128 0x5
 778 02f9 75010000 		.4byte	.LASF56
 779 02fd 04       		.byte	0x4
 780 02fe 0B       		.byte	0xb
 781 02ff 89       		.byte	0x89
 782 0300 08       		.byte	0x8
 783 0301 12030000 		.4byte	0x312
 784 0305 07       		.uleb128 0x7
 785 0306 737000   		.ascii	"sp\000"
 786 0309 0B       		.byte	0xb
 787 030a 8A       		.byte	0x8a
 788 030b 17       		.byte	0x17
 789 030c 78040000 		.4byte	0x478
 790 0310 00       		.byte	0
 791 0311 00       		.byte	0
 792 0312 0E       		.uleb128 0xe
 793 0313 39000000 		.4byte	.LASF57
 794 0317 64       		.byte	0x64
 795 0318 03       		.byte	0x3
 796 0319 5901     		.2byte	0x159
 797 031b 08       		.byte	0x8
 798 031c 78040000 		.4byte	0x478
ARM GAS  /tmp/cc61CcxL.s 			page 15


 799 0320 08       		.uleb128 0x8
 800 0321 73313600 		.ascii	"s16\000"
 801 0325 03       		.byte	0x3
 802 0326 5B01     		.2byte	0x15b
 803 0328 11       		.byte	0x11
 804 0329 E0020000 		.4byte	0x2e0
 805 032d 00       		.byte	0
 806 032e 08       		.uleb128 0x8
 807 032f 73313700 		.ascii	"s17\000"
 808 0333 03       		.byte	0x3
 809 0334 5C01     		.2byte	0x15c
 810 0336 11       		.byte	0x11
 811 0337 E0020000 		.4byte	0x2e0
 812 033b 04       		.byte	0x4
 813 033c 08       		.uleb128 0x8
 814 033d 73313800 		.ascii	"s18\000"
 815 0341 03       		.byte	0x3
 816 0342 5D01     		.2byte	0x15d
 817 0344 11       		.byte	0x11
 818 0345 E0020000 		.4byte	0x2e0
 819 0349 08       		.byte	0x8
 820 034a 08       		.uleb128 0x8
 821 034b 73313900 		.ascii	"s19\000"
 822 034f 03       		.byte	0x3
 823 0350 5E01     		.2byte	0x15e
 824 0352 11       		.byte	0x11
 825 0353 E0020000 		.4byte	0x2e0
 826 0357 0C       		.byte	0xc
 827 0358 08       		.uleb128 0x8
 828 0359 73323000 		.ascii	"s20\000"
 829 035d 03       		.byte	0x3
 830 035e 5F01     		.2byte	0x15f
 831 0360 11       		.byte	0x11
 832 0361 E0020000 		.4byte	0x2e0
 833 0365 10       		.byte	0x10
 834 0366 08       		.uleb128 0x8
 835 0367 73323100 		.ascii	"s21\000"
 836 036b 03       		.byte	0x3
 837 036c 6001     		.2byte	0x160
 838 036e 11       		.byte	0x11
 839 036f E0020000 		.4byte	0x2e0
 840 0373 14       		.byte	0x14
 841 0374 08       		.uleb128 0x8
 842 0375 73323200 		.ascii	"s22\000"
 843 0379 03       		.byte	0x3
 844 037a 6101     		.2byte	0x161
 845 037c 11       		.byte	0x11
 846 037d E0020000 		.4byte	0x2e0
 847 0381 18       		.byte	0x18
 848 0382 08       		.uleb128 0x8
 849 0383 73323300 		.ascii	"s23\000"
 850 0387 03       		.byte	0x3
 851 0388 6201     		.2byte	0x162
 852 038a 11       		.byte	0x11
 853 038b E0020000 		.4byte	0x2e0
 854 038f 1C       		.byte	0x1c
 855 0390 08       		.uleb128 0x8
ARM GAS  /tmp/cc61CcxL.s 			page 16


 856 0391 73323400 		.ascii	"s24\000"
 857 0395 03       		.byte	0x3
 858 0396 6301     		.2byte	0x163
 859 0398 11       		.byte	0x11
 860 0399 E0020000 		.4byte	0x2e0
 861 039d 20       		.byte	0x20
 862 039e 08       		.uleb128 0x8
 863 039f 73323500 		.ascii	"s25\000"
 864 03a3 03       		.byte	0x3
 865 03a4 6401     		.2byte	0x164
 866 03a6 11       		.byte	0x11
 867 03a7 E0020000 		.4byte	0x2e0
 868 03ab 24       		.byte	0x24
 869 03ac 08       		.uleb128 0x8
 870 03ad 73323600 		.ascii	"s26\000"
 871 03b1 03       		.byte	0x3
 872 03b2 6501     		.2byte	0x165
 873 03b4 11       		.byte	0x11
 874 03b5 E0020000 		.4byte	0x2e0
 875 03b9 28       		.byte	0x28
 876 03ba 08       		.uleb128 0x8
 877 03bb 73323700 		.ascii	"s27\000"
 878 03bf 03       		.byte	0x3
 879 03c0 6601     		.2byte	0x166
 880 03c2 11       		.byte	0x11
 881 03c3 E0020000 		.4byte	0x2e0
 882 03c7 2C       		.byte	0x2c
 883 03c8 08       		.uleb128 0x8
 884 03c9 73323800 		.ascii	"s28\000"
 885 03cd 03       		.byte	0x3
 886 03ce 6701     		.2byte	0x167
 887 03d0 11       		.byte	0x11
 888 03d1 E0020000 		.4byte	0x2e0
 889 03d5 30       		.byte	0x30
 890 03d6 08       		.uleb128 0x8
 891 03d7 73323900 		.ascii	"s29\000"
 892 03db 03       		.byte	0x3
 893 03dc 6801     		.2byte	0x168
 894 03de 11       		.byte	0x11
 895 03df E0020000 		.4byte	0x2e0
 896 03e3 34       		.byte	0x34
 897 03e4 08       		.uleb128 0x8
 898 03e5 73333000 		.ascii	"s30\000"
 899 03e9 03       		.byte	0x3
 900 03ea 6901     		.2byte	0x169
 901 03ec 11       		.byte	0x11
 902 03ed E0020000 		.4byte	0x2e0
 903 03f1 38       		.byte	0x38
 904 03f2 08       		.uleb128 0x8
 905 03f3 73333100 		.ascii	"s31\000"
 906 03f7 03       		.byte	0x3
 907 03f8 6A01     		.2byte	0x16a
 908 03fa 11       		.byte	0x11
 909 03fb E0020000 		.4byte	0x2e0
 910 03ff 3C       		.byte	0x3c
 911 0400 08       		.uleb128 0x8
 912 0401 723400   		.ascii	"r4\000"
ARM GAS  /tmp/cc61CcxL.s 			page 17


 913 0404 03       		.byte	0x3
 914 0405 6C01     		.2byte	0x16c
 915 0407 11       		.byte	0x11
 916 0408 E0020000 		.4byte	0x2e0
 917 040c 40       		.byte	0x40
 918 040d 08       		.uleb128 0x8
 919 040e 723500   		.ascii	"r5\000"
 920 0411 03       		.byte	0x3
 921 0412 6D01     		.2byte	0x16d
 922 0414 11       		.byte	0x11
 923 0415 E0020000 		.4byte	0x2e0
 924 0419 44       		.byte	0x44
 925 041a 08       		.uleb128 0x8
 926 041b 723600   		.ascii	"r6\000"
 927 041e 03       		.byte	0x3
 928 041f 6E01     		.2byte	0x16e
 929 0421 11       		.byte	0x11
 930 0422 E0020000 		.4byte	0x2e0
 931 0426 48       		.byte	0x48
 932 0427 08       		.uleb128 0x8
 933 0428 723700   		.ascii	"r7\000"
 934 042b 03       		.byte	0x3
 935 042c 6F01     		.2byte	0x16f
 936 042e 11       		.byte	0x11
 937 042f E0020000 		.4byte	0x2e0
 938 0433 4C       		.byte	0x4c
 939 0434 08       		.uleb128 0x8
 940 0435 723800   		.ascii	"r8\000"
 941 0438 03       		.byte	0x3
 942 0439 7001     		.2byte	0x170
 943 043b 11       		.byte	0x11
 944 043c E0020000 		.4byte	0x2e0
 945 0440 50       		.byte	0x50
 946 0441 08       		.uleb128 0x8
 947 0442 723900   		.ascii	"r9\000"
 948 0445 03       		.byte	0x3
 949 0446 7101     		.2byte	0x171
 950 0448 11       		.byte	0x11
 951 0449 E0020000 		.4byte	0x2e0
 952 044d 54       		.byte	0x54
 953 044e 08       		.uleb128 0x8
 954 044f 72313000 		.ascii	"r10\000"
 955 0453 03       		.byte	0x3
 956 0454 7201     		.2byte	0x172
 957 0456 11       		.byte	0x11
 958 0457 E0020000 		.4byte	0x2e0
 959 045b 58       		.byte	0x58
 960 045c 08       		.uleb128 0x8
 961 045d 72313100 		.ascii	"r11\000"
 962 0461 03       		.byte	0x3
 963 0462 7301     		.2byte	0x173
 964 0464 11       		.byte	0x11
 965 0465 E0020000 		.4byte	0x2e0
 966 0469 5C       		.byte	0x5c
 967 046a 08       		.uleb128 0x8
 968 046b 6C7200   		.ascii	"lr\000"
 969 046e 03       		.byte	0x3
ARM GAS  /tmp/cc61CcxL.s 			page 18


 970 046f 7401     		.2byte	0x174
 971 0471 11       		.byte	0x11
 972 0472 E0020000 		.4byte	0x2e0
 973 0476 60       		.byte	0x60
 974 0477 00       		.byte	0
 975 0478 0A       		.uleb128 0xa
 976 0479 04       		.byte	0x4
 977 047a 12030000 		.4byte	0x312
 978 047e 0F       		.uleb128 0xf
 979 047f 18       		.byte	0x18
 980 0480 0C       		.byte	0xc
 981 0481 48       		.byte	0x48
 982 0482 09       		.byte	0x9
 983 0483 C7040000 		.4byte	0x4c7
 984 0487 06       		.uleb128 0x6
 985 0488 18040000 		.4byte	.LASF58
 986 048c 0C       		.byte	0xc
 987 048d 49       		.byte	0x49
 988 048e 19       		.byte	0x19
 989 048f DE000000 		.4byte	0xde
 990 0493 00       		.byte	0
 991 0494 06       		.uleb128 0x6
 992 0495 72000000 		.4byte	.LASF59
 993 0499 0C       		.byte	0xc
 994 049a 4A       		.byte	0x4a
 995 049b 19       		.byte	0x19
 996 049c DE000000 		.4byte	0xde
 997 04a0 04       		.byte	0x4
 998 04a1 06       		.uleb128 0x6
 999 04a2 E9010000 		.4byte	.LASF60
 1000 04a6 0C       		.byte	0xc
 1001 04a7 4B       		.byte	0x4b
 1002 04a8 19       		.byte	0x19
 1003 04a9 DE000000 		.4byte	0xde
 1004 04ad 08       		.byte	0x8
 1005 04ae 07       		.uleb128 0x7
 1006 04af 6E00     		.ascii	"n\000"
 1007 04b1 0C       		.byte	0xc
 1008 04b2 4C       		.byte	0x4c
 1009 04b3 19       		.byte	0x19
 1010 04b4 4A010000 		.4byte	0x14a
 1011 04b8 0C       		.byte	0xc
 1012 04b9 06       		.uleb128 0x6
 1013 04ba D2020000 		.4byte	.LASF61
 1014 04be 0C       		.byte	0xc
 1015 04bf 4D       		.byte	0x4d
 1016 04c0 19       		.byte	0x19
 1017 04c1 EA000000 		.4byte	0xea
 1018 04c5 10       		.byte	0x10
 1019 04c6 00       		.byte	0
 1020 04c7 03       		.uleb128 0x3
 1021 04c8 78000000 		.4byte	.LASF62
 1022 04cc 0C       		.byte	0xc
 1023 04cd 4E       		.byte	0x4e
 1024 04ce 03       		.byte	0x3
 1025 04cf 7E040000 		.4byte	0x47e
 1026 04d3 10       		.uleb128 0x10
ARM GAS  /tmp/cc61CcxL.s 			page 19


 1027 04d4 04       		.byte	0x4
 1028 04d5 0A       		.byte	0xa
 1029 04d6 C6       		.byte	0xc6
 1030 04d7 03       		.byte	0x3
 1031 04d8 3E050000 		.4byte	0x53e
 1032 04dc 11       		.uleb128 0x11
 1033 04dd 14000000 		.4byte	.LASF63
 1034 04e1 0A       		.byte	0xa
 1035 04e2 CD       		.byte	0xcd
 1036 04e3 19       		.byte	0x19
 1037 04e4 26010000 		.4byte	0x126
 1038 04e8 11       		.uleb128 0x11
 1039 04e9 A7000000 		.4byte	.LASF64
 1040 04ed 0A       		.byte	0xa
 1041 04ee D4       		.byte	0xd4
 1042 04ef 19       		.byte	0x19
 1043 04f0 26010000 		.4byte	0x126
 1044 04f4 11       		.uleb128 0x11
 1045 04f5 C5050000 		.4byte	.LASF65
 1046 04f9 0A       		.byte	0xa
 1047 04fa DB       		.byte	0xdb
 1048 04fb 1A       		.byte	0x1a
 1049 04fc DE020000 		.4byte	0x2de
 1050 0500 11       		.uleb128 0x11
 1051 0501 9C010000 		.4byte	.LASF66
 1052 0505 0A       		.byte	0xa
 1053 0506 E2       		.byte	0xe2
 1054 0507 1A       		.byte	0x1a
 1055 0508 3E050000 		.4byte	0x53e
 1056 050c 11       		.uleb128 0x11
 1057 050d B0000000 		.4byte	.LASF67
 1058 0511 0A       		.byte	0xa
 1059 0512 E7       		.byte	0xe7
 1060 0513 19       		.byte	0x19
 1061 0514 26010000 		.4byte	0x126
 1062 0518 11       		.uleb128 0x11
 1063 0519 95010000 		.4byte	.LASF68
 1064 051d 0A       		.byte	0xa
 1065 051e F0       		.byte	0xf0
 1066 051f 1A       		.byte	0x1a
 1067 0520 6C050000 		.4byte	0x56c
 1068 0524 11       		.uleb128 0x11
 1069 0525 9C030000 		.4byte	.LASF69
 1070 0529 0A       		.byte	0xa
 1071 052a F9       		.byte	0xf9
 1072 052b 1A       		.byte	0x1a
 1073 052c B4050000 		.4byte	0x5b4
 1074 0530 12       		.uleb128 0x12
 1075 0531 29030000 		.4byte	.LASF70
 1076 0535 0A       		.byte	0xa
 1077 0536 0101     		.2byte	0x101
 1078 0538 19       		.byte	0x19
 1079 0539 32010000 		.4byte	0x132
 1080 053d 00       		.byte	0
 1081 053e 0A       		.uleb128 0xa
 1082 053f 04       		.byte	0x4
 1083 0540 60020000 		.4byte	0x260
ARM GAS  /tmp/cc61CcxL.s 			page 20


 1084 0544 05       		.uleb128 0x5
 1085 0545 86030000 		.4byte	.LASF71
 1086 0549 0C       		.byte	0xc
 1087 054a 0D       		.byte	0xd
 1088 054b 34       		.byte	0x34
 1089 054c 10       		.byte	0x10
 1090 054d 6C050000 		.4byte	0x56c
 1091 0551 06       		.uleb128 0x6
 1092 0552 B0010000 		.4byte	.LASF30
 1093 0556 0D       		.byte	0xd
 1094 0557 35       		.byte	0x35
 1095 0558 19       		.byte	0x19
 1096 0559 99020000 		.4byte	0x299
 1097 055d 00       		.byte	0
 1098 055e 07       		.uleb128 0x7
 1099 055f 636E7400 		.ascii	"cnt\000"
 1100 0563 0D       		.byte	0xd
 1101 0564 37       		.byte	0x37
 1102 0565 19       		.byte	0x19
 1103 0566 3E010000 		.4byte	0x13e
 1104 056a 08       		.byte	0x8
 1105 056b 00       		.byte	0
 1106 056c 0A       		.uleb128 0xa
 1107 056d 04       		.byte	0x4
 1108 056e 44050000 		.4byte	0x544
 1109 0572 05       		.uleb128 0x5
 1110 0573 4C040000 		.4byte	.LASF72
 1111 0577 14       		.byte	0x14
 1112 0578 0E       		.byte	0xe
 1113 0579 39       		.byte	0x39
 1114 057a 08       		.byte	0x8
 1115 057b B4050000 		.4byte	0x5b4
 1116 057f 06       		.uleb128 0x6
 1117 0580 B0010000 		.4byte	.LASF30
 1118 0584 0E       		.byte	0xe
 1119 0585 3A       		.byte	0x3a
 1120 0586 19       		.byte	0x19
 1121 0587 99020000 		.4byte	0x299
 1122 058b 00       		.byte	0
 1123 058c 06       		.uleb128 0x6
 1124 058d B3030000 		.4byte	.LASF73
 1125 0591 0E       		.byte	0xe
 1126 0592 3C       		.byte	0x3c
 1127 0593 1A       		.byte	0x1a
 1128 0594 6C020000 		.4byte	0x26c
 1129 0598 08       		.byte	0x8
 1130 0599 06       		.uleb128 0x6
 1131 059a 0F000000 		.4byte	.LASF50
 1132 059e 0E       		.byte	0xe
 1133 059f 3E       		.byte	0x3e
 1134 05a0 1A       		.byte	0x1a
 1135 05a1 4E060000 		.4byte	0x64e
 1136 05a5 0C       		.byte	0xc
 1137 05a6 07       		.uleb128 0x7
 1138 05a7 636E7400 		.ascii	"cnt\000"
 1139 05ab 0E       		.byte	0xe
 1140 05ac 41       		.byte	0x41
ARM GAS  /tmp/cc61CcxL.s 			page 21


 1141 05ad 19       		.byte	0x19
 1142 05ae 3E010000 		.4byte	0x13e
 1143 05b2 10       		.byte	0x10
 1144 05b3 00       		.byte	0
 1145 05b4 0A       		.uleb128 0xa
 1146 05b5 04       		.byte	0x4
 1147 05b6 72050000 		.4byte	0x572
 1148 05ba 0A       		.uleb128 0xa
 1149 05bb 04       		.byte	0x4
 1150 05bc C7050000 		.4byte	0x5c7
 1151 05c0 04       		.uleb128 0x4
 1152 05c1 01       		.byte	0x1
 1153 05c2 08       		.byte	0x8
 1154 05c3 04040000 		.4byte	.LASF74
 1155 05c7 13       		.uleb128 0x13
 1156 05c8 C0050000 		.4byte	0x5c0
 1157 05cc 0A       		.uleb128 0xa
 1158 05cd 04       		.byte	0x4
 1159 05ce EC020000 		.4byte	0x2ec
 1160 05d2 03       		.uleb128 0x3
 1161 05d3 00000000 		.4byte	.LASF75
 1162 05d7 0F       		.byte	0xf
 1163 05d8 34       		.byte	0x34
 1164 05d9 10       		.byte	0x10
 1165 05da CD020000 		.4byte	0x2cd
 1166 05de 0F       		.uleb128 0xf
 1167 05df 18       		.byte	0x18
 1168 05e0 0F       		.byte	0xf
 1169 05e1 39       		.byte	0x39
 1170 05e2 09       		.byte	0x9
 1171 05e3 36060000 		.4byte	0x636
 1172 05e7 06       		.uleb128 0x6
 1173 05e8 DE010000 		.4byte	.LASF34
 1174 05ec 0F       		.byte	0xf
 1175 05ed 3D       		.byte	0x3d
 1176 05ee 16       		.byte	0x16
 1177 05ef BA050000 		.4byte	0x5ba
 1178 05f3 00       		.byte	0
 1179 05f4 06       		.uleb128 0x6
 1180 05f5 A2020000 		.4byte	.LASF76
 1181 05f9 0F       		.byte	0xf
 1182 05fa 41       		.byte	0x41
 1183 05fb 16       		.byte	0x16
 1184 05fc CC050000 		.4byte	0x5cc
 1185 0600 04       		.byte	0x4
 1186 0601 06       		.uleb128 0x6
 1187 0602 8B000000 		.4byte	.LASF77
 1188 0606 0F       		.byte	0xf
 1189 0607 45       		.byte	0x45
 1190 0608 16       		.byte	0x16
 1191 0609 CC050000 		.4byte	0x5cc
 1192 060d 08       		.byte	0x8
 1193 060e 06       		.uleb128 0x6
 1194 060f C2020000 		.4byte	.LASF31
 1195 0613 0F       		.byte	0xf
 1196 0614 49       		.byte	0x49
 1197 0615 15       		.byte	0x15
ARM GAS  /tmp/cc61CcxL.s 			page 22


 1198 0616 1A010000 		.4byte	0x11a
 1199 061a 0C       		.byte	0xc
 1200 061b 06       		.uleb128 0x6
 1201 061c 1B000000 		.4byte	.LASF78
 1202 0620 0F       		.byte	0xf
 1203 0621 4D       		.byte	0x4d
 1204 0622 15       		.byte	0x15
 1205 0623 D2050000 		.4byte	0x5d2
 1206 0627 10       		.byte	0x10
 1207 0628 07       		.uleb128 0x7
 1208 0629 61726700 		.ascii	"arg\000"
 1209 062d 0F       		.byte	0xf
 1210 062e 51       		.byte	0x51
 1211 062f 16       		.byte	0x16
 1212 0630 DE020000 		.4byte	0x2de
 1213 0634 14       		.byte	0x14
 1214 0635 00       		.byte	0
 1215 0636 03       		.uleb128 0x3
 1216 0637 54000000 		.4byte	.LASF79
 1217 063b 0F       		.byte	0xf
 1218 063c 52       		.byte	0x52
 1219 063d 03       		.byte	0x3
 1220 063e DE050000 		.4byte	0x5de
 1221 0642 03       		.uleb128 0x3
 1222 0643 67010000 		.4byte	.LASF80
 1223 0647 0E       		.byte	0xe
 1224 0648 34       		.byte	0x34
 1225 0649 19       		.byte	0x19
 1226 064a 72050000 		.4byte	0x572
 1227 064e 0A       		.uleb128 0xa
 1228 064f 04       		.byte	0x4
 1229 0650 42060000 		.4byte	0x642
 1230 0654 04       		.uleb128 0x4
 1231 0655 01       		.byte	0x1
 1232 0656 02       		.byte	0x2
 1233 0657 F7020000 		.4byte	.LASF81
 1234 065b 03       		.uleb128 0x3
 1235 065c 55040000 		.4byte	.LASF82
 1236 0660 10       		.byte	0x10
 1237 0661 47       		.byte	0x47
 1238 0662 11       		.byte	0x11
 1239 0663 67060000 		.4byte	0x667
 1240 0667 0A       		.uleb128 0xa
 1241 0668 04       		.byte	0x4
 1242 0669 6D060000 		.4byte	0x66d
 1243 066d 14       		.uleb128 0x14
 1244 066e DE020000 		.4byte	0x2de
 1245 0672 81060000 		.4byte	0x681
 1246 0676 0C       		.uleb128 0xc
 1247 0677 2C000000 		.4byte	0x2c
 1248 067b 0C       		.uleb128 0xc
 1249 067c 38000000 		.4byte	0x38
 1250 0680 00       		.byte	0
 1251 0681 03       		.uleb128 0x3
 1252 0682 B4020000 		.4byte	.LASF83
 1253 0686 10       		.byte	0x10
 1254 0687 4C       		.byte	0x4c
ARM GAS  /tmp/cc61CcxL.s 			page 23


 1255 0688 11       		.byte	0x11
 1256 0689 8D060000 		.4byte	0x68d
 1257 068d 0A       		.uleb128 0xa
 1258 068e 04       		.byte	0x4
 1259 068f 93060000 		.4byte	0x693
 1260 0693 14       		.uleb128 0x14
 1261 0694 DE020000 		.4byte	0x2de
 1262 0698 AC060000 		.4byte	0x6ac
 1263 069c 0C       		.uleb128 0xc
 1264 069d 2C000000 		.4byte	0x2c
 1265 06a1 0C       		.uleb128 0xc
 1266 06a2 38000000 		.4byte	0x38
 1267 06a6 0C       		.uleb128 0xc
 1268 06a7 2C000000 		.4byte	0x2c
 1269 06ab 00       		.byte	0
 1270 06ac 03       		.uleb128 0x3
 1271 06ad FE010000 		.4byte	.LASF84
 1272 06b1 11       		.byte	0x11
 1273 06b2 48       		.byte	0x48
 1274 06b3 1C       		.byte	0x1c
 1275 06b4 B8060000 		.4byte	0x6b8
 1276 06b8 05       		.uleb128 0x5
 1277 06b9 07060000 		.4byte	.LASF85
 1278 06bd 20       		.byte	0x20
 1279 06be 11       		.byte	0x11
 1280 06bf 60       		.byte	0x60
 1281 06c0 08       		.byte	0x8
 1282 06c1 ED060000 		.4byte	0x6ed
 1283 06c5 06       		.uleb128 0x6
 1284 06c6 4B000000 		.4byte	.LASF86
 1285 06ca 11       		.byte	0x11
 1286 06cb 61       		.byte	0x61
 1287 06cc 19       		.byte	0x19
 1288 06cd 81060000 		.4byte	0x681
 1289 06d1 00       		.byte	0
 1290 06d2 06       		.uleb128 0x6
 1291 06d3 EF050000 		.4byte	.LASF87
 1292 06d7 11       		.byte	0x11
 1293 06d8 63       		.byte	0x63
 1294 06d9 19       		.byte	0x19
 1295 06da ED060000 		.4byte	0x6ed
 1296 06de 04       		.byte	0x4
 1297 06df 07       		.uleb128 0x7
 1298 06e0 6D747800 		.ascii	"mtx\000"
 1299 06e4 11       		.byte	0x11
 1300 06e5 65       		.byte	0x65
 1301 06e6 19       		.byte	0x19
 1302 06e7 42060000 		.4byte	0x642
 1303 06eb 0C       		.byte	0xc
 1304 06ec 00       		.byte	0
 1305 06ed 03       		.uleb128 0x3
 1306 06ee 1D040000 		.4byte	.LASF88
 1307 06f2 11       		.byte	0x11
 1308 06f3 4D       		.byte	0x4d
 1309 06f4 1B       		.byte	0x1b
 1310 06f5 F9060000 		.4byte	0x6f9
 1311 06f9 15       		.uleb128 0x15
ARM GAS  /tmp/cc61CcxL.s 			page 24


 1312 06fa 13030000 		.4byte	.LASF117
 1313 06fe 08       		.byte	0x8
 1314 06ff 11       		.byte	0x11
 1315 0700 52       		.byte	0x52
 1316 0701 07       		.byte	0x7
 1317 0702 1F070000 		.4byte	0x71f
 1318 0706 11       		.uleb128 0x11
 1319 0707 BE000000 		.4byte	.LASF89
 1320 070b 11       		.byte	0x11
 1321 070c 56       		.byte	0x56
 1322 070d 05       		.byte	0x5
 1323 070e 1F070000 		.4byte	0x71f
 1324 0712 11       		.uleb128 0x11
 1325 0713 DD020000 		.4byte	.LASF90
 1326 0717 11       		.byte	0x11
 1327 0718 5A       		.byte	0x5a
 1328 0719 05       		.byte	0x5
 1329 071a 49070000 		.4byte	0x749
 1330 071e 00       		.byte	0
 1331 071f 0F       		.uleb128 0xf
 1332 0720 08       		.byte	0x8
 1333 0721 11       		.byte	0x11
 1334 0722 53       		.byte	0x53
 1335 0723 03       		.byte	0x3
 1336 0724 43070000 		.4byte	0x743
 1337 0728 06       		.uleb128 0x6
 1338 0729 0F000000 		.4byte	.LASF50
 1339 072d 11       		.byte	0x11
 1340 072e 54       		.byte	0x54
 1341 072f 1A       		.byte	0x1a
 1342 0730 43070000 		.4byte	0x743
 1343 0734 00       		.byte	0
 1344 0735 06       		.uleb128 0x6
 1345 0736 45000000 		.4byte	.LASF91
 1346 073a 11       		.byte	0x11
 1347 073b 55       		.byte	0x55
 1348 073c 19       		.byte	0x19
 1349 073d 2C000000 		.4byte	0x2c
 1350 0741 04       		.byte	0x4
 1351 0742 00       		.byte	0
 1352 0743 0A       		.uleb128 0xa
 1353 0744 04       		.byte	0x4
 1354 0745 ED060000 		.4byte	0x6ed
 1355 0749 0F       		.uleb128 0xf
 1356 074a 08       		.byte	0x8
 1357 074b 11       		.byte	0x11
 1358 074c 57       		.byte	0x57
 1359 074d 03       		.byte	0x3
 1360 074e 6D070000 		.4byte	0x76d
 1361 0752 06       		.uleb128 0x6
 1362 0753 B9030000 		.4byte	.LASF92
 1363 0757 11       		.byte	0x11
 1364 0758 58       		.byte	0x58
 1365 0759 1A       		.byte	0x1a
 1366 075a 6D070000 		.4byte	0x76d
 1367 075e 00       		.byte	0
 1368 075f 06       		.uleb128 0x6
ARM GAS  /tmp/cc61CcxL.s 			page 25


 1369 0760 BC010000 		.4byte	.LASF93
 1370 0764 11       		.byte	0x11
 1371 0765 59       		.byte	0x59
 1372 0766 19       		.byte	0x19
 1373 0767 2C000000 		.4byte	0x2c
 1374 076b 04       		.byte	0x4
 1375 076c 00       		.byte	0
 1376 076d 0A       		.uleb128 0xa
 1377 076e 04       		.byte	0x4
 1378 076f AC060000 		.4byte	0x6ac
 1379 0773 05       		.uleb128 0x5
 1380 0774 7F040000 		.4byte	.LASF94
 1381 0778 04       		.byte	0x4
 1382 0779 12       		.byte	0x12
 1383 077a 38       		.byte	0x38
 1384 077b 08       		.byte	0x8
 1385 077c 8E070000 		.4byte	0x78e
 1386 0780 06       		.uleb128 0x6
 1387 0781 0F000000 		.4byte	.LASF50
 1388 0785 12       		.byte	0x12
 1389 0786 39       		.byte	0x39
 1390 0787 1A       		.byte	0x1a
 1391 0788 8E070000 		.4byte	0x78e
 1392 078c 00       		.byte	0
 1393 078d 00       		.byte	0
 1394 078e 0A       		.uleb128 0xa
 1395 078f 04       		.byte	0x4
 1396 0790 73070000 		.4byte	0x773
 1397 0794 0F       		.uleb128 0xf
 1398 0795 10       		.byte	0x10
 1399 0796 12       		.byte	0x12
 1400 0797 40       		.byte	0x40
 1401 0798 09       		.byte	0x9
 1402 0799 D2070000 		.4byte	0x7d2
 1403 079d 06       		.uleb128 0x6
 1404 079e 0F000000 		.4byte	.LASF50
 1405 07a2 12       		.byte	0x12
 1406 07a3 41       		.byte	0x41
 1407 07a4 1A       		.byte	0x1a
 1408 07a5 8E070000 		.4byte	0x78e
 1409 07a9 00       		.byte	0
 1410 07aa 06       		.uleb128 0x6
 1411 07ab A8020000 		.4byte	.LASF95
 1412 07af 12       		.byte	0x12
 1413 07b0 42       		.byte	0x42
 1414 07b1 19       		.byte	0x19
 1415 07b2 2C000000 		.4byte	0x2c
 1416 07b6 04       		.byte	0x4
 1417 07b7 06       		.uleb128 0x6
 1418 07b8 6F010000 		.4byte	.LASF96
 1419 07bc 12       		.byte	0x12
 1420 07bd 44       		.byte	0x44
 1421 07be 19       		.byte	0x19
 1422 07bf 38000000 		.4byte	0x38
 1423 07c3 08       		.byte	0x8
 1424 07c4 06       		.uleb128 0x6
 1425 07c5 4B000000 		.4byte	.LASF86
ARM GAS  /tmp/cc61CcxL.s 			page 26


 1426 07c9 12       		.byte	0x12
 1427 07ca 45       		.byte	0x45
 1428 07cb 19       		.byte	0x19
 1429 07cc 5B060000 		.4byte	0x65b
 1430 07d0 0C       		.byte	0xc
 1431 07d1 00       		.byte	0
 1432 07d2 03       		.uleb128 0x3
 1433 07d3 A2010000 		.4byte	.LASF97
 1434 07d7 12       		.byte	0x12
 1435 07d8 47       		.byte	0x47
 1436 07d9 03       		.byte	0x3
 1437 07da 94070000 		.4byte	0x794
 1438 07de 16       		.uleb128 0x16
 1439 07df 88020000 		.4byte	.LASF98
 1440 07e3 01       		.byte	0x1
 1441 07e4 91       		.byte	0x91
 1442 07e5 0B       		.byte	0xb
 1443 07e6 6C020000 		.4byte	0x26c
 1444 07ea 00000000 		.4byte	.LFB302
 1445 07ee 60000000 		.4byte	.LFE302-.LFB302
 1446 07f2 01       		.uleb128 0x1
 1447 07f3 9C       		.byte	0x9c
 1448 07f4 A5090000 		.4byte	0x9a5
 1449 07f8 17       		.uleb128 0x17
 1450 07f9 6D7000   		.ascii	"mp\000"
 1451 07fc 01       		.byte	0x1
 1452 07fd 91       		.byte	0x91
 1453 07fe 34       		.byte	0x34
 1454 07ff A5090000 		.4byte	0x9a5
 1455 0803 04000000 		.4byte	.LLST8
 1456 0807 00000000 		.4byte	.LVUS8
 1457 080b 18       		.uleb128 0x18
 1458 080c DE010000 		.4byte	.LASF34
 1459 0810 01       		.byte	0x1
 1460 0811 91       		.byte	0x91
 1461 0812 44       		.byte	0x44
 1462 0813 BA050000 		.4byte	0x5ba
 1463 0817 26000000 		.4byte	.LLST9
 1464 081b 22000000 		.4byte	.LVUS9
 1465 081f 18       		.uleb128 0x18
 1466 0820 C2020000 		.4byte	.LASF31
 1467 0824 01       		.byte	0x1
 1468 0825 92       		.byte	0x92
 1469 0826 2D       		.byte	0x2d
 1470 0827 1A010000 		.4byte	0x11a
 1471 082b 48000000 		.4byte	.LLST10
 1472 082f 44000000 		.4byte	.LVUS10
 1473 0833 17       		.uleb128 0x17
 1474 0834 706600   		.ascii	"pf\000"
 1475 0837 01       		.byte	0x1
 1476 0838 92       		.byte	0x92
 1477 0839 3B       		.byte	0x3b
 1478 083a D2050000 		.4byte	0x5d2
 1479 083e 6A000000 		.4byte	.LLST11
 1480 0842 66000000 		.4byte	.LVUS11
 1481 0846 19       		.uleb128 0x19
 1482 0847 61726700 		.ascii	"arg\000"
ARM GAS  /tmp/cc61CcxL.s 			page 27


 1483 084b 01       		.byte	0x1
 1484 084c 92       		.byte	0x92
 1485 084d 45       		.byte	0x45
 1486 084e DE020000 		.4byte	0x2de
 1487 0852 02       		.uleb128 0x2
 1488 0853 91       		.byte	0x91
 1489 0854 00       		.sleb128 0
 1490 0855 1A       		.uleb128 0x1a
 1491 0856 747000   		.ascii	"tp\000"
 1492 0859 01       		.byte	0x1
 1493 085a 93       		.byte	0x93
 1494 085b 0D       		.byte	0xd
 1495 085c 6C020000 		.4byte	0x26c
 1496 0860 8C000000 		.4byte	.LLST12
 1497 0864 88000000 		.4byte	.LVUS12
 1498 0868 1A       		.uleb128 0x1a
 1499 0869 77737000 		.ascii	"wsp\000"
 1500 086d 01       		.byte	0x1
 1501 086e 94       		.byte	0x94
 1502 086f 09       		.byte	0x9
 1503 0870 DE020000 		.4byte	0x2de
 1504 0874 AE000000 		.4byte	.LLST13
 1505 0878 AA000000 		.4byte	.LVUS13
 1506 087c 1B       		.uleb128 0x1b
 1507 087d 30030000 		.4byte	.LASF101
 1508 0881 BB090000 		.4byte	0x9bb
 1509 0885 1C       		.uleb128 0x1c
 1510 0886 746400   		.ascii	"td\000"
 1511 0889 01       		.byte	0x1
 1512 088a 9D       		.byte	0x9d
 1513 088b 17       		.byte	0x17
 1514 088c 36060000 		.4byte	0x636
 1515 0890 02       		.uleb128 0x2
 1516 0891 91       		.byte	0x91
 1517 0892 50       		.sleb128 -48
 1518 0893 1D       		.uleb128 0x1d
 1519 0894 D00B0000 		.4byte	0xbd0
 1520 0898 2E000000 		.4byte	.LBI50
 1521 089c 01       		.byte	.LVU73
 1522 089d 60000000 		.4byte	.Ldebug_ranges0+0x60
 1523 08a1 01       		.byte	0x1
 1524 08a2 AC       		.byte	0xac
 1525 08a3 03       		.byte	0x3
 1526 08a4 ED080000 		.4byte	0x8ed
 1527 08a8 1E       		.uleb128 0x1e
 1528 08a9 E40B0000 		.4byte	0xbe4
 1529 08ad 2E000000 		.4byte	.LBI52
 1530 08b1 03       		.byte	.LVU75
 1531 08b2 78000000 		.4byte	.Ldebug_ranges0+0x78
 1532 08b6 02       		.byte	0x2
 1533 08b7 6301     		.2byte	0x163
 1534 08b9 03       		.byte	0x3
 1535 08ba E3080000 		.4byte	0x8e3
 1536 08be 1F       		.uleb128 0x1f
 1537 08bf EE0B0000 		.4byte	0xbee
 1538 08c3 2E000000 		.4byte	.LBI53
 1539 08c7 05       		.byte	.LVU77
ARM GAS  /tmp/cc61CcxL.s 			page 28


 1540 08c8 2E000000 		.4byte	.LBB53
 1541 08cc 06000000 		.4byte	.LBE53-.LBB53
 1542 08d0 03       		.byte	0x3
 1543 08d1 6202     		.2byte	0x262
 1544 08d3 03       		.byte	0x3
 1545 08d4 20       		.uleb128 0x20
 1546 08d5 FC0B0000 		.4byte	0xbfc
 1547 08d9 CE000000 		.4byte	.LLST14
 1548 08dd CC000000 		.4byte	.LVUS14
 1549 08e1 00       		.byte	0
 1550 08e2 00       		.byte	0
 1551 08e3 21       		.uleb128 0x21
 1552 08e4 38000000 		.4byte	.LVL15
 1553 08e8 0A0C0000 		.4byte	0xc0a
 1554 08ec 00       		.byte	0
 1555 08ed 1D       		.uleb128 0x1d
 1556 08ee A30B0000 		.4byte	0xba3
 1557 08f2 4E000000 		.4byte	.LBI58
 1558 08f6 01       		.byte	.LVU93
 1559 08f7 90000000 		.4byte	.Ldebug_ranges0+0x90
 1560 08fb 01       		.byte	0x1
 1561 08fc B1       		.byte	0xb1
 1562 08fd 03       		.byte	0x3
 1563 08fe 4D090000 		.4byte	0x94d
 1564 0902 22       		.uleb128 0x22
 1565 0903 90000000 		.4byte	.Ldebug_ranges0+0x90
 1566 0907 1E       		.uleb128 0x1e
 1567 0908 DA0B0000 		.4byte	0xbda
 1568 090c 52000000 		.4byte	.LBI60
 1569 0910 04       		.byte	.LVU100
 1570 0911 A8000000 		.4byte	.Ldebug_ranges0+0xa8
 1571 0915 02       		.byte	0x2
 1572 0916 7A01     		.2byte	0x17a
 1573 0918 03       		.byte	0x3
 1574 0919 42090000 		.4byte	0x942
 1575 091d 1F       		.uleb128 0x1f
 1576 091e EE0B0000 		.4byte	0xbee
 1577 0922 52000000 		.4byte	.LBI61
 1578 0926 06       		.byte	.LVU102
 1579 0927 52000000 		.4byte	.LBB61
 1580 092b 06000000 		.4byte	.LBE61-.LBB61
 1581 092f 03       		.byte	0x3
 1582 0930 7502     		.2byte	0x275
 1583 0932 03       		.byte	0x3
 1584 0933 20       		.uleb128 0x20
 1585 0934 FC0B0000 		.4byte	0xbfc
 1586 0938 E5000000 		.4byte	.LLST15
 1587 093c E3000000 		.4byte	.LVUS15
 1588 0940 00       		.byte	0
 1589 0941 00       		.byte	0
 1590 0942 21       		.uleb128 0x21
 1591 0943 52000000 		.4byte	.LVL19
 1592 0947 160C0000 		.4byte	0xc16
 1593 094b 00       		.byte	0
 1594 094c 00       		.byte	0
 1595 094d 23       		.uleb128 0x23
 1596 094e 12000000 		.4byte	.LVL12
ARM GAS  /tmp/cc61CcxL.s 			page 29


 1597 0952 220C0000 		.4byte	0xc22
 1598 0956 61090000 		.4byte	0x961
 1599 095a 24       		.uleb128 0x24
 1600 095b 01       		.uleb128 0x1
 1601 095c 50       		.byte	0x50
 1602 095d 02       		.uleb128 0x2
 1603 095e 75       		.byte	0x75
 1604 095f 00       		.sleb128 0
 1605 0960 00       		.byte	0
 1606 0961 23       		.uleb128 0x23
 1607 0962 2E000000 		.4byte	.LVL13
 1608 0966 2E0C0000 		.4byte	0xc2e
 1609 096a 7B090000 		.4byte	0x97b
 1610 096e 24       		.uleb128 0x24
 1611 096f 01       		.uleb128 0x1
 1612 0970 50       		.byte	0x50
 1613 0971 02       		.uleb128 0x2
 1614 0972 74       		.byte	0x74
 1615 0973 00       		.sleb128 0
 1616 0974 24       		.uleb128 0x24
 1617 0975 01       		.uleb128 0x1
 1618 0976 52       		.byte	0x52
 1619 0977 02       		.uleb128 0x2
 1620 0978 08       		.byte	0x8
 1621 0979 55       		.byte	0x55
 1622 097a 00       		.byte	0
 1623 097b 23       		.uleb128 0x23
 1624 097c 3E000000 		.4byte	.LVL16
 1625 0980 3A0C0000 		.4byte	0xc3a
 1626 0984 8F090000 		.4byte	0x98f
 1627 0988 24       		.uleb128 0x24
 1628 0989 01       		.uleb128 0x1
 1629 098a 50       		.byte	0x50
 1630 098b 02       		.uleb128 0x2
 1631 098c 7D       		.byte	0x7d
 1632 098d 00       		.sleb128 0
 1633 098e 00       		.byte	0
 1634 098f 25       		.uleb128 0x25
 1635 0990 4E000000 		.4byte	.LVL18
 1636 0994 460C0000 		.4byte	0xc46
 1637 0998 24       		.uleb128 0x24
 1638 0999 01       		.uleb128 0x1
 1639 099a 50       		.byte	0x50
 1640 099b 02       		.uleb128 0x2
 1641 099c 74       		.byte	0x74
 1642 099d 00       		.sleb128 0
 1643 099e 24       		.uleb128 0x24
 1644 099f 01       		.uleb128 0x1
 1645 09a0 51       		.byte	0x51
 1646 09a1 01       		.uleb128 0x1
 1647 09a2 30       		.byte	0x30
 1648 09a3 00       		.byte	0
 1649 09a4 00       		.byte	0
 1650 09a5 0A       		.uleb128 0xa
 1651 09a6 04       		.byte	0x4
 1652 09a7 D2070000 		.4byte	0x7d2
 1653 09ab 26       		.uleb128 0x26
ARM GAS  /tmp/cc61CcxL.s 			page 30


 1654 09ac C7050000 		.4byte	0x5c7
 1655 09b0 BB090000 		.4byte	0x9bb
 1656 09b4 27       		.uleb128 0x27
 1657 09b5 38000000 		.4byte	0x38
 1658 09b9 19       		.byte	0x19
 1659 09ba 00       		.byte	0
 1660 09bb 13       		.uleb128 0x13
 1661 09bc AB090000 		.4byte	0x9ab
 1662 09c0 16       		.uleb128 0x16
 1663 09c1 28010000 		.4byte	.LASF99
 1664 09c5 01       		.byte	0x1
 1665 09c6 52       		.byte	0x52
 1666 09c7 0B       		.byte	0xb
 1667 09c8 6C020000 		.4byte	0x26c
 1668 09cc 00000000 		.4byte	.LFB301
 1669 09d0 5A000000 		.4byte	.LFE301-.LFB301
 1670 09d4 01       		.uleb128 0x1
 1671 09d5 9C       		.byte	0x9c
 1672 09d6 A30B0000 		.4byte	0xba3
 1673 09da 18       		.uleb128 0x18
 1674 09db B8000000 		.4byte	.LASF100
 1675 09df 01       		.byte	0x1
 1676 09e0 52       		.byte	0x52
 1677 09e1 2E       		.byte	0x2e
 1678 09e2 6D070000 		.4byte	0x76d
 1679 09e6 FD000000 		.4byte	.LLST0
 1680 09ea F9000000 		.4byte	.LVUS0
 1681 09ee 18       		.uleb128 0x18
 1682 09ef BC010000 		.4byte	.LASF93
 1683 09f3 01       		.byte	0x1
 1684 09f4 52       		.byte	0x52
 1685 09f5 3C       		.byte	0x3c
 1686 09f6 2C000000 		.4byte	0x2c
 1687 09fa 22010000 		.4byte	.LLST1
 1688 09fe 1E010000 		.4byte	.LVUS1
 1689 0a02 18       		.uleb128 0x18
 1690 0a03 DE010000 		.4byte	.LASF34
 1691 0a07 01       		.byte	0x1
 1692 0a08 53       		.byte	0x53
 1693 0a09 2B       		.byte	0x2b
 1694 0a0a BA050000 		.4byte	0x5ba
 1695 0a0e 44010000 		.4byte	.LLST2
 1696 0a12 40010000 		.4byte	.LVUS2
 1697 0a16 18       		.uleb128 0x18
 1698 0a17 C2020000 		.4byte	.LASF31
 1699 0a1b 01       		.byte	0x1
 1700 0a1c 53       		.byte	0x53
 1701 0a1d 39       		.byte	0x39
 1702 0a1e 1A010000 		.4byte	0x11a
 1703 0a22 66010000 		.4byte	.LLST3
 1704 0a26 62010000 		.4byte	.LVUS3
 1705 0a2a 19       		.uleb128 0x19
 1706 0a2b 706600   		.ascii	"pf\000"
 1707 0a2e 01       		.byte	0x1
 1708 0a2f 54       		.byte	0x54
 1709 0a30 27       		.byte	0x27
 1710 0a31 D2050000 		.4byte	0x5d2
ARM GAS  /tmp/cc61CcxL.s 			page 31


 1711 0a35 02       		.uleb128 0x2
 1712 0a36 91       		.byte	0x91
 1713 0a37 00       		.sleb128 0
 1714 0a38 19       		.uleb128 0x19
 1715 0a39 61726700 		.ascii	"arg\000"
 1716 0a3d 01       		.byte	0x1
 1717 0a3e 54       		.byte	0x54
 1718 0a3f 31       		.byte	0x31
 1719 0a40 DE020000 		.4byte	0x2de
 1720 0a44 02       		.uleb128 0x2
 1721 0a45 91       		.byte	0x91
 1722 0a46 04       		.sleb128 4
 1723 0a47 1A       		.uleb128 0x1a
 1724 0a48 747000   		.ascii	"tp\000"
 1725 0a4b 01       		.byte	0x1
 1726 0a4c 55       		.byte	0x55
 1727 0a4d 0D       		.byte	0xd
 1728 0a4e 6C020000 		.4byte	0x26c
 1729 0a52 88010000 		.4byte	.LLST4
 1730 0a56 84010000 		.4byte	.LVUS4
 1731 0a5a 1A       		.uleb128 0x1a
 1732 0a5b 77737000 		.ascii	"wsp\000"
 1733 0a5f 01       		.byte	0x1
 1734 0a60 56       		.byte	0x56
 1735 0a61 09       		.byte	0x9
 1736 0a62 DE020000 		.4byte	0x2de
 1737 0a66 AA010000 		.4byte	.LLST5
 1738 0a6a A6010000 		.4byte	.LVUS5
 1739 0a6e 1C       		.uleb128 0x1c
 1740 0a6f 746400   		.ascii	"td\000"
 1741 0a72 01       		.byte	0x1
 1742 0a73 5D       		.byte	0x5d
 1743 0a74 17       		.byte	0x17
 1744 0a75 36060000 		.4byte	0x636
 1745 0a79 02       		.uleb128 0x2
 1746 0a7a 91       		.byte	0x91
 1747 0a7b 50       		.sleb128 -48
 1748 0a7c 1D       		.uleb128 0x1d
 1749 0a7d D00B0000 		.4byte	0xbd0
 1750 0a81 2C000000 		.4byte	.LBI24
 1751 0a85 01       		.byte	.LVU19
 1752 0a86 00000000 		.4byte	.Ldebug_ranges0+0
 1753 0a8a 01       		.byte	0x1
 1754 0a8b 6C       		.byte	0x6c
 1755 0a8c 03       		.byte	0x3
 1756 0a8d D60A0000 		.4byte	0xad6
 1757 0a91 1E       		.uleb128 0x1e
 1758 0a92 E40B0000 		.4byte	0xbe4
 1759 0a96 2C000000 		.4byte	.LBI26
 1760 0a9a 03       		.byte	.LVU21
 1761 0a9b 18000000 		.4byte	.Ldebug_ranges0+0x18
 1762 0a9f 02       		.byte	0x2
 1763 0aa0 6301     		.2byte	0x163
 1764 0aa2 03       		.byte	0x3
 1765 0aa3 CC0A0000 		.4byte	0xacc
 1766 0aa7 1F       		.uleb128 0x1f
 1767 0aa8 EE0B0000 		.4byte	0xbee
ARM GAS  /tmp/cc61CcxL.s 			page 32


 1768 0aac 2C000000 		.4byte	.LBI27
 1769 0ab0 05       		.byte	.LVU23
 1770 0ab1 2C000000 		.4byte	.LBB27
 1771 0ab5 06000000 		.4byte	.LBE27-.LBB27
 1772 0ab9 03       		.byte	0x3
 1773 0aba 6202     		.2byte	0x262
 1774 0abc 03       		.byte	0x3
 1775 0abd 20       		.uleb128 0x20
 1776 0abe FC0B0000 		.4byte	0xbfc
 1777 0ac2 CA010000 		.4byte	.LLST6
 1778 0ac6 C8010000 		.4byte	.LVUS6
 1779 0aca 00       		.byte	0
 1780 0acb 00       		.byte	0
 1781 0acc 21       		.uleb128 0x21
 1782 0acd 36000000 		.4byte	.LVL5
 1783 0ad1 0A0C0000 		.4byte	0xc0a
 1784 0ad5 00       		.byte	0
 1785 0ad6 1D       		.uleb128 0x1d
 1786 0ad7 A30B0000 		.4byte	0xba3
 1787 0adb 4A000000 		.4byte	.LBI32
 1788 0adf 01       		.byte	.LVU37
 1789 0ae0 30000000 		.4byte	.Ldebug_ranges0+0x30
 1790 0ae4 01       		.byte	0x1
 1791 0ae5 70       		.byte	0x70
 1792 0ae6 03       		.byte	0x3
 1793 0ae7 360B0000 		.4byte	0xb36
 1794 0aeb 22       		.uleb128 0x22
 1795 0aec 30000000 		.4byte	.Ldebug_ranges0+0x30
 1796 0af0 1E       		.uleb128 0x1e
 1797 0af1 DA0B0000 		.4byte	0xbda
 1798 0af5 4E000000 		.4byte	.LBI34
 1799 0af9 04       		.byte	.LVU44
 1800 0afa 48000000 		.4byte	.Ldebug_ranges0+0x48
 1801 0afe 02       		.byte	0x2
 1802 0aff 7A01     		.2byte	0x17a
 1803 0b01 03       		.byte	0x3
 1804 0b02 2B0B0000 		.4byte	0xb2b
 1805 0b06 1F       		.uleb128 0x1f
 1806 0b07 EE0B0000 		.4byte	0xbee
 1807 0b0b 4E000000 		.4byte	.LBI35
 1808 0b0f 06       		.byte	.LVU46
 1809 0b10 4E000000 		.4byte	.LBB35
 1810 0b14 06000000 		.4byte	.LBE35-.LBB35
 1811 0b18 03       		.byte	0x3
 1812 0b19 7502     		.2byte	0x275
 1813 0b1b 03       		.byte	0x3
 1814 0b1c 20       		.uleb128 0x20
 1815 0b1d FC0B0000 		.4byte	0xbfc
 1816 0b21 E1010000 		.4byte	.LLST7
 1817 0b25 DF010000 		.4byte	.LVUS7
 1818 0b29 00       		.byte	0
 1819 0b2a 00       		.byte	0
 1820 0b2b 21       		.uleb128 0x21
 1821 0b2c 4E000000 		.4byte	.LVL9
 1822 0b30 160C0000 		.4byte	0xc16
 1823 0b34 00       		.byte	0
 1824 0b35 00       		.byte	0
ARM GAS  /tmp/cc61CcxL.s 			page 33


 1825 0b36 23       		.uleb128 0x23
 1826 0b37 10000000 		.4byte	.LVL2
 1827 0b3b 530C0000 		.4byte	0xc53
 1828 0b3f 560B0000 		.4byte	0xb56
 1829 0b43 24       		.uleb128 0x24
 1830 0b44 01       		.uleb128 0x1
 1831 0b45 50       		.byte	0x50
 1832 0b46 03       		.uleb128 0x3
 1833 0b47 F3       		.byte	0xf3
 1834 0b48 01       		.uleb128 0x1
 1835 0b49 50       		.byte	0x50
 1836 0b4a 24       		.uleb128 0x24
 1837 0b4b 01       		.uleb128 0x1
 1838 0b4c 51       		.byte	0x51
 1839 0b4d 02       		.uleb128 0x2
 1840 0b4e 76       		.byte	0x76
 1841 0b4f 00       		.sleb128 0
 1842 0b50 24       		.uleb128 0x24
 1843 0b51 01       		.uleb128 0x1
 1844 0b52 52       		.byte	0x52
 1845 0b53 01       		.uleb128 0x1
 1846 0b54 38       		.byte	0x38
 1847 0b55 00       		.byte	0
 1848 0b56 23       		.uleb128 0x23
 1849 0b57 2C000000 		.4byte	.LVL3
 1850 0b5b 2E0C0000 		.4byte	0xc2e
 1851 0b5f 790B0000 		.4byte	0xb79
 1852 0b63 24       		.uleb128 0x24
 1853 0b64 01       		.uleb128 0x1
 1854 0b65 50       		.byte	0x50
 1855 0b66 02       		.uleb128 0x2
 1856 0b67 74       		.byte	0x74
 1857 0b68 00       		.sleb128 0
 1858 0b69 24       		.uleb128 0x24
 1859 0b6a 01       		.uleb128 0x1
 1860 0b6b 51       		.byte	0x51
 1861 0b6c 05       		.uleb128 0x5
 1862 0b6d 74       		.byte	0x74
 1863 0b6e 00       		.sleb128 0
 1864 0b6f 76       		.byte	0x76
 1865 0b70 00       		.sleb128 0
 1866 0b71 22       		.byte	0x22
 1867 0b72 24       		.uleb128 0x24
 1868 0b73 01       		.uleb128 0x1
 1869 0b74 52       		.byte	0x52
 1870 0b75 02       		.uleb128 0x2
 1871 0b76 08       		.byte	0x8
 1872 0b77 55       		.byte	0x55
 1873 0b78 00       		.byte	0
 1874 0b79 23       		.uleb128 0x23
 1875 0b7a 3C000000 		.4byte	.LVL6
 1876 0b7e 3A0C0000 		.4byte	0xc3a
 1877 0b82 8D0B0000 		.4byte	0xb8d
 1878 0b86 24       		.uleb128 0x24
 1879 0b87 01       		.uleb128 0x1
 1880 0b88 50       		.byte	0x50
 1881 0b89 02       		.uleb128 0x2
ARM GAS  /tmp/cc61CcxL.s 			page 34


 1882 0b8a 7D       		.byte	0x7d
 1883 0b8b 00       		.sleb128 0
 1884 0b8c 00       		.byte	0
 1885 0b8d 25       		.uleb128 0x25
 1886 0b8e 4A000000 		.4byte	.LVL8
 1887 0b92 460C0000 		.4byte	0xc46
 1888 0b96 24       		.uleb128 0x24
 1889 0b97 01       		.uleb128 0x1
 1890 0b98 50       		.byte	0x50
 1891 0b99 02       		.uleb128 0x2
 1892 0b9a 74       		.byte	0x74
 1893 0b9b 00       		.sleb128 0
 1894 0b9c 24       		.uleb128 0x24
 1895 0b9d 01       		.uleb128 0x1
 1896 0b9e 51       		.byte	0x51
 1897 0b9f 01       		.uleb128 0x1
 1898 0ba0 30       		.byte	0x30
 1899 0ba1 00       		.byte	0
 1900 0ba2 00       		.byte	0
 1901 0ba3 28       		.uleb128 0x28
 1902 0ba4 DB050000 		.4byte	.LASF105
 1903 0ba8 02       		.byte	0x2
 1904 0ba9 6D01     		.2byte	0x16d
 1905 0bab 14       		.byte	0x14
 1906 0bac 03       		.byte	0x3
 1907 0bad BB0B0000 		.4byte	0xbbb
 1908 0bb1 1B       		.uleb128 0x1b
 1909 0bb2 30030000 		.4byte	.LASF101
 1910 0bb6 CB0B0000 		.4byte	0xbcb
 1911 0bba 00       		.byte	0
 1912 0bbb 26       		.uleb128 0x26
 1913 0bbc C7050000 		.4byte	0x5c7
 1914 0bc0 CB0B0000 		.4byte	0xbcb
 1915 0bc4 27       		.uleb128 0x27
 1916 0bc5 38000000 		.4byte	0x38
 1917 0bc9 0B       		.byte	0xb
 1918 0bca 00       		.byte	0
 1919 0bcb 13       		.uleb128 0x13
 1920 0bcc BB0B0000 		.4byte	0xbbb
 1921 0bd0 29       		.uleb128 0x29
 1922 0bd1 65030000 		.4byte	.LASF102
 1923 0bd5 02       		.byte	0x2
 1924 0bd6 6101     		.2byte	0x161
 1925 0bd8 14       		.byte	0x14
 1926 0bd9 03       		.byte	0x3
 1927 0bda 29       		.uleb128 0x29
 1928 0bdb 04010000 		.4byte	.LASF103
 1929 0bdf 03       		.byte	0x3
 1930 0be0 7202     		.2byte	0x272
 1931 0be2 14       		.byte	0x14
 1932 0be3 03       		.byte	0x3
 1933 0be4 29       		.uleb128 0x29
 1934 0be5 68000000 		.4byte	.LASF104
 1935 0be9 03       		.byte	0x3
 1936 0bea 5A02     		.2byte	0x25a
 1937 0bec 14       		.byte	0x14
 1938 0bed 03       		.byte	0x3
ARM GAS  /tmp/cc61CcxL.s 			page 35


 1939 0bee 28       		.uleb128 0x28
 1940 0bef 2B040000 		.4byte	.LASF106
 1941 0bf3 04       		.byte	0x4
 1942 0bf4 EB01     		.2byte	0x1eb
 1943 0bf6 1B       		.byte	0x1b
 1944 0bf7 03       		.byte	0x3
 1945 0bf8 0A0C0000 		.4byte	0xc0a
 1946 0bfc 2A       		.uleb128 0x2a
 1947 0bfd FC000000 		.4byte	.LASF118
 1948 0c01 04       		.byte	0x4
 1949 0c02 EB01     		.2byte	0x1eb
 1950 0c04 32       		.byte	0x32
 1951 0c05 C6000000 		.4byte	0xc6
 1952 0c09 00       		.byte	0
 1953 0c0a 2B       		.uleb128 0x2b
 1954 0c0b A7050000 		.4byte	.LASF107
 1955 0c0f A7050000 		.4byte	.LASF107
 1956 0c13 13       		.byte	0x13
 1957 0c14 4F       		.byte	0x4f
 1958 0c15 08       		.byte	0x8
 1959 0c16 2B       		.uleb128 0x2b
 1960 0c17 44020000 		.4byte	.LASF108
 1961 0c1b 44020000 		.4byte	.LASF108
 1962 0c1f 13       		.byte	0x13
 1963 0c20 50       		.byte	0x50
 1964 0c21 08       		.byte	0x8
 1965 0c22 2B       		.uleb128 0x2b
 1966 0c23 95050000 		.4byte	.LASF109
 1967 0c27 95050000 		.4byte	.LASF109
 1968 0c2b 12       		.byte	0x12
 1969 0c2c 9A       		.byte	0x9a
 1970 0c2d 09       		.byte	0x9
 1971 0c2e 2B       		.uleb128 0x2b
 1972 0c2f 6F030000 		.4byte	.LASF110
 1973 0c33 6F030000 		.4byte	.LASF110
 1974 0c37 0F       		.byte	0xf
 1975 0c38 E1       		.byte	0xe1
 1976 0c39 08       		.byte	0x8
 1977 0c3a 2B       		.uleb128 0x2b
 1978 0c3b E6000000 		.4byte	.LASF111
 1979 0c3f E6000000 		.4byte	.LASF111
 1980 0c43 0F       		.byte	0xf
 1981 0c44 E3       		.byte	0xe3
 1982 0c45 0D       		.byte	0xd
 1983 0c46 2C       		.uleb128 0x2c
 1984 0c47 62040000 		.4byte	.LASF112
 1985 0c4b 62040000 		.4byte	.LASF112
 1986 0c4f 0A       		.byte	0xa
 1987 0c50 D501     		.2byte	0x1d5
 1988 0c52 08       		.byte	0x8
 1989 0c53 2B       		.uleb128 0x2b
 1990 0c54 39040000 		.4byte	.LASF113
 1991 0c58 39040000 		.4byte	.LASF113
 1992 0c5c 11       		.byte	0x11
 1993 0c5d 7F       		.byte	0x7f
 1994 0c5e 09       		.byte	0x9
 1995 0c5f 00       		.byte	0
ARM GAS  /tmp/cc61CcxL.s 			page 36


 1996              		.section	.debug_abbrev,"",%progbits
 1997              	.Ldebug_abbrev0:
 1998 0000 01       		.uleb128 0x1
 1999 0001 11       		.uleb128 0x11
 2000 0002 01       		.byte	0x1
 2001 0003 25       		.uleb128 0x25
 2002 0004 0E       		.uleb128 0xe
 2003 0005 13       		.uleb128 0x13
 2004 0006 0B       		.uleb128 0xb
 2005 0007 03       		.uleb128 0x3
 2006 0008 0E       		.uleb128 0xe
 2007 0009 1B       		.uleb128 0x1b
 2008 000a 0E       		.uleb128 0xe
 2009 000b 55       		.uleb128 0x55
 2010 000c 17       		.uleb128 0x17
 2011 000d 11       		.uleb128 0x11
 2012 000e 01       		.uleb128 0x1
 2013 000f 10       		.uleb128 0x10
 2014 0010 17       		.uleb128 0x17
 2015 0011 00       		.byte	0
 2016 0012 00       		.byte	0
 2017 0013 02       		.uleb128 0x2
 2018 0014 24       		.uleb128 0x24
 2019 0015 00       		.byte	0
 2020 0016 0B       		.uleb128 0xb
 2021 0017 0B       		.uleb128 0xb
 2022 0018 3E       		.uleb128 0x3e
 2023 0019 0B       		.uleb128 0xb
 2024 001a 03       		.uleb128 0x3
 2025 001b 08       		.uleb128 0x8
 2026 001c 00       		.byte	0
 2027 001d 00       		.byte	0
 2028 001e 03       		.uleb128 0x3
 2029 001f 16       		.uleb128 0x16
 2030 0020 00       		.byte	0
 2031 0021 03       		.uleb128 0x3
 2032 0022 0E       		.uleb128 0xe
 2033 0023 3A       		.uleb128 0x3a
 2034 0024 0B       		.uleb128 0xb
 2035 0025 3B       		.uleb128 0x3b
 2036 0026 0B       		.uleb128 0xb
 2037 0027 39       		.uleb128 0x39
 2038 0028 0B       		.uleb128 0xb
 2039 0029 49       		.uleb128 0x49
 2040 002a 13       		.uleb128 0x13
 2041 002b 00       		.byte	0
 2042 002c 00       		.byte	0
 2043 002d 04       		.uleb128 0x4
 2044 002e 24       		.uleb128 0x24
 2045 002f 00       		.byte	0
 2046 0030 0B       		.uleb128 0xb
 2047 0031 0B       		.uleb128 0xb
 2048 0032 3E       		.uleb128 0x3e
 2049 0033 0B       		.uleb128 0xb
 2050 0034 03       		.uleb128 0x3
 2051 0035 0E       		.uleb128 0xe
 2052 0036 00       		.byte	0
ARM GAS  /tmp/cc61CcxL.s 			page 37


 2053 0037 00       		.byte	0
 2054 0038 05       		.uleb128 0x5
 2055 0039 13       		.uleb128 0x13
 2056 003a 01       		.byte	0x1
 2057 003b 03       		.uleb128 0x3
 2058 003c 0E       		.uleb128 0xe
 2059 003d 0B       		.uleb128 0xb
 2060 003e 0B       		.uleb128 0xb
 2061 003f 3A       		.uleb128 0x3a
 2062 0040 0B       		.uleb128 0xb
 2063 0041 3B       		.uleb128 0x3b
 2064 0042 0B       		.uleb128 0xb
 2065 0043 39       		.uleb128 0x39
 2066 0044 0B       		.uleb128 0xb
 2067 0045 01       		.uleb128 0x1
 2068 0046 13       		.uleb128 0x13
 2069 0047 00       		.byte	0
 2070 0048 00       		.byte	0
 2071 0049 06       		.uleb128 0x6
 2072 004a 0D       		.uleb128 0xd
 2073 004b 00       		.byte	0
 2074 004c 03       		.uleb128 0x3
 2075 004d 0E       		.uleb128 0xe
 2076 004e 3A       		.uleb128 0x3a
 2077 004f 0B       		.uleb128 0xb
 2078 0050 3B       		.uleb128 0x3b
 2079 0051 0B       		.uleb128 0xb
 2080 0052 39       		.uleb128 0x39
 2081 0053 0B       		.uleb128 0xb
 2082 0054 49       		.uleb128 0x49
 2083 0055 13       		.uleb128 0x13
 2084 0056 38       		.uleb128 0x38
 2085 0057 0B       		.uleb128 0xb
 2086 0058 00       		.byte	0
 2087 0059 00       		.byte	0
 2088 005a 07       		.uleb128 0x7
 2089 005b 0D       		.uleb128 0xd
 2090 005c 00       		.byte	0
 2091 005d 03       		.uleb128 0x3
 2092 005e 08       		.uleb128 0x8
 2093 005f 3A       		.uleb128 0x3a
 2094 0060 0B       		.uleb128 0xb
 2095 0061 3B       		.uleb128 0x3b
 2096 0062 0B       		.uleb128 0xb
 2097 0063 39       		.uleb128 0x39
 2098 0064 0B       		.uleb128 0xb
 2099 0065 49       		.uleb128 0x49
 2100 0066 13       		.uleb128 0x13
 2101 0067 38       		.uleb128 0x38
 2102 0068 0B       		.uleb128 0xb
 2103 0069 00       		.byte	0
 2104 006a 00       		.byte	0
 2105 006b 08       		.uleb128 0x8
 2106 006c 0D       		.uleb128 0xd
 2107 006d 00       		.byte	0
 2108 006e 03       		.uleb128 0x3
 2109 006f 08       		.uleb128 0x8
ARM GAS  /tmp/cc61CcxL.s 			page 38


 2110 0070 3A       		.uleb128 0x3a
 2111 0071 0B       		.uleb128 0xb
 2112 0072 3B       		.uleb128 0x3b
 2113 0073 05       		.uleb128 0x5
 2114 0074 39       		.uleb128 0x39
 2115 0075 0B       		.uleb128 0xb
 2116 0076 49       		.uleb128 0x49
 2117 0077 13       		.uleb128 0x13
 2118 0078 38       		.uleb128 0x38
 2119 0079 0B       		.uleb128 0xb
 2120 007a 00       		.byte	0
 2121 007b 00       		.byte	0
 2122 007c 09       		.uleb128 0x9
 2123 007d 0D       		.uleb128 0xd
 2124 007e 00       		.byte	0
 2125 007f 03       		.uleb128 0x3
 2126 0080 0E       		.uleb128 0xe
 2127 0081 3A       		.uleb128 0x3a
 2128 0082 0B       		.uleb128 0xb
 2129 0083 3B       		.uleb128 0x3b
 2130 0084 05       		.uleb128 0x5
 2131 0085 39       		.uleb128 0x39
 2132 0086 0B       		.uleb128 0xb
 2133 0087 49       		.uleb128 0x49
 2134 0088 13       		.uleb128 0x13
 2135 0089 38       		.uleb128 0x38
 2136 008a 0B       		.uleb128 0xb
 2137 008b 00       		.byte	0
 2138 008c 00       		.byte	0
 2139 008d 0A       		.uleb128 0xa
 2140 008e 0F       		.uleb128 0xf
 2141 008f 00       		.byte	0
 2142 0090 0B       		.uleb128 0xb
 2143 0091 0B       		.uleb128 0xb
 2144 0092 49       		.uleb128 0x49
 2145 0093 13       		.uleb128 0x13
 2146 0094 00       		.byte	0
 2147 0095 00       		.byte	0
 2148 0096 0B       		.uleb128 0xb
 2149 0097 15       		.uleb128 0x15
 2150 0098 01       		.byte	0x1
 2151 0099 27       		.uleb128 0x27
 2152 009a 19       		.uleb128 0x19
 2153 009b 01       		.uleb128 0x1
 2154 009c 13       		.uleb128 0x13
 2155 009d 00       		.byte	0
 2156 009e 00       		.byte	0
 2157 009f 0C       		.uleb128 0xc
 2158 00a0 05       		.uleb128 0x5
 2159 00a1 00       		.byte	0
 2160 00a2 49       		.uleb128 0x49
 2161 00a3 13       		.uleb128 0x13
 2162 00a4 00       		.byte	0
 2163 00a5 00       		.byte	0
 2164 00a6 0D       		.uleb128 0xd
 2165 00a7 0F       		.uleb128 0xf
 2166 00a8 00       		.byte	0
ARM GAS  /tmp/cc61CcxL.s 			page 39


 2167 00a9 0B       		.uleb128 0xb
 2168 00aa 0B       		.uleb128 0xb
 2169 00ab 00       		.byte	0
 2170 00ac 00       		.byte	0
 2171 00ad 0E       		.uleb128 0xe
 2172 00ae 13       		.uleb128 0x13
 2173 00af 01       		.byte	0x1
 2174 00b0 03       		.uleb128 0x3
 2175 00b1 0E       		.uleb128 0xe
 2176 00b2 0B       		.uleb128 0xb
 2177 00b3 0B       		.uleb128 0xb
 2178 00b4 3A       		.uleb128 0x3a
 2179 00b5 0B       		.uleb128 0xb
 2180 00b6 3B       		.uleb128 0x3b
 2181 00b7 05       		.uleb128 0x5
 2182 00b8 39       		.uleb128 0x39
 2183 00b9 0B       		.uleb128 0xb
 2184 00ba 01       		.uleb128 0x1
 2185 00bb 13       		.uleb128 0x13
 2186 00bc 00       		.byte	0
 2187 00bd 00       		.byte	0
 2188 00be 0F       		.uleb128 0xf
 2189 00bf 13       		.uleb128 0x13
 2190 00c0 01       		.byte	0x1
 2191 00c1 0B       		.uleb128 0xb
 2192 00c2 0B       		.uleb128 0xb
 2193 00c3 3A       		.uleb128 0x3a
 2194 00c4 0B       		.uleb128 0xb
 2195 00c5 3B       		.uleb128 0x3b
 2196 00c6 0B       		.uleb128 0xb
 2197 00c7 39       		.uleb128 0x39
 2198 00c8 0B       		.uleb128 0xb
 2199 00c9 01       		.uleb128 0x1
 2200 00ca 13       		.uleb128 0x13
 2201 00cb 00       		.byte	0
 2202 00cc 00       		.byte	0
 2203 00cd 10       		.uleb128 0x10
 2204 00ce 17       		.uleb128 0x17
 2205 00cf 01       		.byte	0x1
 2206 00d0 0B       		.uleb128 0xb
 2207 00d1 0B       		.uleb128 0xb
 2208 00d2 3A       		.uleb128 0x3a
 2209 00d3 0B       		.uleb128 0xb
 2210 00d4 3B       		.uleb128 0x3b
 2211 00d5 0B       		.uleb128 0xb
 2212 00d6 39       		.uleb128 0x39
 2213 00d7 0B       		.uleb128 0xb
 2214 00d8 01       		.uleb128 0x1
 2215 00d9 13       		.uleb128 0x13
 2216 00da 00       		.byte	0
 2217 00db 00       		.byte	0
 2218 00dc 11       		.uleb128 0x11
 2219 00dd 0D       		.uleb128 0xd
 2220 00de 00       		.byte	0
 2221 00df 03       		.uleb128 0x3
 2222 00e0 0E       		.uleb128 0xe
 2223 00e1 3A       		.uleb128 0x3a
ARM GAS  /tmp/cc61CcxL.s 			page 40


 2224 00e2 0B       		.uleb128 0xb
 2225 00e3 3B       		.uleb128 0x3b
 2226 00e4 0B       		.uleb128 0xb
 2227 00e5 39       		.uleb128 0x39
 2228 00e6 0B       		.uleb128 0xb
 2229 00e7 49       		.uleb128 0x49
 2230 00e8 13       		.uleb128 0x13
 2231 00e9 00       		.byte	0
 2232 00ea 00       		.byte	0
 2233 00eb 12       		.uleb128 0x12
 2234 00ec 0D       		.uleb128 0xd
 2235 00ed 00       		.byte	0
 2236 00ee 03       		.uleb128 0x3
 2237 00ef 0E       		.uleb128 0xe
 2238 00f0 3A       		.uleb128 0x3a
 2239 00f1 0B       		.uleb128 0xb
 2240 00f2 3B       		.uleb128 0x3b
 2241 00f3 05       		.uleb128 0x5
 2242 00f4 39       		.uleb128 0x39
 2243 00f5 0B       		.uleb128 0xb
 2244 00f6 49       		.uleb128 0x49
 2245 00f7 13       		.uleb128 0x13
 2246 00f8 00       		.byte	0
 2247 00f9 00       		.byte	0
 2248 00fa 13       		.uleb128 0x13
 2249 00fb 26       		.uleb128 0x26
 2250 00fc 00       		.byte	0
 2251 00fd 49       		.uleb128 0x49
 2252 00fe 13       		.uleb128 0x13
 2253 00ff 00       		.byte	0
 2254 0100 00       		.byte	0
 2255 0101 14       		.uleb128 0x14
 2256 0102 15       		.uleb128 0x15
 2257 0103 01       		.byte	0x1
 2258 0104 27       		.uleb128 0x27
 2259 0105 19       		.uleb128 0x19
 2260 0106 49       		.uleb128 0x49
 2261 0107 13       		.uleb128 0x13
 2262 0108 01       		.uleb128 0x1
 2263 0109 13       		.uleb128 0x13
 2264 010a 00       		.byte	0
 2265 010b 00       		.byte	0
 2266 010c 15       		.uleb128 0x15
 2267 010d 17       		.uleb128 0x17
 2268 010e 01       		.byte	0x1
 2269 010f 03       		.uleb128 0x3
 2270 0110 0E       		.uleb128 0xe
 2271 0111 0B       		.uleb128 0xb
 2272 0112 0B       		.uleb128 0xb
 2273 0113 3A       		.uleb128 0x3a
 2274 0114 0B       		.uleb128 0xb
 2275 0115 3B       		.uleb128 0x3b
 2276 0116 0B       		.uleb128 0xb
 2277 0117 39       		.uleb128 0x39
 2278 0118 0B       		.uleb128 0xb
 2279 0119 01       		.uleb128 0x1
 2280 011a 13       		.uleb128 0x13
ARM GAS  /tmp/cc61CcxL.s 			page 41


 2281 011b 00       		.byte	0
 2282 011c 00       		.byte	0
 2283 011d 16       		.uleb128 0x16
 2284 011e 2E       		.uleb128 0x2e
 2285 011f 01       		.byte	0x1
 2286 0120 3F       		.uleb128 0x3f
 2287 0121 19       		.uleb128 0x19
 2288 0122 03       		.uleb128 0x3
 2289 0123 0E       		.uleb128 0xe
 2290 0124 3A       		.uleb128 0x3a
 2291 0125 0B       		.uleb128 0xb
 2292 0126 3B       		.uleb128 0x3b
 2293 0127 0B       		.uleb128 0xb
 2294 0128 39       		.uleb128 0x39
 2295 0129 0B       		.uleb128 0xb
 2296 012a 27       		.uleb128 0x27
 2297 012b 19       		.uleb128 0x19
 2298 012c 49       		.uleb128 0x49
 2299 012d 13       		.uleb128 0x13
 2300 012e 11       		.uleb128 0x11
 2301 012f 01       		.uleb128 0x1
 2302 0130 12       		.uleb128 0x12
 2303 0131 06       		.uleb128 0x6
 2304 0132 40       		.uleb128 0x40
 2305 0133 18       		.uleb128 0x18
 2306 0134 9742     		.uleb128 0x2117
 2307 0136 19       		.uleb128 0x19
 2308 0137 01       		.uleb128 0x1
 2309 0138 13       		.uleb128 0x13
 2310 0139 00       		.byte	0
 2311 013a 00       		.byte	0
 2312 013b 17       		.uleb128 0x17
 2313 013c 05       		.uleb128 0x5
 2314 013d 00       		.byte	0
 2315 013e 03       		.uleb128 0x3
 2316 013f 08       		.uleb128 0x8
 2317 0140 3A       		.uleb128 0x3a
 2318 0141 0B       		.uleb128 0xb
 2319 0142 3B       		.uleb128 0x3b
 2320 0143 0B       		.uleb128 0xb
 2321 0144 39       		.uleb128 0x39
 2322 0145 0B       		.uleb128 0xb
 2323 0146 49       		.uleb128 0x49
 2324 0147 13       		.uleb128 0x13
 2325 0148 02       		.uleb128 0x2
 2326 0149 17       		.uleb128 0x17
 2327 014a B742     		.uleb128 0x2137
 2328 014c 17       		.uleb128 0x17
 2329 014d 00       		.byte	0
 2330 014e 00       		.byte	0
 2331 014f 18       		.uleb128 0x18
 2332 0150 05       		.uleb128 0x5
 2333 0151 00       		.byte	0
 2334 0152 03       		.uleb128 0x3
 2335 0153 0E       		.uleb128 0xe
 2336 0154 3A       		.uleb128 0x3a
 2337 0155 0B       		.uleb128 0xb
ARM GAS  /tmp/cc61CcxL.s 			page 42


 2338 0156 3B       		.uleb128 0x3b
 2339 0157 0B       		.uleb128 0xb
 2340 0158 39       		.uleb128 0x39
 2341 0159 0B       		.uleb128 0xb
 2342 015a 49       		.uleb128 0x49
 2343 015b 13       		.uleb128 0x13
 2344 015c 02       		.uleb128 0x2
 2345 015d 17       		.uleb128 0x17
 2346 015e B742     		.uleb128 0x2137
 2347 0160 17       		.uleb128 0x17
 2348 0161 00       		.byte	0
 2349 0162 00       		.byte	0
 2350 0163 19       		.uleb128 0x19
 2351 0164 05       		.uleb128 0x5
 2352 0165 00       		.byte	0
 2353 0166 03       		.uleb128 0x3
 2354 0167 08       		.uleb128 0x8
 2355 0168 3A       		.uleb128 0x3a
 2356 0169 0B       		.uleb128 0xb
 2357 016a 3B       		.uleb128 0x3b
 2358 016b 0B       		.uleb128 0xb
 2359 016c 39       		.uleb128 0x39
 2360 016d 0B       		.uleb128 0xb
 2361 016e 49       		.uleb128 0x49
 2362 016f 13       		.uleb128 0x13
 2363 0170 02       		.uleb128 0x2
 2364 0171 18       		.uleb128 0x18
 2365 0172 00       		.byte	0
 2366 0173 00       		.byte	0
 2367 0174 1A       		.uleb128 0x1a
 2368 0175 34       		.uleb128 0x34
 2369 0176 00       		.byte	0
 2370 0177 03       		.uleb128 0x3
 2371 0178 08       		.uleb128 0x8
 2372 0179 3A       		.uleb128 0x3a
 2373 017a 0B       		.uleb128 0xb
 2374 017b 3B       		.uleb128 0x3b
 2375 017c 0B       		.uleb128 0xb
 2376 017d 39       		.uleb128 0x39
 2377 017e 0B       		.uleb128 0xb
 2378 017f 49       		.uleb128 0x49
 2379 0180 13       		.uleb128 0x13
 2380 0181 02       		.uleb128 0x2
 2381 0182 17       		.uleb128 0x17
 2382 0183 B742     		.uleb128 0x2137
 2383 0185 17       		.uleb128 0x17
 2384 0186 00       		.byte	0
 2385 0187 00       		.byte	0
 2386 0188 1B       		.uleb128 0x1b
 2387 0189 34       		.uleb128 0x34
 2388 018a 00       		.byte	0
 2389 018b 03       		.uleb128 0x3
 2390 018c 0E       		.uleb128 0xe
 2391 018d 49       		.uleb128 0x49
 2392 018e 13       		.uleb128 0x13
 2393 018f 34       		.uleb128 0x34
 2394 0190 19       		.uleb128 0x19
ARM GAS  /tmp/cc61CcxL.s 			page 43


 2395 0191 00       		.byte	0
 2396 0192 00       		.byte	0
 2397 0193 1C       		.uleb128 0x1c
 2398 0194 34       		.uleb128 0x34
 2399 0195 00       		.byte	0
 2400 0196 03       		.uleb128 0x3
 2401 0197 08       		.uleb128 0x8
 2402 0198 3A       		.uleb128 0x3a
 2403 0199 0B       		.uleb128 0xb
 2404 019a 3B       		.uleb128 0x3b
 2405 019b 0B       		.uleb128 0xb
 2406 019c 39       		.uleb128 0x39
 2407 019d 0B       		.uleb128 0xb
 2408 019e 49       		.uleb128 0x49
 2409 019f 13       		.uleb128 0x13
 2410 01a0 02       		.uleb128 0x2
 2411 01a1 18       		.uleb128 0x18
 2412 01a2 00       		.byte	0
 2413 01a3 00       		.byte	0
 2414 01a4 1D       		.uleb128 0x1d
 2415 01a5 1D       		.uleb128 0x1d
 2416 01a6 01       		.byte	0x1
 2417 01a7 31       		.uleb128 0x31
 2418 01a8 13       		.uleb128 0x13
 2419 01a9 52       		.uleb128 0x52
 2420 01aa 01       		.uleb128 0x1
 2421 01ab B842     		.uleb128 0x2138
 2422 01ad 0B       		.uleb128 0xb
 2423 01ae 55       		.uleb128 0x55
 2424 01af 17       		.uleb128 0x17
 2425 01b0 58       		.uleb128 0x58
 2426 01b1 0B       		.uleb128 0xb
 2427 01b2 59       		.uleb128 0x59
 2428 01b3 0B       		.uleb128 0xb
 2429 01b4 57       		.uleb128 0x57
 2430 01b5 0B       		.uleb128 0xb
 2431 01b6 01       		.uleb128 0x1
 2432 01b7 13       		.uleb128 0x13
 2433 01b8 00       		.byte	0
 2434 01b9 00       		.byte	0
 2435 01ba 1E       		.uleb128 0x1e
 2436 01bb 1D       		.uleb128 0x1d
 2437 01bc 01       		.byte	0x1
 2438 01bd 31       		.uleb128 0x31
 2439 01be 13       		.uleb128 0x13
 2440 01bf 52       		.uleb128 0x52
 2441 01c0 01       		.uleb128 0x1
 2442 01c1 B842     		.uleb128 0x2138
 2443 01c3 0B       		.uleb128 0xb
 2444 01c4 55       		.uleb128 0x55
 2445 01c5 17       		.uleb128 0x17
 2446 01c6 58       		.uleb128 0x58
 2447 01c7 0B       		.uleb128 0xb
 2448 01c8 59       		.uleb128 0x59
 2449 01c9 05       		.uleb128 0x5
 2450 01ca 57       		.uleb128 0x57
 2451 01cb 0B       		.uleb128 0xb
ARM GAS  /tmp/cc61CcxL.s 			page 44


 2452 01cc 01       		.uleb128 0x1
 2453 01cd 13       		.uleb128 0x13
 2454 01ce 00       		.byte	0
 2455 01cf 00       		.byte	0
 2456 01d0 1F       		.uleb128 0x1f
 2457 01d1 1D       		.uleb128 0x1d
 2458 01d2 01       		.byte	0x1
 2459 01d3 31       		.uleb128 0x31
 2460 01d4 13       		.uleb128 0x13
 2461 01d5 52       		.uleb128 0x52
 2462 01d6 01       		.uleb128 0x1
 2463 01d7 B842     		.uleb128 0x2138
 2464 01d9 0B       		.uleb128 0xb
 2465 01da 11       		.uleb128 0x11
 2466 01db 01       		.uleb128 0x1
 2467 01dc 12       		.uleb128 0x12
 2468 01dd 06       		.uleb128 0x6
 2469 01de 58       		.uleb128 0x58
 2470 01df 0B       		.uleb128 0xb
 2471 01e0 59       		.uleb128 0x59
 2472 01e1 05       		.uleb128 0x5
 2473 01e2 57       		.uleb128 0x57
 2474 01e3 0B       		.uleb128 0xb
 2475 01e4 00       		.byte	0
 2476 01e5 00       		.byte	0
 2477 01e6 20       		.uleb128 0x20
 2478 01e7 05       		.uleb128 0x5
 2479 01e8 00       		.byte	0
 2480 01e9 31       		.uleb128 0x31
 2481 01ea 13       		.uleb128 0x13
 2482 01eb 02       		.uleb128 0x2
 2483 01ec 17       		.uleb128 0x17
 2484 01ed B742     		.uleb128 0x2137
 2485 01ef 17       		.uleb128 0x17
 2486 01f0 00       		.byte	0
 2487 01f1 00       		.byte	0
 2488 01f2 21       		.uleb128 0x21
 2489 01f3 898201   		.uleb128 0x4109
 2490 01f6 00       		.byte	0
 2491 01f7 11       		.uleb128 0x11
 2492 01f8 01       		.uleb128 0x1
 2493 01f9 31       		.uleb128 0x31
 2494 01fa 13       		.uleb128 0x13
 2495 01fb 00       		.byte	0
 2496 01fc 00       		.byte	0
 2497 01fd 22       		.uleb128 0x22
 2498 01fe 0B       		.uleb128 0xb
 2499 01ff 01       		.byte	0x1
 2500 0200 55       		.uleb128 0x55
 2501 0201 17       		.uleb128 0x17
 2502 0202 00       		.byte	0
 2503 0203 00       		.byte	0
 2504 0204 23       		.uleb128 0x23
 2505 0205 898201   		.uleb128 0x4109
 2506 0208 01       		.byte	0x1
 2507 0209 11       		.uleb128 0x11
 2508 020a 01       		.uleb128 0x1
ARM GAS  /tmp/cc61CcxL.s 			page 45


 2509 020b 31       		.uleb128 0x31
 2510 020c 13       		.uleb128 0x13
 2511 020d 01       		.uleb128 0x1
 2512 020e 13       		.uleb128 0x13
 2513 020f 00       		.byte	0
 2514 0210 00       		.byte	0
 2515 0211 24       		.uleb128 0x24
 2516 0212 8A8201   		.uleb128 0x410a
 2517 0215 00       		.byte	0
 2518 0216 02       		.uleb128 0x2
 2519 0217 18       		.uleb128 0x18
 2520 0218 9142     		.uleb128 0x2111
 2521 021a 18       		.uleb128 0x18
 2522 021b 00       		.byte	0
 2523 021c 00       		.byte	0
 2524 021d 25       		.uleb128 0x25
 2525 021e 898201   		.uleb128 0x4109
 2526 0221 01       		.byte	0x1
 2527 0222 11       		.uleb128 0x11
 2528 0223 01       		.uleb128 0x1
 2529 0224 31       		.uleb128 0x31
 2530 0225 13       		.uleb128 0x13
 2531 0226 00       		.byte	0
 2532 0227 00       		.byte	0
 2533 0228 26       		.uleb128 0x26
 2534 0229 01       		.uleb128 0x1
 2535 022a 01       		.byte	0x1
 2536 022b 49       		.uleb128 0x49
 2537 022c 13       		.uleb128 0x13
 2538 022d 01       		.uleb128 0x1
 2539 022e 13       		.uleb128 0x13
 2540 022f 00       		.byte	0
 2541 0230 00       		.byte	0
 2542 0231 27       		.uleb128 0x27
 2543 0232 21       		.uleb128 0x21
 2544 0233 00       		.byte	0
 2545 0234 49       		.uleb128 0x49
 2546 0235 13       		.uleb128 0x13
 2547 0236 2F       		.uleb128 0x2f
 2548 0237 0B       		.uleb128 0xb
 2549 0238 00       		.byte	0
 2550 0239 00       		.byte	0
 2551 023a 28       		.uleb128 0x28
 2552 023b 2E       		.uleb128 0x2e
 2553 023c 01       		.byte	0x1
 2554 023d 03       		.uleb128 0x3
 2555 023e 0E       		.uleb128 0xe
 2556 023f 3A       		.uleb128 0x3a
 2557 0240 0B       		.uleb128 0xb
 2558 0241 3B       		.uleb128 0x3b
 2559 0242 05       		.uleb128 0x5
 2560 0243 39       		.uleb128 0x39
 2561 0244 0B       		.uleb128 0xb
 2562 0245 27       		.uleb128 0x27
 2563 0246 19       		.uleb128 0x19
 2564 0247 20       		.uleb128 0x20
 2565 0248 0B       		.uleb128 0xb
ARM GAS  /tmp/cc61CcxL.s 			page 46


 2566 0249 01       		.uleb128 0x1
 2567 024a 13       		.uleb128 0x13
 2568 024b 00       		.byte	0
 2569 024c 00       		.byte	0
 2570 024d 29       		.uleb128 0x29
 2571 024e 2E       		.uleb128 0x2e
 2572 024f 00       		.byte	0
 2573 0250 03       		.uleb128 0x3
 2574 0251 0E       		.uleb128 0xe
 2575 0252 3A       		.uleb128 0x3a
 2576 0253 0B       		.uleb128 0xb
 2577 0254 3B       		.uleb128 0x3b
 2578 0255 05       		.uleb128 0x5
 2579 0256 39       		.uleb128 0x39
 2580 0257 0B       		.uleb128 0xb
 2581 0258 27       		.uleb128 0x27
 2582 0259 19       		.uleb128 0x19
 2583 025a 20       		.uleb128 0x20
 2584 025b 0B       		.uleb128 0xb
 2585 025c 00       		.byte	0
 2586 025d 00       		.byte	0
 2587 025e 2A       		.uleb128 0x2a
 2588 025f 05       		.uleb128 0x5
 2589 0260 00       		.byte	0
 2590 0261 03       		.uleb128 0x3
 2591 0262 0E       		.uleb128 0xe
 2592 0263 3A       		.uleb128 0x3a
 2593 0264 0B       		.uleb128 0xb
 2594 0265 3B       		.uleb128 0x3b
 2595 0266 05       		.uleb128 0x5
 2596 0267 39       		.uleb128 0x39
 2597 0268 0B       		.uleb128 0xb
 2598 0269 49       		.uleb128 0x49
 2599 026a 13       		.uleb128 0x13
 2600 026b 00       		.byte	0
 2601 026c 00       		.byte	0
 2602 026d 2B       		.uleb128 0x2b
 2603 026e 2E       		.uleb128 0x2e
 2604 026f 00       		.byte	0
 2605 0270 3F       		.uleb128 0x3f
 2606 0271 19       		.uleb128 0x19
 2607 0272 3C       		.uleb128 0x3c
 2608 0273 19       		.uleb128 0x19
 2609 0274 6E       		.uleb128 0x6e
 2610 0275 0E       		.uleb128 0xe
 2611 0276 03       		.uleb128 0x3
 2612 0277 0E       		.uleb128 0xe
 2613 0278 3A       		.uleb128 0x3a
 2614 0279 0B       		.uleb128 0xb
 2615 027a 3B       		.uleb128 0x3b
 2616 027b 0B       		.uleb128 0xb
 2617 027c 39       		.uleb128 0x39
 2618 027d 0B       		.uleb128 0xb
 2619 027e 00       		.byte	0
 2620 027f 00       		.byte	0
 2621 0280 2C       		.uleb128 0x2c
 2622 0281 2E       		.uleb128 0x2e
ARM GAS  /tmp/cc61CcxL.s 			page 47


 2623 0282 00       		.byte	0
 2624 0283 3F       		.uleb128 0x3f
 2625 0284 19       		.uleb128 0x19
 2626 0285 3C       		.uleb128 0x3c
 2627 0286 19       		.uleb128 0x19
 2628 0287 6E       		.uleb128 0x6e
 2629 0288 0E       		.uleb128 0xe
 2630 0289 03       		.uleb128 0x3
 2631 028a 0E       		.uleb128 0xe
 2632 028b 3A       		.uleb128 0x3a
 2633 028c 0B       		.uleb128 0xb
 2634 028d 3B       		.uleb128 0x3b
 2635 028e 05       		.uleb128 0x5
 2636 028f 39       		.uleb128 0x39
 2637 0290 0B       		.uleb128 0xb
 2638 0291 00       		.byte	0
 2639 0292 00       		.byte	0
 2640 0293 00       		.byte	0
 2641              		.section	.debug_loc,"",%progbits
 2642              	.Ldebug_loc0:
 2643              	.LVUS8:
 2644 0000 00       		.uleb128 0
 2645 0001 00       		.uleb128 .LVU61
 2646 0002 00       		.uleb128 .LVU61
 2647 0003 00       		.uleb128 0
 2648              	.LLST8:
 2649 0004 00000000 		.4byte	.LVL11
 2650 0008 11000000 		.4byte	.LVL12-1
 2651 000c 0100     		.2byte	0x1
 2652 000e 50       		.byte	0x50
 2653 000f 11000000 		.4byte	.LVL12-1
 2654 0013 60000000 		.4byte	.LFE302
 2655 0017 0100     		.2byte	0x1
 2656 0019 55       		.byte	0x55
 2657 001a 00000000 		.4byte	0
 2658 001e 00000000 		.4byte	0
 2659              	.LVUS9:
 2660 0022 00       		.uleb128 0
 2661 0023 00       		.uleb128 .LVU61
 2662 0024 00       		.uleb128 .LVU61
 2663 0025 00       		.uleb128 0
 2664              	.LLST9:
 2665 0026 00000000 		.4byte	.LVL11
 2666 002a 11000000 		.4byte	.LVL12-1
 2667 002e 0100     		.2byte	0x1
 2668 0030 51       		.byte	0x51
 2669 0031 11000000 		.4byte	.LVL12-1
 2670 0035 60000000 		.4byte	.LFE302
 2671 0039 0100     		.2byte	0x1
 2672 003b 58       		.byte	0x58
 2673 003c 00000000 		.4byte	0
 2674 0040 00000000 		.4byte	0
 2675              	.LVUS10:
 2676 0044 00       		.uleb128 0
 2677 0045 00       		.uleb128 .LVU61
 2678 0046 00       		.uleb128 .LVU61
 2679 0047 00       		.uleb128 0
ARM GAS  /tmp/cc61CcxL.s 			page 48


 2680              	.LLST10:
 2681 0048 00000000 		.4byte	.LVL11
 2682 004c 11000000 		.4byte	.LVL12-1
 2683 0050 0100     		.2byte	0x1
 2684 0052 52       		.byte	0x52
 2685 0053 11000000 		.4byte	.LVL12-1
 2686 0057 60000000 		.4byte	.LFE302
 2687 005b 0100     		.2byte	0x1
 2688 005d 57       		.byte	0x57
 2689 005e 00000000 		.4byte	0
 2690 0062 00000000 		.4byte	0
 2691              	.LVUS11:
 2692 0066 00       		.uleb128 0
 2693 0067 00       		.uleb128 .LVU61
 2694 0068 00       		.uleb128 .LVU61
 2695 0069 00       		.uleb128 0
 2696              	.LLST11:
 2697 006a 00000000 		.4byte	.LVL11
 2698 006e 11000000 		.4byte	.LVL12-1
 2699 0072 0100     		.2byte	0x1
 2700 0074 53       		.byte	0x53
 2701 0075 11000000 		.4byte	.LVL12-1
 2702 0079 60000000 		.4byte	.LFE302
 2703 007d 0100     		.2byte	0x1
 2704 007f 56       		.byte	0x56
 2705 0080 00000000 		.4byte	0
 2706 0084 00000000 		.4byte	0
 2707              	.LVUS12:
 2708 0088 00       		.uleb128 .LVU89
 2709 0089 00       		.uleb128 .LVU92
 2710 008a 00       		.uleb128 .LVU92
 2711 008b 00       		.uleb128 .LVU104
 2712              	.LLST12:
 2713 008c 4A000000 		.4byte	.LVL17
 2714 0090 4D000000 		.4byte	.LVL18-1
 2715 0094 0100     		.2byte	0x1
 2716 0096 50       		.byte	0x50
 2717 0097 4D000000 		.4byte	.LVL18-1
 2718 009b 58000000 		.4byte	.LVL20
 2719 009f 0100     		.2byte	0x1
 2720 00a1 54       		.byte	0x54
 2721 00a2 00000000 		.4byte	0
 2722 00a6 00000000 		.4byte	0
 2723              	.LVUS13:
 2724 00aa 00       		.uleb128 .LVU61
 2725 00ab 00       		.uleb128 .LVU72
 2726 00ac 00       		.uleb128 .LVU72
 2727 00ad 00       		.uleb128 .LVU89
 2728              	.LLST13:
 2729 00ae 12000000 		.4byte	.LVL12
 2730 00b2 2D000000 		.4byte	.LVL13-1
 2731 00b6 0100     		.2byte	0x1
 2732 00b8 50       		.byte	0x50
 2733 00b9 2D000000 		.4byte	.LVL13-1
 2734 00bd 4A000000 		.4byte	.LVL17
 2735 00c1 0100     		.2byte	0x1
 2736 00c3 54       		.byte	0x54
ARM GAS  /tmp/cc61CcxL.s 			page 49


 2737 00c4 00000000 		.4byte	0
 2738 00c8 00000000 		.4byte	0
 2739              	.LVUS14:
 2740 00cc 05       		.uleb128 .LVU77
 2741 00cd 00       		.uleb128 .LVU79
 2742              	.LLST14:
 2743 00ce 2E000000 		.4byte	.LVL13
 2744 00d2 34000000 		.4byte	.LVL14
 2745 00d6 0300     		.2byte	0x3
 2746 00d8 08       		.byte	0x8
 2747 00d9 20       		.byte	0x20
 2748 00da 9F       		.byte	0x9f
 2749 00db 00000000 		.4byte	0
 2750 00df 00000000 		.4byte	0
 2751              	.LVUS15:
 2752 00e3 06       		.uleb128 .LVU102
 2753 00e4 00       		.uleb128 .LVU104
 2754              	.LLST15:
 2755 00e5 52000000 		.4byte	.LVL19
 2756 00e9 58000000 		.4byte	.LVL20
 2757 00ed 0200     		.2byte	0x2
 2758 00ef 30       		.byte	0x30
 2759 00f0 9F       		.byte	0x9f
 2760 00f1 00000000 		.4byte	0
 2761 00f5 00000000 		.4byte	0
 2762              	.LVUS0:
 2763 00f9 00       		.uleb128 0
 2764 00fa 00       		.uleb128 .LVU8
 2765 00fb 00       		.uleb128 .LVU8
 2766 00fc 00       		.uleb128 0
 2767              	.LLST0:
 2768 00fd 00000000 		.4byte	.LVL0
 2769 0101 0F000000 		.4byte	.LVL2-1
 2770 0105 0100     		.2byte	0x1
 2771 0107 50       		.byte	0x50
 2772 0108 0F000000 		.4byte	.LVL2-1
 2773 010c 5A000000 		.4byte	.LFE301
 2774 0110 0400     		.2byte	0x4
 2775 0112 F3       		.byte	0xf3
 2776 0113 01       		.uleb128 0x1
 2777 0114 50       		.byte	0x50
 2778 0115 9F       		.byte	0x9f
 2779 0116 00000000 		.4byte	0
 2780 011a 00000000 		.4byte	0
 2781              	.LVUS1:
 2782 011e 00       		.uleb128 0
 2783 011f 00       		.uleb128 .LVU8
 2784 0120 00       		.uleb128 .LVU8
 2785 0121 00       		.uleb128 0
 2786              	.LLST1:
 2787 0122 00000000 		.4byte	.LVL0
 2788 0126 0F000000 		.4byte	.LVL2-1
 2789 012a 0100     		.2byte	0x1
 2790 012c 51       		.byte	0x51
 2791 012d 0F000000 		.4byte	.LVL2-1
 2792 0131 5A000000 		.4byte	.LFE301
 2793 0135 0100     		.2byte	0x1
ARM GAS  /tmp/cc61CcxL.s 			page 50


 2794 0137 56       		.byte	0x56
 2795 0138 00000000 		.4byte	0
 2796 013c 00000000 		.4byte	0
 2797              	.LVUS2:
 2798 0140 00       		.uleb128 0
 2799 0141 00       		.uleb128 .LVU6
 2800 0142 00       		.uleb128 .LVU6
 2801 0143 00       		.uleb128 0
 2802              	.LLST2:
 2803 0144 00000000 		.4byte	.LVL0
 2804 0148 08000000 		.4byte	.LVL1
 2805 014c 0100     		.2byte	0x1
 2806 014e 52       		.byte	0x52
 2807 014f 08000000 		.4byte	.LVL1
 2808 0153 5A000000 		.4byte	.LFE301
 2809 0157 0100     		.2byte	0x1
 2810 0159 57       		.byte	0x57
 2811 015a 00000000 		.4byte	0
 2812 015e 00000000 		.4byte	0
 2813              	.LVUS3:
 2814 0162 00       		.uleb128 0
 2815 0163 00       		.uleb128 .LVU8
 2816 0164 00       		.uleb128 .LVU8
 2817 0165 00       		.uleb128 0
 2818              	.LLST3:
 2819 0166 00000000 		.4byte	.LVL0
 2820 016a 0F000000 		.4byte	.LVL2-1
 2821 016e 0100     		.2byte	0x1
 2822 0170 53       		.byte	0x53
 2823 0171 0F000000 		.4byte	.LVL2-1
 2824 0175 5A000000 		.4byte	.LFE301
 2825 0179 0100     		.2byte	0x1
 2826 017b 55       		.byte	0x55
 2827 017c 00000000 		.4byte	0
 2828 0180 00000000 		.4byte	0
 2829              	.LVUS4:
 2830 0184 00       		.uleb128 .LVU33
 2831 0185 00       		.uleb128 .LVU36
 2832 0186 00       		.uleb128 .LVU36
 2833 0187 00       		.uleb128 .LVU48
 2834              	.LLST4:
 2835 0188 42000000 		.4byte	.LVL7
 2836 018c 49000000 		.4byte	.LVL8-1
 2837 0190 0100     		.2byte	0x1
 2838 0192 50       		.byte	0x50
 2839 0193 49000000 		.4byte	.LVL8-1
 2840 0197 54000000 		.4byte	.LVL10
 2841 019b 0100     		.2byte	0x1
 2842 019d 54       		.byte	0x54
 2843 019e 00000000 		.4byte	0
 2844 01a2 00000000 		.4byte	0
 2845              	.LVUS5:
 2846 01a6 00       		.uleb128 .LVU8
 2847 01a7 00       		.uleb128 .LVU18
 2848 01a8 00       		.uleb128 .LVU18
 2849 01a9 00       		.uleb128 .LVU33
 2850              	.LLST5:
ARM GAS  /tmp/cc61CcxL.s 			page 51


 2851 01aa 10000000 		.4byte	.LVL2
 2852 01ae 2B000000 		.4byte	.LVL3-1
 2853 01b2 0100     		.2byte	0x1
 2854 01b4 50       		.byte	0x50
 2855 01b5 2B000000 		.4byte	.LVL3-1
 2856 01b9 42000000 		.4byte	.LVL7
 2857 01bd 0100     		.2byte	0x1
 2858 01bf 54       		.byte	0x54
 2859 01c0 00000000 		.4byte	0
 2860 01c4 00000000 		.4byte	0
 2861              	.LVUS6:
 2862 01c8 05       		.uleb128 .LVU23
 2863 01c9 00       		.uleb128 .LVU25
 2864              	.LLST6:
 2865 01ca 2C000000 		.4byte	.LVL3
 2866 01ce 32000000 		.4byte	.LVL4
 2867 01d2 0300     		.2byte	0x3
 2868 01d4 08       		.byte	0x8
 2869 01d5 20       		.byte	0x20
 2870 01d6 9F       		.byte	0x9f
 2871 01d7 00000000 		.4byte	0
 2872 01db 00000000 		.4byte	0
 2873              	.LVUS7:
 2874 01df 06       		.uleb128 .LVU46
 2875 01e0 00       		.uleb128 .LVU48
 2876              	.LLST7:
 2877 01e1 4E000000 		.4byte	.LVL9
 2878 01e5 54000000 		.4byte	.LVL10
 2879 01e9 0200     		.2byte	0x2
 2880 01eb 30       		.byte	0x30
 2881 01ec 9F       		.byte	0x9f
 2882 01ed 00000000 		.4byte	0
 2883 01f1 00000000 		.4byte	0
 2884              		.section	.debug_aranges,"",%progbits
 2885 0000 24000000 		.4byte	0x24
 2886 0004 0200     		.2byte	0x2
 2887 0006 00000000 		.4byte	.Ldebug_info0
 2888 000a 04       		.byte	0x4
 2889 000b 00       		.byte	0
 2890 000c 0000     		.2byte	0
 2891 000e 0000     		.2byte	0
 2892 0010 00000000 		.4byte	.LFB301
 2893 0014 5A000000 		.4byte	.LFE301-.LFB301
 2894 0018 00000000 		.4byte	.LFB302
 2895 001c 60000000 		.4byte	.LFE302-.LFB302
 2896 0020 00000000 		.4byte	0
 2897 0024 00000000 		.4byte	0
 2898              		.section	.debug_ranges,"",%progbits
 2899              	.Ldebug_ranges0:
 2900 0000 2C000000 		.4byte	.LBB24
 2901 0004 2C000000 		.4byte	.LBE24
 2902 0008 2C000000 		.4byte	.LBB31
 2903 000c 36000000 		.4byte	.LBE31
 2904 0010 00000000 		.4byte	0
 2905 0014 00000000 		.4byte	0
 2906 0018 2C000000 		.4byte	.LBB26
 2907 001c 2C000000 		.4byte	.LBE26
ARM GAS  /tmp/cc61CcxL.s 			page 52


 2908 0020 2C000000 		.4byte	.LBB29
 2909 0024 32000000 		.4byte	.LBE29
 2910 0028 00000000 		.4byte	0
 2911 002c 00000000 		.4byte	0
 2912 0030 4A000000 		.4byte	.LBB32
 2913 0034 4E000000 		.4byte	.LBE32
 2914 0038 4E000000 		.4byte	.LBB39
 2915 003c 54000000 		.4byte	.LBE39
 2916 0040 00000000 		.4byte	0
 2917 0044 00000000 		.4byte	0
 2918 0048 4E000000 		.4byte	.LBB34
 2919 004c 4E000000 		.4byte	.LBE34
 2920 0050 4E000000 		.4byte	.LBB37
 2921 0054 54000000 		.4byte	.LBE37
 2922 0058 00000000 		.4byte	0
 2923 005c 00000000 		.4byte	0
 2924 0060 2E000000 		.4byte	.LBB50
 2925 0064 2E000000 		.4byte	.LBE50
 2926 0068 2E000000 		.4byte	.LBB57
 2927 006c 38000000 		.4byte	.LBE57
 2928 0070 00000000 		.4byte	0
 2929 0074 00000000 		.4byte	0
 2930 0078 2E000000 		.4byte	.LBB52
 2931 007c 2E000000 		.4byte	.LBE52
 2932 0080 2E000000 		.4byte	.LBB55
 2933 0084 34000000 		.4byte	.LBE55
 2934 0088 00000000 		.4byte	0
 2935 008c 00000000 		.4byte	0
 2936 0090 4E000000 		.4byte	.LBB58
 2937 0094 52000000 		.4byte	.LBE58
 2938 0098 52000000 		.4byte	.LBB65
 2939 009c 58000000 		.4byte	.LBE65
 2940 00a0 00000000 		.4byte	0
 2941 00a4 00000000 		.4byte	0
 2942 00a8 52000000 		.4byte	.LBB60
 2943 00ac 52000000 		.4byte	.LBE60
 2944 00b0 52000000 		.4byte	.LBB63
 2945 00b4 58000000 		.4byte	.LBE63
 2946 00b8 00000000 		.4byte	0
 2947 00bc 00000000 		.4byte	0
 2948 00c0 00000000 		.4byte	.LFB301
 2949 00c4 5A000000 		.4byte	.LFE301
 2950 00c8 00000000 		.4byte	.LFB302
 2951 00cc 60000000 		.4byte	.LFE302
 2952 00d0 00000000 		.4byte	0
 2953 00d4 00000000 		.4byte	0
 2954              		.section	.debug_line,"",%progbits
 2955              	.Ldebug_line0:
 2956 0000 A7040000 		.section	.debug_str,"MS",%progbits,1
 2956      0300FC02 
 2956      00000201 
 2956      FB0E0D00 
 2956      01010101 
 2957              	.LASF75:
 2958 0000 7466756E 		.ascii	"tfunc_t\000"
 2958      635F7400 
 2959              	.LASF4:
ARM GAS  /tmp/cc61CcxL.s 			page 53


 2960 0008 73697A65 		.ascii	"size_t\000"
 2960      5F7400
 2961              	.LASF50:
 2962 000f 6E657874 		.ascii	"next\000"
 2962      00
 2963              	.LASF63:
 2964 0014 7264796D 		.ascii	"rdymsg\000"
 2964      736700
 2965              	.LASF78:
 2966 001b 66756E63 		.ascii	"funcp\000"
 2966      7000
 2967              	.LASF18:
 2968 0021 75696E74 		.ascii	"uint64_t\000"
 2968      36345F74 
 2968      00
 2969              	.LASF5:
 2970 002a 5F5F7569 		.ascii	"__uint8_t\000"
 2970      6E74385F 
 2970      7400
 2971              	.LASF53:
 2972 0034 70726576 		.ascii	"prev\000"
 2972      00
 2973              	.LASF57:
 2974 0039 706F7274 		.ascii	"port_intctx\000"
 2974      5F696E74 
 2974      63747800 
 2975              	.LASF91:
 2976 0045 70616765 		.ascii	"pages\000"
 2976      7300
 2977              	.LASF86:
 2978 004b 70726F76 		.ascii	"provider\000"
 2978      69646572 
 2978      00
 2979              	.LASF79:
 2980 0054 74687265 		.ascii	"thread_descriptor_t\000"
 2980      61645F64 
 2980      65736372 
 2980      6970746F 
 2980      725F7400 
 2981              	.LASF104:
 2982 0068 706F7274 		.ascii	"port_lock\000"
 2982      5F6C6F63 
 2982      6B00
 2983              	.LASF59:
 2984 0072 776F7273 		.ascii	"worst\000"
 2984      7400
 2985              	.LASF62:
 2986 0078 74696D65 		.ascii	"time_measurement_t\000"
 2986      5F6D6561 
 2986      73757265 
 2986      6D656E74 
 2986      5F7400
 2987              	.LASF77:
 2988 008b 77656E64 		.ascii	"wend\000"
 2988      00
 2989              	.LASF14:
 2990 0090 6C6F6E67 		.ascii	"long long unsigned int\000"
ARM GAS  /tmp/cc61CcxL.s 			page 54


 2990      206C6F6E 
 2990      6720756E 
 2990      7369676E 
 2990      65642069 
 2991              	.LASF64:
 2992 00a7 65786974 		.ascii	"exitcode\000"
 2992      636F6465 
 2992      00
 2993              	.LASF67:
 2994 00b0 73656E74 		.ascii	"sentmsg\000"
 2994      6D736700 
 2995              	.LASF100:
 2996 00b8 68656170 		.ascii	"heapp\000"
 2996      7000
 2997              	.LASF89:
 2998 00be 66726565 		.ascii	"free\000"
 2998      00
 2999              	.LASF20:
 3000 00c3 72747469 		.ascii	"rttime_t\000"
 3000      6D655F74 
 3000      00
 3001              	.LASF1:
 3002 00cc 6C6F6E67 		.ascii	"long long int\000"
 3002      206C6F6E 
 3002      6720696E 
 3002      7400
 3003              	.LASF3:
 3004 00da 7369676E 		.ascii	"signed char\000"
 3004      65642063 
 3004      68617200 
 3005              	.LASF111:
 3006 00e6 63685468 		.ascii	"chThdCreateSuspendedI\000"
 3006      64437265 
 3006      61746553 
 3006      75737065 
 3006      6E646564 
 3007              	.LASF118:
 3008 00fc 62617365 		.ascii	"basePri\000"
 3008      50726900 
 3009              	.LASF103:
 3010 0104 706F7274 		.ascii	"port_unlock\000"
 3010      5F756E6C 
 3010      6F636B00 
 3011              	.LASF40:
 3012 0110 6D736771 		.ascii	"msgqueue\000"
 3012      75657565 
 3012      00
 3013              	.LASF36:
 3014 0119 73746174 		.ascii	"state\000"
 3014      6500
 3015              	.LASF10:
 3016 011f 6C6F6E67 		.ascii	"long int\000"
 3016      20696E74 
 3016      00
 3017              	.LASF99:
 3018 0128 63685468 		.ascii	"chThdCreateFromHeap\000"
 3018      64437265 
ARM GAS  /tmp/cc61CcxL.s 			page 55


 3018      61746546 
 3018      726F6D48 
 3018      65617000 
 3019              	.LASF22:
 3020 013c 74737461 		.ascii	"tstate_t\000"
 3020      74655F74 
 3020      00
 3021              	.LASF45:
 3022 0145 73746174 		.ascii	"stats\000"
 3022      7300
 3023              	.LASF11:
 3024 014b 5F5F7569 		.ascii	"__uint32_t\000"
 3024      6E743332 
 3024      5F7400
 3025              	.LASF54:
 3026 0156 72656761 		.ascii	"regarm_t\000"
 3026      726D5F74 
 3026      00
 3027              	.LASF39:
 3028 015f 77616974 		.ascii	"waiting\000"
 3028      696E6700 
 3029              	.LASF80:
 3030 0167 6D757465 		.ascii	"mutex_t\000"
 3030      785F7400 
 3031              	.LASF96:
 3032 016f 616C6967 		.ascii	"align\000"
 3032      6E00
 3033              	.LASF56:
 3034 0175 706F7274 		.ascii	"port_context\000"
 3034      5F636F6E 
 3034      74657874 
 3034      00
 3035              	.LASF27:
 3036 0182 636E745F 		.ascii	"cnt_t\000"
 3036      7400
 3037              	.LASF0:
 3038 0188 756E7369 		.ascii	"unsigned int\000"
 3038      676E6564 
 3038      20696E74 
 3038      00
 3039              	.LASF68:
 3040 0195 77747365 		.ascii	"wtsemp\000"
 3040      6D7000
 3041              	.LASF66:
 3042 019c 77747472 		.ascii	"wttrp\000"
 3042      7000
 3043              	.LASF97:
 3044 01a2 6D656D6F 		.ascii	"memory_pool_t\000"
 3044      72795F70 
 3044      6F6F6C5F 
 3044      7400
 3045              	.LASF30:
 3046 01b0 71756575 		.ascii	"queue\000"
 3046      6500
 3047              	.LASF44:
 3048 01b6 6D706F6F 		.ascii	"mpool\000"
 3048      6C00
ARM GAS  /tmp/cc61CcxL.s 			page 56


 3049              	.LASF93:
 3050 01bc 73697A65 		.ascii	"size\000"
 3050      00
 3051              	.LASF8:
 3052 01c1 73686F72 		.ascii	"short unsigned int\000"
 3052      7420756E 
 3052      7369676E 
 3052      65642069 
 3052      6E7400
 3053              	.LASF48:
 3054 01d4 63685F74 		.ascii	"ch_thread\000"
 3054      68726561 
 3054      6400
 3055              	.LASF34:
 3056 01de 6E616D65 		.ascii	"name\000"
 3056      00
 3057              	.LASF25:
 3058 01e3 6D73675F 		.ascii	"msg_t\000"
 3058      7400
 3059              	.LASF60:
 3060 01e9 6C617374 		.ascii	"last\000"
 3060      00
 3061              	.LASF28:
 3062 01ee 75636E74 		.ascii	"ucnt_t\000"
 3062      5F7400
 3063              	.LASF41:
 3064 01f5 6570656E 		.ascii	"epending\000"
 3064      64696E67 
 3064      00
 3065              	.LASF84:
 3066 01fe 6D656D6F 		.ascii	"memory_heap_t\000"
 3066      72795F68 
 3066      6561705F 
 3066      7400
 3067              	.LASF21:
 3068 020c 746D6F64 		.ascii	"tmode_t\000"
 3068      655F7400 
 3069              	.LASF26:
 3070 0214 6576656E 		.ascii	"eventmask_t\000"
 3070      746D6173 
 3070      6B5F7400 
 3071              	.LASF9:
 3072 0220 5F5F696E 		.ascii	"__int32_t\000"
 3072      7433325F 
 3072      7400
 3073              	.LASF55:
 3074 022a 73746B61 		.ascii	"stkalign_t\000"
 3074      6C69676E 
 3074      5F7400
 3075              	.LASF32:
 3076 0235 6E657765 		.ascii	"newer\000"
 3076      7200
 3077              	.LASF43:
 3078 023b 7265616C 		.ascii	"realprio\000"
 3078      7072696F 
 3078      00
 3079              	.LASF108:
ARM GAS  /tmp/cc61CcxL.s 			page 57


 3080 0244 5F737461 		.ascii	"_stats_stop_measure_crit_thd\000"
 3080      74735F73 
 3080      746F705F 
 3080      6D656173 
 3080      7572655F 
 3081              	.LASF19:
 3082 0261 7274636E 		.ascii	"rtcnt_t\000"
 3082      745F7400 
 3083              	.LASF46:
 3084 0269 74687265 		.ascii	"thread_reference_t\000"
 3084      61645F72 
 3084      65666572 
 3084      656E6365 
 3084      5F7400
 3085              	.LASF2:
 3086 027c 6C6F6E67 		.ascii	"long double\000"
 3086      20646F75 
 3086      626C6500 
 3087              	.LASF98:
 3088 0288 63685468 		.ascii	"chThdCreateFromMemoryPool\000"
 3088      64437265 
 3088      61746546 
 3088      726F6D4D 
 3088      656D6F72 
 3089              	.LASF76:
 3090 02a2 77626173 		.ascii	"wbase\000"
 3090      6500
 3091              	.LASF95:
 3092 02a8 6F626A65 		.ascii	"object_size\000"
 3092      63745F73 
 3092      697A6500 
 3093              	.LASF83:
 3094 02b4 6D656D67 		.ascii	"memgetfunc2_t\000"
 3094      65746675 
 3094      6E63325F 
 3094      7400
 3095              	.LASF31:
 3096 02c2 7072696F 		.ascii	"prio\000"
 3096      00
 3097              	.LASF13:
 3098 02c7 5F5F7569 		.ascii	"__uint64_t\000"
 3098      6E743634 
 3098      5F7400
 3099              	.LASF61:
 3100 02d2 63756D75 		.ascii	"cumulative\000"
 3100      6C617469 
 3100      766500
 3101              	.LASF90:
 3102 02dd 75736564 		.ascii	"used\000"
 3102      00
 3103              	.LASF23:
 3104 02e2 74726566 		.ascii	"trefs_t\000"
 3104      735F7400 
 3105              	.LASF38:
 3106 02ea 72656673 		.ascii	"refs\000"
 3106      00
 3107              	.LASF24:
ARM GAS  /tmp/cc61CcxL.s 			page 58


 3108 02ef 74707269 		.ascii	"tprio_t\000"
 3108      6F5F7400 
 3109              	.LASF81:
 3110 02f7 5F426F6F 		.ascii	"_Bool\000"
 3110      6C00
 3111              	.LASF16:
 3112 02fd 696E7433 		.ascii	"int32_t\000"
 3112      325F7400 
 3113              	.LASF6:
 3114 0305 756E7369 		.ascii	"unsigned char\000"
 3114      676E6564 
 3114      20636861 
 3114      7200
 3115              	.LASF117:
 3116 0313 68656170 		.ascii	"heap_header\000"
 3116      5F686561 
 3116      64657200 
 3117              	.LASF7:
 3118 031f 73686F72 		.ascii	"short int\000"
 3118      7420696E 
 3118      7400
 3119              	.LASF70:
 3120 0329 65776D61 		.ascii	"ewmask\000"
 3120      736B00
 3121              	.LASF101:
 3122 0330 5F5F6675 		.ascii	"__func__\000"
 3122      6E635F5F 
 3122      00
 3123              	.LASF115:
 3124 0339 2E2E2F2E 		.ascii	"../../modules/ChibiOS/os/rt/src/chdynamic.c\000"
 3124      2E2F6D6F 
 3124      64756C65 
 3124      732F4368 
 3124      6962694F 
 3125              	.LASF102:
 3126 0365 63685379 		.ascii	"chSysLock\000"
 3126      734C6F63 
 3126      6B00
 3127              	.LASF110:
 3128 036f 5F746872 		.ascii	"_thread_memfill\000"
 3128      6561645F 
 3128      6D656D66 
 3128      696C6C00 
 3129              	.LASF35:
 3130 037f 77616261 		.ascii	"wabase\000"
 3130      736500
 3131              	.LASF71:
 3132 0386 63685F73 		.ascii	"ch_semaphore\000"
 3132      656D6170 
 3132      686F7265 
 3132      00
 3133              	.LASF17:
 3134 0393 75696E74 		.ascii	"uint32_t\000"
 3134      33325F74 
 3134      00
 3135              	.LASF69:
 3136 039c 77746D74 		.ascii	"wtmtxp\000"
ARM GAS  /tmp/cc61CcxL.s 			page 59


 3136      787000
 3137              	.LASF49:
 3138 03a3 63685F74 		.ascii	"ch_threads_list\000"
 3138      68726561 
 3138      64735F6C 
 3138      69737400 
 3139              	.LASF73:
 3140 03b3 6F776E65 		.ascii	"owner\000"
 3140      7200
 3141              	.LASF92:
 3142 03b9 68656170 		.ascii	"heap\000"
 3142      00
 3143              	.LASF12:
 3144 03be 6C6F6E67 		.ascii	"long unsigned int\000"
 3144      20756E73 
 3144      69676E65 
 3144      6420696E 
 3144      7400
 3145              	.LASF116:
 3146 03d0 2F686F6D 		.ascii	"/home/mahathi/mathur407_payload2/4.0.7/build/CUAVv5"
 3146      652F6D61 
 3146      68617468 
 3146      692F6D61 
 3146      74687572 
 3147 0403 00       		.ascii	"\000"
 3148              	.LASF74:
 3149 0404 63686172 		.ascii	"char\000"
 3149      00
 3150              	.LASF33:
 3151 0409 6F6C6465 		.ascii	"older\000"
 3151      7200
 3152              	.LASF29:
 3153 040f 74687265 		.ascii	"thread_t\000"
 3153      61645F74 
 3153      00
 3154              	.LASF58:
 3155 0418 62657374 		.ascii	"best\000"
 3155      00
 3156              	.LASF88:
 3157 041d 68656170 		.ascii	"heap_header_t\000"
 3157      5F686561 
 3157      6465725F 
 3157      7400
 3158              	.LASF106:
 3159 042b 5F5F7365 		.ascii	"__set_BASEPRI\000"
 3159      745F4241 
 3159      53455052 
 3159      4900
 3160              	.LASF113:
 3161 0439 63684865 		.ascii	"chHeapAllocAligned\000"
 3161      6170416C 
 3161      6C6F6341 
 3161      6C69676E 
 3161      656400
 3162              	.LASF72:
 3163 044c 63685F6D 		.ascii	"ch_mutex\000"
 3163      75746578 
ARM GAS  /tmp/cc61CcxL.s 			page 60


 3163      00
 3164              	.LASF82:
 3165 0455 6D656D67 		.ascii	"memgetfunc_t\000"
 3165      65746675 
 3165      6E635F74 
 3165      00
 3166              	.LASF112:
 3167 0462 63685363 		.ascii	"chSchWakeupS\000"
 3167      6857616B 
 3167      65757053 
 3167      00
 3168              	.LASF51:
 3169 046f 74687265 		.ascii	"threads_queue_t\000"
 3169      6164735F 
 3169      71756575 
 3169      655F7400 
 3170              	.LASF94:
 3171 047f 706F6F6C 		.ascii	"pool_header\000"
 3171      5F686561 
 3171      64657200 
 3172              	.LASF114:
 3173 048b 474E5520 		.ascii	"GNU C17 10.2.1 20201103 (release) -mcpu=cortex-m7 -"
 3173      43313720 
 3173      31302E32 
 3173      2E312032 
 3173      30323031 
 3174 04be 6D666C6F 		.ascii	"mfloat-abi=hard -mfpu=fpv4-sp-d16 -mno-thumb-interw"
 3174      61742D61 
 3174      62693D68 
 3174      61726420 
 3174      2D6D6670 
 3175 04f1 6F726B20 		.ascii	"ork -mthumb -march=armv7e-m+fp -g -Os -fomit-frame-"
 3175      2D6D7468 
 3175      756D6220 
 3175      2D6D6172 
 3175      63683D61 
 3176 0524 706F696E 		.ascii	"pointer -falign-functions=16 -ffunction-sections -f"
 3176      74657220 
 3176      2D66616C 
 3176      69676E2D 
 3176      66756E63 
 3177 0557 64617461 		.ascii	"data-sections -fno-common -fsingle-precision-consta"
 3177      2D736563 
 3177      74696F6E 
 3177      73202D66 
 3177      6E6F2D63 
 3178 058a 6E7400   		.ascii	"nt\000"
 3179              	.LASF15:
 3180 058d 75696E74 		.ascii	"uint8_t\000"
 3180      385F7400 
 3181              	.LASF109:
 3182 0595 6368506F 		.ascii	"chPoolAlloc\000"
 3182      6F6C416C 
 3182      6C6F6300 
 3183              	.LASF37:
 3184 05a1 666C6167 		.ascii	"flags\000"
 3184      7300
ARM GAS  /tmp/cc61CcxL.s 			page 61


 3185              	.LASF107:
 3186 05a7 5F737461 		.ascii	"_stats_start_measure_crit_thd\000"
 3186      74735F73 
 3186      74617274 
 3186      5F6D6561 
 3186      73757265 
 3187              	.LASF65:
 3188 05c5 77746F62 		.ascii	"wtobjp\000"
 3188      6A7000
 3189              	.LASF47:
 3190 05cc 74687265 		.ascii	"threads_list_t\000"
 3190      6164735F 
 3190      6C697374 
 3190      5F7400
 3191              	.LASF105:
 3192 05db 63685379 		.ascii	"chSysUnlock\000"
 3192      73556E6C 
 3192      6F636B00 
 3193              	.LASF42:
 3194 05e7 6D74786C 		.ascii	"mtxlist\000"
 3194      69737400 
 3195              	.LASF87:
 3196 05ef 68656164 		.ascii	"header\000"
 3196      657200
 3197              	.LASF52:
 3198 05f6 63685F74 		.ascii	"ch_threads_queue\000"
 3198      68726561 
 3198      64735F71 
 3198      75657565 
 3198      00
 3199              	.LASF85:
 3200 0607 6D656D6F 		.ascii	"memory_heap\000"
 3200      72795F68 
 3200      65617000 
 3201              		.ident	"GCC: (GNU Arm Embedded Toolchain 10-2020-q4-major) 10.2.1 20201103 (release)"
ARM GAS  /tmp/cc61CcxL.s 			page 62


DEFINED SYMBOLS
                            *ABS*:0000000000000000 chdynamic.c
     /tmp/cc61CcxL.s:18     .text.chThdCreateFromHeap:0000000000000000 $t
     /tmp/cc61CcxL.s:26     .text.chThdCreateFromHeap:0000000000000000 chThdCreateFromHeap
     /tmp/cc61CcxL.s:193    .text.chThdCreateFromMemoryPool:0000000000000000 $t
     /tmp/cc61CcxL.s:200    .text.chThdCreateFromMemoryPool:0000000000000000 chThdCreateFromMemoryPool

UNDEFINED SYMBOLS
chHeapAllocAligned
_thread_memfill
_stats_start_measure_crit_thd
chThdCreateSuspendedI
chSchWakeupS
_stats_stop_measure_crit_thd
chPoolAlloc
