ARM GAS  /tmp/cc61CcxL.s 			page 1


   1              		.cpu cortex-m7
   2              		.eabi_attribute 27, 1
   3              		.eabi_attribute 28, 1
   4              		.eabi_attribute 20, 1
   5              		.eabi_attribute 21, 1
   6              		.eabi_attribute 23, 3
   7              		.eabi_attribute 24, 1
   8              		.eabi_attribute 25, 1
   9              		.eabi_attribute 26, 1
  10              		.eabi_attribute 30, 4
  11              		.eabi_attribute 34, 1
  12              		.eabi_attribute 18, 4
  13              		.file	"chdynamic.c"
  14              		.text
  15              	.Ltext0:
  16              		.cfi_sections	.debug_frame
  17              		.section	.text.chThdCreateFromHeap,"ax",%progbits
  18              		.align	1
  19              		.global	chThdCreateFromHeap
  20              		.arch armv7e-m
  21              		.syntax unified
  22              		.thumb
  23              		.thumb_func
  24              		.fpu fpv4-sp-d16
  25              		.type	chThdCreateFromHeap, %function
  26              	chThdCreateFromHeap:
  27              	.LVL0:
  28              	.LFB301:
  29              		.file 1 "../../modules/ChibiOS/os/rt/src/chdynamic.c"
  30              		.loc 1 84 54 view -0
  31              		.cfi_startproc
  32              		@ args = 8, pretend = 0, frame = 24
  33              		@ frame_needed = 0, uses_anonymous_args = 0
  34              		.loc 1 85 3 view .LVU1
  35              		.loc 1 86 3 view .LVU2
  36              		.loc 1 88 3 view .LVU3
  37              		.loc 1 84 54 is_stmt 0 view .LVU4
  38 0000 F0B5     		push	{r4, r5, r6, r7, lr}
  39              		.cfi_def_cfa_offset 20
  40              		.cfi_offset 4, -20
  41              		.cfi_offset 5, -16
  42              		.cfi_offset 6, -12
  43              		.cfi_offset 7, -8
  44              		.cfi_offset 14, -4
  45 0002 1746     		mov	r7, r2
  46 0004 87B0     		sub	sp, sp, #28
  47              		.cfi_def_cfa_offset 48
  48              		.loc 1 88 9 view .LVU5
  49 0006 0822     		movs	r2, #8
  50              	.LVL1:
  51              		.loc 1 84 54 view .LVU6
  52 0008 0E46     		mov	r6, r1
  53 000a 1D46     		mov	r5, r3
  54              		.loc 1 88 9 view .LVU7
  55 000c FFF7FEFF 		bl	chHeapAllocAligned
  56              	.LVL2:
  57              		.loc 1 89 3 is_stmt 1 view .LVU8
ARM GAS  /tmp/cc61CcxL.s 			page 2


  58              		.loc 1 89 6 is_stmt 0 view .LVU9
  59 0010 0446     		mov	r4, r0
  60 0012 F8B1     		cbz	r0, .L1
  61              		.loc 1 93 3 is_stmt 1 view .LVU10
  62              		.loc 1 93 23 is_stmt 0 view .LVU11
  63 0014 0C9B     		ldr	r3, [sp, #48]
  64              		.loc 1 96 5 view .LVU12
  65 0016 8119     		adds	r1, r0, r6
  66              		.loc 1 103 3 view .LVU13
  67 0018 5522     		movs	r2, #85
  68              		.loc 1 93 23 view .LVU14
  69 001a 0493     		str	r3, [sp, #16]
  70 001c 0D9B     		ldr	r3, [sp, #52]
  71 001e CDE90070 		strd	r7, r0, [sp]
  72 0022 0593     		str	r3, [sp, #20]
  73              		.loc 1 103 3 is_stmt 1 view .LVU15
  74              		.loc 1 93 23 is_stmt 0 view .LVU16
  75 0024 CDE90215 		strd	r1, r5, [sp, #8]
  76              		.loc 1 103 3 view .LVU17
  77 0028 FFF7FEFF 		bl	_thread_memfill
  78              	.LVL3:
  79              		.loc 1 108 3 is_stmt 1 view .LVU18
  80              	.LBB24:
  81              	.LBI24:
  82              		.file 2 "../../modules/ChibiOS/os/rt/include/chsys.h"
  83              		.loc 2 353 20 view .LVU19
  84              	.LBB25:
  85              		.loc 2 355 3 view .LVU20
  86              	.LBB26:
  87              	.LBI26:
  88              		.file 3 "../../modules/ChibiOS/os/common/ports/ARMCMx/chcore_v7m.h"
  89              		.loc 3 602 20 view .LVU21
  90              	.LBE26:
  91              	.LBE25:
  92              	.LBE24:
  93              		.loc 3 610 3 view .LVU22
  94              	.LBB31:
  95              	.LBB30:
  96              	.LBB29:
  97              	.LBB27:
  98              	.LBI27:
  99              		.file 4 "../../modules/ChibiOS/os/common/ext/ARM/CMSIS/Core/Include/cmsis_gcc.h"
 100              		.loc 4 491 27 view .LVU23
 101              	.LBB28:
 102              		.loc 4 493 3 view .LVU24
 103 002c 2023     		movs	r3, #32
 104              		.syntax unified
 105              	@ 493 "../../modules/ChibiOS/os/common/ext/ARM/CMSIS/Core/Include/cmsis_gcc.h" 1
 106 002e 83F31188 		MSR basepri, r3
 107              	@ 0 "" 2
 108              	.LVL4:
 109              		.loc 4 493 3 is_stmt 0 view .LVU25
 110              		.thumb
 111              		.syntax unified
 112              	.LBE28:
 113              	.LBE27:
 114              	.LBE29:
ARM GAS  /tmp/cc61CcxL.s 			page 3


 115              		.loc 2 356 3 is_stmt 1 view .LVU26
 116 0032 FFF7FEFF 		bl	_stats_start_measure_crit_thd
 117              	.LVL5:
 118              		.loc 2 357 20 view .LVU27
 119              	.LBE30:
 120              	.LBE31:
 121              		.loc 1 109 3 view .LVU28
 122              		.loc 1 109 8 is_stmt 0 view .LVU29
 123 0036 6846     		mov	r0, sp
 124 0038 FFF7FEFF 		bl	chThdCreateSuspendedI
 125              	.LVL6:
 126              		.loc 1 110 13 view .LVU30
 127 003c 0123     		movs	r3, #1
 128              		.loc 1 111 3 view .LVU31
 129 003e 0021     		movs	r1, #0
 130              		.loc 1 109 8 view .LVU32
 131 0040 0446     		mov	r4, r0
 132              	.LVL7:
 133              		.loc 1 110 3 is_stmt 1 view .LVU33
 134              		.loc 1 110 13 is_stmt 0 view .LVU34
 135 0042 80F82130 		strb	r3, [r0, #33]
 136              		.loc 1 111 3 is_stmt 1 view .LVU35
 137 0046 FFF7FEFF 		bl	chSchWakeupS
 138              	.LVL8:
 139              		.loc 1 112 3 view .LVU36
 140              	.LBB32:
 141              	.LBI32:
 142              		.loc 2 365 20 view .LVU37
 143              	.LBB33:
 144              		.loc 2 367 22 view .LVU38
 145              		.loc 2 368 3 view .LVU39
 146 004a FFF7FEFF 		bl	_stats_stop_measure_crit_thd
 147              	.LVL9:
 148              		.loc 2 374 3 view .LVU40
 149              		.loc 2 374 3 view .LVU41
 150              		.loc 2 374 3 view .LVU42
 151              		.loc 2 378 3 view .LVU43
 152              	.LBB34:
 153              	.LBI34:
 154              		.loc 3 626 20 view .LVU44
 155              	.LBE34:
 156              	.LBE33:
 157              	.LBE32:
 158              		.loc 3 629 3 view .LVU45
 159              	.LBB39:
 160              	.LBB38:
 161              	.LBB37:
 162              	.LBB35:
 163              	.LBI35:
 164              		.loc 4 491 27 view .LVU46
 165              	.LBB36:
 166              		.loc 4 493 3 view .LVU47
 167 004e 0023     		movs	r3, #0
 168              		.syntax unified
 169              	@ 493 "../../modules/ChibiOS/os/common/ext/ARM/CMSIS/Core/Include/cmsis_gcc.h" 1
 170 0050 83F31188 		MSR basepri, r3
 171              	@ 0 "" 2
ARM GAS  /tmp/cc61CcxL.s 			page 4


 172              	.LVL10:
 173              		.thumb
 174              		.syntax unified
 175              	.L1:
 176              		.loc 4 493 3 is_stmt 0 view .LVU48
 177              	.LBE36:
 178              	.LBE35:
 179              	.LBE37:
 180              	.LBE38:
 181              	.LBE39:
 182              		.loc 1 115 1 view .LVU49
 183 0054 2046     		mov	r0, r4
 184 0056 07B0     		add	sp, sp, #28
 185              		.cfi_def_cfa_offset 20
 186              		@ sp needed
 187 0058 F0BD     		pop	{r4, r5, r6, r7, pc}
 188              		.loc 1 115 1 view .LVU50
 189              		.cfi_endproc
 190              	.LFE301:
 191              		.size	chThdCreateFromHeap, .-chThdCreateFromHeap
 192              		.section	.text.chThdCreateFromMemoryPool,"ax",%progbits
 193              		.align	1
 194              		.global	chThdCreateFromMemoryPool
 195              		.syntax unified
 196              		.thumb
 197              		.thumb_func
 198              		.fpu fpv4-sp-d16
 199              		.type	chThdCreateFromMemoryPool, %function
 200              	chThdCreateFromMemoryPool:
 201              	.LVL11:
 202              	.LFB302:
 203              		.loc 1 146 74 is_stmt 1 view -0
 204              		.cfi_startproc
 205              		@ args = 4, pretend = 0, frame = 24
 206              		@ frame_needed = 0, uses_anonymous_args = 0
 207              		.loc 1 147 3 view .LVU52
 208              		.loc 1 148 3 view .LVU53
 209              		.loc 1 150 3 view .LVU54
 210              		.loc 1 150 3 view .LVU55
 211              		.loc 1 150 3 view .LVU56
 212              		.loc 1 152 3 view .LVU57
 213              		.loc 1 146 74 is_stmt 0 view .LVU58
 214 0000 2DE9F041 		push	{r4, r5, r6, r7, r8, lr}
 215              		.cfi_def_cfa_offset 24
 216              		.cfi_offset 4, -24
 217              		.cfi_offset 5, -20
 218              		.cfi_offset 6, -16
 219              		.cfi_offset 7, -12
 220              		.cfi_offset 8, -8
 221              		.cfi_offset 14, -4
 222 0004 86B0     		sub	sp, sp, #24
 223              		.cfi_def_cfa_offset 48
 224              		.loc 1 146 74 view .LVU59
 225 0006 0546     		mov	r5, r0
 226 0008 8846     		mov	r8, r1
 227 000a 1746     		mov	r7, r2
 228 000c 1E46     		mov	r6, r3
ARM GAS  /tmp/cc61CcxL.s 			page 5


 229              		.loc 1 152 9 view .LVU60
 230 000e FFF7FEFF 		bl	chPoolAlloc
 231              	.LVL12:
 232              		.loc 1 153 3 is_stmt 1 view .LVU61
 233              		.loc 1 153 6 is_stmt 0 view .LVU62
 234 0012 0446     		mov	r4, r0
 235 0014 00B3     		cbz	r0, .L6
 236              		.loc 1 157 3 is_stmt 1 view .LVU63
 237              		.loc 1 160 5 is_stmt 0 view .LVU64
 238 0016 6968     		ldr	r1, [r5, #4]
 239              		.loc 1 167 3 view .LVU65
 240 0018 5522     		movs	r2, #85
 241              		.loc 1 157 23 view .LVU66
 242 001a 0C9B     		ldr	r3, [sp, #48]
 243              		.loc 1 160 5 view .LVU67
 244 001c 0144     		add	r1, r1, r0
 245              		.loc 1 157 23 view .LVU68
 246 001e 0496     		str	r6, [sp, #16]
 247 0020 0593     		str	r3, [sp, #20]
 248              		.loc 1 167 3 is_stmt 1 view .LVU69
 249              		.loc 1 157 23 is_stmt 0 view .LVU70
 250 0022 CDE90080 		strd	r8, r0, [sp]
 251 0026 CDE90217 		strd	r1, r7, [sp, #8]
 252              		.loc 1 167 3 view .LVU71
 253 002a FFF7FEFF 		bl	_thread_memfill
 254              	.LVL13:
 255              		.loc 1 172 3 is_stmt 1 view .LVU72
 256              	.LBB50:
 257              	.LBI50:
 258              		.loc 2 353 20 view .LVU73
 259              	.LBB51:
 260              		.loc 2 355 3 view .LVU74
 261              	.LBB52:
 262              	.LBI52:
 263              		.loc 3 602 20 view .LVU75
 264              	.LBE52:
 265              	.LBE51:
 266              	.LBE50:
 267              		.loc 3 610 3 view .LVU76
 268              	.LBB57:
 269              	.LBB56:
 270              	.LBB55:
 271              	.LBB53:
 272              	.LBI53:
 273              		.loc 4 491 27 view .LVU77
 274              	.LBB54:
 275              		.loc 4 493 3 view .LVU78
 276 002e 2023     		movs	r3, #32
 277              		.syntax unified
 278              	@ 493 "../../modules/ChibiOS/os/common/ext/ARM/CMSIS/Core/Include/cmsis_gcc.h" 1
 279 0030 83F31188 		MSR basepri, r3
 280              	@ 0 "" 2
 281              	.LVL14:
 282              		.loc 4 493 3 is_stmt 0 view .LVU79
 283              		.thumb
 284              		.syntax unified
 285              	.LBE54:
ARM GAS  /tmp/cc61CcxL.s 			page 6


 286              	.LBE53:
 287              	.LBE55:
 288              		.loc 2 356 3 is_stmt 1 view .LVU80
 289 0034 FFF7FEFF 		bl	_stats_start_measure_crit_thd
 290              	.LVL15:
 291              		.loc 2 357 20 view .LVU81
 292              	.LBE56:
 293              	.LBE57:
 294              		.loc 1 173 3 view .LVU82
 295              		.loc 1 173 8 is_stmt 0 view .LVU83
 296 0038 6846     		mov	r0, sp
 297 003a FFF7FEFF 		bl	chThdCreateSuspendedI
 298              	.LVL16:
 299              		.loc 1 174 13 view .LVU84
 300 003e 0223     		movs	r3, #2
 301              		.loc 1 176 3 view .LVU85
 302 0040 0021     		movs	r1, #0
 303              		.loc 1 175 13 view .LVU86
 304 0042 0564     		str	r5, [r0, #64]
 305              		.loc 1 174 13 view .LVU87
 306 0044 80F82130 		strb	r3, [r0, #33]
 307              		.loc 1 173 8 view .LVU88
 308 0048 0446     		mov	r4, r0
 309              	.LVL17:
 310              		.loc 1 174 3 is_stmt 1 view .LVU89
 311              		.loc 1 175 3 view .LVU90
 312              		.loc 1 176 3 view .LVU91
 313 004a FFF7FEFF 		bl	chSchWakeupS
 314              	.LVL18:
 315              		.loc 1 177 3 view .LVU92
 316              	.LBB58:
 317              	.LBI58:
 318              		.loc 2 365 20 view .LVU93
 319              	.LBB59:
 320              		.loc 2 367 22 view .LVU94
 321              		.loc 2 368 3 view .LVU95
 322 004e FFF7FEFF 		bl	_stats_stop_measure_crit_thd
 323              	.LVL19:
 324              		.loc 2 374 3 view .LVU96
 325              		.loc 2 374 3 view .LVU97
 326              		.loc 2 374 3 view .LVU98
 327              		.loc 2 378 3 view .LVU99
 328              	.LBB60:
 329              	.LBI60:
 330              		.loc 3 626 20 view .LVU100
 331              	.LBE60:
 332              	.LBE59:
 333              	.LBE58:
 334              		.loc 3 629 3 view .LVU101
 335              	.LBB65:
 336              	.LBB64:
 337              	.LBB63:
 338              	.LBB61:
 339              	.LBI61:
 340              		.loc 4 491 27 view .LVU102
 341              	.LBB62:
 342              		.loc 4 493 3 view .LVU103
ARM GAS  /tmp/cc61CcxL.s 			page 7


 343 0052 0023     		movs	r3, #0
 344              		.syntax unified
 345              	@ 493 "../../modules/ChibiOS/os/common/ext/ARM/CMSIS/Core/Include/cmsis_gcc.h" 1
 346 0054 83F31188 		MSR basepri, r3
 347              	@ 0 "" 2
 348              	.LVL20:
 349              		.thumb
 350              		.syntax unified
 351              	.L6:
 352              		.loc 4 493 3 is_stmt 0 view .LVU104
 353              	.LBE62:
 354              	.LBE61:
 355              	.LBE63:
 356              	.LBE64:
 357              	.LBE65:
 358              		.loc 1 180 1 view .LVU105
 359 0058 2046     		mov	r0, r4
 360 005a 06B0     		add	sp, sp, #24
 361              		.cfi_def_cfa_offset 24
 362              		@ sp needed
 363 005c BDE8F081 		pop	{r4, r5, r6, r7, r8, pc}
 364              		.loc 1 180 1 view .LVU106
 365              		.cfi_endproc
 366              	.LFE302:
 367              		.size	chThdCreateFromMemoryPool, .-chThdCreateFromMemoryPool
 368              		.text
 369              	.Letext0:
 370              		.file 5 "/opt/gcc-arm-none-eabi-10-2020-q4-major/lib/gcc/arm-none-eabi/10.2.1/include/stddef.h"
 371              		.file 6 "/opt/gcc-arm-none-eabi-10-2020-q4-major/arm-none-eabi/include/machine/_default_types.h"
 372              		.file 7 "/opt/gcc-arm-none-eabi-10-2020-q4-major/arm-none-eabi/include/sys/_stdint.h"
 373              		.file 8 "../../modules/ChibiOS/os/common/ports/ARMCMx/compilers/GCC/chtypes.h"
 374              		.file 9 "../../modules/ChibiOS/os/rt/include/chsystypes.h"
 375              		.file 10 "../../modules/ChibiOS/os/rt/include/chschd.h"
 376              		.file 11 "../../modules/ChibiOS/os/common/ports/ARMCMx/chcore.h"
 377              		.file 12 "../../modules/ChibiOS/os/rt/include/chtm.h"
 378              		.file 13 "../../modules/ChibiOS/os/rt/include/chsem.h"
 379              		.file 14 "../../modules/ChibiOS/os/rt/include/chmtx.h"
 380              		.file 15 "../../modules/ChibiOS/os/rt/include/chthreads.h"
 381              		.file 16 "../../modules/ChibiOS/os/oslib/include/chmemcore.h"
 382              		.file 17 "../../modules/ChibiOS/os/oslib/include/chmemheaps.h"
 383              		.file 18 "../../modules/ChibiOS/os/oslib/include/chmempools.h"
 384              		.file 19 "../../modules/ChibiOS/os/rt/include/chstats.h"