ARM GAS  /tmp/ccyUImpM.s 			page 1


   1              		.cpu cortex-m7
   2              		.eabi_attribute 27, 1
   3              		.eabi_attribute 28, 1
   4              		.eabi_attribute 20, 1
   5              		.eabi_attribute 21, 1
   6              		.eabi_attribute 23, 3
   7              		.eabi_attribute 24, 1
   8              		.eabi_attribute 25, 1
   9              		.eabi_attribute 26, 1
  10              		.eabi_attribute 30, 4
  11              		.eabi_attribute 34, 1
  12              		.eabi_attribute 18, 4
  13              		.file	"chevents.c"
  14              		.text
  15              	.Ltext0:
  16              		.cfi_sections	.debug_frame
  17              		.section	.text.chSysLock,"ax",%progbits
  18              		.align	1
  19              		.arch armv7e-m
  20              		.syntax unified
  21              		.thumb
  22              		.thumb_func
  23              		.fpu fpv4-sp-d16
  24              		.type	chSysLock, %function
  25              	chSysLock:
  26              	.LFB195:
  27              		.file 1 "../../modules/ChibiOS/os/rt/include/chsys.h"
  28              		.loc 1 353 36 view -0
  29              		.cfi_startproc
  30              		@ args = 0, pretend = 0, frame = 0
  31              		@ frame_needed = 0, uses_anonymous_args = 0
  32              		@ link register save eliminated.
  33              		.loc 1 355 3 view .LVU1
  34              	.LBB14:
  35              	.LBI14:
  36              		.file 2 "../../modules/ChibiOS/os/common/ports/ARMCMx/chcore_v7m.h"
  37              		.loc 2 602 20 view .LVU2
  38              	.LBE14:
  39              		.loc 2 610 3 view .LVU3
  40              	.LVL0:
  41              	.LBB17:
  42              	.LBB15:
  43              	.LBI15:
  44              		.file 3 "../../modules/ChibiOS/os/common/ext/ARM/CMSIS/Core/Include/cmsis_gcc.h"
  45              		.loc 3 491 27 view .LVU4
  46              	.LBB16:
  47              		.loc 3 493 3 view .LVU5
  48 0000 2023     		movs	r3, #32
  49              		.syntax unified
  50              	@ 493 "../../modules/ChibiOS/os/common/ext/ARM/CMSIS/Core/Include/cmsis_gcc.h" 1
  51 0002 83F31188 		MSR basepri, r3
  52              	@ 0 "" 2
  53              	.LVL1:
  54              		.loc 3 493 3 is_stmt 0 view .LVU6
  55              		.thumb
  56              		.syntax unified
  57              	.LBE16:
ARM GAS  /tmp/ccyUImpM.s 			page 2


  58              	.LBE15:
  59              	.LBE17:
  60              		.loc 1 356 3 is_stmt 1 view .LVU7
  61 0006 FFF7FEBF 		b	_stats_start_measure_crit_thd
  62              	.LVL2:
  63              		.cfi_endproc
  64              	.LFE195:
  65              		.size	chSysLock, .-chSysLock
  66              		.section	.text.chSysUnlock,"ax",%progbits
  67              		.align	1
  68              		.syntax unified
  69              		.thumb
  70              		.thumb_func
  71              		.fpu fpv4-sp-d16
  72              		.type	chSysUnlock, %function
  73              	chSysUnlock:
  74              	.LFB196:
  75              		.loc 1 365 38 view -0
  76              		.cfi_startproc
  77              		@ args = 0, pretend = 0, frame = 0
  78              		@ frame_needed = 0, uses_anonymous_args = 0
  79              		.loc 1 367 22 view .LVU9
  80              		.loc 1 368 3 view .LVU10
  81              		.loc 1 365 38 is_stmt 0 view .LVU11
  82 0000 08B5     		push	{r3, lr}
  83              		.cfi_def_cfa_offset 8
  84              		.cfi_offset 3, -8
  85              		.cfi_offset 14, -4
  86              		.loc 1 368 3 view .LVU12
  87 0002 FFF7FEFF 		bl	_stats_stop_measure_crit_thd
  88              	.LVL3:
  89              		.loc 1 374 3 is_stmt 1 view .LVU13
  90              		.loc 1 374 3 view .LVU14
  91              		.loc 1 374 3 view .LVU15
  92              		.loc 1 378 3 view .LVU16
  93              	.LBB18:
  94              	.LBI18:
  95              		.loc 2 626 20 view .LVU17
  96              	.LBE18:
  97              		.loc 2 629 3 view .LVU18
  98              	.LBB21:
  99              	.LBB19:
 100              	.LBI19:
 101              		.loc 3 491 27 view .LVU19
 102              	.LBB20:
 103              		.loc 3 493 3 view .LVU20
 104 0006 0023     		movs	r3, #0
 105              		.syntax unified
 106              	@ 493 "../../modules/ChibiOS/os/common/ext/ARM/CMSIS/Core/Include/cmsis_gcc.h" 1
 107 0008 83F31188 		MSR basepri, r3
 108              	@ 0 "" 2
 109              	.LVL4:
 110              		.loc 3 493 3 is_stmt 0 view .LVU21
 111              		.thumb
 112              		.syntax unified
 113              	.LBE20:
 114              	.LBE19:
ARM GAS  /tmp/ccyUImpM.s 			page 3


 115              	.LBE21:
 116              		.loc 1 379 1 view .LVU22
 117 000c 08BD     		pop	{r3, pc}
 118              		.cfi_endproc
 119              	.LFE196:
 120              		.size	chSysUnlock, .-chSysUnlock
 121              		.section	.text.chEvtRegisterMaskWithFlags,"ax",%progbits
 122              		.align	1
 123              		.global	chEvtRegisterMaskWithFlags
 124              		.syntax unified
 125              		.thumb
 126              		.thumb_func
 127              		.fpu fpv4-sp-d16
 128              		.type	chEvtRegisterMaskWithFlags, %function
 129              	chEvtRegisterMaskWithFlags:
 130              	.LVL5:
 131              	.LFB301:
 132              		.file 4 "../../modules/ChibiOS/os/rt/src/chevents.c"
 133              		.loc 4 106 54 is_stmt 1 view -0
 134              		.cfi_startproc
 135              		@ args = 0, pretend = 0, frame = 0
 136              		@ frame_needed = 0, uses_anonymous_args = 0
 137              		.loc 4 108 3 view .LVU24
 138              		.loc 4 108 3 view .LVU25
 139              		.loc 4 108 3 view .LVU26
 140              		.loc 4 110 3 view .LVU27
 141              		.loc 4 106 54 is_stmt 0 view .LVU28
 142 0000 F8B5     		push	{r3, r4, r5, r6, r7, lr}
 143              		.cfi_def_cfa_offset 24
 144              		.cfi_offset 3, -24
 145              		.cfi_offset 4, -20
 146              		.cfi_offset 5, -16
 147              		.cfi_offset 6, -12
 148              		.cfi_offset 7, -8
 149              		.cfi_offset 14, -4
 150              		.loc 4 106 54 view .LVU29
 151 0002 0546     		mov	r5, r0
 152 0004 0C46     		mov	r4, r1
 153 0006 1E46     		mov	r6, r3
 154 0008 1746     		mov	r7, r2
 155              		.loc 4 110 3 view .LVU30
 156 000a FFF7FEFF 		bl	chSysLock
 157              	.LVL6:
 158              		.loc 4 111 3 is_stmt 1 view .LVU31
 159              		.loc 4 111 17 is_stmt 0 view .LVU32
 160 000e 2B68     		ldr	r3, [r5]
 161 0010 2360     		str	r3, [r4]
 162              		.loc 4 112 3 is_stmt 1 view .LVU33
 163              		.loc 4 113 19 is_stmt 0 view .LVU34
 164 0012 064B     		ldr	r3, .L4
 165              		.loc 4 112 17 view .LVU35
 166 0014 2C60     		str	r4, [r5]
 167              		.loc 4 113 3 is_stmt 1 view .LVU36
 168              		.loc 4 113 17 is_stmt 0 view .LVU37
 169 0016 9B69     		ldr	r3, [r3, #24]
 170              		.loc 4 114 17 view .LVU38
 171 0018 C4E90137 		strd	r3, r7, [r4, #4]
ARM GAS  /tmp/ccyUImpM.s 			page 4


 172              		.loc 4 115 3 is_stmt 1 view .LVU39
 173              		.loc 4 115 17 is_stmt 0 view .LVU40
 174 001c 0023     		movs	r3, #0
 175              		.loc 4 116 17 view .LVU41
 176 001e C4E90336 		strd	r3, r6, [r4, #12]
 177              		.loc 4 117 3 is_stmt 1 view .LVU42
 178              		.loc 4 118 1 is_stmt 0 view .LVU43
 179 0022 BDE8F840 		pop	{r3, r4, r5, r6, r7, lr}
 180              		.cfi_restore 14
 181              		.cfi_restore 7
 182              		.cfi_restore 6
 183              		.cfi_restore 5
 184              		.cfi_restore 4
 185              		.cfi_restore 3
 186              		.cfi_def_cfa_offset 0
 187              	.LVL7:
 188              		.loc 4 117 3 view .LVU44
 189 0026 FFF7FEBF 		b	chSysUnlock
 190              	.LVL8:
 191              	.L5:
 192              		.loc 4 117 3 view .LVU45
 193 002a 00BF     		.align	2
 194              	.L4:
 195 002c 00000000 		.word	ch
 196              		.cfi_endproc
 197              	.LFE301:
 198              		.size	chEvtRegisterMaskWithFlags, .-chEvtRegisterMaskWithFlags
 199              		.section	.text.chEvtUnregister,"ax",%progbits
 200              		.align	1
 201              		.global	chEvtUnregister
 202              		.syntax unified
 203              		.thumb
 204              		.thumb_func
 205              		.fpu fpv4-sp-d16
 206              		.type	chEvtUnregister, %function
 207              	chEvtUnregister:
 208              	.LVL9:
 209              	.LFB302:
 210              		.loc 4 133 66 is_stmt 1 view -0
 211              		.cfi_startproc
 212              		@ args = 0, pretend = 0, frame = 0
 213              		@ frame_needed = 0, uses_anonymous_args = 0
 214              		.loc 4 134 3 view .LVU47
 215              		.loc 4 136 3 view .LVU48
 216              		.loc 4 136 3 view .LVU49
 217              		.loc 4 136 3 view .LVU50
 218              		.loc 4 139 3 view .LVU51
 219              		.loc 4 133 66 is_stmt 0 view .LVU52
 220 0000 38B5     		push	{r3, r4, r5, lr}
 221              		.cfi_def_cfa_offset 16
 222              		.cfi_offset 3, -16
 223              		.cfi_offset 4, -12
 224              		.cfi_offset 5, -8
 225              		.cfi_offset 14, -4
 226              		.loc 4 133 66 view .LVU53
 227 0002 0446     		mov	r4, r0
 228              	.LVL10:
ARM GAS  /tmp/ccyUImpM.s 			page 5


 229              		.loc 4 141 3 is_stmt 1 view .LVU54
 230              		.loc 4 133 66 is_stmt 0 view .LVU55
 231 0004 0D46     		mov	r5, r1
 232              		.loc 4 141 3 view .LVU56
 233 0006 FFF7FEFF 		bl	chSysLock
 234              	.LVL11:
 235              		.loc 4 143 3 is_stmt 1 view .LVU57
 236              		.loc 4 139 5 is_stmt 0 view .LVU58
 237 000a 2346     		mov	r3, r4
 238              	.LVL12:
 239              	.L7:
 240              		.loc 4 143 9 is_stmt 1 view .LVU59
 241 000c 1A46     		mov	r2, r3
 242              		.loc 4 143 11 is_stmt 0 view .LVU60
 243 000e 1B68     		ldr	r3, [r3]
 244              	.LVL13:
 245              		.loc 4 143 9 view .LVU61
 246 0010 A342     		cmp	r3, r4
 247 0012 03D0     		beq	.L8
 248              		.loc 4 145 5 is_stmt 1 view .LVU62
 249              		.loc 4 145 8 is_stmt 0 view .LVU63
 250 0014 AB42     		cmp	r3, r5
 251 0016 F9D1     		bne	.L7
 252              		.loc 4 146 7 is_stmt 1 view .LVU64
 253              		.loc 4 146 20 is_stmt 0 view .LVU65
 254 0018 1B68     		ldr	r3, [r3]
 255              		.loc 4 146 15 view .LVU66
 256 001a 1360     		str	r3, [r2]
 257              		.loc 4 147 7 is_stmt 1 view .LVU67
 258              	.L8:
 259              		.loc 4 151 3 view .LVU68
 260              		.loc 4 152 1 is_stmt 0 view .LVU69
 261 001c BDE83840 		pop	{r3, r4, r5, lr}
 262              		.cfi_restore 14
 263              		.cfi_restore 5
 264              		.cfi_restore 4
 265              		.cfi_restore 3
 266              		.cfi_def_cfa_offset 0
 267              	.LVL14:
 268              		.loc 4 151 3 view .LVU70
 269 0020 FFF7FEBF 		b	chSysUnlock
 270              	.LVL15:
 271              		.loc 4 151 3 view .LVU71
 272              		.cfi_endproc
 273              	.LFE302:
 274              		.size	chEvtUnregister, .-chEvtUnregister
 275              		.section	.text.chEvtGetAndClearEventsI,"ax",%progbits
 276              		.align	1
 277              		.global	chEvtGetAndClearEventsI
 278              		.syntax unified
 279              		.thumb
 280              		.thumb_func
 281              		.fpu fpv4-sp-d16
 282              		.type	chEvtGetAndClearEventsI, %function
 283              	chEvtGetAndClearEventsI:
 284              	.LVL16:
 285              	.LFB303:
ARM GAS  /tmp/ccyUImpM.s 			page 6


 286              		.loc 4 162 57 is_stmt 1 view -0
 287              		.cfi_startproc
 288              		@ args = 0, pretend = 0, frame = 0
 289              		@ frame_needed = 0, uses_anonymous_args = 0
 290              		@ link register save eliminated.
 291              		.loc 4 163 3 view .LVU73
 292              		.loc 4 165 3 view .LVU74
 293              		.loc 4 165 7 is_stmt 0 view .LVU75
 294 0000 034B     		ldr	r3, .L12
 295 0002 9A69     		ldr	r2, [r3, #24]
 296              		.loc 4 165 12 view .LVU76
 297 0004 536B     		ldr	r3, [r2, #52]
 298              	.LVL17:
 299              		.loc 4 166 3 is_stmt 1 view .LVU77
 300              		.loc 4 166 19 is_stmt 0 view .LVU78
 301 0006 23EA0001 		bic	r1, r3, r0
 302              		.loc 4 169 1 view .LVU79
 303 000a 1840     		ands	r0, r0, r3
 304              	.LVL18:
 305              		.loc 4 166 19 view .LVU80
 306 000c 5163     		str	r1, [r2, #52]
 307              		.loc 4 168 3 is_stmt 1 view .LVU81
 308              		.loc 4 169 1 is_stmt 0 view .LVU82
 309 000e 7047     		bx	lr
 310              	.L13:
 311              		.align	2
 312              	.L12:
 313 0010 00000000 		.word	ch
 314              		.cfi_endproc
 315              	.LFE303:
 316              		.size	chEvtGetAndClearEventsI, .-chEvtGetAndClearEventsI
 317              		.section	.text.chEvtGetAndClearEvents,"ax",%progbits
 318              		.align	1
 319              		.global	chEvtGetAndClearEvents
 320              		.syntax unified
 321              		.thumb
 322              		.thumb_func
 323              		.fpu fpv4-sp-d16
 324              		.type	chEvtGetAndClearEvents, %function
 325              	chEvtGetAndClearEvents:
 326              	.LVL19:
 327              	.LFB304:
 328              		.loc 4 179 56 is_stmt 1 view -0
 329              		.cfi_startproc
 330              		@ args = 0, pretend = 0, frame = 8
 331              		@ frame_needed = 0, uses_anonymous_args = 0
 332              		.loc 4 180 3 view .LVU84
 333              		.loc 4 182 3 view .LVU85
 334              		.loc 4 179 56 is_stmt 0 view .LVU86
 335 0000 07B5     		push	{r0, r1, r2, lr}
 336              		.cfi_def_cfa_offset 16
 337              		.cfi_offset 14, -4
 338              		.loc 4 179 56 view .LVU87
 339 0002 0190     		str	r0, [sp, #4]
 340              		.loc 4 182 3 view .LVU88
 341 0004 FFF7FEFF 		bl	chSysLock
 342              	.LVL20:
ARM GAS  /tmp/ccyUImpM.s 			page 7


 343              		.loc 4 183 3 is_stmt 1 view .LVU89
 344              		.loc 4 183 7 is_stmt 0 view .LVU90
 345 0008 0198     		ldr	r0, [sp, #4]
 346 000a FFF7FEFF 		bl	chEvtGetAndClearEventsI
 347              	.LVL21:
 348 000e 0190     		str	r0, [sp, #4]
 349              	.LVL22:
 350              		.loc 4 184 3 is_stmt 1 view .LVU91
 351 0010 FFF7FEFF 		bl	chSysUnlock
 352              	.LVL23:
 353              		.loc 4 186 3 view .LVU92
 354              		.loc 4 187 1 is_stmt 0 view .LVU93
 355 0014 0198     		ldr	r0, [sp, #4]
 356 0016 03B0     		add	sp, sp, #12
 357              		.cfi_def_cfa_offset 4
 358              		@ sp needed
 359 0018 5DF804FB 		ldr	pc, [sp], #4
 360              		.loc 4 187 1 view .LVU94
 361              		.cfi_endproc
 362              	.LFE304:
 363              		.size	chEvtGetAndClearEvents, .-chEvtGetAndClearEvents
 364              		.section	.text.chEvtAddEvents,"ax",%progbits
 365              		.align	1
 366              		.global	chEvtAddEvents
 367              		.syntax unified
 368              		.thumb
 369              		.thumb_func
 370              		.fpu fpv4-sp-d16
 371              		.type	chEvtAddEvents, %function
 372              	chEvtAddEvents:
 373              	.LVL24:
 374              	.LFB305:
 375              		.loc 4 198 48 is_stmt 1 view -0
 376              		.cfi_startproc
 377              		@ args = 0, pretend = 0, frame = 0
 378              		@ frame_needed = 0, uses_anonymous_args = 0
 379              		.loc 4 199 3 view .LVU96
 380              		.loc 4 201 3 view .LVU97
 381              		.loc 4 198 48 is_stmt 0 view .LVU98
 382 0000 10B5     		push	{r4, lr}
 383              		.cfi_def_cfa_offset 8
 384              		.cfi_offset 4, -8
 385              		.cfi_offset 14, -4
 386              		.loc 4 198 48 view .LVU99
 387 0002 0446     		mov	r4, r0
 388              		.loc 4 201 3 view .LVU100
 389 0004 FFF7FEFF 		bl	chSysLock
 390              	.LVL25:
 391              		.loc 4 202 3 is_stmt 1 view .LVU101
 392              	.LBB24:
 393              	.LBI24:
 394              		.file 5 "../../modules/ChibiOS/os/rt/include/chevents.h"
 395              		.loc 5 269 27 view .LVU102
 396              	.LBB25:
 397              		.loc 5 271 3 view .LVU103
 398              		.loc 5 271 10 is_stmt 0 view .LVU104
 399 0008 044B     		ldr	r3, .L16
ARM GAS  /tmp/ccyUImpM.s 			page 8


 400 000a 9B69     		ldr	r3, [r3, #24]
 401              		.loc 5 271 26 view .LVU105
 402 000c 586B     		ldr	r0, [r3, #52]
 403 000e 0443     		orrs	r4, r4, r0
 404              	.LVL26:
 405              		.loc 5 271 26 view .LVU106
 406 0010 5C63     		str	r4, [r3, #52]
 407              	.LVL27:
 408              		.loc 5 271 26 view .LVU107
 409              	.LBE25:
 410              	.LBE24:
 411              		.loc 4 203 3 is_stmt 1 view .LVU108
 412 0012 FFF7FEFF 		bl	chSysUnlock
 413              	.LVL28:
 414              		.loc 4 205 3 view .LVU109
 415              		.loc 4 206 1 is_stmt 0 view .LVU110
 416 0016 2046     		mov	r0, r4
 417 0018 10BD     		pop	{r4, pc}
 418              	.LVL29:
 419              	.L17:
 420              		.loc 4 206 1 view .LVU111
 421 001a 00BF     		.align	2
 422              	.L16:
 423 001c 00000000 		.word	ch
 424              		.cfi_endproc
 425              	.LFE305:
 426              		.size	chEvtAddEvents, .-chEvtAddEvents
 427              		.section	.text.chEvtGetAndClearFlags,"ax",%progbits
 428              		.align	1
 429              		.global	chEvtGetAndClearFlags
 430              		.syntax unified
 431              		.thumb
 432              		.thumb_func
 433              		.fpu fpv4-sp-d16
 434              		.type	chEvtGetAndClearFlags, %function
 435              	chEvtGetAndClearFlags:
 436              	.LVL30:
 437              	.LFB307:
 438              		.loc 4 257 59 is_stmt 1 view -0
 439              		.cfi_startproc
 440              		@ args = 0, pretend = 0, frame = 0
 441              		@ frame_needed = 0, uses_anonymous_args = 0
 442              		.loc 4 258 3 view .LVU113
 443              		.loc 4 260 3 view .LVU114
 444              		.loc 4 257 59 is_stmt 0 view .LVU115
 445 0000 38B5     		push	{r3, r4, r5, lr}
 446              		.cfi_def_cfa_offset 16
 447              		.cfi_offset 3, -16
 448              		.cfi_offset 4, -12
 449              		.cfi_offset 5, -8
 450              		.cfi_offset 14, -4
 451              		.loc 4 257 59 view .LVU116
 452 0002 0446     		mov	r4, r0
 453              		.loc 4 260 3 view .LVU117
 454 0004 FFF7FEFF 		bl	chSysLock
 455              	.LVL31:
 456              		.loc 4 261 3 is_stmt 1 view .LVU118
ARM GAS  /tmp/ccyUImpM.s 			page 9


 457              		.loc 4 262 14 is_stmt 0 view .LVU119
 458 0008 0023     		movs	r3, #0
 459              		.loc 4 261 9 view .LVU120
 460 000a E568     		ldr	r5, [r4, #12]
 461              	.LVL32:
 462              		.loc 4 262 3 is_stmt 1 view .LVU121
 463              		.loc 4 262 14 is_stmt 0 view .LVU122
 464 000c E360     		str	r3, [r4, #12]
 465              		.loc 4 263 3 is_stmt 1 view .LVU123
 466 000e FFF7FEFF 		bl	chSysUnlock
 467              	.LVL33:
 468              		.loc 4 265 3 view .LVU124
 469              		.loc 4 265 16 is_stmt 0 view .LVU125
 470 0012 2069     		ldr	r0, [r4, #16]
 471              		.loc 4 266 1 view .LVU126
 472 0014 2840     		ands	r0, r0, r5
 473 0016 38BD     		pop	{r3, r4, r5, pc}
 474              		.loc 4 266 1 view .LVU127
 475              		.cfi_endproc
 476              	.LFE307:
 477              		.size	chEvtGetAndClearFlags, .-chEvtGetAndClearFlags
 478              		.section	.text.chEvtSignalI,"ax",%progbits
 479              		.align	1
 480              		.global	chEvtSignalI
 481              		.syntax unified
 482              		.thumb
 483              		.thumb_func
 484              		.fpu fpv4-sp-d16
 485              		.type	chEvtSignalI, %function
 486              	chEvtSignalI:
 487              	.LVL34:
 488              	.LFB309:
 489              		.loc 4 298 53 is_stmt 1 view -0
 490              		.cfi_startproc
 491              		@ args = 0, pretend = 0, frame = 0
 492              		@ frame_needed = 0, uses_anonymous_args = 0
 493              		@ link register save eliminated.
 494              		.loc 4 300 21 view .LVU129
 495              		.loc 4 301 3 view .LVU130
 496              		.loc 4 301 3 view .LVU131
 497              		.loc 4 301 3 view .LVU132
 498              		.loc 4 303 3 view .LVU133
 499              		.loc 4 303 16 is_stmt 0 view .LVU134
 500 0000 436B     		ldr	r3, [r0, #52]
 501 0002 1943     		orrs	r1, r1, r3
 502              	.LVL35:
 503              		.loc 4 305 11 view .LVU135
 504 0004 90F82030 		ldrb	r3, [r0, #32]	@ zero_extendqisi2
 505              		.loc 4 305 6 view .LVU136
 506 0008 0A2B     		cmp	r3, #10
 507              		.loc 4 303 16 view .LVU137
 508 000a 4163     		str	r1, [r0, #52]
 509              		.loc 4 305 3 is_stmt 1 view .LVU138
 510              		.loc 4 305 6 is_stmt 0 view .LVU139
 511 000c 03D1     		bne	.L20
 512              		.loc 4 306 23 discriminator 1 view .LVU140
 513 000e 436A     		ldr	r3, [r0, #36]
ARM GAS  /tmp/ccyUImpM.s 			page 10


 514              		.loc 4 305 40 discriminator 1 view .LVU141
 515 0010 1942     		tst	r1, r3
 516 0012 05D1     		bne	.L21
 517 0014 7047     		bx	lr
 518              	.L20:
 519              		.loc 4 306 59 view .LVU142
 520 0016 0B2B     		cmp	r3, #11
 521 0018 06D1     		bne	.L19
 522              		.loc 4 308 30 view .LVU143
 523 001a 436A     		ldr	r3, [r0, #36]
 524              		.loc 4 307 41 view .LVU144
 525 001c 8B43     		bics	r3, r3, r1
 526 001e 03D1     		bne	.L19
 527              	.L21:
 528              		.loc 4 309 5 is_stmt 1 view .LVU145
 529              		.loc 4 309 18 is_stmt 0 view .LVU146
 530 0020 0023     		movs	r3, #0
 531 0022 4362     		str	r3, [r0, #36]
 532              		.loc 4 310 5 is_stmt 1 view .LVU147
 533              		.loc 4 310 12 is_stmt 0 view .LVU148
 534 0024 FFF7FEBF 		b	chSchReadyI
 535              	.LVL36:
 536              	.L19:
 537              		.loc 4 312 1 view .LVU149
 538 0028 7047     		bx	lr
 539              		.cfi_endproc
 540              	.LFE309:
 541              		.size	chEvtSignalI, .-chEvtSignalI
 542              		.section	.text.chEvtBroadcastFlagsI,"ax",%progbits
 543              		.align	1
 544              		.global	chEvtBroadcastFlagsI
 545              		.syntax unified
 546              		.thumb
 547              		.thumb_func
 548              		.fpu fpv4-sp-d16
 549              		.type	chEvtBroadcastFlagsI, %function
 550              	chEvtBroadcastFlagsI:
 551              	.LVL37:
 552              	.LFB306:
 553              		.loc 4 225 68 is_stmt 1 view -0
 554              		.cfi_startproc
 555              		@ args = 0, pretend = 0, frame = 0
 556              		@ frame_needed = 0, uses_anonymous_args = 0
 557              		.loc 4 226 3 view .LVU151
 558              		.loc 4 228 21 view .LVU152
 559              		.loc 4 229 3 view .LVU153
 560              		.loc 4 229 3 view .LVU154
 561              		.loc 4 229 3 view .LVU155
 562              		.loc 4 231 3 view .LVU156
 563              		.loc 4 225 68 is_stmt 0 view .LVU157
 564 0000 70B5     		push	{r4, r5, r6, lr}
 565              		.cfi_def_cfa_offset 16
 566              		.cfi_offset 4, -16
 567              		.cfi_offset 5, -12
 568              		.cfi_offset 6, -8
 569              		.cfi_offset 14, -4
 570              		.loc 4 225 68 view .LVU158
ARM GAS  /tmp/ccyUImpM.s 			page 11


 571 0002 0646     		mov	r6, r0
 572 0004 0D46     		mov	r5, r1
 573              		.loc 4 231 7 view .LVU159
 574 0006 0468     		ldr	r4, [r0]
 575              	.LVL38:
 576              		.loc 4 233 3 is_stmt 1 view .LVU160
 577              	.L24:
 578              		.loc 4 233 9 view .LVU161
 579 0008 B442     		cmp	r4, r6
 580 000a 00D1     		bne	.L27
 581              		.loc 4 244 1 is_stmt 0 view .LVU162
 582 000c 70BD     		pop	{r4, r5, r6, pc}
 583              	.LVL39:
 584              	.L27:
 585              		.loc 4 235 5 is_stmt 1 view .LVU163
 586              		.loc 4 235 16 is_stmt 0 view .LVU164
 587 000e E368     		ldr	r3, [r4, #12]
 588 0010 2B43     		orrs	r3, r3, r5
 589 0012 E360     		str	r3, [r4, #12]
 590              		.loc 4 238 5 is_stmt 1 view .LVU165
 591              		.loc 4 238 8 is_stmt 0 view .LVU166
 592 0014 15B1     		cbz	r5, .L25
 593              		.loc 4 239 17 discriminator 1 view .LVU167
 594 0016 2369     		ldr	r3, [r4, #16]
 595              		.loc 4 238 36 discriminator 1 view .LVU168
 596 0018 1D42     		tst	r5, r3
 597 001a 03D0     		beq	.L26
 598              	.L25:
 599              		.loc 4 240 7 is_stmt 1 view .LVU169
 600 001c D4E90101 		ldrd	r0, r1, [r4, #4]
 601 0020 FFF7FEFF 		bl	chEvtSignalI
 602              	.LVL40:
 603              	.L26:
 604              		.loc 4 242 5 view .LVU170
 605              		.loc 4 242 9 is_stmt 0 view .LVU171
 606 0024 2468     		ldr	r4, [r4]
 607              	.LVL41:
 608              		.loc 4 242 9 view .LVU172
 609 0026 EFE7     		b	.L24
 610              		.cfi_endproc
 611              	.LFE306:
 612              		.size	chEvtBroadcastFlagsI, .-chEvtBroadcastFlagsI
 613              		.section	.text.chEvtSignal,"ax",%progbits
 614              		.align	1
 615              		.global	chEvtSignal
 616              		.syntax unified
 617              		.thumb
 618              		.thumb_func
 619              		.fpu fpv4-sp-d16
 620              		.type	chEvtSignal, %function
 621              	chEvtSignal:
 622              	.LVL42:
 623              	.LFB308:
 624              		.loc 4 276 52 is_stmt 1 view -0
 625              		.cfi_startproc
 626              		@ args = 0, pretend = 0, frame = 8
 627              		@ frame_needed = 0, uses_anonymous_args = 0
ARM GAS  /tmp/ccyUImpM.s 			page 12


 628              		.loc 4 278 3 view .LVU174
 629              		.loc 4 278 3 view .LVU175
 630              		.loc 4 278 3 view .LVU176
 631              		.loc 4 280 3 view .LVU177
 632              		.loc 4 276 52 is_stmt 0 view .LVU178
 633 0000 07B5     		push	{r0, r1, r2, lr}
 634              		.cfi_def_cfa_offset 16
 635              		.cfi_offset 14, -4
 636              		.loc 4 276 52 view .LVU179
 637 0002 CDE90010 		strd	r1, r0, [sp]
 638              		.loc 4 280 3 view .LVU180
 639 0006 FFF7FEFF 		bl	chSysLock
 640              	.LVL43:
 641              		.loc 4 281 3 is_stmt 1 view .LVU181
 642 000a DDE90010 		ldrd	r1, r0, [sp]
 643 000e FFF7FEFF 		bl	chEvtSignalI
 644              	.LVL44:
 645              		.loc 4 282 3 view .LVU182
 646 0012 FFF7FEFF 		bl	chSchRescheduleS
 647              	.LVL45:
 648              		.loc 4 283 3 view .LVU183
 649              		.loc 4 284 1 is_stmt 0 view .LVU184
 650 0016 03B0     		add	sp, sp, #12
 651              		.cfi_def_cfa_offset 4
 652              	.LVL46:
 653              		.loc 4 284 1 view .LVU185
 654              		@ sp needed
 655 0018 5DF804EB 		ldr	lr, [sp], #4
 656              		.cfi_restore 14
 657              		.cfi_def_cfa_offset 0
 658              	.LVL47:
 659              		.loc 4 283 3 view .LVU186
 660 001c FFF7FEBF 		b	chSysUnlock
 661              	.LVL48:
 662              		.cfi_endproc
 663              	.LFE308:
 664              		.size	chEvtSignal, .-chEvtSignal
 665              		.section	.text.chEvtBroadcastFlags,"ax",%progbits
 666              		.align	1
 667              		.global	chEvtBroadcastFlags
 668              		.syntax unified
 669              		.thumb
 670              		.thumb_func
 671              		.fpu fpv4-sp-d16
 672              		.type	chEvtBroadcastFlags, %function
 673              	chEvtBroadcastFlags:
 674              	.LVL49:
 675              	.LFB310:
 676              		.loc 4 327 67 is_stmt 1 view -0
 677              		.cfi_startproc
 678              		@ args = 0, pretend = 0, frame = 8
 679              		@ frame_needed = 0, uses_anonymous_args = 0
 680              		.loc 4 329 3 view .LVU188
 681              		.loc 4 327 67 is_stmt 0 view .LVU189
 682 0000 07B5     		push	{r0, r1, r2, lr}
 683              		.cfi_def_cfa_offset 16
 684              		.cfi_offset 14, -4
ARM GAS  /tmp/ccyUImpM.s 			page 13


 685              		.loc 4 327 67 view .LVU190
 686 0002 CDE90010 		strd	r1, r0, [sp]
 687              		.loc 4 329 3 view .LVU191
 688 0006 FFF7FEFF 		bl	chSysLock
 689              	.LVL50:
 690              		.loc 4 330 3 is_stmt 1 view .LVU192
 691 000a DDE90010 		ldrd	r1, r0, [sp]
 692 000e FFF7FEFF 		bl	chEvtBroadcastFlagsI
 693              	.LVL51:
 694              		.loc 4 331 3 view .LVU193
 695 0012 FFF7FEFF 		bl	chSchRescheduleS
 696              	.LVL52:
 697              		.loc 4 332 3 view .LVU194
 698              		.loc 4 333 1 is_stmt 0 view .LVU195
 699 0016 03B0     		add	sp, sp, #12
 700              		.cfi_def_cfa_offset 4
 701              	.LVL53:
 702              		.loc 4 333 1 view .LVU196
 703              		@ sp needed
 704 0018 5DF804EB 		ldr	lr, [sp], #4
 705              		.cfi_restore 14
 706              		.cfi_def_cfa_offset 0
 707              	.LVL54:
 708              		.loc 4 332 3 view .LVU197
 709 001c FFF7FEBF 		b	chSysUnlock
 710              	.LVL55:
 711              		.cfi_endproc
 712              	.LFE310:
 713              		.size	chEvtBroadcastFlags, .-chEvtBroadcastFlags
 714              		.section	.text.chEvtGetAndClearFlagsI,"ax",%progbits
 715              		.align	1
 716              		.global	chEvtGetAndClearFlagsI
 717              		.syntax unified
 718              		.thumb
 719              		.thumb_func
 720              		.fpu fpv4-sp-d16
 721              		.type	chEvtGetAndClearFlagsI, %function
 722              	chEvtGetAndClearFlagsI:
 723              	.LVL56:
 724              	.LFB311:
 725              		.loc 4 346 60 is_stmt 1 view -0
 726              		.cfi_startproc
 727              		@ args = 0, pretend = 0, frame = 0
 728              		@ frame_needed = 0, uses_anonymous_args = 0
 729              		@ link register save eliminated.
 730              		.loc 4 347 3 view .LVU199
 731              		.loc 4 349 3 view .LVU200
 732              		.loc 4 350 14 is_stmt 0 view .LVU201
 733 0000 0023     		movs	r3, #0
 734              		.loc 4 349 9 view .LVU202
 735 0002 C268     		ldr	r2, [r0, #12]
 736              	.LVL57:
 737              		.loc 4 350 3 is_stmt 1 view .LVU203
 738              		.loc 4 350 14 is_stmt 0 view .LVU204
 739 0004 C360     		str	r3, [r0, #12]
 740              		.loc 4 352 3 is_stmt 1 view .LVU205
 741              		.loc 4 352 16 is_stmt 0 view .LVU206
ARM GAS  /tmp/ccyUImpM.s 			page 14


 742 0006 0069     		ldr	r0, [r0, #16]
 743              	.LVL58:
 744              		.loc 4 353 1 view .LVU207
 745 0008 1040     		ands	r0, r0, r2
 746 000a 7047     		bx	lr
 747              		.cfi_endproc
 748              	.LFE311:
 749              		.size	chEvtGetAndClearFlagsI, .-chEvtGetAndClearFlagsI
 750              		.section	.text.chEvtDispatch,"ax",%progbits
 751              		.align	1
 752              		.global	chEvtDispatch
 753              		.syntax unified
 754              		.thumb
 755              		.thumb_func
 756              		.fpu fpv4-sp-d16
 757              		.type	chEvtDispatch, %function
 758              	chEvtDispatch:
 759              	.LVL59:
 760              	.LFB312:
 761              		.loc 4 364 69 is_stmt 1 view -0
 762              		.cfi_startproc
 763              		@ args = 0, pretend = 0, frame = 0
 764              		@ frame_needed = 0, uses_anonymous_args = 0
 765              		.loc 4 365 3 view .LVU209
 766              		.loc 4 367 3 view .LVU210
 767              		.loc 4 367 3 view .LVU211
 768              		.loc 4 367 3 view .LVU212
 769              		.loc 4 369 3 view .LVU213
 770              		.loc 4 370 3 view .LVU214
 771              		.loc 4 364 69 is_stmt 0 view .LVU215
 772 0000 F8B5     		push	{r3, r4, r5, r6, r7, lr}
 773              		.cfi_def_cfa_offset 24
 774              		.cfi_offset 3, -24
 775              		.cfi_offset 4, -20
 776              		.cfi_offset 5, -16
 777              		.cfi_offset 6, -12
 778              		.cfi_offset 7, -8
 779              		.cfi_offset 14, -4
 780              		.loc 4 364 69 view .LVU216
 781 0002 0646     		mov	r6, r0
 782 0004 0C46     		mov	r4, r1
 783              		.loc 4 369 7 view .LVU217
 784 0006 0025     		movs	r5, #0
 785              		.loc 4 373 18 view .LVU218
 786 0008 0127     		movs	r7, #1
 787              	.LVL60:
 788              	.L38:
 789              		.loc 4 370 9 is_stmt 1 view .LVU219
 790 000a 04B9     		cbnz	r4, .L40
 791              		.loc 4 378 1 is_stmt 0 view .LVU220
 792 000c F8BD     		pop	{r3, r4, r5, r6, r7, pc}
 793              	.LVL61:
 794              	.L40:
 795              		.loc 4 371 5 is_stmt 1 view .LVU221
 796              		.loc 4 371 36 is_stmt 0 view .LVU222
 797 000e 24FA05F3 		lsr	r3, r4, r5
 798              		.loc 4 371 8 view .LVU223
ARM GAS  /tmp/ccyUImpM.s 			page 15


 799 0012 DB07     		lsls	r3, r3, #31
 800 0014 07D5     		bpl	.L39
 801              		.loc 4 372 7 is_stmt 1 discriminator 5 view .LVU224
 802              		.loc 4 372 7 discriminator 5 view .LVU225
 803              		.loc 4 372 7 discriminator 5 view .LVU226
 804              		.loc 4 373 7 discriminator 5 view .LVU227
 805              		.loc 4 373 18 is_stmt 0 discriminator 5 view .LVU228
 806 0016 07FA05F3 		lsl	r3, r7, r5
 807              		.loc 4 374 7 discriminator 5 view .LVU229
 808 001a 2846     		mov	r0, r5
 809              		.loc 4 373 14 discriminator 5 view .LVU230
 810 001c 24EA0304 		bic	r4, r4, r3
 811              	.LVL62:
 812              		.loc 4 374 7 is_stmt 1 discriminator 5 view .LVU231
 813 0020 56F82530 		ldr	r3, [r6, r5, lsl #2]
 814 0024 9847     		blx	r3
 815              	.LVL63:
 816              	.L39:
 817              		.loc 4 376 5 view .LVU232
 818              		.loc 4 376 8 is_stmt 0 view .LVU233
 819 0026 0135     		adds	r5, r5, #1
 820              	.LVL64:
 821              		.loc 4 376 8 view .LVU234
 822 0028 EFE7     		b	.L38
 823              		.cfi_endproc
 824              	.LFE312:
 825              		.size	chEvtDispatch, .-chEvtDispatch
 826              		.section	.text.chEvtWaitOne,"ax",%progbits
 827              		.align	1
 828              		.global	chEvtWaitOne
 829              		.syntax unified
 830              		.thumb
 831              		.thumb_func
 832              		.fpu fpv4-sp-d16
 833              		.type	chEvtWaitOne, %function
 834              	chEvtWaitOne:
 835              	.LVL65:
 836              	.LFB313:
 837              		.loc 4 399 46 is_stmt 1 view -0
 838              		.cfi_startproc
 839              		@ args = 0, pretend = 0, frame = 0
 840              		@ frame_needed = 0, uses_anonymous_args = 0
 841              		.loc 4 400 3 view .LVU236
 842              		.loc 4 399 46 is_stmt 0 view .LVU237
 843 0000 38B5     		push	{r3, r4, r5, lr}
 844              		.cfi_def_cfa_offset 16
 845              		.cfi_offset 3, -16
 846              		.cfi_offset 4, -12
 847              		.cfi_offset 5, -8
 848              		.cfi_offset 14, -4
 849              		.loc 4 400 13 view .LVU238
 850 0002 0C4B     		ldr	r3, .L46
 851              		.loc 4 399 46 view .LVU239
 852 0004 0446     		mov	r4, r0
 853              		.loc 4 400 13 view .LVU240
 854 0006 9D69     		ldr	r5, [r3, #24]
 855              	.LVL66:
ARM GAS  /tmp/ccyUImpM.s 			page 16


 856              		.loc 4 401 3 is_stmt 1 view .LVU241
 857              		.loc 4 403 3 view .LVU242
 858 0008 FFF7FEFF 		bl	chSysLock
 859              	.LVL67:
 860              		.loc 4 404 3 view .LVU243
 861              		.loc 4 404 5 is_stmt 0 view .LVU244
 862 000c 6B6B     		ldr	r3, [r5, #52]
 863              	.LVL68:
 864              		.loc 4 405 3 is_stmt 1 view .LVU245
 865              		.loc 4 405 6 is_stmt 0 view .LVU246
 866 000e 2340     		ands	r3, r4, r3
 867              	.LVL69:
 868              		.loc 4 405 6 view .LVU247
 869 0010 05D1     		bne	.L45
 870              		.loc 4 406 5 is_stmt 1 view .LVU248
 871              		.loc 4 407 5 is_stmt 0 view .LVU249
 872 0012 0A20     		movs	r0, #10
 873              		.loc 4 406 19 view .LVU250
 874 0014 6C62     		str	r4, [r5, #36]
 875              		.loc 4 407 5 is_stmt 1 view .LVU251
 876 0016 FFF7FEFF 		bl	chSchGoSleepS
 877              	.LVL70:
 878              		.loc 4 408 5 view .LVU252
 879              		.loc 4 408 7 is_stmt 0 view .LVU253
 880 001a 6B6B     		ldr	r3, [r5, #52]
 881 001c 2340     		ands	r3, r3, r4
 882              	.LVL71:
 883              	.L45:
 884              		.loc 4 410 3 is_stmt 1 view .LVU254
 885              		.loc 4 410 5 is_stmt 0 view .LVU255
 886 001e 5C42     		rsbs	r4, r3, #0
 887              	.LVL72:
 888              		.loc 4 410 5 view .LVU256
 889 0020 1C40     		ands	r4, r4, r3
 890              	.LVL73:
 891              		.loc 4 411 3 is_stmt 1 view .LVU257
 892              		.loc 4 411 17 is_stmt 0 view .LVU258
 893 0022 6B6B     		ldr	r3, [r5, #52]
 894 0024 23EA0403 		bic	r3, r3, r4
 895 0028 6B63     		str	r3, [r5, #52]
 896              		.loc 4 412 3 is_stmt 1 view .LVU259
 897 002a FFF7FEFF 		bl	chSysUnlock
 898              	.LVL74:
 899              		.loc 4 414 3 view .LVU260
 900              		.loc 4 415 1 is_stmt 0 view .LVU261
 901 002e 2046     		mov	r0, r4
 902 0030 38BD     		pop	{r3, r4, r5, pc}
 903              	.LVL75:
 904              	.L47:
 905              		.loc 4 415 1 view .LVU262
 906 0032 00BF     		.align	2
 907              	.L46:
 908 0034 00000000 		.word	ch
 909              		.cfi_endproc
 910              	.LFE313:
 911              		.size	chEvtWaitOne, .-chEvtWaitOne
 912              		.section	.text.chEvtWaitAny,"ax",%progbits
ARM GAS  /tmp/ccyUImpM.s 			page 17


 913              		.align	1
 914              		.global	chEvtWaitAny
 915              		.syntax unified
 916              		.thumb
 917              		.thumb_func
 918              		.fpu fpv4-sp-d16
 919              		.type	chEvtWaitAny, %function
 920              	chEvtWaitAny:
 921              	.LVL76:
 922              	.LFB314:
 923              		.loc 4 429 46 is_stmt 1 view -0
 924              		.cfi_startproc
 925              		@ args = 0, pretend = 0, frame = 0
 926              		@ frame_needed = 0, uses_anonymous_args = 0
 927              		.loc 4 430 3 view .LVU264
 928              		.loc 4 430 13 is_stmt 0 view .LVU265
 929 0000 0B4B     		ldr	r3, .L50
 930              		.loc 4 429 46 view .LVU266
 931 0002 70B5     		push	{r4, r5, r6, lr}
 932              		.cfi_def_cfa_offset 16
 933              		.cfi_offset 4, -16
 934              		.cfi_offset 5, -12
 935              		.cfi_offset 6, -8
 936              		.cfi_offset 14, -4
 937              		.loc 4 430 13 view .LVU267
 938 0004 9E69     		ldr	r6, [r3, #24]
 939              	.LVL77:
 940              		.loc 4 431 3 is_stmt 1 view .LVU268
 941              		.loc 4 433 3 view .LVU269
 942              		.loc 4 429 46 is_stmt 0 view .LVU270
 943 0006 0546     		mov	r5, r0
 944              		.loc 4 433 3 view .LVU271
 945 0008 FFF7FEFF 		bl	chSysLock
 946              	.LVL78:
 947              		.loc 4 434 3 is_stmt 1 view .LVU272
 948              		.loc 4 434 5 is_stmt 0 view .LVU273
 949 000c 746B     		ldr	r4, [r6, #52]
 950              	.LVL79:
 951              		.loc 4 435 3 is_stmt 1 view .LVU274
 952              		.loc 4 435 6 is_stmt 0 view .LVU275
 953 000e 2C40     		ands	r4, r5, r4
 954              	.LVL80:
 955              		.loc 4 435 6 view .LVU276
 956 0010 05D1     		bne	.L49
 957              		.loc 4 436 5 is_stmt 1 view .LVU277
 958              		.loc 4 437 5 is_stmt 0 view .LVU278
 959 0012 0A20     		movs	r0, #10
 960              		.loc 4 436 19 view .LVU279
 961 0014 7562     		str	r5, [r6, #36]
 962              		.loc 4 437 5 is_stmt 1 view .LVU280
 963 0016 FFF7FEFF 		bl	chSchGoSleepS
 964              	.LVL81:
 965              		.loc 4 438 5 view .LVU281
 966              		.loc 4 438 7 is_stmt 0 view .LVU282
 967 001a 746B     		ldr	r4, [r6, #52]
 968              	.LVL82:
 969              		.loc 4 438 7 view .LVU283
ARM GAS  /tmp/ccyUImpM.s 			page 18


 970 001c 2C40     		ands	r4, r4, r5
 971              	.LVL83:
 972              	.L49:
 973              		.loc 4 440 3 is_stmt 1 view .LVU284
 974              		.loc 4 440 17 is_stmt 0 view .LVU285
 975 001e 736B     		ldr	r3, [r6, #52]
 976 0020 23EA0403 		bic	r3, r3, r4
 977 0024 7363     		str	r3, [r6, #52]
 978              		.loc 4 441 3 is_stmt 1 view .LVU286
 979 0026 FFF7FEFF 		bl	chSysUnlock
 980              	.LVL84:
 981              		.loc 4 443 3 view .LVU287
 982              		.loc 4 444 1 is_stmt 0 view .LVU288
 983 002a 2046     		mov	r0, r4
 984 002c 70BD     		pop	{r4, r5, r6, pc}
 985              	.LVL85:
 986              	.L51:
 987              		.loc 4 444 1 view .LVU289
 988 002e 00BF     		.align	2
 989              	.L50:
 990 0030 00000000 		.word	ch
 991              		.cfi_endproc
 992              	.LFE314:
 993              		.size	chEvtWaitAny, .-chEvtWaitAny
 994              		.section	.text.chEvtWaitAll,"ax",%progbits
 995              		.align	1
 996              		.global	chEvtWaitAll
 997              		.syntax unified
 998              		.thumb
 999              		.thumb_func
 1000              		.fpu fpv4-sp-d16
 1001              		.type	chEvtWaitAll, %function
 1002              	chEvtWaitAll:
 1003              	.LVL86:
 1004              	.LFB315:
 1005              		.loc 4 457 46 is_stmt 1 view -0
 1006              		.cfi_startproc
 1007              		@ args = 0, pretend = 0, frame = 0
 1008              		@ frame_needed = 0, uses_anonymous_args = 0
 1009              		.loc 4 458 3 view .LVU291
 1010              		.loc 4 457 46 is_stmt 0 view .LVU292
 1011 0000 38B5     		push	{r3, r4, r5, lr}
 1012              		.cfi_def_cfa_offset 16
 1013              		.cfi_offset 3, -16
 1014              		.cfi_offset 4, -12
 1015              		.cfi_offset 5, -8
 1016              		.cfi_offset 14, -4
 1017              		.loc 4 458 13 view .LVU293
 1018 0002 0A4B     		ldr	r3, .L54
 1019              		.loc 4 457 46 view .LVU294
 1020 0004 0446     		mov	r4, r0
 1021              		.loc 4 458 13 view .LVU295
 1022 0006 9D69     		ldr	r5, [r3, #24]
 1023              	.LVL87:
 1024              		.loc 4 460 3 is_stmt 1 view .LVU296
 1025 0008 FFF7FEFF 		bl	chSysLock
 1026              	.LVL88:
ARM GAS  /tmp/ccyUImpM.s 			page 19


 1027              		.loc 4 461 3 view .LVU297
 1028              		.loc 4 461 22 is_stmt 0 view .LVU298
 1029 000c 6B6B     		ldr	r3, [r5, #52]
 1030              		.loc 4 461 6 view .LVU299
 1031 000e 34EA0303 		bics	r3, r4, r3
 1032 0012 03D0     		beq	.L53
 1033              		.loc 4 462 5 is_stmt 1 view .LVU300
 1034              		.loc 4 463 5 is_stmt 0 view .LVU301
 1035 0014 0B20     		movs	r0, #11
 1036              		.loc 4 462 19 view .LVU302
 1037 0016 6C62     		str	r4, [r5, #36]
 1038              		.loc 4 463 5 is_stmt 1 view .LVU303
 1039 0018 FFF7FEFF 		bl	chSchGoSleepS
 1040              	.LVL89:
 1041              	.L53:
 1042              		.loc 4 465 3 view .LVU304
 1043              		.loc 4 465 17 is_stmt 0 view .LVU305
 1044 001c 6B6B     		ldr	r3, [r5, #52]
 1045 001e 23EA0403 		bic	r3, r3, r4
 1046 0022 6B63     		str	r3, [r5, #52]
 1047              		.loc 4 466 3 is_stmt 1 view .LVU306
 1048 0024 FFF7FEFF 		bl	chSysUnlock
 1049              	.LVL90:
 1050              		.loc 4 468 3 view .LVU307
 1051              		.loc 4 469 1 is_stmt 0 view .LVU308
 1052 0028 2046     		mov	r0, r4
 1053 002a 38BD     		pop	{r3, r4, r5, pc}
 1054              	.LVL91:
 1055              	.L55:
 1056              		.loc 4 469 1 view .LVU309
 1057              		.align	2
 1058              	.L54:
 1059 002c 00000000 		.word	ch
 1060              		.cfi_endproc
 1061              	.LFE315:
 1062              		.size	chEvtWaitAll, .-chEvtWaitAll
 1063              		.section	.text.chEvtWaitOneTimeout,"ax",%progbits
 1064              		.align	1
 1065              		.global	chEvtWaitOneTimeout
 1066              		.syntax unified
 1067              		.thumb
 1068              		.thumb_func
 1069              		.fpu fpv4-sp-d16
 1070              		.type	chEvtWaitOneTimeout, %function
 1071              	chEvtWaitOneTimeout:
 1072              	.LVL92:
 1073              	.LFB316:
 1074              		.loc 4 495 76 is_stmt 1 view -0
 1075              		.cfi_startproc
 1076              		@ args = 0, pretend = 0, frame = 0
 1077              		@ frame_needed = 0, uses_anonymous_args = 0
 1078              		.loc 4 496 3 view .LVU311
 1079              		.loc 4 495 76 is_stmt 0 view .LVU312
 1080 0000 F8B5     		push	{r3, r4, r5, r6, r7, lr}
 1081              		.cfi_def_cfa_offset 24
 1082              		.cfi_offset 3, -24
 1083              		.cfi_offset 4, -20
ARM GAS  /tmp/ccyUImpM.s 			page 20


 1084              		.cfi_offset 5, -16
 1085              		.cfi_offset 6, -12
 1086              		.cfi_offset 7, -8
 1087              		.cfi_offset 14, -4
 1088              		.loc 4 496 13 view .LVU313
 1089 0002 0F4B     		ldr	r3, .L62
 1090              		.loc 4 495 76 view .LVU314
 1091 0004 0546     		mov	r5, r0
 1092 0006 0F46     		mov	r7, r1
 1093              		.loc 4 496 13 view .LVU315
 1094 0008 9E69     		ldr	r6, [r3, #24]
 1095              	.LVL93:
 1096              		.loc 4 497 3 is_stmt 1 view .LVU316
 1097              		.loc 4 499 3 view .LVU317
 1098 000a FFF7FEFF 		bl	chSysLock
 1099              	.LVL94:
 1100              		.loc 4 500 3 view .LVU318
 1101              		.loc 4 500 5 is_stmt 0 view .LVU319
 1102 000e 746B     		ldr	r4, [r6, #52]
 1103              	.LVL95:
 1104              		.loc 4 501 3 is_stmt 1 view .LVU320
 1105              		.loc 4 501 6 is_stmt 0 view .LVU321
 1106 0010 2C40     		ands	r4, r5, r4
 1107              	.LVL96:
 1108              		.loc 4 501 6 view .LVU322
 1109 0012 0DD1     		bne	.L57
 1110              		.loc 4 502 5 is_stmt 1 view .LVU323
 1111              		.loc 4 502 8 is_stmt 0 view .LVU324
 1112 0014 1FB9     		cbnz	r7, .L58
 1113              	.LVL97:
 1114              	.L61:
 1115              		.loc 4 515 3 is_stmt 1 view .LVU325
 1116 0016 FFF7FEFF 		bl	chSysUnlock
 1117              	.LVL98:
 1118              		.loc 4 517 3 view .LVU326
 1119              		.loc 4 518 1 is_stmt 0 view .LVU327
 1120 001a 2046     		mov	r0, r4
 1121 001c F8BD     		pop	{r3, r4, r5, r6, r7, pc}
 1122              	.LVL99:
 1123              	.L58:
 1124              		.loc 4 506 5 is_stmt 1 view .LVU328
 1125              		.loc 4 507 9 is_stmt 0 view .LVU329
 1126 001e 3946     		mov	r1, r7
 1127 0020 0A20     		movs	r0, #10
 1128              		.loc 4 506 19 view .LVU330
 1129 0022 7562     		str	r5, [r6, #36]
 1130              		.loc 4 507 5 is_stmt 1 view .LVU331
 1131              		.loc 4 507 9 is_stmt 0 view .LVU332
 1132 0024 FFF7FEFF 		bl	chSchGoSleepTimeoutS
 1133              	.LVL100:
 1134              		.loc 4 507 8 view .LVU333
 1135 0028 0028     		cmp	r0, #0
 1136 002a F4DB     		blt	.L61
 1137              		.loc 4 511 5 is_stmt 1 view .LVU334
 1138              		.loc 4 511 7 is_stmt 0 view .LVU335
 1139 002c 746B     		ldr	r4, [r6, #52]
 1140              	.LVL101:
ARM GAS  /tmp/ccyUImpM.s 			page 21


 1141              		.loc 4 511 7 view .LVU336
 1142 002e 2C40     		ands	r4, r4, r5
 1143              	.LVL102:
 1144              	.L57:
 1145              		.loc 4 513 3 is_stmt 1 view .LVU337
 1146              		.loc 4 513 5 is_stmt 0 view .LVU338
 1147 0030 6342     		rsbs	r3, r4, #0
 1148 0032 1C40     		ands	r4, r4, r3
 1149              	.LVL103:
 1150              		.loc 4 514 3 is_stmt 1 view .LVU339
 1151              		.loc 4 514 17 is_stmt 0 view .LVU340
 1152 0034 736B     		ldr	r3, [r6, #52]
 1153 0036 23EA0403 		bic	r3, r3, r4
 1154 003a 7363     		str	r3, [r6, #52]
 1155 003c EBE7     		b	.L61
 1156              	.L63:
 1157 003e 00BF     		.align	2
 1158              	.L62:
 1159 0040 00000000 		.word	ch
 1160              		.cfi_endproc
 1161              	.LFE316:
 1162              		.size	chEvtWaitOneTimeout, .-chEvtWaitOneTimeout
 1163              		.section	.text.chEvtWaitAnyTimeout,"ax",%progbits
 1164              		.align	1
 1165              		.global	chEvtWaitAnyTimeout
 1166              		.syntax unified
 1167              		.thumb
 1168              		.thumb_func
 1169              		.fpu fpv4-sp-d16
 1170              		.type	chEvtWaitAnyTimeout, %function
 1171              	chEvtWaitAnyTimeout:
 1172              	.LVL104:
 1173              	.LFB317:
 1174              		.loc 4 538 76 is_stmt 1 view -0
 1175              		.cfi_startproc
 1176              		@ args = 0, pretend = 0, frame = 0
 1177              		@ frame_needed = 0, uses_anonymous_args = 0
 1178              		.loc 4 539 3 view .LVU342
 1179              		.loc 4 538 76 is_stmt 0 view .LVU343
 1180 0000 F8B5     		push	{r3, r4, r5, r6, r7, lr}
 1181              		.cfi_def_cfa_offset 24
 1182              		.cfi_offset 3, -24
 1183              		.cfi_offset 4, -20
 1184              		.cfi_offset 5, -16
 1185              		.cfi_offset 6, -12
 1186              		.cfi_offset 7, -8
 1187              		.cfi_offset 14, -4
 1188              		.loc 4 539 13 view .LVU344
 1189 0002 0E4B     		ldr	r3, .L70
 1190              		.loc 4 538 76 view .LVU345
 1191 0004 0546     		mov	r5, r0
 1192 0006 0F46     		mov	r7, r1
 1193              		.loc 4 539 13 view .LVU346
 1194 0008 9E69     		ldr	r6, [r3, #24]
 1195              	.LVL105:
 1196              		.loc 4 540 3 is_stmt 1 view .LVU347
 1197              		.loc 4 542 3 view .LVU348
ARM GAS  /tmp/ccyUImpM.s 			page 22


 1198 000a FFF7FEFF 		bl	chSysLock
 1199              	.LVL106:
 1200              		.loc 4 543 3 view .LVU349
 1201              		.loc 4 543 5 is_stmt 0 view .LVU350
 1202 000e 746B     		ldr	r4, [r6, #52]
 1203              	.LVL107:
 1204              		.loc 4 544 3 is_stmt 1 view .LVU351
 1205              		.loc 4 544 6 is_stmt 0 view .LVU352
 1206 0010 2C40     		ands	r4, r5, r4
 1207              	.LVL108:
 1208              		.loc 4 544 6 view .LVU353
 1209 0012 0DD1     		bne	.L65
 1210              		.loc 4 545 5 is_stmt 1 view .LVU354
 1211              		.loc 4 545 8 is_stmt 0 view .LVU355
 1212 0014 1FB9     		cbnz	r7, .L66
 1213              	.LVL109:
 1214              	.L69:
 1215              		.loc 4 557 3 is_stmt 1 view .LVU356
 1216 0016 FFF7FEFF 		bl	chSysUnlock
 1217              	.LVL110:
 1218              		.loc 4 559 3 view .LVU357
 1219              		.loc 4 560 1 is_stmt 0 view .LVU358
 1220 001a 2046     		mov	r0, r4
 1221 001c F8BD     		pop	{r3, r4, r5, r6, r7, pc}
 1222              	.LVL111:
 1223              	.L66:
 1224              		.loc 4 549 5 is_stmt 1 view .LVU359
 1225              		.loc 4 550 9 is_stmt 0 view .LVU360
 1226 001e 3946     		mov	r1, r7
 1227 0020 0A20     		movs	r0, #10
 1228              		.loc 4 549 19 view .LVU361
 1229 0022 7562     		str	r5, [r6, #36]
 1230              		.loc 4 550 5 is_stmt 1 view .LVU362
 1231              		.loc 4 550 9 is_stmt 0 view .LVU363
 1232 0024 FFF7FEFF 		bl	chSchGoSleepTimeoutS
 1233              	.LVL112:
 1234              		.loc 4 550 8 view .LVU364
 1235 0028 0028     		cmp	r0, #0
 1236 002a F4DB     		blt	.L69
 1237              		.loc 4 554 5 is_stmt 1 view .LVU365
 1238              		.loc 4 554 7 is_stmt 0 view .LVU366
 1239 002c 746B     		ldr	r4, [r6, #52]
 1240              	.LVL113:
 1241              		.loc 4 554 7 view .LVU367
 1242 002e 2C40     		ands	r4, r4, r5
 1243              	.LVL114:
 1244              	.L65:
 1245              		.loc 4 556 3 is_stmt 1 view .LVU368
 1246              		.loc 4 556 17 is_stmt 0 view .LVU369
 1247 0030 736B     		ldr	r3, [r6, #52]
 1248 0032 23EA0403 		bic	r3, r3, r4
 1249 0036 7363     		str	r3, [r6, #52]
 1250 0038 EDE7     		b	.L69
 1251              	.L71:
 1252 003a 00BF     		.align	2
 1253              	.L70:
 1254 003c 00000000 		.word	ch
ARM GAS  /tmp/ccyUImpM.s 			page 23


 1255              		.cfi_endproc
 1256              	.LFE317:
 1257              		.size	chEvtWaitAnyTimeout, .-chEvtWaitAnyTimeout
 1258              		.section	.text.chEvtWaitAllTimeout,"ax",%progbits
 1259              		.align	1
 1260              		.global	chEvtWaitAllTimeout
 1261              		.syntax unified
 1262              		.thumb
 1263              		.thumb_func
 1264              		.fpu fpv4-sp-d16
 1265              		.type	chEvtWaitAllTimeout, %function
 1266              	chEvtWaitAllTimeout:
 1267              	.LVL115:
 1268              	.LFB318:
 1269              		.loc 4 579 76 is_stmt 1 view -0
 1270              		.cfi_startproc
 1271              		@ args = 0, pretend = 0, frame = 0
 1272              		@ frame_needed = 0, uses_anonymous_args = 0
 1273              		.loc 4 580 3 view .LVU371
 1274              		.loc 4 580 13 is_stmt 0 view .LVU372
 1275 0000 0F4B     		ldr	r3, .L77
 1276              		.loc 4 579 76 view .LVU373
 1277 0002 70B5     		push	{r4, r5, r6, lr}
 1278              		.cfi_def_cfa_offset 16
 1279              		.cfi_offset 4, -16
 1280              		.cfi_offset 5, -12
 1281              		.cfi_offset 6, -8
 1282              		.cfi_offset 14, -4
 1283              		.loc 4 580 13 view .LVU374
 1284 0004 9D69     		ldr	r5, [r3, #24]
 1285              	.LVL116:
 1286              		.loc 4 582 3 is_stmt 1 view .LVU375
 1287              		.loc 4 579 76 is_stmt 0 view .LVU376
 1288 0006 0446     		mov	r4, r0
 1289 0008 0E46     		mov	r6, r1
 1290              		.loc 4 582 3 view .LVU377
 1291 000a FFF7FEFF 		bl	chSysLock
 1292              	.LVL117:
 1293              		.loc 4 583 3 is_stmt 1 view .LVU378
 1294              		.loc 4 583 22 is_stmt 0 view .LVU379
 1295 000e 6B6B     		ldr	r3, [r5, #52]
 1296              		.loc 4 583 6 view .LVU380
 1297 0010 34EA0303 		bics	r3, r4, r3
 1298 0014 0CD0     		beq	.L73
 1299              		.loc 4 584 5 is_stmt 1 view .LVU381
 1300              		.loc 4 584 8 is_stmt 0 view .LVU382
 1301 0016 26B9     		cbnz	r6, .L74
 1302              	.L76:
 1303              		.loc 4 585 7 is_stmt 1 view .LVU383
 1304              		.loc 4 586 14 is_stmt 0 view .LVU384
 1305 0018 0024     		movs	r4, #0
 1306              	.LVL118:
 1307              		.loc 4 585 7 view .LVU385
 1308 001a FFF7FEFF 		bl	chSysUnlock
 1309              	.LVL119:
 1310              		.loc 4 586 7 is_stmt 1 view .LVU386
 1311              	.L75:
ARM GAS  /tmp/ccyUImpM.s 			page 24


 1312              		.loc 4 598 1 is_stmt 0 view .LVU387
 1313 001e 2046     		mov	r0, r4
 1314 0020 70BD     		pop	{r4, r5, r6, pc}
 1315              	.LVL120:
 1316              	.L74:
 1317              		.loc 4 588 5 is_stmt 1 view .LVU388
 1318              		.loc 4 589 9 is_stmt 0 view .LVU389
 1319 0022 3146     		mov	r1, r6
 1320 0024 0B20     		movs	r0, #11
 1321              		.loc 4 588 19 view .LVU390
 1322 0026 6C62     		str	r4, [r5, #36]
 1323              		.loc 4 589 5 is_stmt 1 view .LVU391
 1324              		.loc 4 589 9 is_stmt 0 view .LVU392
 1325 0028 FFF7FEFF 		bl	chSchGoSleepTimeoutS
 1326              	.LVL121:
 1327              		.loc 4 589 8 view .LVU393
 1328 002c 0028     		cmp	r0, #0
 1329 002e F3DB     		blt	.L76
 1330              	.L73:
 1331              		.loc 4 594 3 is_stmt 1 view .LVU394
 1332              		.loc 4 594 17 is_stmt 0 view .LVU395
 1333 0030 6B6B     		ldr	r3, [r5, #52]
 1334 0032 23EA0403 		bic	r3, r3, r4
 1335 0036 6B63     		str	r3, [r5, #52]
 1336              		.loc 4 595 3 is_stmt 1 view .LVU396
 1337 0038 FFF7FEFF 		bl	chSysUnlock
 1338              	.LVL122:
 1339              		.loc 4 597 3 view .LVU397
 1340              		.loc 4 597 10 is_stmt 0 view .LVU398
 1341 003c EFE7     		b	.L75
 1342              	.L78:
 1343 003e 00BF     		.align	2
 1344              	.L77:
 1345 0040 00000000 		.word	ch
 1346              		.cfi_endproc
 1347              	.LFE318:
 1348              		.size	chEvtWaitAllTimeout, .-chEvtWaitAllTimeout
 1349              		.text
 1350              	.Letext0:
 1351              		.file 6 "/opt/gcc-arm-none-eabi-10-2020-q4-major/arm-none-eabi/include/machine/_default_types.h"
 1352              		.file 7 "/opt/gcc-arm-none-eabi-10-2020-q4-major/arm-none-eabi/include/sys/_stdint.h"
 1353              		.file 8 "../../modules/ChibiOS/os/common/ports/ARMCMx/compilers/GCC/chtypes.h"
 1354              		.file 9 "../../modules/ChibiOS/os/rt/include/chsystypes.h"
 1355              		.file 10 "../../modules/ChibiOS/os/rt/include/chschd.h"
 1356              		.file 11 "../../modules/ChibiOS/os/rt/include/chtime.h"
 1357              		.file 12 "../../modules/ChibiOS/os/common/ports/ARMCMx/chcore.h"
 1358              		.file 13 "../../modules/ChibiOS/os/rt/include/chtm.h"
 1359              		.file 14 "../../modules/ChibiOS/os/rt/include/chstats.h"
 1360              		.file 15 "../../modules/ChibiOS/os/rt/include/chsem.h"
 1361              		.file 16 "../../modules/ChibiOS/os/rt/include/chmtx.h"