ARM GAS  /tmp/ccs92UlG.s 			page 1


   1              		.cpu cortex-m7
   2              		.eabi_attribute 27, 1
   3              		.eabi_attribute 28, 1
   4              		.eabi_attribute 20, 1
   5              		.eabi_attribute 21, 1
   6              		.eabi_attribute 23, 3
   7              		.eabi_attribute 24, 1
   8              		.eabi_attribute 25, 1
   9              		.eabi_attribute 26, 1
  10              		.eabi_attribute 30, 4
  11              		.eabi_attribute 34, 1
  12              		.eabi_attribute 18, 4
  13              		.file	"chmboxes.c"
  14              		.text
  15              	.Ltext0:
  16              		.cfi_sections	.debug_frame
  17              		.section	.text.chMBObjectInit,"ax",%progbits
  18              		.align	1
  19              		.global	chMBObjectInit
  20              		.arch armv7e-m
  21              		.syntax unified
  22              		.thumb
  23              		.thumb_func
  24              		.fpu fpv4-sp-d16
  25              		.type	chMBObjectInit, %function
  26              	chMBObjectInit:
  27              	.LVL0:
  28              	.LFB301:
  29              		.file 1 "../../modules/ChibiOS/os/oslib/src/chmboxes.c"
  30              		.loc 1 87 59 view -0
  31              		.cfi_startproc
  32              		@ args = 0, pretend = 0, frame = 0
  33              		@ frame_needed = 0, uses_anonymous_args = 0
  34              		@ link register save eliminated.
  35              		.loc 1 89 3 view .LVU1
  36              		.loc 1 89 3 view .LVU2
  37              		.loc 1 89 3 view .LVU3
  38              		.loc 1 91 3 view .LVU4
  39              		.loc 1 95 15 is_stmt 0 view .LVU5
  40 0000 0023     		movs	r3, #0
  41              		.loc 1 94 17 view .LVU6
  42 0002 01EB8202 		add	r2, r1, r2, lsl #2
  43              	.LVL1:
  44              		.loc 1 91 15 view .LVU7
  45 0006 0160     		str	r1, [r0]
  46              		.loc 1 92 3 is_stmt 1 view .LVU8
  47              		.loc 1 95 15 is_stmt 0 view .LVU9
  48 0008 0361     		str	r3, [r0, #16]
  49              		.loc 1 96 15 view .LVU10
  50 000a 0375     		strb	r3, [r0, #20]
  51              		.loc 1 97 3 view .LVU11
  52 000c 00F11803 		add	r3, r0, #24
  53              		.loc 1 94 15 view .LVU12
  54 0010 4260     		str	r2, [r0, #4]
  55              	.LBB32:
  56              	.LBB33:
  57              	.LBB34:
ARM GAS  /tmp/ccs92UlG.s 			page 2


  58              		.file 2 "../../modules/ChibiOS/os/rt/include/chschd.h"
  59              		.loc 2 540 13 view .LVU13
  60 0012 C0E90633 		strd	r3, r3, [r0, #24]
  61              	.LBE34:
  62              	.LBE33:
  63              	.LBE32:
  64              		.loc 1 98 3 view .LVU14
  65 0016 00F12003 		add	r3, r0, #32
  66              		.loc 1 93 15 view .LVU15
  67 001a C0E90211 		strd	r1, r1, [r0, #8]
  68              		.loc 1 94 3 is_stmt 1 view .LVU16
  69              		.loc 1 95 3 view .LVU17
  70              		.loc 1 96 3 view .LVU18
  71              		.loc 1 97 3 view .LVU19
  72              	.LBB37:
  73              	.LBI32:
  74              		.file 3 "../../modules/ChibiOS/os/rt/include/chthreads.h"
  75              		.loc 3 392 20 view .LVU20
  76              	.LBE37:
  77              		.loc 3 394 3 view .LVU21
  78              	.LBB38:
  79              	.LBB36:
  80              	.LBI33:
  81              		.loc 2 537 20 view .LVU22
  82              	.LBB35:
  83              		.loc 2 539 3 view .LVU23
  84              	.LBE35:
  85              	.LBE36:
  86              	.LBE38:
  87              		.loc 1 98 3 view .LVU24
  88              	.LVL2:
  89              	.LBB39:
  90              	.LBI39:
  91              		.loc 3 392 20 view .LVU25
  92              	.LBE39:
  93              		.loc 3 394 3 view .LVU26
  94              	.LBB42:
  95              	.LBB40:
  96              	.LBI40:
  97              		.loc 2 537 20 view .LVU27
  98              	.LBB41:
  99              		.loc 2 539 3 view .LVU28
 100              		.loc 2 540 13 is_stmt 0 view .LVU29
 101 001e C0E90833 		strd	r3, r3, [r0, #32]
 102              	.LVL3:
 103              		.loc 2 540 13 view .LVU30
 104              	.LBE41:
 105              	.LBE40:
 106              	.LBE42:
 107              		.loc 1 99 1 view .LVU31
 108 0022 7047     		bx	lr
 109              		.cfi_endproc
 110              	.LFE301:
 111              		.size	chMBObjectInit, .-chMBObjectInit
 112              		.section	.text.chMBResetI,"ax",%progbits
 113              		.align	1
 114              		.global	chMBResetI
ARM GAS  /tmp/ccs92UlG.s 			page 3


 115              		.syntax unified
 116              		.thumb
 117              		.thumb_func
 118              		.fpu fpv4-sp-d16
 119              		.type	chMBResetI, %function
 120              	chMBResetI:
 121              	.LVL4:
 122              	.LFB303:
 123              		.loc 1 133 33 is_stmt 1 view -0
 124              		.cfi_startproc
 125              		@ args = 0, pretend = 0, frame = 0
 126              		@ frame_needed = 0, uses_anonymous_args = 0
 127              		.loc 1 135 21 view .LVU33
 128              		.loc 1 136 3 view .LVU34
 129              		.loc 1 136 3 view .LVU35
 130              		.loc 1 136 3 view .LVU36
 131              		.loc 1 138 3 view .LVU37
 132              		.loc 1 138 19 is_stmt 0 view .LVU38
 133 0000 0368     		ldr	r3, [r0]
 134              		.loc 1 142 3 view .LVU39
 135 0002 6FF00101 		mvn	r1, #1
 136              		.loc 1 133 33 view .LVU40
 137 0006 10B5     		push	{r4, lr}
 138              		.cfi_def_cfa_offset 8
 139              		.cfi_offset 4, -8
 140              		.cfi_offset 14, -4
 141              		.loc 1 139 14 view .LVU41
 142 0008 C0E90233 		strd	r3, r3, [r0, #8]
 143              		.loc 1 140 3 is_stmt 1 view .LVU42
 144              		.loc 1 140 14 is_stmt 0 view .LVU43
 145 000c 0023     		movs	r3, #0
 146              		.loc 1 133 33 view .LVU44
 147 000e 0446     		mov	r4, r0
 148              		.loc 1 142 3 view .LVU45
 149 0010 1830     		adds	r0, r0, #24
 150              	.LVL5:
 151              		.loc 1 140 14 view .LVU46
 152 0012 40F8083C 		str	r3, [r0, #-8]
 153              		.loc 1 141 3 is_stmt 1 view .LVU47
 154              		.loc 1 141 14 is_stmt 0 view .LVU48
 155 0016 0123     		movs	r3, #1
 156 0018 00F8043C 		strb	r3, [r0, #-4]
 157              		.loc 1 142 3 is_stmt 1 view .LVU49
 158 001c FFF7FEFF 		bl	chThdDequeueAllI
 159              	.LVL6:
 160              		.loc 1 143 3 view .LVU50
 161 0020 04F12000 		add	r0, r4, #32
 162 0024 6FF00101 		mvn	r1, #1
 163              		.loc 1 144 1 is_stmt 0 view .LVU51
 164 0028 BDE81040 		pop	{r4, lr}
 165              		.cfi_restore 14
 166              		.cfi_restore 4
 167              		.cfi_def_cfa_offset 0
 168              	.LVL7:
 169              		.loc 1 143 3 view .LVU52
 170 002c FFF7FEBF 		b	chThdDequeueAllI
 171              	.LVL8:
ARM GAS  /tmp/ccs92UlG.s 			page 4


 172              		.loc 1 143 3 view .LVU53
 173              		.cfi_endproc
 174              	.LFE303:
 175              		.size	chMBResetI, .-chMBResetI
 176              		.section	.text.chMBReset,"ax",%progbits
 177              		.align	1
 178              		.global	chMBReset
 179              		.syntax unified
 180              		.thumb
 181              		.thumb_func
 182              		.fpu fpv4-sp-d16
 183              		.type	chMBReset, %function
 184              	chMBReset:
 185              	.LVL9:
 186              	.LFB302:
 187              		.loc 1 113 32 is_stmt 1 view -0
 188              		.cfi_startproc
 189              		@ args = 0, pretend = 0, frame = 8
 190              		@ frame_needed = 0, uses_anonymous_args = 0
 191              		.loc 1 115 3 view .LVU55
 192              	.LBB53:
 193              	.LBI53:
 194              		.file 4 "../../modules/ChibiOS/os/rt/include/chsys.h"
 195              		.loc 4 353 20 view .LVU56
 196              	.LBB54:
 197              		.loc 4 355 3 view .LVU57
 198              	.LBB55:
 199              	.LBI55:
 200              		.file 5 "../../modules/ChibiOS/os/common/ports/ARMCMx/chcore_v7m.h"
 201              		.loc 5 602 20 view .LVU58
 202              	.LBE55:
 203              	.LBE54:
 204              	.LBE53:
 205              		.loc 5 610 3 view .LVU59
 206              	.LBB68:
 207              	.LBB65:
 208              	.LBB62:
 209              	.LBB56:
 210              	.LBI56:
 211              		.file 6 "../../modules/ChibiOS/os/common/ext/ARM/CMSIS/Core/Include/cmsis_gcc.h"
 212              		.loc 6 491 27 view .LVU60
 213              	.LBB57:
 214              		.loc 6 493 3 view .LVU61
 215              	.LBE57:
 216              	.LBE56:
 217              	.LBE62:
 218              	.LBE65:
 219              	.LBE68:
 220              		.loc 1 113 32 is_stmt 0 view .LVU62
 221 0000 07B5     		push	{r0, r1, r2, lr}
 222              		.cfi_def_cfa_offset 16
 223              		.cfi_offset 14, -4
 224              	.LBB69:
 225              	.LBB66:
 226              	.LBB63:
 227              	.LBB60:
 228              	.LBB58:
ARM GAS  /tmp/ccs92UlG.s 			page 5


 229              		.loc 6 493 3 view .LVU63
 230 0002 2023     		movs	r3, #32
 231              	.LBE58:
 232              	.LBE60:
 233              	.LBE63:
 234              	.LBE66:
 235              	.LBE69:
 236              		.loc 1 113 32 view .LVU64
 237 0004 0190     		str	r0, [sp, #4]
 238              	.LBB70:
 239              	.LBB67:
 240              	.LBB64:
 241              	.LBB61:
 242              	.LBB59:
 243              		.loc 6 493 3 view .LVU65
 244              		.syntax unified
 245              	@ 493 "../../modules/ChibiOS/os/common/ext/ARM/CMSIS/Core/Include/cmsis_gcc.h" 1
 246 0006 83F31188 		MSR basepri, r3
 247              	@ 0 "" 2
 248              	.LVL10:
 249              		.loc 6 493 3 view .LVU66
 250              		.thumb
 251              		.syntax unified
 252              	.LBE59:
 253              	.LBE61:
 254              	.LBE64:
 255              		.loc 4 356 3 is_stmt 1 view .LVU67
 256 000a FFF7FEFF 		bl	_stats_start_measure_crit_thd
 257              	.LVL11:
 258              		.loc 4 357 20 view .LVU68
 259              	.LBE67:
 260              	.LBE70:
 261              		.loc 1 116 3 view .LVU69
 262 000e 0198     		ldr	r0, [sp, #4]
 263 0010 FFF7FEFF 		bl	chMBResetI
 264              	.LVL12:
 265              		.loc 1 117 3 view .LVU70
 266 0014 FFF7FEFF 		bl	chSchRescheduleS
 267              	.LVL13:
 268              		.loc 1 118 3 view .LVU71
 269              	.LBB71:
 270              	.LBI71:
 271              		.loc 4 365 20 view .LVU72
 272              	.LBB72:
 273              		.loc 4 367 22 view .LVU73
 274              		.loc 4 368 3 view .LVU74
 275 0018 FFF7FEFF 		bl	_stats_stop_measure_crit_thd
 276              	.LVL14:
 277              		.loc 4 374 3 view .LVU75
 278              		.loc 4 374 3 view .LVU76
 279              		.loc 4 374 3 view .LVU77
 280              		.loc 4 378 3 view .LVU78
 281              	.LBB73:
 282              	.LBI73:
 283              		.loc 5 626 20 view .LVU79
 284              	.LBE73:
 285              	.LBE72:
ARM GAS  /tmp/ccs92UlG.s 			page 6


 286              	.LBE71:
 287              		.loc 5 629 3 view .LVU80
 288              	.LBB78:
 289              	.LBB77:
 290              	.LBB76:
 291              	.LBB74:
 292              	.LBI74:
 293              		.loc 6 491 27 view .LVU81
 294              	.LBB75:
 295              		.loc 6 493 3 view .LVU82
 296 001c 0023     		movs	r3, #0
 297              		.syntax unified
 298              	@ 493 "../../modules/ChibiOS/os/common/ext/ARM/CMSIS/Core/Include/cmsis_gcc.h" 1
 299 001e 83F31188 		MSR basepri, r3
 300              	@ 0 "" 2
 301              	.LVL15:
 302              		.loc 6 493 3 is_stmt 0 view .LVU83
 303              		.thumb
 304              		.syntax unified
 305              	.LBE75:
 306              	.LBE74:
 307              	.LBE76:
 308              	.LBE77:
 309              	.LBE78:
 310              		.loc 1 119 1 view .LVU84
 311 0022 03B0     		add	sp, sp, #12
 312              		.cfi_def_cfa_offset 4
 313              		@ sp needed
 314 0024 5DF804FB 		ldr	pc, [sp], #4
 315              		.loc 1 119 1 view .LVU85
 316              		.cfi_endproc
 317              	.LFE302:
 318              		.size	chMBReset, .-chMBReset
 319              		.section	.text.chMBPostTimeoutS,"ax",%progbits
 320              		.align	1
 321              		.global	chMBPostTimeoutS
 322              		.syntax unified
 323              		.thumb
 324              		.thumb_func
 325              		.fpu fpv4-sp-d16
 326              		.type	chMBPostTimeoutS, %function
 327              	chMBPostTimeoutS:
 328              	.LVL16:
 329              	.LFB305:
 330              		.loc 1 194 74 is_stmt 1 view -0
 331              		.cfi_startproc
 332              		@ args = 0, pretend = 0, frame = 0
 333              		@ frame_needed = 0, uses_anonymous_args = 0
 334              		.loc 1 194 74 is_stmt 0 view .LVU87
 335 0000 F8B5     		push	{r3, r4, r5, r6, r7, lr}
 336              		.cfi_def_cfa_offset 24
 337              		.cfi_offset 3, -24
 338              		.cfi_offset 4, -20
 339              		.cfi_offset 5, -16
 340              		.cfi_offset 6, -12
 341              		.cfi_offset 7, -8
 342              		.cfi_offset 14, -4
ARM GAS  /tmp/ccs92UlG.s 			page 7


 343              		.loc 1 194 74 view .LVU88
 344 0002 0446     		mov	r4, r0
 345 0004 0E46     		mov	r6, r1
 346              		.loc 1 195 3 is_stmt 1 view .LVU89
 347              		.loc 1 197 21 view .LVU90
 348              		.loc 1 198 3 view .LVU91
 349              		.loc 1 198 3 view .LVU92
 350              		.loc 1 194 74 is_stmt 0 view .LVU93
 351 0006 1546     		mov	r5, r2
 352              		.loc 1 222 14 view .LVU94
 353 0008 00F11807 		add	r7, r0, #24
 354              	.LVL17:
 355              	.L8:
 356              		.loc 1 198 3 is_stmt 1 discriminator 5 view .LVU95
 357              		.loc 1 200 3 discriminator 5 view .LVU96
 358              		.loc 1 202 5 discriminator 5 view .LVU97
 359              		.loc 1 202 8 is_stmt 0 discriminator 5 view .LVU98
 360 000c 237D     		ldrb	r3, [r4, #20]	@ zero_extendqisi2
 361 000e 03BB     		cbnz	r3, .L9
 362              		.loc 1 207 5 is_stmt 1 view .LVU99
 363              	.LVL18:
 364              	.LBB87:
 365              	.LBI87:
 366              		.file 7 "../../modules/ChibiOS/os/oslib/include/chmboxes.h"
 367              		.loc 7 167 22 view .LVU100
 368              	.LBE87:
 369              		.loc 7 169 21 view .LVU101
 370              		.loc 7 171 3 view .LVU102
 371              	.LBB98:
 372              	.LBB88:
 373              	.LBI88:
 374              		.loc 7 136 22 view .LVU103
 375              	.LBB89:
 376              		.loc 7 140 3 view .LVU104
 377              	.LBE89:
 378              	.LBE88:
 379              	.LBB92:
 380              	.LBB93:
 381              		.loc 7 156 13 is_stmt 0 view .LVU105
 382 0010 2369     		ldr	r3, [r4, #16]
 383              	.LBE93:
 384              	.LBE92:
 385              	.LBB95:
 386              	.LBB90:
 387              		.loc 7 140 33 view .LVU106
 388 0012 D4E90020 		ldrd	r2, r0, [r4]
 389              	.LVL19:
 390              		.loc 7 140 33 view .LVU107
 391              	.LBE90:
 392              	.LBE95:
 393              	.LBB96:
 394              	.LBI92:
 395              		.loc 7 152 22 is_stmt 1 view .LVU108
 396              	.LBB94:
 397              		.loc 7 154 21 view .LVU109
 398              		.loc 7 156 3 view .LVU110
 399              		.loc 7 156 3 is_stmt 0 view .LVU111
ARM GAS  /tmp/ccs92UlG.s 			page 8


 400              	.LBE94:
 401              	.LBE96:
 402              	.LBB97:
 403              	.LBB91:
 404              		.loc 7 140 28 view .LVU112
 405 0016 811A     		subs	r1, r0, r2
 406              	.LBE91:
 407              	.LBE97:
 408              	.LBE98:
 409              		.loc 1 207 8 view .LVU113
 410 0018 B3EBA10F 		cmp	r3, r1, asr #2
 411 001c 12D0     		beq	.L6
 412              	.LVL20:
 413              	.LBB99:
 414              	.LBI99:
 415              		.loc 1 194 7 is_stmt 1 view .LVU114
 416              	.LBB100:
 417              		.loc 1 208 7 view .LVU115
 418              		.loc 1 208 11 is_stmt 0 view .LVU116
 419 001e A568     		ldr	r5, [r4, #8]
 420              	.LVL21:
 421              		.loc 1 212 15 view .LVU117
 422 0020 0133     		adds	r3, r3, #1
 423              		.loc 1 208 18 view .LVU118
 424 0022 291D     		adds	r1, r5, #4
 425              		.loc 1 209 10 view .LVU119
 426 0024 8842     		cmp	r0, r1
 427              		.loc 1 208 18 view .LVU120
 428 0026 A160     		str	r1, [r4, #8]
 429              		.loc 1 215 7 view .LVU121
 430 0028 04F12000 		add	r0, r4, #32
 431              		.loc 1 208 21 view .LVU122
 432 002c 2E60     		str	r6, [r5]
 433              		.loc 1 209 7 is_stmt 1 view .LVU123
 434              		.loc 1 210 9 view .LVU124
 435              		.loc 1 215 7 is_stmt 0 view .LVU125
 436 002e 4FF00001 		mov	r1, #0
 437              		.loc 1 210 20 view .LVU126
 438 0032 98BF     		it	ls
 439 0034 A260     		strls	r2, [r4, #8]
 440              		.loc 1 212 7 is_stmt 1 view .LVU127
 441              		.loc 1 212 15 is_stmt 0 view .LVU128
 442 0036 2361     		str	r3, [r4, #16]
 443              		.loc 1 215 7 is_stmt 1 view .LVU129
 444 0038 FFF7FEFF 		bl	chThdDequeueNextI
 445              	.LVL22:
 446              		.loc 1 216 7 view .LVU130
 447 003c FFF7FEFF 		bl	chSchRescheduleS
 448              	.LVL23:
 449              		.loc 1 218 7 view .LVU131
 450              		.loc 1 216 7 is_stmt 0 view .LVU132
 451 0040 0020     		movs	r0, #0
 452              	.L4:
 453              		.loc 1 216 7 view .LVU133
 454              	.LBE100:
 455              	.LBE99:
 456              		.loc 1 226 1 view .LVU134
ARM GAS  /tmp/ccs92UlG.s 			page 9


 457 0042 F8BD     		pop	{r3, r4, r5, r6, r7, pc}
 458              	.LVL24:
 459              	.L6:
 460              		.loc 1 222 5 is_stmt 1 view .LVU135
 461              		.loc 1 222 14 is_stmt 0 view .LVU136
 462 0044 2946     		mov	r1, r5
 463 0046 3846     		mov	r0, r7
 464 0048 FFF7FEFF 		bl	chThdEnqueueTimeoutS
 465              	.LVL25:
 466              		.loc 1 223 11 is_stmt 1 view .LVU137
 467              		.loc 1 223 3 is_stmt 0 view .LVU138
 468 004c 0028     		cmp	r0, #0
 469 004e DDD0     		beq	.L8
 470 0050 F7E7     		b	.L4
 471              	.LVL26:
 472              	.L9:
 473              		.loc 1 203 14 view .LVU139
 474 0052 6FF00100 		mvn	r0, #1
 475 0056 F4E7     		b	.L4
 476              		.cfi_endproc
 477              	.LFE305:
 478              		.size	chMBPostTimeoutS, .-chMBPostTimeoutS
 479              		.section	.text.chMBPostTimeout,"ax",%progbits
 480              		.align	1
 481              		.global	chMBPostTimeout
 482              		.syntax unified
 483              		.thumb
 484              		.thumb_func
 485              		.fpu fpv4-sp-d16
 486              		.type	chMBPostTimeout, %function
 487              	chMBPostTimeout:
 488              	.LVL27:
 489              	.LFB304:
 490              		.loc 1 165 73 is_stmt 1 view -0
 491              		.cfi_startproc
 492              		@ args = 0, pretend = 0, frame = 16
 493              		@ frame_needed = 0, uses_anonymous_args = 0
 494              		.loc 1 166 3 view .LVU141
 495              		.loc 1 168 3 view .LVU142
 496              	.LBB111:
 497              	.LBI111:
 498              		.loc 4 353 20 view .LVU143
 499              	.LBB112:
 500              		.loc 4 355 3 view .LVU144
 501              	.LBB113:
 502              	.LBI113:
 503              		.loc 5 602 20 view .LVU145
 504              	.LBE113:
 505              	.LBE112:
 506              	.LBE111:
 507              		.loc 5 610 3 view .LVU146
 508              	.LBB126:
 509              	.LBB123:
 510              	.LBB120:
 511              	.LBB114:
 512              	.LBI114:
 513              		.loc 6 491 27 view .LVU147
ARM GAS  /tmp/ccs92UlG.s 			page 10


 514              	.LBB115:
 515              		.loc 6 493 3 view .LVU148
 516              	.LBE115:
 517              	.LBE114:
 518              	.LBE120:
 519              	.LBE123:
 520              	.LBE126:
 521              		.loc 1 165 73 is_stmt 0 view .LVU149
 522 0000 1FB5     		push	{r0, r1, r2, r3, r4, lr}
 523              		.cfi_def_cfa_offset 24
 524              		.cfi_offset 14, -4
 525              	.LBB127:
 526              	.LBB124:
 527              	.LBB121:
 528              	.LBB118:
 529              	.LBB116:
 530              		.loc 6 493 3 view .LVU150
 531 0002 2023     		movs	r3, #32
 532              	.LBE116:
 533              	.LBE118:
 534              	.LBE121:
 535              	.LBE124:
 536              	.LBE127:
 537              		.loc 1 165 73 view .LVU151
 538 0004 0192     		str	r2, [sp, #4]
 539 0006 CDE90210 		strd	r1, r0, [sp, #8]
 540              	.LBB128:
 541              	.LBB125:
 542              	.LBB122:
 543              	.LBB119:
 544              	.LBB117:
 545              		.loc 6 493 3 view .LVU152
 546              		.syntax unified
 547              	@ 493 "../../modules/ChibiOS/os/common/ext/ARM/CMSIS/Core/Include/cmsis_gcc.h" 1
 548 000a 83F31188 		MSR basepri, r3
 549              	@ 0 "" 2
 550              	.LVL28:
 551              		.loc 6 493 3 view .LVU153
 552              		.thumb
 553              		.syntax unified
 554              	.LBE117:
 555              	.LBE119:
 556              	.LBE122:
 557              		.loc 4 356 3 is_stmt 1 view .LVU154
 558 000e FFF7FEFF 		bl	_stats_start_measure_crit_thd
 559              	.LVL29:
 560              		.loc 4 357 20 view .LVU155
 561              	.LBE125:
 562              	.LBE128:
 563              		.loc 1 169 3 view .LVU156
 564              		.loc 1 169 12 is_stmt 0 view .LVU157
 565 0012 0398     		ldr	r0, [sp, #12]
 566 0014 DDE90121 		ldrd	r2, r1, [sp, #4]
 567 0018 FFF7FEFF 		bl	chMBPostTimeoutS
 568              	.LVL30:
 569 001c 0190     		str	r0, [sp, #4]
 570              	.LVL31:
ARM GAS  /tmp/ccs92UlG.s 			page 11


 571              		.loc 1 170 3 is_stmt 1 view .LVU158
 572              	.LBB129:
 573              	.LBI129:
 574              		.loc 4 365 20 view .LVU159
 575              	.LBB130:
 576              		.loc 4 367 22 view .LVU160
 577              		.loc 4 368 3 view .LVU161
 578 001e FFF7FEFF 		bl	_stats_stop_measure_crit_thd
 579              	.LVL32:
 580              		.loc 4 374 3 view .LVU162
 581              		.loc 4 374 3 view .LVU163
 582              		.loc 4 374 3 view .LVU164
 583              		.loc 4 378 3 view .LVU165
 584              	.LBB131:
 585              	.LBI131:
 586              		.loc 5 626 20 view .LVU166
 587              	.LBE131:
 588              	.LBE130:
 589              	.LBE129:
 590              		.loc 5 629 3 view .LVU167
 591              	.LBB136:
 592              	.LBB135:
 593              	.LBB134:
 594              	.LBB132:
 595              	.LBI132:
 596              		.loc 6 491 27 view .LVU168
 597              	.LBB133:
 598              		.loc 6 493 3 view .LVU169
 599 0022 0023     		movs	r3, #0
 600              		.syntax unified
 601              	@ 493 "../../modules/ChibiOS/os/common/ext/ARM/CMSIS/Core/Include/cmsis_gcc.h" 1
 602 0024 83F31188 		MSR basepri, r3
 603              	@ 0 "" 2
 604              	.LVL33:
 605              		.loc 6 493 3 is_stmt 0 view .LVU170
 606              		.thumb
 607              		.syntax unified
 608              	.LBE133:
 609              	.LBE132:
 610              	.LBE134:
 611              	.LBE135:
 612              	.LBE136:
 613              		.loc 1 172 3 is_stmt 1 view .LVU171
 614              		.loc 1 173 1 is_stmt 0 view .LVU172
 615 0028 0198     		ldr	r0, [sp, #4]
 616 002a 05B0     		add	sp, sp, #20
 617              		.cfi_def_cfa_offset 4
 618              		@ sp needed
 619 002c 5DF804FB 		ldr	pc, [sp], #4
 620              		.loc 1 173 1 view .LVU173
 621              		.cfi_endproc
 622              	.LFE304:
 623              		.size	chMBPostTimeout, .-chMBPostTimeout
 624              		.section	.text.chMBPostI,"ax",%progbits
 625              		.align	1
 626              		.global	chMBPostI
 627              		.syntax unified
ARM GAS  /tmp/ccs92UlG.s 			page 12


 628              		.thumb
 629              		.thumb_func
 630              		.fpu fpv4-sp-d16
 631              		.type	chMBPostI, %function
 632              	chMBPostI:
 633              	.LVL34:
 634              	.LFB306:
 635              		.loc 1 243 44 is_stmt 1 view -0
 636              		.cfi_startproc
 637              		@ args = 0, pretend = 0, frame = 0
 638              		@ frame_needed = 0, uses_anonymous_args = 0
 639              		.loc 1 245 21 view .LVU175
 640              		.loc 1 246 3 view .LVU176
 641              		.loc 1 246 3 view .LVU177
 642              		.loc 1 246 3 view .LVU178
 643              		.loc 1 249 3 view .LVU179
 644              		.loc 1 249 6 is_stmt 0 view .LVU180
 645 0000 037D     		ldrb	r3, [r0, #20]	@ zero_extendqisi2
 646              		.loc 1 243 44 view .LVU181
 647 0002 70B5     		push	{r4, r5, r6, lr}
 648              		.cfi_def_cfa_offset 16
 649              		.cfi_offset 4, -16
 650              		.cfi_offset 5, -12
 651              		.cfi_offset 6, -8
 652              		.cfi_offset 14, -4
 653              		.loc 1 249 6 view .LVU182
 654 0004 CBB9     		cbnz	r3, .L16
 655              		.loc 1 254 3 is_stmt 1 view .LVU183
 656              	.LVL35:
 657              	.LBB143:
 658              	.LBI143:
 659              		.loc 7 167 22 view .LVU184
 660              	.LBE143:
 661              		.loc 7 169 21 view .LVU185
 662              		.loc 7 171 3 view .LVU186
 663              	.LBB154:
 664              	.LBB144:
 665              	.LBI144:
 666              		.loc 7 136 22 view .LVU187
 667              	.LBB145:
 668              		.loc 7 140 3 view .LVU188
 669              	.LBE145:
 670              	.LBE144:
 671              	.LBB148:
 672              	.LBB149:
 673              		.loc 7 156 13 is_stmt 0 view .LVU189
 674 0006 0369     		ldr	r3, [r0, #16]
 675              	.LBE149:
 676              	.LBE148:
 677              	.LBB151:
 678              	.LBB146:
 679              		.loc 7 140 33 view .LVU190
 680 0008 D0E90024 		ldrd	r2, r4, [r0]
 681              	.LVL36:
 682              		.loc 7 140 33 view .LVU191
 683              	.LBE146:
 684              	.LBE151:
ARM GAS  /tmp/ccs92UlG.s 			page 13


 685              	.LBB152:
 686              	.LBI148:
 687              		.loc 7 152 22 is_stmt 1 view .LVU192
 688              	.LBB150:
 689              		.loc 7 154 21 view .LVU193
 690              		.loc 7 156 3 view .LVU194
 691              		.loc 7 156 3 is_stmt 0 view .LVU195
 692              	.LBE150:
 693              	.LBE152:
 694              	.LBB153:
 695              	.LBB147:
 696              		.loc 7 140 28 view .LVU196
 697 000c A51A     		subs	r5, r4, r2
 698              	.LBE147:
 699              	.LBE153:
 700              	.LBE154:
 701              		.loc 1 254 6 view .LVU197
 702 000e B3EBA50F 		cmp	r3, r5, asr #2
 703 0012 15D0     		beq	.L17
 704              		.loc 1 255 5 is_stmt 1 view .LVU198
 705              		.loc 1 255 9 is_stmt 0 view .LVU199
 706 0014 8668     		ldr	r6, [r0, #8]
 707              		.loc 1 259 13 view .LVU200
 708 0016 0133     		adds	r3, r3, #1
 709              		.loc 1 262 5 view .LVU201
 710 0018 2030     		adds	r0, r0, #32
 711              	.LVL37:
 712              		.loc 1 255 16 view .LVU202
 713 001a 351D     		adds	r5, r6, #4
 714              		.loc 1 256 8 view .LVU203
 715 001c A542     		cmp	r5, r4
 716              		.loc 1 255 16 view .LVU204
 717 001e 40F8185C 		str	r5, [r0, #-24]
 718              		.loc 1 255 19 view .LVU205
 719 0022 3160     		str	r1, [r6]
 720              		.loc 1 256 5 is_stmt 1 view .LVU206
 721              		.loc 1 257 7 view .LVU207
 722              		.loc 1 262 5 is_stmt 0 view .LVU208
 723 0024 4FF00001 		mov	r1, #0
 724              	.LVL38:
 725              		.loc 1 257 18 view .LVU209
 726 0028 28BF     		it	cs
 727 002a 40F8182C 		strcs	r2, [r0, #-24]
 728              		.loc 1 259 5 is_stmt 1 view .LVU210
 729              		.loc 1 259 13 is_stmt 0 view .LVU211
 730 002e 40F8103C 		str	r3, [r0, #-16]
 731              		.loc 1 262 5 is_stmt 1 view .LVU212
 732 0032 FFF7FEFF 		bl	chThdDequeueNextI
 733              	.LVL39:
 734              		.loc 1 264 5 view .LVU213
 735              		.loc 1 264 12 is_stmt 0 view .LVU214
 736 0036 0020     		movs	r0, #0
 737              	.L13:
 738              		.loc 1 269 1 view .LVU215
 739 0038 70BD     		pop	{r4, r5, r6, pc}
 740              	.LVL40:
 741              	.L16:
ARM GAS  /tmp/ccs92UlG.s 			page 14


 742              		.loc 1 250 12 view .LVU216
 743 003a 6FF00100 		mvn	r0, #1
 744              	.LVL41:
 745              		.loc 1 250 12 view .LVU217
 746 003e FBE7     		b	.L13
 747              	.LVL42:
 748              	.L17:
 749              		.loc 1 268 10 view .LVU218
 750 0040 4FF0FF30 		mov	r0, #-1
 751              	.LVL43:
 752              		.loc 1 268 10 view .LVU219
 753 0044 F8E7     		b	.L13
 754              		.cfi_endproc
 755              	.LFE306:
 756              		.size	chMBPostI, .-chMBPostI
 757              		.section	.text.chMBPostAheadTimeoutS,"ax",%progbits
 758              		.align	1
 759              		.global	chMBPostAheadTimeoutS
 760              		.syntax unified
 761              		.thumb
 762              		.thumb_func
 763              		.fpu fpv4-sp-d16
 764              		.type	chMBPostAheadTimeoutS, %function
 765              	chMBPostAheadTimeoutS:
 766              	.LVL44:
 767              	.LFB308:
 768              		.loc 1 319 79 is_stmt 1 view -0
 769              		.cfi_startproc
 770              		@ args = 0, pretend = 0, frame = 0
 771              		@ frame_needed = 0, uses_anonymous_args = 0
 772              		.loc 1 319 79 is_stmt 0 view .LVU221
 773 0000 F8B5     		push	{r3, r4, r5, r6, r7, lr}
 774              		.cfi_def_cfa_offset 24
 775              		.cfi_offset 3, -24
 776              		.cfi_offset 4, -20
 777              		.cfi_offset 5, -16
 778              		.cfi_offset 6, -12
 779              		.cfi_offset 7, -8
 780              		.cfi_offset 14, -4
 781              		.loc 1 319 79 view .LVU222
 782 0002 0446     		mov	r4, r0
 783 0004 0D46     		mov	r5, r1
 784              		.loc 1 320 3 is_stmt 1 view .LVU223
 785              		.loc 1 322 21 view .LVU224
 786              		.loc 1 323 3 view .LVU225
 787              		.loc 1 323 3 view .LVU226
 788              		.loc 1 319 79 is_stmt 0 view .LVU227
 789 0006 1646     		mov	r6, r2
 790              		.loc 1 347 14 view .LVU228
 791 0008 00F11807 		add	r7, r0, #24
 792              	.LVL45:
 793              	.L23:
 794              		.loc 1 323 3 is_stmt 1 discriminator 5 view .LVU229
 795              		.loc 1 325 3 discriminator 5 view .LVU230
 796              		.loc 1 327 5 discriminator 5 view .LVU231
 797              		.loc 1 327 8 is_stmt 0 discriminator 5 view .LVU232
 798 000c 237D     		ldrb	r3, [r4, #20]	@ zero_extendqisi2
ARM GAS  /tmp/ccs92UlG.s 			page 15


 799 000e 13BB     		cbnz	r3, .L24
 800              		.loc 1 332 5 is_stmt 1 view .LVU233
 801              	.LVL46:
 802              	.LBB163:
 803              	.LBI163:
 804              		.loc 7 167 22 view .LVU234
 805              	.LBE163:
 806              		.loc 7 169 21 view .LVU235
 807              		.loc 7 171 3 view .LVU236
 808              	.LBB174:
 809              	.LBB164:
 810              	.LBI164:
 811              		.loc 7 136 22 view .LVU237
 812              	.LBB165:
 813              		.loc 7 140 3 view .LVU238
 814              	.LBE165:
 815              	.LBE164:
 816              	.LBB168:
 817              	.LBB169:
 818              		.loc 7 156 13 is_stmt 0 view .LVU239
 819 0010 2369     		ldr	r3, [r4, #16]
 820              	.LBE169:
 821              	.LBE168:
 822              	.LBB171:
 823              	.LBB166:
 824              		.loc 7 140 33 view .LVU240
 825 0012 D4E90010 		ldrd	r1, r0, [r4]
 826              	.LVL47:
 827              		.loc 7 140 33 view .LVU241
 828              	.LBE166:
 829              	.LBE171:
 830              	.LBB172:
 831              	.LBI168:
 832              		.loc 7 152 22 is_stmt 1 view .LVU242
 833              	.LBB170:
 834              		.loc 7 154 21 view .LVU243
 835              		.loc 7 156 3 view .LVU244
 836              		.loc 7 156 3 is_stmt 0 view .LVU245
 837              	.LBE170:
 838              	.LBE172:
 839              	.LBB173:
 840              	.LBB167:
 841              		.loc 7 140 28 view .LVU246
 842 0016 421A     		subs	r2, r0, r1
 843              	.LBE167:
 844              	.LBE173:
 845              	.LBE174:
 846              		.loc 1 332 8 view .LVU247
 847 0018 B3EBA20F 		cmp	r3, r2, asr #2
 848 001c 14D0     		beq	.L20
 849              	.LVL48:
 850              	.LBB175:
 851              	.LBI175:
 852              		.loc 1 319 7 is_stmt 1 view .LVU248
 853              	.LBB176:
 854              		.loc 1 333 7 view .LVU249
 855              		.loc 1 333 11 is_stmt 0 view .LVU250
ARM GAS  /tmp/ccs92UlG.s 			page 16


 856 001e E268     		ldr	r2, [r4, #12]
 857              		.loc 1 337 15 view .LVU251
 858 0020 0133     		adds	r3, r3, #1
 859              		.loc 1 333 11 view .LVU252
 860 0022 043A     		subs	r2, r2, #4
 861              		.loc 1 333 10 view .LVU253
 862 0024 9142     		cmp	r1, r2
 863              		.loc 1 340 7 view .LVU254
 864 0026 4FF00001 		mov	r1, #0
 865              		.loc 1 334 31 view .LVU255
 866 002a 8ABF     		itet	hi
 867 002c 0438     		subhi	r0, r0, #4
 868              		.loc 1 333 10 view .LVU256
 869 002e E260     		strls	r2, [r4, #12]
 870              		.loc 1 334 9 is_stmt 1 view .LVU257
 871              		.loc 1 334 20 is_stmt 0 view .LVU258
 872 0030 E060     		strhi	r0, [r4, #12]
 873              		.loc 1 336 7 is_stmt 1 view .LVU259
 874              		.loc 1 340 7 is_stmt 0 view .LVU260
 875 0032 04F12000 		add	r0, r4, #32
 876              		.loc 1 336 19 view .LVU261
 877 0036 E268     		ldr	r2, [r4, #12]
 878 0038 1560     		str	r5, [r2]
 879              		.loc 1 337 7 is_stmt 1 view .LVU262
 880              		.loc 1 337 15 is_stmt 0 view .LVU263
 881 003a 2361     		str	r3, [r4, #16]
 882              		.loc 1 340 7 is_stmt 1 view .LVU264
 883 003c FFF7FEFF 		bl	chThdDequeueNextI
 884              	.LVL49:
 885              		.loc 1 341 7 view .LVU265
 886 0040 FFF7FEFF 		bl	chSchRescheduleS
 887              	.LVL50:
 888              		.loc 1 343 7 view .LVU266
 889              		.loc 1 341 7 is_stmt 0 view .LVU267
 890 0044 0020     		movs	r0, #0
 891              	.L18:
 892              		.loc 1 341 7 view .LVU268
 893              	.LBE176:
 894              	.LBE175:
 895              		.loc 1 351 1 view .LVU269
 896 0046 F8BD     		pop	{r3, r4, r5, r6, r7, pc}
 897              	.LVL51:
 898              	.L20:
 899              		.loc 1 347 5 is_stmt 1 view .LVU270
 900              		.loc 1 347 14 is_stmt 0 view .LVU271
 901 0048 3146     		mov	r1, r6
 902 004a 3846     		mov	r0, r7
 903 004c FFF7FEFF 		bl	chThdEnqueueTimeoutS
 904              	.LVL52:
 905              		.loc 1 348 11 is_stmt 1 view .LVU272
 906              		.loc 1 348 3 is_stmt 0 view .LVU273
 907 0050 0028     		cmp	r0, #0
 908 0052 DBD0     		beq	.L23
 909 0054 F7E7     		b	.L18
 910              	.LVL53:
 911              	.L24:
 912              		.loc 1 328 14 view .LVU274
ARM GAS  /tmp/ccs92UlG.s 			page 17


 913 0056 6FF00100 		mvn	r0, #1
 914 005a F4E7     		b	.L18
 915              		.cfi_endproc
 916              	.LFE308:
 917              		.size	chMBPostAheadTimeoutS, .-chMBPostAheadTimeoutS
 918              		.section	.text.chMBPostAheadTimeout,"ax",%progbits
 919              		.align	1
 920              		.global	chMBPostAheadTimeout
 921              		.syntax unified
 922              		.thumb
 923              		.thumb_func
 924              		.fpu fpv4-sp-d16
 925              		.type	chMBPostAheadTimeout, %function
 926              	chMBPostAheadTimeout:
 927              	.LVL54:
 928              	.LFB307:
 929              		.loc 1 290 78 is_stmt 1 view -0
 930              		.cfi_startproc
 931              		@ args = 0, pretend = 0, frame = 16
 932              		@ frame_needed = 0, uses_anonymous_args = 0
 933              		.loc 1 291 3 view .LVU276
 934              		.loc 1 293 3 view .LVU277
 935              	.LBB187:
 936              	.LBI187:
 937              		.loc 4 353 20 view .LVU278
 938              	.LBB188:
 939              		.loc 4 355 3 view .LVU279
 940              	.LBB189:
 941              	.LBI189:
 942              		.loc 5 602 20 view .LVU280
 943              	.LBE189:
 944              	.LBE188:
 945              	.LBE187:
 946              		.loc 5 610 3 view .LVU281
 947              	.LBB202:
 948              	.LBB199:
 949              	.LBB196:
 950              	.LBB190:
 951              	.LBI190:
 952              		.loc 6 491 27 view .LVU282
 953              	.LBB191:
 954              		.loc 6 493 3 view .LVU283
 955              	.LBE191:
 956              	.LBE190:
 957              	.LBE196:
 958              	.LBE199:
 959              	.LBE202:
 960              		.loc 1 290 78 is_stmt 0 view .LVU284
 961 0000 1FB5     		push	{r0, r1, r2, r3, r4, lr}
 962              		.cfi_def_cfa_offset 24
 963              		.cfi_offset 14, -4
 964              	.LBB203:
 965              	.LBB200:
 966              	.LBB197:
 967              	.LBB194:
 968              	.LBB192:
 969              		.loc 6 493 3 view .LVU285
ARM GAS  /tmp/ccs92UlG.s 			page 18


 970 0002 2023     		movs	r3, #32
 971              	.LBE192:
 972              	.LBE194:
 973              	.LBE197:
 974              	.LBE200:
 975              	.LBE203:
 976              		.loc 1 290 78 view .LVU286
 977 0004 0192     		str	r2, [sp, #4]
 978 0006 CDE90210 		strd	r1, r0, [sp, #8]
 979              	.LBB204:
 980              	.LBB201:
 981              	.LBB198:
 982              	.LBB195:
 983              	.LBB193:
 984              		.loc 6 493 3 view .LVU287
 985              		.syntax unified
 986              	@ 493 "../../modules/ChibiOS/os/common/ext/ARM/CMSIS/Core/Include/cmsis_gcc.h" 1
 987 000a 83F31188 		MSR basepri, r3
 988              	@ 0 "" 2
 989              	.LVL55:
 990              		.loc 6 493 3 view .LVU288
 991              		.thumb
 992              		.syntax unified
 993              	.LBE193:
 994              	.LBE195:
 995              	.LBE198:
 996              		.loc 4 356 3 is_stmt 1 view .LVU289
 997 000e FFF7FEFF 		bl	_stats_start_measure_crit_thd
 998              	.LVL56:
 999              		.loc 4 357 20 view .LVU290
 1000              	.LBE201:
 1001              	.LBE204:
 1002              		.loc 1 294 3 view .LVU291
 1003              		.loc 1 294 12 is_stmt 0 view .LVU292
 1004 0012 0398     		ldr	r0, [sp, #12]
 1005 0014 DDE90121 		ldrd	r2, r1, [sp, #4]
 1006 0018 FFF7FEFF 		bl	chMBPostAheadTimeoutS
 1007              	.LVL57:
 1008 001c 0190     		str	r0, [sp, #4]
 1009              	.LVL58:
 1010              		.loc 1 295 3 is_stmt 1 view .LVU293
 1011              	.LBB205:
 1012              	.LBI205:
 1013              		.loc 4 365 20 view .LVU294
 1014              	.LBB206:
 1015              		.loc 4 367 22 view .LVU295
 1016              		.loc 4 368 3 view .LVU296
 1017 001e FFF7FEFF 		bl	_stats_stop_measure_crit_thd
 1018              	.LVL59:
 1019              		.loc 4 374 3 view .LVU297
 1020              		.loc 4 374 3 view .LVU298
 1021              		.loc 4 374 3 view .LVU299
 1022              		.loc 4 378 3 view .LVU300
 1023              	.LBB207:
 1024              	.LBI207:
 1025              		.loc 5 626 20 view .LVU301
 1026              	.LBE207:
ARM GAS  /tmp/ccs92UlG.s 			page 19


 1027              	.LBE206:
 1028              	.LBE205:
 1029              		.loc 5 629 3 view .LVU302
 1030              	.LBB212:
 1031              	.LBB211:
 1032              	.LBB210:
 1033              	.LBB208:
 1034              	.LBI208:
 1035              		.loc 6 491 27 view .LVU303
 1036              	.LBB209:
 1037              		.loc 6 493 3 view .LVU304
 1038 0022 0023     		movs	r3, #0
 1039              		.syntax unified
 1040              	@ 493 "../../modules/ChibiOS/os/common/ext/ARM/CMSIS/Core/Include/cmsis_gcc.h" 1
 1041 0024 83F31188 		MSR basepri, r3
 1042              	@ 0 "" 2
 1043              	.LVL60:
 1044              		.loc 6 493 3 is_stmt 0 view .LVU305
 1045              		.thumb
 1046              		.syntax unified
 1047              	.LBE209:
 1048              	.LBE208:
 1049              	.LBE210:
 1050              	.LBE211:
 1051              	.LBE212:
 1052              		.loc 1 297 3 is_stmt 1 view .LVU306
 1053              		.loc 1 298 1 is_stmt 0 view .LVU307
 1054 0028 0198     		ldr	r0, [sp, #4]
 1055 002a 05B0     		add	sp, sp, #20
 1056              		.cfi_def_cfa_offset 4
 1057              		@ sp needed
 1058 002c 5DF804FB 		ldr	pc, [sp], #4
 1059              		.loc 1 298 1 view .LVU308
 1060              		.cfi_endproc
 1061              	.LFE307:
 1062              		.size	chMBPostAheadTimeout, .-chMBPostAheadTimeout
 1063              		.section	.text.chMBPostAheadI,"ax",%progbits
 1064              		.align	1
 1065              		.global	chMBPostAheadI
 1066              		.syntax unified
 1067              		.thumb
 1068              		.thumb_func
 1069              		.fpu fpv4-sp-d16
 1070              		.type	chMBPostAheadI, %function
 1071              	chMBPostAheadI:
 1072              	.LVL61:
 1073              	.LFB309:
 1074              		.loc 1 368 49 is_stmt 1 view -0
 1075              		.cfi_startproc
 1076              		@ args = 0, pretend = 0, frame = 0
 1077              		@ frame_needed = 0, uses_anonymous_args = 0
 1078              		.loc 1 370 21 view .LVU310
 1079              		.loc 1 371 3 view .LVU311
 1080              		.loc 1 371 3 view .LVU312
 1081              		.loc 1 371 3 view .LVU313
 1082              		.loc 1 374 3 view .LVU314
 1083              		.loc 1 368 49 is_stmt 0 view .LVU315
ARM GAS  /tmp/ccs92UlG.s 			page 20


 1084 0000 38B5     		push	{r3, r4, r5, lr}
 1085              		.cfi_def_cfa_offset 16
 1086              		.cfi_offset 3, -16
 1087              		.cfi_offset 4, -12
 1088              		.cfi_offset 5, -8
 1089              		.cfi_offset 14, -4
 1090              		.loc 1 374 6 view .LVU316
 1091 0002 037D     		ldrb	r3, [r0, #20]	@ zero_extendqisi2
 1092 0004 DBB9     		cbnz	r3, .L32
 1093              		.loc 1 379 3 is_stmt 1 view .LVU317
 1094              	.LVL62:
 1095              	.LBB219:
 1096              	.LBI219:
 1097              		.loc 7 167 22 view .LVU318
 1098              	.LBE219:
 1099              		.loc 7 169 21 view .LVU319
 1100              		.loc 7 171 3 view .LVU320
 1101              	.LBB230:
 1102              	.LBB220:
 1103              	.LBI220:
 1104              		.loc 7 136 22 view .LVU321
 1105              	.LBB221:
 1106              		.loc 7 140 3 view .LVU322
 1107              	.LBE221:
 1108              	.LBE220:
 1109              	.LBB224:
 1110              	.LBB225:
 1111              		.loc 7 156 13 is_stmt 0 view .LVU323
 1112 0006 0369     		ldr	r3, [r0, #16]
 1113              	.LBE225:
 1114              	.LBE224:
 1115              	.LBB227:
 1116              	.LBB222:
 1117              		.loc 7 140 33 view .LVU324
 1118 0008 D0E90052 		ldrd	r5, r2, [r0]
 1119              	.LVL63:
 1120              		.loc 7 140 33 view .LVU325
 1121              	.LBE222:
 1122              	.LBE227:
 1123              	.LBB228:
 1124              	.LBI224:
 1125              		.loc 7 152 22 is_stmt 1 view .LVU326
 1126              	.LBB226:
 1127              		.loc 7 154 21 view .LVU327
 1128              		.loc 7 156 3 view .LVU328
 1129              		.loc 7 156 3 is_stmt 0 view .LVU329
 1130              	.LBE226:
 1131              	.LBE228:
 1132              	.LBB229:
 1133              	.LBB223:
 1134              		.loc 7 140 28 view .LVU330
 1135 000c 541B     		subs	r4, r2, r5
 1136              	.LBE223:
 1137              	.LBE229:
 1138              	.LBE230:
 1139              		.loc 1 379 6 view .LVU331
 1140 000e B3EBA40F 		cmp	r3, r4, asr #2
ARM GAS  /tmp/ccs92UlG.s 			page 21


 1141 0012 17D0     		beq	.L33
 1142              		.loc 1 380 5 is_stmt 1 view .LVU332
 1143              		.loc 1 380 9 is_stmt 0 view .LVU333
 1144 0014 C468     		ldr	r4, [r0, #12]
 1145              		.loc 1 384 13 view .LVU334
 1146 0016 0133     		adds	r3, r3, #1
 1147              		.loc 1 387 5 view .LVU335
 1148 0018 2030     		adds	r0, r0, #32
 1149              	.LVL64:
 1150              		.loc 1 380 9 view .LVU336
 1151 001a 043C     		subs	r4, r4, #4
 1152              		.loc 1 380 8 view .LVU337
 1153 001c AC42     		cmp	r4, r5
 1154              		.loc 1 381 29 view .LVU338
 1155 001e 36BF     		itet	cc
 1156 0020 043A     		subcc	r2, r2, #4
 1157              		.loc 1 380 8 view .LVU339
 1158 0022 40F8144C 		strcs	r4, [r0, #-20]
 1159              		.loc 1 381 7 is_stmt 1 view .LVU340
 1160              		.loc 1 381 18 is_stmt 0 view .LVU341
 1161 0026 40F8142C 		strcc	r2, [r0, #-20]
 1162              		.loc 1 383 5 is_stmt 1 view .LVU342
 1163              		.loc 1 383 17 is_stmt 0 view .LVU343
 1164 002a 50F8142C 		ldr	r2, [r0, #-20]
 1165 002e 1160     		str	r1, [r2]
 1166              		.loc 1 384 5 is_stmt 1 view .LVU344
 1167              		.loc 1 387 5 is_stmt 0 view .LVU345
 1168 0030 0021     		movs	r1, #0
 1169              	.LVL65:
 1170              		.loc 1 384 13 view .LVU346
 1171 0032 40F8103C 		str	r3, [r0, #-16]
 1172              		.loc 1 387 5 is_stmt 1 view .LVU347
 1173 0036 FFF7FEFF 		bl	chThdDequeueNextI
 1174              	.LVL66:
 1175              		.loc 1 389 5 view .LVU348
 1176              		.loc 1 389 12 is_stmt 0 view .LVU349
 1177 003a 0020     		movs	r0, #0
 1178              	.L28:
 1179              		.loc 1 394 1 view .LVU350
 1180 003c 38BD     		pop	{r3, r4, r5, pc}
 1181              	.LVL67:
 1182              	.L32:
 1183              		.loc 1 375 12 view .LVU351
 1184 003e 6FF00100 		mvn	r0, #1
 1185              	.LVL68:
 1186              		.loc 1 375 12 view .LVU352
 1187 0042 FBE7     		b	.L28
 1188              	.LVL69:
 1189              	.L33:
 1190              		.loc 1 393 10 view .LVU353
 1191 0044 4FF0FF30 		mov	r0, #-1
 1192              	.LVL70:
 1193              		.loc 1 393 10 view .LVU354
 1194 0048 F8E7     		b	.L28
 1195              		.cfi_endproc
 1196              	.LFE309:
 1197              		.size	chMBPostAheadI, .-chMBPostAheadI
ARM GAS  /tmp/ccs92UlG.s 			page 22


 1198              		.section	.text.chMBFetchTimeoutS,"ax",%progbits
 1199              		.align	1
 1200              		.global	chMBFetchTimeoutS
 1201              		.syntax unified
 1202              		.thumb
 1203              		.thumb_func
 1204              		.fpu fpv4-sp-d16
 1205              		.type	chMBFetchTimeoutS, %function
 1206              	chMBFetchTimeoutS:
 1207              	.LVL71:
 1208              	.LFB311:
 1209              		.loc 1 444 77 is_stmt 1 view -0
 1210              		.cfi_startproc
 1211              		@ args = 0, pretend = 0, frame = 0
 1212              		@ frame_needed = 0, uses_anonymous_args = 0
 1213              		.loc 1 445 3 view .LVU356
 1214              		.loc 1 447 21 view .LVU357
 1215              		.loc 1 448 3 view .LVU358
 1216              		.loc 1 448 3 view .LVU359
 1217              		.loc 1 444 77 is_stmt 0 view .LVU360
 1218 0000 F8B5     		push	{r3, r4, r5, r6, r7, lr}
 1219              		.cfi_def_cfa_offset 24
 1220              		.cfi_offset 3, -24
 1221              		.cfi_offset 4, -20
 1222              		.cfi_offset 5, -16
 1223              		.cfi_offset 6, -12
 1224              		.cfi_offset 7, -8
 1225              		.cfi_offset 14, -4
 1226              		.loc 1 444 77 view .LVU361
 1227 0002 0446     		mov	r4, r0
 1228 0004 0E46     		mov	r6, r1
 1229 0006 1546     		mov	r5, r2
 1230              		.loc 1 472 14 view .LVU362
 1231 0008 00F12007 		add	r7, r0, #32
 1232              	.LVL72:
 1233              	.L38:
 1234              		.loc 1 448 3 is_stmt 1 discriminator 7 view .LVU363
 1235              		.loc 1 450 3 discriminator 7 view .LVU364
 1236              		.loc 1 452 5 discriminator 7 view .LVU365
 1237              		.loc 1 452 8 is_stmt 0 discriminator 7 view .LVU366
 1238 000c 237D     		ldrb	r3, [r4, #20]	@ zero_extendqisi2
 1239 000e F3B9     		cbnz	r3, .L39
 1240              		.loc 1 457 5 is_stmt 1 view .LVU367
 1241              	.LVL73:
 1242              	.LBB231:
 1243              	.LBI231:
 1244              		.loc 7 152 22 view .LVU368
 1245              	.LBB232:
 1246              		.loc 7 154 21 view .LVU369
 1247              		.loc 7 156 3 view .LVU370
 1248              		.loc 7 156 13 is_stmt 0 view .LVU371
 1249 0010 2369     		ldr	r3, [r4, #16]
 1250              	.LVL74:
 1251              		.loc 7 156 13 view .LVU372
 1252              	.LBE232:
 1253              	.LBE231:
 1254              		.loc 1 457 8 view .LVU373
ARM GAS  /tmp/ccs92UlG.s 			page 23


 1255 0012 ABB1     		cbz	r3, .L36
 1256              		.loc 1 458 7 is_stmt 1 view .LVU374
 1257              		.loc 1 458 19 is_stmt 0 view .LVU375
 1258 0014 E168     		ldr	r1, [r4, #12]
 1259              		.loc 1 462 15 view .LVU376
 1260 0016 013B     		subs	r3, r3, #1
 1261              		.loc 1 465 7 view .LVU377
 1262 0018 04F11800 		add	r0, r4, #24
 1263              		.loc 1 458 26 view .LVU378
 1264 001c 0A1D     		adds	r2, r1, #4
 1265              		.loc 1 458 15 view .LVU379
 1266 001e 0968     		ldr	r1, [r1]
 1267              		.loc 1 458 26 view .LVU380
 1268 0020 E260     		str	r2, [r4, #12]
 1269              		.loc 1 458 13 view .LVU381
 1270 0022 3160     		str	r1, [r6]
 1271              		.loc 1 459 7 is_stmt 1 view .LVU382
 1272              		.loc 1 459 10 is_stmt 0 view .LVU383
 1273 0024 6168     		ldr	r1, [r4, #4]
 1274              		.loc 1 462 15 view .LVU384
 1275 0026 2361     		str	r3, [r4, #16]
 1276              		.loc 1 459 10 view .LVU385
 1277 0028 8A42     		cmp	r2, r1
 1278              		.loc 1 460 9 is_stmt 1 view .LVU386
 1279              		.loc 1 465 7 is_stmt 0 view .LVU387
 1280 002a 4FF00001 		mov	r1, #0
 1281              		.loc 1 460 20 view .LVU388
 1282 002e 24BF     		itt	cs
 1283 0030 2268     		ldrcs	r2, [r4]
 1284 0032 E260     		strcs	r2, [r4, #12]
 1285              		.loc 1 462 7 is_stmt 1 view .LVU389
 1286              		.loc 1 465 7 view .LVU390
 1287 0034 FFF7FEFF 		bl	chThdDequeueNextI
 1288              	.LVL75:
 1289              		.loc 1 466 7 view .LVU391
 1290 0038 FFF7FEFF 		bl	chSchRescheduleS
 1291              	.LVL76:
 1292              		.loc 1 468 7 view .LVU392
 1293              		.loc 1 468 14 is_stmt 0 view .LVU393
 1294 003c 0020     		movs	r0, #0
 1295              	.L34:
 1296              		.loc 1 476 1 view .LVU394
 1297 003e F8BD     		pop	{r3, r4, r5, r6, r7, pc}
 1298              	.LVL77:
 1299              	.L36:
 1300              		.loc 1 472 5 is_stmt 1 view .LVU395
 1301              		.loc 1 472 14 is_stmt 0 view .LVU396
 1302 0040 2946     		mov	r1, r5
 1303 0042 3846     		mov	r0, r7
 1304 0044 FFF7FEFF 		bl	chThdEnqueueTimeoutS
 1305              	.LVL78:
 1306              		.loc 1 473 11 is_stmt 1 view .LVU397
 1307              		.loc 1 473 3 is_stmt 0 view .LVU398
 1308 0048 0028     		cmp	r0, #0
 1309 004a DFD0     		beq	.L38
 1310 004c F7E7     		b	.L34
 1311              	.LVL79:
ARM GAS  /tmp/ccs92UlG.s 			page 24


 1312              	.L39:
 1313              		.loc 1 453 14 view .LVU399
 1314 004e 6FF00100 		mvn	r0, #1
 1315 0052 F4E7     		b	.L34
 1316              		.cfi_endproc
 1317              	.LFE311:
 1318              		.size	chMBFetchTimeoutS, .-chMBFetchTimeoutS
 1319              		.section	.text.chMBFetchTimeout,"ax",%progbits
 1320              		.align	1
 1321              		.global	chMBFetchTimeout
 1322              		.syntax unified
 1323              		.thumb
 1324              		.thumb_func
 1325              		.fpu fpv4-sp-d16
 1326              		.type	chMBFetchTimeout, %function
 1327              	chMBFetchTimeout:
 1328              	.LVL80:
 1329              	.LFB310:
 1330              		.loc 1 415 76 is_stmt 1 view -0
 1331              		.cfi_startproc
 1332              		@ args = 0, pretend = 0, frame = 16
 1333              		@ frame_needed = 0, uses_anonymous_args = 0
 1334              		.loc 1 416 3 view .LVU401
 1335              		.loc 1 418 3 view .LVU402
 1336              	.LBB243:
 1337              	.LBI243:
 1338              		.loc 4 353 20 view .LVU403
 1339              	.LBB244:
 1340              		.loc 4 355 3 view .LVU404
 1341              	.LBB245:
 1342              	.LBI245:
 1343              		.loc 5 602 20 view .LVU405
 1344              	.LBE245:
 1345              	.LBE244:
 1346              	.LBE243:
 1347              		.loc 5 610 3 view .LVU406
 1348              	.LBB258:
 1349              	.LBB255:
 1350              	.LBB252:
 1351              	.LBB246:
 1352              	.LBI246:
 1353              		.loc 6 491 27 view .LVU407
 1354              	.LBB247:
 1355              		.loc 6 493 3 view .LVU408
 1356              	.LBE247:
 1357              	.LBE246:
 1358              	.LBE252:
 1359              	.LBE255:
 1360              	.LBE258:
 1361              		.loc 1 415 76 is_stmt 0 view .LVU409
 1362 0000 1FB5     		push	{r0, r1, r2, r3, r4, lr}
 1363              		.cfi_def_cfa_offset 24
 1364              		.cfi_offset 14, -4
 1365              	.LBB259:
 1366              	.LBB256:
 1367              	.LBB253:
 1368              	.LBB250:
ARM GAS  /tmp/ccs92UlG.s 			page 25


 1369              	.LBB248:
 1370              		.loc 6 493 3 view .LVU410
 1371 0002 2023     		movs	r3, #32
 1372              	.LBE248:
 1373              	.LBE250:
 1374              	.LBE253:
 1375              	.LBE256:
 1376              	.LBE259:
 1377              		.loc 1 415 76 view .LVU411
 1378 0004 0192     		str	r2, [sp, #4]
 1379 0006 CDE90210 		strd	r1, r0, [sp, #8]
 1380              	.LBB260:
 1381              	.LBB257:
 1382              	.LBB254:
 1383              	.LBB251:
 1384              	.LBB249:
 1385              		.loc 6 493 3 view .LVU412
 1386              		.syntax unified
 1387              	@ 493 "../../modules/ChibiOS/os/common/ext/ARM/CMSIS/Core/Include/cmsis_gcc.h" 1
 1388 000a 83F31188 		MSR basepri, r3
 1389              	@ 0 "" 2
 1390              	.LVL81:
 1391              		.loc 6 493 3 view .LVU413
 1392              		.thumb
 1393              		.syntax unified
 1394              	.LBE249:
 1395              	.LBE251:
 1396              	.LBE254:
 1397              		.loc 4 356 3 is_stmt 1 view .LVU414
 1398 000e FFF7FEFF 		bl	_stats_start_measure_crit_thd
 1399              	.LVL82:
 1400              		.loc 4 357 20 view .LVU415
 1401              	.LBE257:
 1402              	.LBE260:
 1403              		.loc 1 419 3 view .LVU416
 1404              		.loc 1 419 12 is_stmt 0 view .LVU417
 1405 0012 0398     		ldr	r0, [sp, #12]
 1406 0014 DDE90121 		ldrd	r2, r1, [sp, #4]
 1407 0018 FFF7FEFF 		bl	chMBFetchTimeoutS
 1408              	.LVL83:
 1409 001c 0190     		str	r0, [sp, #4]
 1410              	.LVL84:
 1411              		.loc 1 420 3 is_stmt 1 view .LVU418
 1412              	.LBB261:
 1413              	.LBI261:
 1414              		.loc 4 365 20 view .LVU419
 1415              	.LBB262:
 1416              		.loc 4 367 22 view .LVU420
 1417              		.loc 4 368 3 view .LVU421
 1418 001e FFF7FEFF 		bl	_stats_stop_measure_crit_thd
 1419              	.LVL85:
 1420              		.loc 4 374 3 view .LVU422
 1421              		.loc 4 374 3 view .LVU423
 1422              		.loc 4 374 3 view .LVU424
 1423              		.loc 4 378 3 view .LVU425
 1424              	.LBB263:
 1425              	.LBI263:
ARM GAS  /tmp/ccs92UlG.s 			page 26


 1426              		.loc 5 626 20 view .LVU426
 1427              	.LBE263:
 1428              	.LBE262:
 1429              	.LBE261:
 1430              		.loc 5 629 3 view .LVU427
 1431              	.LBB268:
 1432              	.LBB267:
 1433              	.LBB266:
 1434              	.LBB264:
 1435              	.LBI264:
 1436              		.loc 6 491 27 view .LVU428
 1437              	.LBB265:
 1438              		.loc 6 493 3 view .LVU429
 1439 0022 0023     		movs	r3, #0
 1440              		.syntax unified
 1441              	@ 493 "../../modules/ChibiOS/os/common/ext/ARM/CMSIS/Core/Include/cmsis_gcc.h" 1
 1442 0024 83F31188 		MSR basepri, r3
 1443              	@ 0 "" 2
 1444              	.LVL86:
 1445              		.loc 6 493 3 is_stmt 0 view .LVU430
 1446              		.thumb
 1447              		.syntax unified
 1448              	.LBE265:
 1449              	.LBE264:
 1450              	.LBE266:
 1451              	.LBE267:
 1452              	.LBE268:
 1453              		.loc 1 422 3 is_stmt 1 view .LVU431
 1454              		.loc 1 423 1 is_stmt 0 view .LVU432
 1455 0028 0198     		ldr	r0, [sp, #4]
 1456 002a 05B0     		add	sp, sp, #20
 1457              		.cfi_def_cfa_offset 4
 1458              		@ sp needed
 1459 002c 5DF804FB 		ldr	pc, [sp], #4
 1460              		.loc 1 423 1 view .LVU433
 1461              		.cfi_endproc
 1462              	.LFE310:
 1463              		.size	chMBFetchTimeout, .-chMBFetchTimeout
 1464              		.section	.text.chMBFetchI,"ax",%progbits
 1465              		.align	1
 1466              		.global	chMBFetchI
 1467              		.syntax unified
 1468              		.thumb
 1469              		.thumb_func
 1470              		.fpu fpv4-sp-d16
 1471              		.type	chMBFetchI, %function
 1472              	chMBFetchI:
 1473              	.LVL87:
 1474              	.LFB312:
 1475              		.loc 1 493 47 is_stmt 1 view -0
 1476              		.cfi_startproc
 1477              		@ args = 0, pretend = 0, frame = 0
 1478              		@ frame_needed = 0, uses_anonymous_args = 0
 1479              		.loc 1 495 21 view .LVU435
 1480              		.loc 1 496 3 view .LVU436
 1481              		.loc 1 496 3 view .LVU437
 1482              		.loc 1 496 3 view .LVU438
ARM GAS  /tmp/ccs92UlG.s 			page 27


 1483              		.loc 1 499 3 view .LVU439
 1484              		.loc 1 499 6 is_stmt 0 view .LVU440
 1485 0000 037D     		ldrb	r3, [r0, #20]	@ zero_extendqisi2
 1486              		.loc 1 493 47 view .LVU441
 1487 0002 10B5     		push	{r4, lr}
 1488              		.cfi_def_cfa_offset 8
 1489              		.cfi_offset 4, -8
 1490              		.cfi_offset 14, -4
 1491              		.loc 1 499 6 view .LVU442
 1492 0004 CBB9     		cbnz	r3, .L46
 1493              		.loc 1 504 3 is_stmt 1 view .LVU443
 1494              	.LVL88:
 1495              	.LBB269:
 1496              	.LBI269:
 1497              		.loc 7 152 22 view .LVU444
 1498              	.LBB270:
 1499              		.loc 7 154 21 view .LVU445
 1500              		.loc 7 156 3 view .LVU446
 1501              		.loc 7 156 13 is_stmt 0 view .LVU447
 1502 0006 0369     		ldr	r3, [r0, #16]
 1503              	.LVL89:
 1504              		.loc 7 156 13 view .LVU448
 1505              	.LBE270:
 1506              	.LBE269:
 1507              		.loc 1 504 6 view .LVU449
 1508 0008 D3B1     		cbz	r3, .L47
 1509              		.loc 1 505 5 is_stmt 1 view .LVU450
 1510              		.loc 1 505 17 is_stmt 0 view .LVU451
 1511 000a C468     		ldr	r4, [r0, #12]
 1512              		.loc 1 509 13 view .LVU452
 1513 000c 013B     		subs	r3, r3, #1
 1514              		.loc 1 512 5 view .LVU453
 1515 000e 1830     		adds	r0, r0, #24
 1516              	.LVL90:
 1517              		.loc 1 505 24 view .LVU454
 1518 0010 221D     		adds	r2, r4, #4
 1519              		.loc 1 505 13 view .LVU455
 1520 0012 2468     		ldr	r4, [r4]
 1521              		.loc 1 505 24 view .LVU456
 1522 0014 40F80C2C 		str	r2, [r0, #-12]
 1523              		.loc 1 505 11 view .LVU457
 1524 0018 0C60     		str	r4, [r1]
 1525              		.loc 1 506 5 is_stmt 1 view .LVU458
 1526              		.loc 1 506 8 is_stmt 0 view .LVU459
 1527 001a 50F8141C 		ldr	r1, [r0, #-20]
 1528              	.LVL91:
 1529              		.loc 1 509 13 view .LVU460
 1530 001e 40F8083C 		str	r3, [r0, #-8]
 1531              		.loc 1 506 8 view .LVU461
 1532 0022 8A42     		cmp	r2, r1
 1533              		.loc 1 507 7 is_stmt 1 view .LVU462
 1534              		.loc 1 512 5 is_stmt 0 view .LVU463
 1535 0024 4FF00001 		mov	r1, #0
 1536              		.loc 1 507 18 view .LVU464
 1537 0028 24BF     		itt	cs
 1538 002a 50F8182C 		ldrcs	r2, [r0, #-24]
 1539 002e 40F80C2C 		strcs	r2, [r0, #-12]
ARM GAS  /tmp/ccs92UlG.s 			page 28


 1540              		.loc 1 509 5 is_stmt 1 view .LVU465
 1541              		.loc 1 512 5 view .LVU466
 1542 0032 FFF7FEFF 		bl	chThdDequeueNextI
 1543              	.LVL92:
 1544              		.loc 1 514 5 view .LVU467
 1545              		.loc 1 514 12 is_stmt 0 view .LVU468
 1546 0036 0020     		movs	r0, #0
 1547              	.L43:
 1548              		.loc 1 519 1 view .LVU469
 1549 0038 10BD     		pop	{r4, pc}
 1550              	.LVL93:
 1551              	.L46:
 1552              		.loc 1 500 12 view .LVU470
 1553 003a 6FF00100 		mvn	r0, #1
 1554              	.LVL94:
 1555              		.loc 1 500 12 view .LVU471
 1556 003e FBE7     		b	.L43
 1557              	.LVL95:
 1558              	.L47:
 1559              		.loc 1 518 10 view .LVU472
 1560 0040 4FF0FF30 		mov	r0, #-1
 1561              	.LVL96:
 1562              		.loc 1 518 10 view .LVU473
 1563 0044 F8E7     		b	.L43
 1564              		.cfi_endproc
 1565              	.LFE312:
 1566              		.size	chMBFetchI, .-chMBFetchI
 1567              		.text
 1568              	.Letext0:
 1569              		.file 8 "/opt/gcc-arm-none-eabi-10-2020-q4-major/lib/gcc/arm-none-eabi/10.2.1/include/stddef.h"
 1570              		.file 9 "/opt/gcc-arm-none-eabi-10-2020-q4-major/arm-none-eabi/include/machine/_default_types.h"
 1571              		.file 10 "/opt/gcc-arm-none-eabi-10-2020-q4-major/arm-none-eabi/include/sys/_stdint.h"
 1572              		.file 11 "../../modules/ChibiOS/os/common/ports/ARMCMx/compilers/GCC/chtypes.h"
 1573              		.file 12 "../../modules/ChibiOS/os/rt/include/chsystypes.h"
 1574              		.file 13 "../../modules/ChibiOS/os/rt/include/chtime.h"
 1575              		.file 14 "../../modules/ChibiOS/os/common/ports/ARMCMx/chcore.h"
 1576              		.file 15 "../../modules/ChibiOS/os/rt/include/chtm.h"
 1577              		.file 16 "../../modules/ChibiOS/os/rt/include/chsem.h"
 1578              		.file 17 "../../modules/ChibiOS/os/rt/include/chmtx.h"
 1579              		.file 18 "../../modules/ChibiOS/os/rt/include/chstats.h"