ARM GAS  /tmp/ccNqDhUJ.s 			page 1


   1              		.cpu cortex-m7
   2              		.eabi_attribute 27, 1
   3              		.eabi_attribute 28, 1
   4              		.eabi_attribute 20, 1
   5              		.eabi_attribute 21, 1
   6              		.eabi_attribute 23, 3
   7              		.eabi_attribute 24, 1
   8              		.eabi_attribute 25, 1
   9              		.eabi_attribute 26, 1
  10              		.eabi_attribute 30, 4
  11              		.eabi_attribute 34, 1
  12              		.eabi_attribute 18, 4
  13              		.file	"chmempools.c"
  14              		.text
  15              	.Ltext0:
  16              		.cfi_sections	.debug_frame
  17              		.section	.text.chPoolObjectInitAligned,"ax",%progbits
  18              		.align	1
  19              		.global	chPoolObjectInitAligned
  20              		.arch armv7e-m
  21              		.syntax unified
  22              		.thumb
  23              		.thumb_func
  24              		.fpu fpv4-sp-d16
  25              		.type	chPoolObjectInitAligned, %function
  26              	chPoolObjectInitAligned:
  27              	.LVL0:
  28              	.LFB301:
  29              		.file 1 "../../modules/ChibiOS/os/oslib/src/chmempools.c"
  30              		.loc 1 78 69 view -0
  31              		.cfi_startproc
  32              		@ args = 0, pretend = 0, frame = 0
  33              		@ frame_needed = 0, uses_anonymous_args = 0
  34              		.loc 1 80 3 view .LVU1
  35              		.loc 1 80 3 view .LVU2
  36              		.loc 1 80 3 view .LVU3
  37              		.loc 1 85 3 view .LVU4
  38              		.loc 1 78 69 is_stmt 0 view .LVU5
  39 0000 10B5     		push	{r4, lr}
  40              		.cfi_def_cfa_offset 8
  41              		.cfi_offset 4, -8
  42              		.cfi_offset 14, -4
  43              		.loc 1 85 12 view .LVU6
  44 0002 0024     		movs	r4, #0
  45              		.loc 1 88 16 view .LVU7
  46 0004 C0E90223 		strd	r2, r3, [r0, #8]
  47              		.loc 1 86 19 view .LVU8
  48 0008 C0E90041 		strd	r4, r1, [r0]
  49              		.loc 1 87 3 is_stmt 1 view .LVU9
  50              		.loc 1 89 1 is_stmt 0 view .LVU10
  51 000c 10BD     		pop	{r4, pc}
  52              		.cfi_endproc
  53              	.LFE301:
  54              		.size	chPoolObjectInitAligned, .-chPoolObjectInitAligned
  55              		.section	.text.chPoolAllocI,"ax",%progbits
  56              		.align	1
  57              		.global	chPoolAllocI
ARM GAS  /tmp/ccNqDhUJ.s 			page 2


  58              		.syntax unified
  59              		.thumb
  60              		.thumb_func
  61              		.fpu fpv4-sp-d16
  62              		.type	chPoolAllocI, %function
  63              	chPoolAllocI:
  64              	.LVL1:
  65              	.LFB303:
  66              		.loc 1 129 39 is_stmt 1 view -0
  67              		.cfi_startproc
  68              		@ args = 0, pretend = 0, frame = 0
  69              		@ frame_needed = 0, uses_anonymous_args = 0
  70              		@ link register save eliminated.
  71              		.loc 1 130 3 view .LVU12
  72              		.loc 1 132 21 view .LVU13
  73              		.loc 1 133 3 view .LVU14
  74              		.loc 1 133 3 view .LVU15
  75              		.loc 1 133 3 view .LVU16
  76              		.loc 1 135 3 view .LVU17
  77              		.loc 1 135 8 is_stmt 0 view .LVU18
  78 0000 0368     		ldr	r3, [r0]
  79              	.LVL2:
  80              		.loc 1 137 3 is_stmt 1 view .LVU19
  81              		.loc 1 137 6 is_stmt 0 view .LVU20
  82 0002 1BB1     		cbz	r3, .L3
  83              		.loc 1 138 5 is_stmt 1 view .LVU21
  84              		.loc 1 138 14 is_stmt 0 view .LVU22
  85 0004 1A68     		ldr	r2, [r3]
  86 0006 0260     		str	r2, [r0]
  87              	.L2:
  88              		.loc 1 149 1 view .LVU23
  89 0008 1846     		mov	r0, r3
  90              	.LVL3:
  91              		.loc 1 149 1 view .LVU24
  92 000a 7047     		bx	lr
  93              	.LVL4:
  94              	.L3:
  95              	.LBB26:
  96              	.LBI26:
  97              		.loc 1 129 7 is_stmt 1 view .LVU25
  98              	.LBB27:
  99              		.loc 1 140 8 view .LVU26
 100              		.loc 1 140 14 is_stmt 0 view .LVU27
 101 000c C268     		ldr	r2, [r0, #12]
 102              		.loc 1 140 11 view .LVU28
 103 000e 002A     		cmp	r2, #0
 104 0010 FAD0     		beq	.L2
 105              		.loc 1 141 5 is_stmt 1 view .LVU29
 106              		.loc 1 141 12 is_stmt 0 view .LVU30
 107 0012 D0E90101 		ldrd	r0, r1, [r0, #4]
 108              	.LVL5:
 109              		.loc 1 141 12 view .LVU31
 110 0016 1047     		bx	r2
 111              	.LVL6:
 112              		.loc 1 141 12 view .LVU32
 113              	.LBE27:
 114              	.LBE26:
ARM GAS  /tmp/ccNqDhUJ.s 			page 3


 115              		.cfi_endproc
 116              	.LFE303:
 117              		.size	chPoolAllocI, .-chPoolAllocI
 118              		.section	.text.chPoolAlloc,"ax",%progbits
 119              		.align	1
 120              		.global	chPoolAlloc
 121              		.syntax unified
 122              		.thumb
 123              		.thumb_func
 124              		.fpu fpv4-sp-d16
 125              		.type	chPoolAlloc, %function
 126              	chPoolAlloc:
 127              	.LVL7:
 128              	.LFB304:
 129              		.loc 1 161 38 is_stmt 1 view -0
 130              		.cfi_startproc
 131              		@ args = 0, pretend = 0, frame = 8
 132              		@ frame_needed = 0, uses_anonymous_args = 0
 133              		.loc 1 162 3 view .LVU34
 134              		.loc 1 164 3 view .LVU35
 135              	.LBB38:
 136              	.LBI38:
 137              		.file 2 "../../modules/ChibiOS/os/rt/include/chsys.h"
 138              		.loc 2 353 20 view .LVU36
 139              	.LBB39:
 140              		.loc 2 355 3 view .LVU37
 141              	.LBB40:
 142              	.LBI40:
 143              		.file 3 "../../modules/ChibiOS/os/common/ports/ARMCMx/chcore_v7m.h"
 144              		.loc 3 602 20 view .LVU38
 145              	.LBE40:
 146              	.LBE39:
 147              	.LBE38:
 148              		.loc 3 610 3 view .LVU39
 149              	.LBB53:
 150              	.LBB50:
 151              	.LBB47:
 152              	.LBB41:
 153              	.LBI41:
 154              		.file 4 "../../modules/ChibiOS/os/common/ext/ARM/CMSIS/Core/Include/cmsis_gcc.h"
 155              		.loc 4 491 27 view .LVU40
 156              	.LBB42:
 157              		.loc 4 493 3 view .LVU41
 158              	.LBE42:
 159              	.LBE41:
 160              	.LBE47:
 161              	.LBE50:
 162              	.LBE53:
 163              		.loc 1 161 38 is_stmt 0 view .LVU42
 164 0000 07B5     		push	{r0, r1, r2, lr}
 165              		.cfi_def_cfa_offset 16
 166              		.cfi_offset 14, -4
 167              	.LBB54:
 168              	.LBB51:
 169              	.LBB48:
 170              	.LBB45:
 171              	.LBB43:
ARM GAS  /tmp/ccNqDhUJ.s 			page 4


 172              		.loc 4 493 3 view .LVU43
 173 0002 2023     		movs	r3, #32
 174              	.LBE43:
 175              	.LBE45:
 176              	.LBE48:
 177              	.LBE51:
 178              	.LBE54:
 179              		.loc 1 161 38 view .LVU44
 180 0004 0190     		str	r0, [sp, #4]
 181              	.LBB55:
 182              	.LBB52:
 183              	.LBB49:
 184              	.LBB46:
 185              	.LBB44:
 186              		.loc 4 493 3 view .LVU45
 187              		.syntax unified
 188              	@ 493 "../../modules/ChibiOS/os/common/ext/ARM/CMSIS/Core/Include/cmsis_gcc.h" 1
 189 0006 83F31188 		MSR basepri, r3
 190              	@ 0 "" 2
 191              	.LVL8:
 192              		.loc 4 493 3 view .LVU46
 193              		.thumb
 194              		.syntax unified
 195              	.LBE44:
 196              	.LBE46:
 197              	.LBE49:
 198              		.loc 2 356 3 is_stmt 1 view .LVU47
 199 000a FFF7FEFF 		bl	_stats_start_measure_crit_thd
 200              	.LVL9:
 201              		.loc 2 357 20 view .LVU48
 202              	.LBE52:
 203              	.LBE55:
 204              		.loc 1 165 3 view .LVU49
 205              		.loc 1 165 10 is_stmt 0 view .LVU50
 206 000e 0198     		ldr	r0, [sp, #4]
 207 0010 FFF7FEFF 		bl	chPoolAllocI
 208              	.LVL10:
 209 0014 0190     		str	r0, [sp, #4]
 210              	.LVL11:
 211              		.loc 1 166 3 is_stmt 1 view .LVU51
 212              	.LBB56:
 213              	.LBI56:
 214              		.loc 2 365 20 view .LVU52
 215              	.LBB57:
 216              		.loc 2 367 22 view .LVU53
 217              		.loc 2 368 3 view .LVU54
 218 0016 FFF7FEFF 		bl	_stats_stop_measure_crit_thd
 219              	.LVL12:
 220              		.loc 2 374 3 view .LVU55
 221              		.loc 2 374 3 view .LVU56
 222              		.loc 2 374 3 view .LVU57
 223              		.loc 2 378 3 view .LVU58
 224              	.LBB58:
 225              	.LBI58:
 226              		.loc 3 626 20 view .LVU59
 227              	.LBE58:
 228              	.LBE57:
ARM GAS  /tmp/ccNqDhUJ.s 			page 5


 229              	.LBE56:
 230              		.loc 3 629 3 view .LVU60
 231              	.LBB63:
 232              	.LBB62:
 233              	.LBB61:
 234              	.LBB59:
 235              	.LBI59:
 236              		.loc 4 491 27 view .LVU61
 237              	.LBB60:
 238              		.loc 4 493 3 view .LVU62
 239 001a 0023     		movs	r3, #0
 240              		.syntax unified
 241              	@ 493 "../../modules/ChibiOS/os/common/ext/ARM/CMSIS/Core/Include/cmsis_gcc.h" 1
 242 001c 83F31188 		MSR basepri, r3
 243              	@ 0 "" 2
 244              	.LVL13:
 245              		.loc 4 493 3 is_stmt 0 view .LVU63
 246              		.thumb
 247              		.syntax unified
 248              	.LBE60:
 249              	.LBE59:
 250              	.LBE61:
 251              	.LBE62:
 252              	.LBE63:
 253              		.loc 1 168 3 is_stmt 1 view .LVU64
 254              		.loc 1 169 1 is_stmt 0 view .LVU65
 255 0020 0198     		ldr	r0, [sp, #4]
 256 0022 03B0     		add	sp, sp, #12
 257              		.cfi_def_cfa_offset 4
 258              		@ sp needed
 259 0024 5DF804FB 		ldr	pc, [sp], #4
 260              		.loc 1 169 1 view .LVU66
 261              		.cfi_endproc
 262              	.LFE304:
 263              		.size	chPoolAlloc, .-chPoolAlloc
 264              		.section	.text.chPoolFreeI,"ax",%progbits
 265              		.align	1
 266              		.global	chPoolFreeI
 267              		.syntax unified
 268              		.thumb
 269              		.thumb_func
 270              		.fpu fpv4-sp-d16
 271              		.type	chPoolFreeI, %function
 272              	chPoolFreeI:
 273              	.LVL14:
 274              	.LFB305:
 275              		.loc 1 183 49 is_stmt 1 view -0
 276              		.cfi_startproc
 277              		@ args = 0, pretend = 0, frame = 0
 278              		@ frame_needed = 0, uses_anonymous_args = 0
 279              		@ link register save eliminated.
 280              		.loc 1 184 3 view .LVU68
 281              		.loc 1 186 21 view .LVU69
 282              		.loc 1 187 3 view .LVU70
 283              		.loc 1 187 3 view .LVU71
 284              		.loc 1 187 3 view .LVU72
 285              		.loc 1 191 3 view .LVU73
ARM GAS  /tmp/ccNqDhUJ.s 			page 6


 286              		.loc 1 191 13 is_stmt 0 view .LVU74
 287 0000 0368     		ldr	r3, [r0]
 288 0002 0B60     		str	r3, [r1]
 289              		.loc 1 192 3 is_stmt 1 view .LVU75
 290              		.loc 1 192 12 is_stmt 0 view .LVU76
 291 0004 0160     		str	r1, [r0]
 292              		.loc 1 193 1 view .LVU77
 293 0006 7047     		bx	lr
 294              		.cfi_endproc
 295              	.LFE305:
 296              		.size	chPoolFreeI, .-chPoolFreeI
 297              		.section	.text.chPoolFree,"ax",%progbits
 298              		.align	1
 299              		.global	chPoolFree
 300              		.syntax unified
 301              		.thumb
 302              		.thumb_func
 303              		.fpu fpv4-sp-d16
 304              		.type	chPoolFree, %function
 305              	chPoolFree:
 306              	.LVL15:
 307              	.LFB306:
 308              		.loc 1 207 48 is_stmt 1 view -0
 309              		.cfi_startproc
 310              		@ args = 0, pretend = 0, frame = 0
 311              		@ frame_needed = 0, uses_anonymous_args = 0
 312              		.loc 1 209 3 view .LVU79
 313              	.LBB76:
 314              	.LBI76:
 315              		.loc 2 353 20 view .LVU80
 316              	.LBB77:
 317              		.loc 2 355 3 view .LVU81
 318              	.LBB78:
 319              	.LBI78:
 320              		.loc 3 602 20 view .LVU82
 321              	.LBE78:
 322              	.LBE77:
 323              	.LBE76:
 324              		.loc 3 610 3 view .LVU83
 325              	.LBB87:
 326              	.LBB85:
 327              	.LBB83:
 328              	.LBB79:
 329              	.LBI79:
 330              		.loc 4 491 27 view .LVU84
 331              	.LBB80:
 332              		.loc 4 493 3 view .LVU85
 333              	.LBE80:
 334              	.LBE79:
 335              	.LBE83:
 336              	.LBE85:
 337              	.LBE87:
 338              		.loc 1 207 48 is_stmt 0 view .LVU86
 339 0000 38B5     		push	{r3, r4, r5, lr}
 340              		.cfi_def_cfa_offset 16
 341              		.cfi_offset 3, -16
 342              		.cfi_offset 4, -12
ARM GAS  /tmp/ccNqDhUJ.s 			page 7


 343              		.cfi_offset 5, -8
 344              		.cfi_offset 14, -4
 345              		.loc 1 207 48 view .LVU87
 346 0002 0446     		mov	r4, r0
 347 0004 0D46     		mov	r5, r1
 348              	.LBB88:
 349              	.LBB86:
 350              	.LBB84:
 351              	.LBB82:
 352              	.LBB81:
 353              		.loc 4 493 3 view .LVU88
 354 0006 2023     		movs	r3, #32
 355              		.syntax unified
 356              	@ 493 "../../modules/ChibiOS/os/common/ext/ARM/CMSIS/Core/Include/cmsis_gcc.h" 1
 357 0008 83F31188 		MSR basepri, r3
 358              	@ 0 "" 2
 359              	.LVL16:
 360              		.loc 4 493 3 view .LVU89
 361              		.thumb
 362              		.syntax unified
 363              	.LBE81:
 364              	.LBE82:
 365              	.LBE84:
 366              		.loc 2 356 3 is_stmt 1 view .LVU90
 367 000c FFF7FEFF 		bl	_stats_start_measure_crit_thd
 368              	.LVL17:
 369              		.loc 2 357 20 view .LVU91
 370              	.LBE86:
 371              	.LBE88:
 372              		.loc 1 210 3 view .LVU92
 373              	.LBB89:
 374              	.LBI89:
 375              		.loc 1 183 6 view .LVU93
 376              	.LBB90:
 377              		.loc 1 184 3 view .LVU94
 378              		.loc 1 186 21 view .LVU95
 379              		.loc 1 187 3 view .LVU96
 380              		.loc 1 187 3 view .LVU97
 381              		.loc 1 187 3 view .LVU98
 382              		.loc 1 191 3 view .LVU99
 383              		.loc 1 191 13 is_stmt 0 view .LVU100
 384 0010 2368     		ldr	r3, [r4]
 385 0012 2B60     		str	r3, [r5]
 386              		.loc 1 192 3 is_stmt 1 view .LVU101
 387              		.loc 1 192 12 is_stmt 0 view .LVU102
 388 0014 2560     		str	r5, [r4]
 389              	.LVL18:
 390              		.loc 1 192 12 view .LVU103
 391              	.LBE90:
 392              	.LBE89:
 393              		.loc 1 211 3 is_stmt 1 view .LVU104
 394              	.LBB91:
 395              	.LBI91:
 396              		.loc 2 365 20 view .LVU105
 397              	.LBB92:
 398              		.loc 2 367 22 view .LVU106
 399              		.loc 2 368 3 view .LVU107
ARM GAS  /tmp/ccNqDhUJ.s 			page 8


 400 0016 FFF7FEFF 		bl	_stats_stop_measure_crit_thd
 401              	.LVL19:
 402              		.loc 2 374 3 view .LVU108
 403              		.loc 2 374 3 view .LVU109
 404              		.loc 2 374 3 view .LVU110
 405              		.loc 2 378 3 view .LVU111
 406              	.LBB93:
 407              	.LBI93:
 408              		.loc 3 626 20 view .LVU112
 409              	.LBE93:
 410              	.LBE92:
 411              	.LBE91:
 412              		.loc 3 629 3 view .LVU113
 413              	.LBB98:
 414              	.LBB97:
 415              	.LBB96:
 416              	.LBB94:
 417              	.LBI94:
 418              		.loc 4 491 27 view .LVU114
 419              	.LBB95:
 420              		.loc 4 493 3 view .LVU115
 421 001a 0023     		movs	r3, #0
 422              		.syntax unified
 423              	@ 493 "../../modules/ChibiOS/os/common/ext/ARM/CMSIS/Core/Include/cmsis_gcc.h" 1
 424 001c 83F31188 		MSR basepri, r3
 425              	@ 0 "" 2
 426              	.LVL20:
 427              		.loc 4 493 3 is_stmt 0 view .LVU116
 428              		.thumb
 429              		.syntax unified
 430              	.LBE95:
 431              	.LBE94:
 432              	.LBE96:
 433              	.LBE97:
 434              	.LBE98:
 435              		.loc 1 212 1 view .LVU117
 436 0020 38BD     		pop	{r3, r4, r5, pc}
 437              		.loc 1 212 1 view .LVU118
 438              		.cfi_endproc
 439              	.LFE306:
 440              		.size	chPoolFree, .-chPoolFree
 441              		.section	.text.chPoolLoadArray,"ax",%progbits
 442              		.align	1
 443              		.global	chPoolLoadArray
 444              		.syntax unified
 445              		.thumb
 446              		.thumb_func
 447              		.fpu fpv4-sp-d16
 448              		.type	chPoolLoadArray, %function
 449              	chPoolLoadArray:
 450              	.LVL21:
 451              	.LFB302:
 452              		.loc 1 106 60 is_stmt 1 view -0
 453              		.cfi_startproc
 454              		@ args = 0, pretend = 0, frame = 0
 455              		@ frame_needed = 0, uses_anonymous_args = 0
 456              		.loc 1 106 60 is_stmt 0 view .LVU120
ARM GAS  /tmp/ccNqDhUJ.s 			page 9


 457 0000 70B5     		push	{r4, r5, r6, lr}
 458              		.cfi_def_cfa_offset 16
 459              		.cfi_offset 4, -16
 460              		.cfi_offset 5, -12
 461              		.cfi_offset 6, -8
 462              		.cfi_offset 14, -4
 463 0002 0646     		mov	r6, r0
 464 0004 0D46     		mov	r5, r1
 465 0006 1446     		mov	r4, r2
 466              		.loc 1 108 3 is_stmt 1 view .LVU121
 467              		.loc 1 108 3 view .LVU122
 468              		.loc 1 108 3 view .LVU123
 469              		.loc 1 110 3 view .LVU124
 470              	.LVL22:
 471              	.L12:
 472              		.loc 1 110 9 view .LVU125
 473 0008 04B9     		cbnz	r4, .L13
 474              		.loc 1 117 1 is_stmt 0 view .LVU126
 475 000a 70BD     		pop	{r4, r5, r6, pc}
 476              	.LVL23:
 477              	.L13:
 478              		.loc 1 111 5 is_stmt 1 view .LVU127
 479              	.LBB99:
 480              	.LBI99:
 481              		.file 5 "../../modules/ChibiOS/os/oslib/include/chmempools.h"
 482              		.loc 5 210 20 view .LVU128
 483              	.LBB100:
 484              		.loc 5 212 3 view .LVU129
 485 000c 2946     		mov	r1, r5
 486 000e 3046     		mov	r0, r6
 487 0010 FFF7FEFF 		bl	chPoolFree
 488              	.LVL24:
 489              		.loc 5 212 3 is_stmt 0 view .LVU130
 490              	.LBE100:
 491              	.LBE99:
 492              		.loc 1 113 5 is_stmt 1 view .LVU131
 493              		.loc 1 113 7 is_stmt 0 view .LVU132
 494 0014 7368     		ldr	r3, [r6, #4]
 495              		.loc 1 115 6 view .LVU133
 496 0016 013C     		subs	r4, r4, #1
 497              	.LVL25:
 498              		.loc 1 113 7 view .LVU134
 499 0018 1D44     		add	r5, r5, r3
 500              	.LVL26:
 501              		.loc 1 115 5 is_stmt 1 view .LVU135
 502              		.loc 1 115 5 is_stmt 0 view .LVU136
 503 001a F5E7     		b	.L12
 504              		.cfi_endproc
 505              	.LFE302:
 506              		.size	chPoolLoadArray, .-chPoolLoadArray
 507              		.section	.text.chGuardedPoolObjectInitAligned,"ax",%progbits
 508              		.align	1
 509              		.global	chGuardedPoolObjectInitAligned
 510              		.syntax unified
 511              		.thumb
 512              		.thumb_func
 513              		.fpu fpv4-sp-d16
ARM GAS  /tmp/ccNqDhUJ.s 			page 10


 514              		.type	chGuardedPoolObjectInitAligned, %function
 515              	chGuardedPoolObjectInitAligned:
 516              	.LVL27:
 517              	.LFB307:
 518              		.loc 1 228 53 is_stmt 1 view -0
 519              		.cfi_startproc
 520              		@ args = 0, pretend = 0, frame = 0
 521              		@ frame_needed = 0, uses_anonymous_args = 0
 522              		@ link register save eliminated.
 523              		.loc 1 230 3 view .LVU138
 524              	.LBB101:
 525              	.LBI101:
 526              		.loc 1 77 6 view .LVU139
 527              	.LBB102:
 528              		.loc 1 80 3 view .LVU140
 529              		.loc 1 80 3 view .LVU141
 530              		.loc 1 80 3 view .LVU142
 531              		.loc 1 85 3 view .LVU143
 532              	.LBE102:
 533              	.LBE101:
 534              		.loc 1 228 53 is_stmt 0 view .LVU144
 535 0000 10B4     		push	{r4}
 536              		.cfi_def_cfa_offset 4
 537              		.cfi_offset 4, -4
 538              	.LBB104:
 539              	.LBB103:
 540              		.loc 1 85 12 view .LVU145
 541 0002 0024     		movs	r4, #0
 542              		.loc 1 86 19 view .LVU146
 543 0004 C0E90341 		strd	r4, r1, [r0, #12]
 544              		.loc 1 87 3 is_stmt 1 view .LVU147
 545              		.loc 1 88 16 is_stmt 0 view .LVU148
 546 0008 C0E90524 		strd	r2, r4, [r0, #20]
 547              	.LVL28:
 548              		.loc 1 88 16 view .LVU149
 549              	.LBE103:
 550              	.LBE104:
 551              		.loc 1 231 3 is_stmt 1 view .LVU150
 552 000c 2146     		mov	r1, r4
 553              	.LVL29:
 554              		.loc 1 232 1 is_stmt 0 view .LVU151
 555 000e 5DF8044B 		ldr	r4, [sp], #4
 556              		.cfi_restore 4
 557              		.cfi_def_cfa_offset 0
 558              		.loc 1 231 3 view .LVU152
 559 0012 FFF7FEBF 		b	chSemObjectInit
 560              	.LVL30:
 561              		.loc 1 231 3 view .LVU153
 562              		.cfi_endproc
 563              	.LFE307:
 564              		.size	chGuardedPoolObjectInitAligned, .-chGuardedPoolObjectInitAligned
 565              		.section	.text.chGuardedPoolAllocTimeoutS,"ax",%progbits
 566              		.align	1
 567              		.global	chGuardedPoolAllocTimeoutS
 568              		.syntax unified
 569              		.thumb
 570              		.thumb_func
ARM GAS  /tmp/ccNqDhUJ.s 			page 11


 571              		.fpu fpv4-sp-d16
 572              		.type	chGuardedPoolAllocTimeoutS, %function
 573              	chGuardedPoolAllocTimeoutS:
 574              	.LVL31:
 575              	.LFB309:
 576              		.loc 1 276 57 is_stmt 1 view -0
 577              		.cfi_startproc
 578              		@ args = 0, pretend = 0, frame = 0
 579              		@ frame_needed = 0, uses_anonymous_args = 0
 580              		.loc 1 277 3 view .LVU155
 581              		.loc 1 279 3 view .LVU156
 582              		.loc 1 276 57 is_stmt 0 view .LVU157
 583 0000 10B5     		push	{r4, lr}
 584              		.cfi_def_cfa_offset 8
 585              		.cfi_offset 4, -8
 586              		.cfi_offset 14, -4
 587              		.loc 1 276 57 view .LVU158
 588 0002 0446     		mov	r4, r0
 589              		.loc 1 279 9 view .LVU159
 590 0004 FFF7FEFF 		bl	chSemWaitTimeoutS
 591              	.LVL32:
 592              		.loc 1 280 3 is_stmt 1 view .LVU160
 593              		.loc 1 280 6 is_stmt 0 view .LVU161
 594 0008 28B9     		cbnz	r0, .L16
 595              		.loc 1 284 3 is_stmt 1 view .LVU162
 596              		.loc 1 284 10 is_stmt 0 view .LVU163
 597 000a 04F10C00 		add	r0, r4, #12
 598              	.LVL33:
 599              		.loc 1 285 1 view .LVU164
 600 000e BDE81040 		pop	{r4, lr}
 601              		.cfi_remember_state
 602              		.cfi_restore 14
 603              		.cfi_restore 4
 604              		.cfi_def_cfa_offset 0
 605              	.LVL34:
 606              		.loc 1 284 10 view .LVU165
 607 0012 FFF7FEBF 		b	chPoolAllocI
 608              	.LVL35:
 609              	.L16:
 610              		.cfi_restore_state
 611              		.loc 1 285 1 view .LVU166
 612 0016 0020     		movs	r0, #0
 613              	.LVL36:
 614              		.loc 1 285 1 view .LVU167
 615 0018 10BD     		pop	{r4, pc}
 616              		.loc 1 285 1 view .LVU168
 617              		.cfi_endproc
 618              	.LFE309:
 619              		.size	chGuardedPoolAllocTimeoutS, .-chGuardedPoolAllocTimeoutS
 620              		.section	.text.chGuardedPoolAllocTimeout,"ax",%progbits
 621              		.align	1
 622              		.global	chGuardedPoolAllocTimeout
 623              		.syntax unified
 624              		.thumb
 625              		.thumb_func
 626              		.fpu fpv4-sp-d16
 627              		.type	chGuardedPoolAllocTimeout, %function
ARM GAS  /tmp/ccNqDhUJ.s 			page 12


 628              	chGuardedPoolAllocTimeout:
 629              	.LVL37:
 630              	.LFB310:
 631              		.loc 1 303 56 is_stmt 1 view -0
 632              		.cfi_startproc
 633              		@ args = 0, pretend = 0, frame = 8
 634              		@ frame_needed = 0, uses_anonymous_args = 0
 635              		.loc 1 304 3 view .LVU170
 636              		.loc 1 306 3 view .LVU171
 637              	.LBB115:
 638              	.LBI115:
 639              		.loc 2 353 20 view .LVU172
 640              	.LBB116:
 641              		.loc 2 355 3 view .LVU173
 642              	.LBB117:
 643              	.LBI117:
 644              		.loc 3 602 20 view .LVU174
 645              	.LBE117:
 646              	.LBE116:
 647              	.LBE115:
 648              		.loc 3 610 3 view .LVU175
 649              	.LBB130:
 650              	.LBB127:
 651              	.LBB124:
 652              	.LBB118:
 653              	.LBI118:
 654              		.loc 4 491 27 view .LVU176
 655              	.LBB119:
 656              		.loc 4 493 3 view .LVU177
 657              	.LBE119:
 658              	.LBE118:
 659              	.LBE124:
 660              	.LBE127:
 661              	.LBE130:
 662              		.loc 1 303 56 is_stmt 0 view .LVU178
 663 0000 07B5     		push	{r0, r1, r2, lr}
 664              		.cfi_def_cfa_offset 16
 665              		.cfi_offset 14, -4
 666              	.LBB131:
 667              	.LBB128:
 668              	.LBB125:
 669              	.LBB122:
 670              	.LBB120:
 671              		.loc 4 493 3 view .LVU179
 672 0002 2023     		movs	r3, #32
 673              	.LBE120:
 674              	.LBE122:
 675              	.LBE125:
 676              	.LBE128:
 677              	.LBE131:
 678              		.loc 1 303 56 view .LVU180
 679 0004 CDE90010 		strd	r1, r0, [sp]
 680              	.LBB132:
 681              	.LBB129:
 682              	.LBB126:
 683              	.LBB123:
 684              	.LBB121:
ARM GAS  /tmp/ccNqDhUJ.s 			page 13


 685              		.loc 4 493 3 view .LVU181
 686              		.syntax unified
 687              	@ 493 "../../modules/ChibiOS/os/common/ext/ARM/CMSIS/Core/Include/cmsis_gcc.h" 1
 688 0008 83F31188 		MSR basepri, r3
 689              	@ 0 "" 2
 690              	.LVL38:
 691              		.loc 4 493 3 view .LVU182
 692              		.thumb
 693              		.syntax unified
 694              	.LBE121:
 695              	.LBE123:
 696              	.LBE126:
 697              		.loc 2 356 3 is_stmt 1 view .LVU183
 698 000c FFF7FEFF 		bl	_stats_start_measure_crit_thd
 699              	.LVL39:
 700              		.loc 2 357 20 view .LVU184
 701              	.LBE129:
 702              	.LBE132:
 703              		.loc 1 307 3 view .LVU185
 704              		.loc 1 307 7 is_stmt 0 view .LVU186
 705 0010 DDE90010 		ldrd	r1, r0, [sp]
 706 0014 FFF7FEFF 		bl	chGuardedPoolAllocTimeoutS
 707              	.LVL40:
 708 0018 0090     		str	r0, [sp]
 709              	.LVL41:
 710              		.loc 1 308 3 is_stmt 1 view .LVU187
 711              	.LBB133:
 712              	.LBI133:
 713              		.loc 2 365 20 view .LVU188
 714              	.LBB134:
 715              		.loc 2 367 22 view .LVU189
 716              		.loc 2 368 3 view .LVU190
 717 001a FFF7FEFF 		bl	_stats_stop_measure_crit_thd
 718              	.LVL42:
 719              		.loc 2 374 3 view .LVU191
 720              		.loc 2 374 3 view .LVU192
 721              		.loc 2 374 3 view .LVU193
 722              		.loc 2 378 3 view .LVU194
 723              	.LBB135:
 724              	.LBI135:
 725              		.loc 3 626 20 view .LVU195
 726              	.LBE135:
 727              	.LBE134:
 728              	.LBE133:
 729              		.loc 3 629 3 view .LVU196
 730              	.LBB140:
 731              	.LBB139:
 732              	.LBB138:
 733              	.LBB136:
 734              	.LBI136:
 735              		.loc 4 491 27 view .LVU197
 736              	.LBB137:
 737              		.loc 4 493 3 view .LVU198
 738 001e 0023     		movs	r3, #0
 739              		.syntax unified
 740              	@ 493 "../../modules/ChibiOS/os/common/ext/ARM/CMSIS/Core/Include/cmsis_gcc.h" 1
 741 0020 83F31188 		MSR basepri, r3
ARM GAS  /tmp/ccNqDhUJ.s 			page 14


 742              	@ 0 "" 2
 743              	.LVL43:
 744              		.loc 4 493 3 is_stmt 0 view .LVU199
 745              		.thumb
 746              		.syntax unified
 747              	.LBE137:
 748              	.LBE136:
 749              	.LBE138:
 750              	.LBE139:
 751              	.LBE140:
 752              		.loc 1 310 3 is_stmt 1 view .LVU200
 753              		.loc 1 311 1 is_stmt 0 view .LVU201
 754 0024 0098     		ldr	r0, [sp]
 755 0026 03B0     		add	sp, sp, #12
 756              		.cfi_def_cfa_offset 4
 757              	.LVL44:
 758              		.loc 1 311 1 view .LVU202
 759              		@ sp needed
 760 0028 5DF804FB 		ldr	pc, [sp], #4
 761              		.loc 1 311 1 view .LVU203
 762              		.cfi_endproc
 763              	.LFE310:
 764              		.size	chGuardedPoolAllocTimeout, .-chGuardedPoolAllocTimeout
 765              		.section	.text.chGuardedPoolFree,"ax",%progbits
 766              		.align	1
 767              		.global	chGuardedPoolFree
 768              		.syntax unified
 769              		.thumb
 770              		.thumb_func
 771              		.fpu fpv4-sp-d16
 772              		.type	chGuardedPoolFree, %function
 773              	chGuardedPoolFree:
 774              	.LVL45:
 775              	.LFB311:
 776              		.loc 1 325 64 is_stmt 1 view -0
 777              		.cfi_startproc
 778              		@ args = 0, pretend = 0, frame = 0
 779              		@ frame_needed = 0, uses_anonymous_args = 0
 780              		.loc 1 327 3 view .LVU205
 781              	.LBB155:
 782              	.LBI155:
 783              		.loc 2 353 20 view .LVU206
 784              	.LBB156:
 785              		.loc 2 355 3 view .LVU207
 786              	.LBB157:
 787              	.LBI157:
 788              		.loc 3 602 20 view .LVU208
 789              	.LBE157:
 790              	.LBE156:
 791              	.LBE155:
 792              		.loc 3 610 3 view .LVU209
 793              	.LBB166:
 794              	.LBB164:
 795              	.LBB162:
 796              	.LBB158:
 797              	.LBI158:
 798              		.loc 4 491 27 view .LVU210
ARM GAS  /tmp/ccNqDhUJ.s 			page 15


 799              	.LBB159:
 800              		.loc 4 493 3 view .LVU211
 801              	.LBE159:
 802              	.LBE158:
 803              	.LBE162:
 804              	.LBE164:
 805              	.LBE166:
 806              		.loc 1 325 64 is_stmt 0 view .LVU212
 807 0000 38B5     		push	{r3, r4, r5, lr}
 808              		.cfi_def_cfa_offset 16
 809              		.cfi_offset 3, -16
 810              		.cfi_offset 4, -12
 811              		.cfi_offset 5, -8
 812              		.cfi_offset 14, -4
 813              		.loc 1 325 64 view .LVU213
 814 0002 0446     		mov	r4, r0
 815 0004 0D46     		mov	r5, r1
 816              	.LBB167:
 817              	.LBB165:
 818              	.LBB163:
 819              	.LBB161:
 820              	.LBB160:
 821              		.loc 4 493 3 view .LVU214
 822 0006 2023     		movs	r3, #32
 823              		.syntax unified
 824              	@ 493 "../../modules/ChibiOS/os/common/ext/ARM/CMSIS/Core/Include/cmsis_gcc.h" 1
 825 0008 83F31188 		MSR basepri, r3
 826              	@ 0 "" 2
 827              	.LVL46:
 828              		.loc 4 493 3 view .LVU215
 829              		.thumb
 830              		.syntax unified
 831              	.LBE160:
 832              	.LBE161:
 833              	.LBE163:
 834              		.loc 2 356 3 is_stmt 1 view .LVU216
 835 000c FFF7FEFF 		bl	_stats_start_measure_crit_thd
 836              	.LVL47:
 837              		.loc 2 357 20 view .LVU217
 838              	.LBE165:
 839              	.LBE167:
 840              		.loc 1 328 3 view .LVU218
 841              	.LBB168:
 842              	.LBI168:
 843              		.loc 5 285 20 view .LVU219
 844              	.LBB169:
 845              		.loc 5 287 3 view .LVU220
 846              	.LBB170:
 847              	.LBI170:
 848              		.loc 1 183 6 view .LVU221
 849              	.LBB171:
 850              		.loc 1 184 3 view .LVU222
 851              		.loc 1 186 21 view .LVU223
 852              		.loc 1 187 3 view .LVU224
 853              		.loc 1 187 3 view .LVU225
 854              		.loc 1 187 3 view .LVU226
 855              		.loc 1 191 3 view .LVU227
ARM GAS  /tmp/ccNqDhUJ.s 			page 16


 856              		.loc 1 191 13 is_stmt 0 view .LVU228
 857 0010 E368     		ldr	r3, [r4, #12]
 858              	.LBE171:
 859              	.LBE170:
 860              		.loc 5 288 3 view .LVU229
 861 0012 2046     		mov	r0, r4
 862              	.LBB173:
 863              	.LBB172:
 864              		.loc 1 191 13 view .LVU230
 865 0014 2B60     		str	r3, [r5]
 866              		.loc 1 192 3 is_stmt 1 view .LVU231
 867              		.loc 1 192 12 is_stmt 0 view .LVU232
 868 0016 E560     		str	r5, [r4, #12]
 869              	.LVL48:
 870              		.loc 1 192 12 view .LVU233
 871              	.LBE172:
 872              	.LBE173:
 873              		.loc 5 288 3 is_stmt 1 view .LVU234
 874 0018 FFF7FEFF 		bl	chSemSignalI
 875              	.LVL49:
 876              		.loc 5 288 3 is_stmt 0 view .LVU235
 877              	.LBE169:
 878              	.LBE168:
 879              		.loc 1 329 3 is_stmt 1 view .LVU236
 880 001c FFF7FEFF 		bl	chSchRescheduleS
 881              	.LVL50:
 882              		.loc 1 330 3 view .LVU237
 883              	.LBB174:
 884              	.LBI174:
 885              		.loc 2 365 20 view .LVU238
 886              	.LBB175:
 887              		.loc 2 367 22 view .LVU239
 888              		.loc 2 368 3 view .LVU240
 889 0020 FFF7FEFF 		bl	_stats_stop_measure_crit_thd
 890              	.LVL51:
 891              		.loc 2 374 3 view .LVU241
 892              		.loc 2 374 3 view .LVU242
 893              		.loc 2 374 3 view .LVU243
 894              		.loc 2 378 3 view .LVU244
 895              	.LBB176:
 896              	.LBI176:
 897              		.loc 3 626 20 view .LVU245
 898              	.LBE176:
 899              	.LBE175:
 900              	.LBE174:
 901              		.loc 3 629 3 view .LVU246
 902              	.LBB181:
 903              	.LBB180:
 904              	.LBB179:
 905              	.LBB177:
 906              	.LBI177:
 907              		.loc 4 491 27 view .LVU247
 908              	.LBB178:
 909              		.loc 4 493 3 view .LVU248
 910 0024 0023     		movs	r3, #0
 911              		.syntax unified
 912              	@ 493 "../../modules/ChibiOS/os/common/ext/ARM/CMSIS/Core/Include/cmsis_gcc.h" 1
ARM GAS  /tmp/ccNqDhUJ.s 			page 17


 913 0026 83F31188 		MSR basepri, r3
 914              	@ 0 "" 2
 915              	.LVL52:
 916              		.loc 4 493 3 is_stmt 0 view .LVU249
 917              		.thumb
 918              		.syntax unified
 919              	.LBE178:
 920              	.LBE177:
 921              	.LBE179:
 922              	.LBE180:
 923              	.LBE181:
 924              		.loc 1 331 1 view .LVU250
 925 002a 38BD     		pop	{r3, r4, r5, pc}
 926              		.loc 1 331 1 view .LVU251
 927              		.cfi_endproc
 928              	.LFE311:
 929              		.size	chGuardedPoolFree, .-chGuardedPoolFree
 930              		.section	.text.chGuardedPoolLoadArray,"ax",%progbits
 931              		.align	1
 932              		.global	chGuardedPoolLoadArray
 933              		.syntax unified
 934              		.thumb
 935              		.thumb_func
 936              		.fpu fpv4-sp-d16
 937              		.type	chGuardedPoolLoadArray, %function
 938              	chGuardedPoolLoadArray:
 939              	.LVL53:
 940              	.LFB308:
 941              		.loc 1 247 76 is_stmt 1 view -0
 942              		.cfi_startproc
 943              		@ args = 0, pretend = 0, frame = 0
 944              		@ frame_needed = 0, uses_anonymous_args = 0
 945              		.loc 1 247 76 is_stmt 0 view .LVU253
 946 0000 70B5     		push	{r4, r5, r6, lr}
 947              		.cfi_def_cfa_offset 16
 948              		.cfi_offset 4, -16
 949              		.cfi_offset 5, -12
 950              		.cfi_offset 6, -8
 951              		.cfi_offset 14, -4
 952 0002 0646     		mov	r6, r0
 953 0004 0D46     		mov	r5, r1
 954 0006 1446     		mov	r4, r2
 955              		.loc 1 249 3 is_stmt 1 view .LVU254
 956              		.loc 1 249 3 view .LVU255
 957              		.loc 1 249 3 view .LVU256
 958              		.loc 1 251 3 view .LVU257
 959              	.LVL54:
 960              	.L20:
 961              		.loc 1 251 9 view .LVU258
 962 0008 04B9     		cbnz	r4, .L21
 963              		.loc 1 258 1 is_stmt 0 view .LVU259
 964 000a 70BD     		pop	{r4, r5, r6, pc}
 965              	.LVL55:
 966              	.L21:
 967              		.loc 1 252 5 is_stmt 1 view .LVU260
 968              	.LBB182:
 969              	.LBI182:
ARM GAS  /tmp/ccNqDhUJ.s 			page 18


 970              		.loc 5 323 20 view .LVU261
 971              	.LBB183:
 972              		.loc 5 325 3 view .LVU262
 973 000c 2946     		mov	r1, r5
 974 000e 3046     		mov	r0, r6
 975 0010 FFF7FEFF 		bl	chGuardedPoolFree
 976              	.LVL56:
 977              		.loc 5 325 3 is_stmt 0 view .LVU263
 978              	.LBE183:
 979              	.LBE182:
 980              		.loc 1 254 5 is_stmt 1 view .LVU264
 981              		.loc 1 254 7 is_stmt 0 view .LVU265
 982 0014 3369     		ldr	r3, [r6, #16]
 983              		.loc 1 256 6 view .LVU266
 984 0016 013C     		subs	r4, r4, #1
 985              	.LVL57:
 986              		.loc 1 254 7 view .LVU267
 987 0018 1D44     		add	r5, r5, r3
 988              	.LVL58:
 989              		.loc 1 256 5 is_stmt 1 view .LVU268
 990              		.loc 1 256 5 is_stmt 0 view .LVU269
 991 001a F5E7     		b	.L20
 992              		.cfi_endproc
 993              	.LFE308:
 994              		.size	chGuardedPoolLoadArray, .-chGuardedPoolLoadArray
 995              		.text
 996              	.Letext0:
 997              		.file 6 "/opt/gcc-arm-none-eabi-10-2020-q4-major/lib/gcc/arm-none-eabi/10.2.1/include/stddef.h"
 998              		.file 7 "/opt/gcc-arm-none-eabi-10-2020-q4-major/arm-none-eabi/include/machine/_default_types.h"
 999              		.file 8 "/opt/gcc-arm-none-eabi-10-2020-q4-major/arm-none-eabi/include/sys/_stdint.h"
 1000              		.file 9 "../../modules/ChibiOS/os/common/ports/ARMCMx/compilers/GCC/chtypes.h"
 1001              		.file 10 "../../modules/ChibiOS/os/rt/include/chsystypes.h"
 1002              		.file 11 "../../modules/ChibiOS/os/rt/include/chschd.h"
 1003              		.file 12 "../../modules/ChibiOS/os/rt/include/chtime.h"
 1004              		.file 13 "../../modules/ChibiOS/os/common/ports/ARMCMx/chcore.h"
 1005              		.file 14 "../../modules/ChibiOS/os/rt/include/chtm.h"
 1006              		.file 15 "../../modules/ChibiOS/os/rt/include/chsem.h"
 1007              		.file 16 "../../modules/ChibiOS/os/rt/include/chmtx.h"
 1008              		.file 17 "../../modules/ChibiOS/os/oslib/include/chmemcore.h"
 1009              		.file 18 "../../modules/ChibiOS/os/rt/include/chstats.h"