ARM GAS  /tmp/ccNnCpkG.s 			page 1


   1              		.cpu cortex-m7
   2              		.eabi_attribute 27, 1
   3              		.eabi_attribute 28, 1
   4              		.eabi_attribute 20, 1
   5              		.eabi_attribute 21, 1
   6              		.eabi_attribute 23, 3
   7              		.eabi_attribute 24, 1
   8              		.eabi_attribute 25, 1
   9              		.eabi_attribute 26, 1
  10              		.eabi_attribute 30, 4
  11              		.eabi_attribute 34, 1
  12              		.eabi_attribute 18, 4
  13              		.file	"chmemcore.c"
  14              		.text
  15              	.Ltext0:
  16              		.cfi_sections	.debug_frame
  17              		.section	.text._core_init,"ax",%progbits
  18              		.align	1
  19              		.global	_core_init
  20              		.arch armv7e-m
  21              		.syntax unified
  22              		.thumb
  23              		.thumb_func
  24              		.fpu fpv4-sp-d16
  25              		.type	_core_init, %function
  26              	_core_init:
  27              	.LFB301:
  28              		.file 1 "../../modules/ChibiOS/os/oslib/src/chmemcore.c"
  29              		.loc 1 81 23 view -0
  30              		.cfi_startproc
  31              		@ args = 0, pretend = 0, frame = 0
  32              		@ frame_needed = 0, uses_anonymous_args = 0
  33              		@ link register save eliminated.
  34              		.loc 1 83 3 view .LVU1
  35              		.loc 1 84 3 view .LVU2
  36              		.loc 1 87 3 view .LVU3
  37              		.loc 1 87 22 is_stmt 0 view .LVU4
  38 0000 024B     		ldr	r3, .L2
  39 0002 034A     		ldr	r2, .L2+4
  40 0004 1A60     		str	r2, [r3]
  41              		.loc 1 88 3 is_stmt 1 view .LVU5
  42              		.loc 1 88 22 is_stmt 0 view .LVU6
  43 0006 034A     		ldr	r2, .L2+8
  44 0008 5A60     		str	r2, [r3, #4]
  45              		.loc 1 96 1 view .LVU7
  46 000a 7047     		bx	lr
  47              	.L3:
  48              		.align	2
  49              	.L2:
  50 000c 00000000 		.word	.LANCHOR0
  51 0010 00000000 		.word	__heap_base__
  52 0014 00000000 		.word	__heap_end__
  53              		.cfi_endproc
  54              	.LFE301:
  55              		.size	_core_init, .-_core_init
  56              		.section	.text.chCoreAllocAlignedWithOffsetI,"ax",%progbits
  57              		.align	1
ARM GAS  /tmp/ccNnCpkG.s 			page 2


  58              		.global	chCoreAllocAlignedWithOffsetI
  59              		.syntax unified
  60              		.thumb
  61              		.thumb_func
  62              		.fpu fpv4-sp-d16
  63              		.type	chCoreAllocAlignedWithOffsetI, %function
  64              	chCoreAllocAlignedWithOffsetI:
  65              	.LVL0:
  66              	.LFB302:
  67              		.loc 1 114 52 is_stmt 1 view -0
  68              		.cfi_startproc
  69              		@ args = 0, pretend = 0, frame = 0
  70              		@ frame_needed = 0, uses_anonymous_args = 0
  71              		.loc 1 115 3 view .LVU9
  72              		.loc 1 117 21 view .LVU10
  73              		.loc 1 118 3 view .LVU11
  74              		.loc 1 118 3 view .LVU12
  75              		.loc 1 118 3 view .LVU13
  76              		.loc 1 120 3 view .LVU14
  77              		.loc 1 114 52 is_stmt 0 view .LVU15
  78 0000 70B5     		push	{r4, r5, r6, lr}
  79              		.cfi_def_cfa_offset 16
  80              		.cfi_offset 4, -16
  81              		.cfi_offset 5, -12
  82              		.cfi_offset 6, -8
  83              		.cfi_offset 14, -4
  84              		.loc 1 121 18 view .LVU16
  85 0002 0A4C     		ldr	r4, .L8
  86              		.loc 1 120 10 view .LVU17
  87 0004 431E     		subs	r3, r0, #1
  88 0006 4E42     		rsbs	r6, r1, #0
  89              		.loc 1 121 18 view .LVU18
  90 0008 2568     		ldr	r5, [r4]
  91              		.loc 1 120 10 view .LVU19
  92 000a 0B44     		add	r3, r3, r1
  93              	.LVL1:
  94              		.loc 1 121 3 is_stmt 1 view .LVU20
  95              		.loc 1 121 18 is_stmt 0 view .LVU21
  96 000c 2A44     		add	r2, r2, r5
  97              	.LVL2:
  98              		.loc 1 120 8 view .LVU22
  99 000e 3340     		ands	r3, r3, r6
 100              	.LVL3:
 101              		.loc 1 121 18 view .LVU23
 102 0010 013A     		subs	r2, r2, #1
 103 0012 5018     		adds	r0, r2, r1
 104              		.loc 1 125 6 view .LVU24
 105 0014 6268     		ldr	r2, [r4, #4]
 106              		.loc 1 121 18 view .LVU25
 107 0016 3040     		ands	r0, r0, r6
 108              	.LVL4:
 109              		.loc 1 122 3 is_stmt 1 view .LVU26
 110              		.loc 1 122 8 is_stmt 0 view .LVU27
 111 0018 0344     		add	r3, r3, r0
 112              	.LVL5:
 113              		.loc 1 125 3 is_stmt 1 view .LVU28
 114              		.loc 1 125 6 is_stmt 0 view .LVU29
ARM GAS  /tmp/ccNnCpkG.s 			page 3


 115 001a 9A42     		cmp	r2, r3
 116 001c 03D3     		bcc	.L7
 117              		.loc 1 125 34 discriminator 1 view .LVU30
 118 001e 9D42     		cmp	r5, r3
 119 0020 01D8     		bhi	.L7
 120              		.loc 1 129 3 is_stmt 1 view .LVU31
 121              		.loc 1 129 22 is_stmt 0 view .LVU32
 122 0022 2360     		str	r3, [r4]
 123              		.loc 1 131 3 is_stmt 1 view .LVU33
 124              	.LVL6:
 125              	.L4:
 126              		.loc 1 132 1 is_stmt 0 view .LVU34
 127 0024 70BD     		pop	{r4, r5, r6, pc}
 128              	.LVL7:
 129              	.L7:
 130              		.loc 1 126 12 view .LVU35
 131 0026 0020     		movs	r0, #0
 132              	.LVL8:
 133              		.loc 1 126 12 view .LVU36
 134 0028 FCE7     		b	.L4
 135              	.L9:
 136 002a 00BF     		.align	2
 137              	.L8:
 138 002c 00000000 		.word	.LANCHOR0
 139              		.cfi_endproc
 140              	.LFE302:
 141              		.size	chCoreAllocAlignedWithOffsetI, .-chCoreAllocAlignedWithOffsetI
 142              		.section	.text.chCoreAllocAlignedWithOffset,"ax",%progbits
 143              		.align	1
 144              		.global	chCoreAllocAlignedWithOffset
 145              		.syntax unified
 146              		.thumb
 147              		.thumb_func
 148              		.fpu fpv4-sp-d16
 149              		.type	chCoreAllocAlignedWithOffset, %function
 150              	chCoreAllocAlignedWithOffset:
 151              	.LVL9:
 152              	.LFB303:
 153              		.loc 1 150 51 is_stmt 1 view -0
 154              		.cfi_startproc
 155              		@ args = 0, pretend = 0, frame = 16
 156              		@ frame_needed = 0, uses_anonymous_args = 0
 157              		.loc 1 151 3 view .LVU38
 158              		.loc 1 153 3 view .LVU39
 159              	.LBB24:
 160              	.LBI24:
 161              		.file 2 "../../modules/ChibiOS/os/rt/include/chsys.h"
 162              		.loc 2 353 20 view .LVU40
 163              	.LBB25:
 164              		.loc 2 355 3 view .LVU41
 165              	.LBB26:
 166              	.LBI26:
 167              		.file 3 "../../modules/ChibiOS/os/common/ports/ARMCMx/chcore_v7m.h"
 168              		.loc 3 602 20 view .LVU42
 169              	.LBE26:
 170              	.LBE25:
 171              	.LBE24:
ARM GAS  /tmp/ccNnCpkG.s 			page 4


 172              		.loc 3 610 3 view .LVU43
 173              	.LBB39:
 174              	.LBB36:
 175              	.LBB33:
 176              	.LBB27:
 177              	.LBI27:
 178              		.file 4 "../../modules/ChibiOS/os/common/ext/ARM/CMSIS/Core/Include/cmsis_gcc.h"
 179              		.loc 4 491 27 view .LVU44
 180              	.LBB28:
 181              		.loc 4 493 3 view .LVU45
 182              	.LBE28:
 183              	.LBE27:
 184              	.LBE33:
 185              	.LBE36:
 186              	.LBE39:
 187              		.loc 1 150 51 is_stmt 0 view .LVU46
 188 0000 1FB5     		push	{r0, r1, r2, r3, r4, lr}
 189              		.cfi_def_cfa_offset 24
 190              		.cfi_offset 14, -4
 191              	.LBB40:
 192              	.LBB37:
 193              	.LBB34:
 194              	.LBB31:
 195              	.LBB29:
 196              		.loc 4 493 3 view .LVU47
 197 0002 2023     		movs	r3, #32
 198              	.LBE29:
 199              	.LBE31:
 200              	.LBE34:
 201              	.LBE37:
 202              	.LBE40:
 203              		.loc 1 150 51 view .LVU48
 204 0004 0192     		str	r2, [sp, #4]
 205 0006 CDE90210 		strd	r1, r0, [sp, #8]
 206              	.LBB41:
 207              	.LBB38:
 208              	.LBB35:
 209              	.LBB32:
 210              	.LBB30:
 211              		.loc 4 493 3 view .LVU49
 212              		.syntax unified
 213              	@ 493 "../../modules/ChibiOS/os/common/ext/ARM/CMSIS/Core/Include/cmsis_gcc.h" 1
 214 000a 83F31188 		MSR basepri, r3
 215              	@ 0 "" 2
 216              	.LVL10:
 217              		.loc 4 493 3 view .LVU50
 218              		.thumb
 219              		.syntax unified
 220              	.LBE30:
 221              	.LBE32:
 222              	.LBE35:
 223              		.loc 2 356 3 is_stmt 1 view .LVU51
 224 000e FFF7FEFF 		bl	_stats_start_measure_crit_thd
 225              	.LVL11:
 226              		.loc 2 357 20 view .LVU52
 227              	.LBE38:
 228              	.LBE41:
ARM GAS  /tmp/ccNnCpkG.s 			page 5


 229              		.loc 1 154 3 view .LVU53
 230              		.loc 1 154 7 is_stmt 0 view .LVU54
 231 0012 0398     		ldr	r0, [sp, #12]
 232 0014 DDE90121 		ldrd	r2, r1, [sp, #4]
 233 0018 FFF7FEFF 		bl	chCoreAllocAlignedWithOffsetI
 234              	.LVL12:
 235 001c 0190     		str	r0, [sp, #4]
 236              	.LVL13:
 237              		.loc 1 155 3 is_stmt 1 view .LVU55
 238              	.LBB42:
 239              	.LBI42:
 240              		.loc 2 365 20 view .LVU56
 241              	.LBB43:
 242              		.loc 2 367 22 view .LVU57
 243              		.loc 2 368 3 view .LVU58
 244 001e FFF7FEFF 		bl	_stats_stop_measure_crit_thd
 245              	.LVL14:
 246              		.loc 2 374 3 view .LVU59
 247              		.loc 2 374 3 view .LVU60
 248              		.loc 2 374 3 view .LVU61
 249              		.loc 2 378 3 view .LVU62
 250              	.LBB44:
 251              	.LBI44:
 252              		.loc 3 626 20 view .LVU63
 253              	.LBE44:
 254              	.LBE43:
 255              	.LBE42:
 256              		.loc 3 629 3 view .LVU64
 257              	.LBB49:
 258              	.LBB48:
 259              	.LBB47:
 260              	.LBB45:
 261              	.LBI45:
 262              		.loc 4 491 27 view .LVU65
 263              	.LBB46:
 264              		.loc 4 493 3 view .LVU66
 265 0022 0023     		movs	r3, #0
 266              		.syntax unified
 267              	@ 493 "../../modules/ChibiOS/os/common/ext/ARM/CMSIS/Core/Include/cmsis_gcc.h" 1
 268 0024 83F31188 		MSR basepri, r3
 269              	@ 0 "" 2
 270              	.LVL15:
 271              		.loc 4 493 3 is_stmt 0 view .LVU67
 272              		.thumb
 273              		.syntax unified
 274              	.LBE46:
 275              	.LBE45:
 276              	.LBE47:
 277              	.LBE48:
 278              	.LBE49:
 279              		.loc 1 157 3 is_stmt 1 view .LVU68
 280              		.loc 1 158 1 is_stmt 0 view .LVU69
 281 0028 0198     		ldr	r0, [sp, #4]
 282 002a 05B0     		add	sp, sp, #20
 283              		.cfi_def_cfa_offset 4
 284              		@ sp needed
 285 002c 5DF804FB 		ldr	pc, [sp], #4
ARM GAS  /tmp/ccNnCpkG.s 			page 6


 286              		.loc 1 158 1 view .LVU70
 287              		.cfi_endproc
 288              	.LFE303:
 289              		.size	chCoreAllocAlignedWithOffset, .-chCoreAllocAlignedWithOffset
 290              		.section	.text.chCoreGetStatusX,"ax",%progbits
 291              		.align	1
 292              		.global	chCoreGetStatusX
 293              		.syntax unified
 294              		.thumb
 295              		.thumb_func
 296              		.fpu fpv4-sp-d16
 297              		.type	chCoreGetStatusX, %function
 298              	chCoreGetStatusX:
 299              	.LFB304:
 300              		.loc 1 167 31 is_stmt 1 view -0
 301              		.cfi_startproc
 302              		@ args = 0, pretend = 0, frame = 0
 303              		@ frame_needed = 0, uses_anonymous_args = 0
 304              		@ link register save eliminated.
 305              		.loc 1 170 3 view .LVU72
 306              		.loc 1 170 29 is_stmt 0 view .LVU73
 307 0000 024B     		ldr	r3, .L12
 308              		.loc 1 170 37 view .LVU74
 309 0002 D3E90030 		ldrd	r3, r0, [r3]
 310              		.loc 1 172 1 view .LVU75
 311 0006 C01A     		subs	r0, r0, r3
 312 0008 7047     		bx	lr
 313              	.L13:
 314 000a 00BF     		.align	2
 315              	.L12:
 316 000c 00000000 		.word	.LANCHOR0
 317              		.cfi_endproc
 318              	.LFE304:
 319              		.size	chCoreGetStatusX, .-chCoreGetStatusX
 320              		.global	ch_memcore
 321              		.section	.bss.ch_memcore,"aw",%nobits
 322              		.align	2
 323              		.set	.LANCHOR0,. + 0
 324              		.type	ch_memcore, %object
 325              		.size	ch_memcore, 8
 326              	ch_memcore:
 327 0000 00000000 		.space	8
 327      00000000 
 328              		.text
 329              	.Letext0:
 330              		.file 5 "/opt/gcc-arm-none-eabi-10-2020-q4-major/lib/gcc/arm-none-eabi/10.2.1/include/stddef.h"
 331              		.file 6 "/opt/gcc-arm-none-eabi-10-2020-q4-major/arm-none-eabi/include/machine/_default_types.h"
 332              		.file 7 "/opt/gcc-arm-none-eabi-10-2020-q4-major/arm-none-eabi/include/sys/_stdint.h"
 333              		.file 8 "../../modules/ChibiOS/os/common/ports/ARMCMx/compilers/GCC/chtypes.h"
 334              		.file 9 "../../modules/ChibiOS/os/rt/include/chsystypes.h"
 335              		.file 10 "../../modules/ChibiOS/os/rt/include/chschd.h"
 336              		.file 11 "../../modules/ChibiOS/os/common/ports/ARMCMx/chcore.h"
 337              		.file 12 "../../modules/ChibiOS/os/rt/include/chtm.h"
 338              		.file 13 "../../modules/ChibiOS/os/rt/include/chsem.h"
 339              		.file 14 "../../modules/ChibiOS/os/rt/include/chmtx.h"
 340              		.file 15 "../../modules/ChibiOS/os/oslib/include/chmemcore.h"
 341              		.file 16 "../../modules/ChibiOS/os/rt/include/chstats.h"
ARM GAS  /tmp/ccNnCpkG.s 			page 7


 342              		.section	.debug_info,"",%progbits
 343              	.Ldebug_info0:
 344 0000 C8080000 		.4byte	0x8c8
 345 0004 0400     		.2byte	0x4
 346 0006 00000000 		.4byte	.Ldebug_abbrev0
 347 000a 04       		.byte	0x4
 348 000b 01       		.uleb128 0x1
 349 000c 06040000 		.4byte	.LASF96
 350 0010 0C       		.byte	0xc
 351 0011 0E000000 		.4byte	.LASF97
 352 0015 73030000 		.4byte	.LASF98
 353 0019 80000000 		.4byte	.Ldebug_ranges0+0x80
 354 001d 00000000 		.4byte	0
 355 0021 00000000 		.4byte	.Ldebug_line0
 356 0025 02       		.uleb128 0x2
 357 0026 04       		.byte	0x4
 358 0027 05       		.byte	0x5
 359 0028 696E7400 		.ascii	"int\000"
 360 002c 03       		.uleb128 0x3
 361 002d 00000000 		.4byte	.LASF4
 362 0031 05       		.byte	0x5
 363 0032 D1       		.byte	0xd1
 364 0033 17       		.byte	0x17
 365 0034 38000000 		.4byte	0x38
 366 0038 04       		.uleb128 0x4
 367 0039 04       		.byte	0x4
 368 003a 07       		.byte	0x7
 369 003b 6D010000 		.4byte	.LASF0
 370 003f 04       		.uleb128 0x4
 371 0040 08       		.byte	0x8
 372 0041 05       		.byte	0x5
 373 0042 CB000000 		.4byte	.LASF1
 374 0046 04       		.uleb128 0x4
 375 0047 08       		.byte	0x8
 376 0048 04       		.byte	0x4
 377 0049 4D020000 		.4byte	.LASF2
 378 004d 04       		.uleb128 0x4
 379 004e 01       		.byte	0x1
 380 004f 06       		.byte	0x6
 381 0050 D9000000 		.4byte	.LASF3
 382 0054 03       		.uleb128 0x3
 383 0055 46000000 		.4byte	.LASF5
 384 0059 06       		.byte	0x6
 385 005a 2B       		.byte	0x2b
 386 005b 18       		.byte	0x18
 387 005c 60000000 		.4byte	0x60
 388 0060 04       		.uleb128 0x4
 389 0061 01       		.byte	0x1
 390 0062 08       		.byte	0x8
 391 0063 CC020000 		.4byte	.LASF6
 392 0067 04       		.uleb128 0x4
 393 0068 02       		.byte	0x2
 394 0069 05       		.byte	0x5
 395 006a E5020000 		.4byte	.LASF7
 396 006e 04       		.uleb128 0x4
 397 006f 02       		.byte	0x2
 398 0070 07       		.byte	0x7
ARM GAS  /tmp/ccNnCpkG.s 			page 8


 399 0071 9D010000 		.4byte	.LASF8
 400 0075 03       		.uleb128 0x3
 401 0076 C0030000 		.4byte	.LASF9
 402 007a 06       		.byte	0x6
 403 007b 4D       		.byte	0x4d
 404 007c 18       		.byte	0x18
 405 007d 81000000 		.4byte	0x81
 406 0081 04       		.uleb128 0x4
 407 0082 04       		.byte	0x4
 408 0083 05       		.byte	0x5
 409 0084 08010000 		.4byte	.LASF10
 410 0088 03       		.uleb128 0x3
 411 0089 3D010000 		.4byte	.LASF11
 412 008d 06       		.byte	0x6
 413 008e 4F       		.byte	0x4f
 414 008f 19       		.byte	0x19
 415 0090 94000000 		.4byte	0x94
 416 0094 04       		.uleb128 0x4
 417 0095 04       		.byte	0x4
 418 0096 07       		.byte	0x7
 419 0097 61030000 		.4byte	.LASF12
 420 009b 03       		.uleb128 0x3
 421 009c 6B020000 		.4byte	.LASF13
 422 00a0 06       		.byte	0x6
 423 00a1 69       		.byte	0x69
 424 00a2 19       		.byte	0x19
 425 00a3 A7000000 		.4byte	0xa7
 426 00a7 04       		.uleb128 0x4
 427 00a8 08       		.byte	0x8
 428 00a9 07       		.byte	0x7
 429 00aa 95000000 		.4byte	.LASF14
 430 00ae 03       		.uleb128 0x3
 431 00af 08050000 		.4byte	.LASF15
 432 00b3 07       		.byte	0x7
 433 00b4 18       		.byte	0x18
 434 00b5 13       		.byte	0x13
 435 00b6 54000000 		.4byte	0x54
 436 00ba 03       		.uleb128 0x3
 437 00bb C4020000 		.4byte	.LASF16
 438 00bf 07       		.byte	0x7
 439 00c0 2C       		.byte	0x2c
 440 00c1 13       		.byte	0x13
 441 00c2 75000000 		.4byte	0x75
 442 00c6 03       		.uleb128 0x3
 443 00c7 3B030000 		.4byte	.LASF17
 444 00cb 07       		.byte	0x7
 445 00cc 30       		.byte	0x30
 446 00cd 14       		.byte	0x14
 447 00ce 88000000 		.4byte	0x88
 448 00d2 03       		.uleb128 0x3
 449 00d3 3D000000 		.4byte	.LASF18
 450 00d7 07       		.byte	0x7
 451 00d8 3C       		.byte	0x3c
 452 00d9 14       		.byte	0x14
 453 00da 9B000000 		.4byte	0x9b
 454 00de 03       		.uleb128 0x3
 455 00df 27020000 		.4byte	.LASF19
ARM GAS  /tmp/ccNnCpkG.s 			page 9


 456 00e3 08       		.byte	0x8
 457 00e4 27       		.byte	0x27
 458 00e5 1D       		.byte	0x1d
 459 00e6 C6000000 		.4byte	0xc6
 460 00ea 03       		.uleb128 0x3
 461 00eb C2000000 		.4byte	.LASF20
 462 00ef 08       		.byte	0x8
 463 00f0 28       		.byte	0x28
 464 00f1 1D       		.byte	0x1d
 465 00f2 D2000000 		.4byte	0xd2
 466 00f6 03       		.uleb128 0x3
 467 00f7 D5010000 		.4byte	.LASF21
 468 00fb 08       		.byte	0x8
 469 00fc 2A       		.byte	0x2a
 470 00fd 1D       		.byte	0x1d
 471 00fe AE000000 		.4byte	0xae
 472 0102 03       		.uleb128 0x3
 473 0103 11010000 		.4byte	.LASF22
 474 0107 08       		.byte	0x8
 475 0108 2B       		.byte	0x2b
 476 0109 1D       		.byte	0x1d
 477 010a AE000000 		.4byte	0xae
 478 010e 03       		.uleb128 0x3
 479 010f 8B020000 		.4byte	.LASF23
 480 0113 08       		.byte	0x8
 481 0114 2C       		.byte	0x2c
 482 0115 1D       		.byte	0x1d
 483 0116 AE000000 		.4byte	0xae
 484 011a 03       		.uleb128 0x3
 485 011b 98020000 		.4byte	.LASF24
 486 011f 08       		.byte	0x8
 487 0120 2E       		.byte	0x2e
 488 0121 1D       		.byte	0x1d
 489 0122 C6000000 		.4byte	0xc6
 490 0126 03       		.uleb128 0x3
 491 0127 BA010000 		.4byte	.LASF25
 492 012b 08       		.byte	0x8
 493 012c 2F       		.byte	0x2f
 494 012d 1D       		.byte	0x1d
 495 012e BA000000 		.4byte	0xba
 496 0132 03       		.uleb128 0x3
 497 0133 DD010000 		.4byte	.LASF26
 498 0137 08       		.byte	0x8
 499 0138 31       		.byte	0x31
 500 0139 1D       		.byte	0x1d
 501 013a C6000000 		.4byte	0xc6
 502 013e 03       		.uleb128 0x3
 503 013f 67010000 		.4byte	.LASF27
 504 0143 08       		.byte	0x8
 505 0144 33       		.byte	0x33
 506 0145 1D       		.byte	0x1d
 507 0146 BA000000 		.4byte	0xba
 508 014a 03       		.uleb128 0x3
 509 014b C5010000 		.4byte	.LASF28
 510 014f 08       		.byte	0x8
 511 0150 34       		.byte	0x34
 512 0151 1D       		.byte	0x1d
ARM GAS  /tmp/ccNnCpkG.s 			page 10


 513 0152 C6000000 		.4byte	0xc6
 514 0156 03       		.uleb128 0x3
 515 0157 B2030000 		.4byte	.LASF29
 516 015b 09       		.byte	0x9
 517 015c 34       		.byte	0x34
 518 015d 1A       		.byte	0x1a
 519 015e 62010000 		.4byte	0x162
 520 0162 05       		.uleb128 0x5
 521 0163 B0010000 		.4byte	.LASF48
 522 0167 60       		.byte	0x60
 523 0168 0A       		.byte	0xa
 524 0169 8E       		.byte	0x8e
 525 016a 08       		.byte	0x8
 526 016b 60020000 		.4byte	0x260
 527 016f 06       		.uleb128 0x6
 528 0170 8C010000 		.4byte	.LASF30
 529 0174 0A       		.byte	0xa
 530 0175 8F       		.byte	0x8f
 531 0176 19       		.byte	0x19
 532 0177 99020000 		.4byte	0x299
 533 017b 00       		.byte	0
 534 017c 06       		.uleb128 0x6
 535 017d 66020000 		.4byte	.LASF31
 536 0181 0A       		.byte	0xa
 537 0182 90       		.byte	0x90
 538 0183 19       		.byte	0x19
 539 0184 1A010000 		.4byte	0x11a
 540 0188 08       		.byte	0x8
 541 0189 07       		.uleb128 0x7
 542 018a 63747800 		.ascii	"ctx\000"
 543 018e 0A       		.byte	0xa
 544 018f 91       		.byte	0x91
 545 0190 19       		.byte	0x19
 546 0191 E7020000 		.4byte	0x2e7
 547 0195 0C       		.byte	0xc
 548 0196 06       		.uleb128 0x6
 549 0197 FB010000 		.4byte	.LASF32
 550 019b 0A       		.byte	0xa
 551 019c 93       		.byte	0x93
 552 019d 1A       		.byte	0x1a
 553 019e 6C020000 		.4byte	0x26c
 554 01a2 10       		.byte	0x10
 555 01a3 06       		.uleb128 0x6
 556 01a4 AC030000 		.4byte	.LASF33
 557 01a8 0A       		.byte	0xa
 558 01a9 94       		.byte	0x94
 559 01aa 1A       		.byte	0x1a
 560 01ab 6C020000 		.4byte	0x26c
 561 01af 14       		.byte	0x14
 562 01b0 06       		.uleb128 0x6
 563 01b1 87010000 		.4byte	.LASF34
 564 01b5 0A       		.byte	0xa
 565 01b6 9B       		.byte	0x9b
 566 01b7 1A       		.byte	0x1a
 567 01b8 A9050000 		.4byte	0x5a9
 568 01bc 18       		.byte	0x18
 569 01bd 06       		.uleb128 0x6
ARM GAS  /tmp/ccNnCpkG.s 			page 11


 570 01be 16030000 		.4byte	.LASF35
 571 01c2 0A       		.byte	0xa
 572 01c3 A4       		.byte	0xa4
 573 01c4 1A       		.byte	0x1a
 574 01c5 BB050000 		.4byte	0x5bb
 575 01c9 1C       		.byte	0x1c
 576 01ca 06       		.uleb128 0x6
 577 01cb 02010000 		.4byte	.LASF36
 578 01cf 0A       		.byte	0xa
 579 01d0 A9       		.byte	0xa9
 580 01d1 19       		.byte	0x19
 581 01d2 02010000 		.4byte	0x102
 582 01d6 20       		.byte	0x20
 583 01d7 06       		.uleb128 0x6
 584 01d8 10050000 		.4byte	.LASF37
 585 01dc 0A       		.byte	0xa
 586 01dd AD       		.byte	0xad
 587 01de 19       		.byte	0x19
 588 01df F6000000 		.4byte	0xf6
 589 01e3 21       		.byte	0x21
 590 01e4 06       		.uleb128 0x6
 591 01e5 93020000 		.4byte	.LASF38
 592 01e9 0A       		.byte	0xa
 593 01ea B2       		.byte	0xb2
 594 01eb 19       		.byte	0x19
 595 01ec 0E010000 		.4byte	0x10e
 596 01f0 22       		.byte	0x22
 597 01f1 08       		.uleb128 0x8
 598 01f2 7500     		.ascii	"u\000"
 599 01f4 0A       		.byte	0xa
 600 01f5 0301     		.2byte	0x103
 601 01f7 19       		.byte	0x19
 602 01f8 C2040000 		.4byte	0x4c2
 603 01fc 24       		.byte	0x24
 604 01fd 09       		.uleb128 0x9
 605 01fe 51010000 		.4byte	.LASF39
 606 0202 0A       		.byte	0xa
 607 0203 0801     		.2byte	0x108
 608 0205 19       		.byte	0x19
 609 0206 72020000 		.4byte	0x272
 610 020a 28       		.byte	0x28
 611 020b 09       		.uleb128 0x9
 612 020c F9000000 		.4byte	.LASF40
 613 0210 0A       		.byte	0xa
 614 0211 0E01     		.2byte	0x10e
 615 0213 19       		.byte	0x19
 616 0214 99020000 		.4byte	0x299
 617 0218 2C       		.byte	0x2c
 618 0219 09       		.uleb128 0x9
 619 021a CC010000 		.4byte	.LASF41
 620 021e 0A       		.byte	0xa
 621 021f 1401     		.2byte	0x114
 622 0221 19       		.byte	0x19
 623 0222 32010000 		.4byte	0x132
 624 0226 34       		.byte	0x34
 625 0227 09       		.uleb128 0x9
 626 0228 56050000 		.4byte	.LASF42
ARM GAS  /tmp/ccNnCpkG.s 			page 12


 627 022c 0A       		.byte	0xa
 628 022d 1B01     		.2byte	0x11b
 629 022f 1A       		.byte	0x1a
 630 0230 A3050000 		.4byte	0x5a3
 631 0234 38       		.byte	0x38
 632 0235 09       		.uleb128 0x9
 633 0236 01020000 		.4byte	.LASF43
 634 023a 0A       		.byte	0xa
 635 023b 1F01     		.2byte	0x11f
 636 023d 19       		.byte	0x19
 637 023e 1A010000 		.4byte	0x11a
 638 0242 3C       		.byte	0x3c
 639 0243 09       		.uleb128 0x9
 640 0244 92010000 		.4byte	.LASF44
 641 0248 0A       		.byte	0xa
 642 0249 2601     		.2byte	0x126
 643 024b 1A       		.byte	0x1a
 644 024c CD020000 		.4byte	0x2cd
 645 0250 40       		.byte	0x40
 646 0251 09       		.uleb128 0x9
 647 0252 37010000 		.4byte	.LASF45
 648 0256 0A       		.byte	0xa
 649 0257 2C01     		.2byte	0x12c
 650 0259 19       		.byte	0x19
 651 025a B6040000 		.4byte	0x4b6
 652 025e 48       		.byte	0x48
 653 025f 00       		.byte	0
 654 0260 03       		.uleb128 0x3
 655 0261 2F020000 		.4byte	.LASF46
 656 0265 09       		.byte	0x9
 657 0266 39       		.byte	0x39
 658 0267 14       		.byte	0x14
 659 0268 6C020000 		.4byte	0x26c
 660 026c 0A       		.uleb128 0xa
 661 026d 04       		.byte	0x4
 662 026e 56010000 		.4byte	0x156
 663 0272 03       		.uleb128 0x3
 664 0273 3B050000 		.4byte	.LASF47
 665 0277 09       		.byte	0x9
 666 0278 3E       		.byte	0x3e
 667 0279 20       		.byte	0x20
 668 027a 7E020000 		.4byte	0x27e
 669 027e 05       		.uleb128 0x5
 670 027f 4B030000 		.4byte	.LASF49
 671 0283 04       		.byte	0x4
 672 0284 0A       		.byte	0xa
 673 0285 7C       		.byte	0x7c
 674 0286 08       		.byte	0x8
 675 0287 99020000 		.4byte	0x299
 676 028b 06       		.uleb128 0x6
 677 028c BD000000 		.4byte	.LASF50
 678 0290 0A       		.byte	0xa
 679 0291 7D       		.byte	0x7d
 680 0292 1A       		.byte	0x1a
 681 0293 6C020000 		.4byte	0x26c
 682 0297 00       		.byte	0
 683 0298 00       		.byte	0
ARM GAS  /tmp/ccNnCpkG.s 			page 13


 684 0299 03       		.uleb128 0x3
 685 029a ED030000 		.4byte	.LASF51
 686 029e 09       		.byte	0x9
 687 029f 45       		.byte	0x45
 688 02a0 21       		.byte	0x21
 689 02a1 A5020000 		.4byte	0x2a5
 690 02a5 05       		.uleb128 0x5
 691 02a6 61000000 		.4byte	.LASF52
 692 02aa 08       		.byte	0x8
 693 02ab 0A       		.byte	0xa
 694 02ac 83       		.byte	0x83
 695 02ad 08       		.byte	0x8
 696 02ae CD020000 		.4byte	0x2cd
 697 02b2 06       		.uleb128 0x6
 698 02b3 BD000000 		.4byte	.LASF50
 699 02b7 0A       		.byte	0xa
 700 02b8 84       		.byte	0x84
 701 02b9 1A       		.byte	0x1a
 702 02ba 6C020000 		.4byte	0x26c
 703 02be 00       		.byte	0
 704 02bf 06       		.uleb128 0x6
 705 02c0 50000000 		.4byte	.LASF53
 706 02c4 0A       		.byte	0xa
 707 02c5 85       		.byte	0x85
 708 02c6 1A       		.byte	0x1a
 709 02c7 6C020000 		.4byte	0x26c
 710 02cb 04       		.byte	0x4
 711 02cc 00       		.byte	0
 712 02cd 0B       		.uleb128 0xb
 713 02ce 04       		.byte	0x4
 714 02cf 03       		.uleb128 0x3
 715 02d0 48010000 		.4byte	.LASF54
 716 02d4 0B       		.byte	0xb
 717 02d5 65       		.byte	0x65
 718 02d6 0F       		.byte	0xf
 719 02d7 CD020000 		.4byte	0x2cd
 720 02db 03       		.uleb128 0x3
 721 02dc F0010000 		.4byte	.LASF55
 722 02e0 0B       		.byte	0xb
 723 02e1 6D       		.byte	0x6d
 724 02e2 12       		.byte	0x12
 725 02e3 D2000000 		.4byte	0xd2
 726 02e7 05       		.uleb128 0x5
 727 02e8 59020000 		.4byte	.LASF56
 728 02ec 04       		.byte	0x4
 729 02ed 0B       		.byte	0xb
 730 02ee 89       		.byte	0x89
 731 02ef 08       		.byte	0x8
 732 02f0 01030000 		.4byte	0x301
 733 02f4 07       		.uleb128 0x7
 734 02f5 737000   		.ascii	"sp\000"
 735 02f8 0B       		.byte	0xb
 736 02f9 8A       		.byte	0x8a
 737 02fa 17       		.byte	0x17
 738 02fb 67040000 		.4byte	0x467
 739 02ff 00       		.byte	0
 740 0300 00       		.byte	0
ARM GAS  /tmp/ccNnCpkG.s 			page 14


 741 0301 0C       		.uleb128 0xc
 742 0302 55000000 		.4byte	.LASF57
 743 0306 64       		.byte	0x64
 744 0307 03       		.byte	0x3
 745 0308 5901     		.2byte	0x159
 746 030a 08       		.byte	0x8
 747 030b 67040000 		.4byte	0x467
 748 030f 08       		.uleb128 0x8
 749 0310 73313600 		.ascii	"s16\000"
 750 0314 03       		.byte	0x3
 751 0315 5B01     		.2byte	0x15b
 752 0317 11       		.byte	0x11
 753 0318 CF020000 		.4byte	0x2cf
 754 031c 00       		.byte	0
 755 031d 08       		.uleb128 0x8
 756 031e 73313700 		.ascii	"s17\000"
 757 0322 03       		.byte	0x3
 758 0323 5C01     		.2byte	0x15c
 759 0325 11       		.byte	0x11
 760 0326 CF020000 		.4byte	0x2cf
 761 032a 04       		.byte	0x4
 762 032b 08       		.uleb128 0x8
 763 032c 73313800 		.ascii	"s18\000"
 764 0330 03       		.byte	0x3
 765 0331 5D01     		.2byte	0x15d
 766 0333 11       		.byte	0x11
 767 0334 CF020000 		.4byte	0x2cf
 768 0338 08       		.byte	0x8
 769 0339 08       		.uleb128 0x8
 770 033a 73313900 		.ascii	"s19\000"
 771 033e 03       		.byte	0x3
 772 033f 5E01     		.2byte	0x15e
 773 0341 11       		.byte	0x11
 774 0342 CF020000 		.4byte	0x2cf
 775 0346 0C       		.byte	0xc
 776 0347 08       		.uleb128 0x8
 777 0348 73323000 		.ascii	"s20\000"
 778 034c 03       		.byte	0x3
 779 034d 5F01     		.2byte	0x15f
 780 034f 11       		.byte	0x11
 781 0350 CF020000 		.4byte	0x2cf
 782 0354 10       		.byte	0x10
 783 0355 08       		.uleb128 0x8
 784 0356 73323100 		.ascii	"s21\000"
 785 035a 03       		.byte	0x3
 786 035b 6001     		.2byte	0x160
 787 035d 11       		.byte	0x11
 788 035e CF020000 		.4byte	0x2cf
 789 0362 14       		.byte	0x14
 790 0363 08       		.uleb128 0x8
 791 0364 73323200 		.ascii	"s22\000"
 792 0368 03       		.byte	0x3
 793 0369 6101     		.2byte	0x161
 794 036b 11       		.byte	0x11
 795 036c CF020000 		.4byte	0x2cf
 796 0370 18       		.byte	0x18
 797 0371 08       		.uleb128 0x8
ARM GAS  /tmp/ccNnCpkG.s 			page 15


 798 0372 73323300 		.ascii	"s23\000"
 799 0376 03       		.byte	0x3
 800 0377 6201     		.2byte	0x162
 801 0379 11       		.byte	0x11
 802 037a CF020000 		.4byte	0x2cf
 803 037e 1C       		.byte	0x1c
 804 037f 08       		.uleb128 0x8
 805 0380 73323400 		.ascii	"s24\000"
 806 0384 03       		.byte	0x3
 807 0385 6301     		.2byte	0x163
 808 0387 11       		.byte	0x11
 809 0388 CF020000 		.4byte	0x2cf
 810 038c 20       		.byte	0x20
 811 038d 08       		.uleb128 0x8
 812 038e 73323500 		.ascii	"s25\000"
 813 0392 03       		.byte	0x3
 814 0393 6401     		.2byte	0x164
 815 0395 11       		.byte	0x11
 816 0396 CF020000 		.4byte	0x2cf
 817 039a 24       		.byte	0x24
 818 039b 08       		.uleb128 0x8
 819 039c 73323600 		.ascii	"s26\000"
 820 03a0 03       		.byte	0x3
 821 03a1 6501     		.2byte	0x165
 822 03a3 11       		.byte	0x11
 823 03a4 CF020000 		.4byte	0x2cf
 824 03a8 28       		.byte	0x28
 825 03a9 08       		.uleb128 0x8
 826 03aa 73323700 		.ascii	"s27\000"
 827 03ae 03       		.byte	0x3
 828 03af 6601     		.2byte	0x166
 829 03b1 11       		.byte	0x11
 830 03b2 CF020000 		.4byte	0x2cf
 831 03b6 2C       		.byte	0x2c
 832 03b7 08       		.uleb128 0x8
 833 03b8 73323800 		.ascii	"s28\000"
 834 03bc 03       		.byte	0x3
 835 03bd 6701     		.2byte	0x167
 836 03bf 11       		.byte	0x11
 837 03c0 CF020000 		.4byte	0x2cf
 838 03c4 30       		.byte	0x30
 839 03c5 08       		.uleb128 0x8
 840 03c6 73323900 		.ascii	"s29\000"
 841 03ca 03       		.byte	0x3
 842 03cb 6801     		.2byte	0x168
 843 03cd 11       		.byte	0x11
 844 03ce CF020000 		.4byte	0x2cf
 845 03d2 34       		.byte	0x34
 846 03d3 08       		.uleb128 0x8
 847 03d4 73333000 		.ascii	"s30\000"
 848 03d8 03       		.byte	0x3
 849 03d9 6901     		.2byte	0x169
 850 03db 11       		.byte	0x11
 851 03dc CF020000 		.4byte	0x2cf
 852 03e0 38       		.byte	0x38
 853 03e1 08       		.uleb128 0x8
 854 03e2 73333100 		.ascii	"s31\000"
ARM GAS  /tmp/ccNnCpkG.s 			page 16


 855 03e6 03       		.byte	0x3
 856 03e7 6A01     		.2byte	0x16a
 857 03e9 11       		.byte	0x11
 858 03ea CF020000 		.4byte	0x2cf
 859 03ee 3C       		.byte	0x3c
 860 03ef 08       		.uleb128 0x8
 861 03f0 723400   		.ascii	"r4\000"
 862 03f3 03       		.byte	0x3
 863 03f4 6C01     		.2byte	0x16c
 864 03f6 11       		.byte	0x11
 865 03f7 CF020000 		.4byte	0x2cf
 866 03fb 40       		.byte	0x40
 867 03fc 08       		.uleb128 0x8
 868 03fd 723500   		.ascii	"r5\000"
 869 0400 03       		.byte	0x3
 870 0401 6D01     		.2byte	0x16d
 871 0403 11       		.byte	0x11
 872 0404 CF020000 		.4byte	0x2cf
 873 0408 44       		.byte	0x44
 874 0409 08       		.uleb128 0x8
 875 040a 723600   		.ascii	"r6\000"
 876 040d 03       		.byte	0x3
 877 040e 6E01     		.2byte	0x16e
 878 0410 11       		.byte	0x11
 879 0411 CF020000 		.4byte	0x2cf
 880 0415 48       		.byte	0x48
 881 0416 08       		.uleb128 0x8
 882 0417 723700   		.ascii	"r7\000"
 883 041a 03       		.byte	0x3
 884 041b 6F01     		.2byte	0x16f
 885 041d 11       		.byte	0x11
 886 041e CF020000 		.4byte	0x2cf
 887 0422 4C       		.byte	0x4c
 888 0423 08       		.uleb128 0x8
 889 0424 723800   		.ascii	"r8\000"
 890 0427 03       		.byte	0x3
 891 0428 7001     		.2byte	0x170
 892 042a 11       		.byte	0x11
 893 042b CF020000 		.4byte	0x2cf
 894 042f 50       		.byte	0x50
 895 0430 08       		.uleb128 0x8
 896 0431 723900   		.ascii	"r9\000"
 897 0434 03       		.byte	0x3
 898 0435 7101     		.2byte	0x171
 899 0437 11       		.byte	0x11
 900 0438 CF020000 		.4byte	0x2cf
 901 043c 54       		.byte	0x54
 902 043d 08       		.uleb128 0x8
 903 043e 72313000 		.ascii	"r10\000"
 904 0442 03       		.byte	0x3
 905 0443 7201     		.2byte	0x172
 906 0445 11       		.byte	0x11
 907 0446 CF020000 		.4byte	0x2cf
 908 044a 58       		.byte	0x58
 909 044b 08       		.uleb128 0x8
 910 044c 72313100 		.ascii	"r11\000"
 911 0450 03       		.byte	0x3
ARM GAS  /tmp/ccNnCpkG.s 			page 17


 912 0451 7301     		.2byte	0x173
 913 0453 11       		.byte	0x11
 914 0454 CF020000 		.4byte	0x2cf
 915 0458 5C       		.byte	0x5c
 916 0459 08       		.uleb128 0x8
 917 045a 6C7200   		.ascii	"lr\000"
 918 045d 03       		.byte	0x3
 919 045e 7401     		.2byte	0x174
 920 0460 11       		.byte	0x11
 921 0461 CF020000 		.4byte	0x2cf
 922 0465 60       		.byte	0x60
 923 0466 00       		.byte	0
 924 0467 0A       		.uleb128 0xa
 925 0468 04       		.byte	0x4
 926 0469 01030000 		.4byte	0x301
 927 046d 0D       		.uleb128 0xd
 928 046e 18       		.byte	0x18
 929 046f 0C       		.byte	0xc
 930 0470 48       		.byte	0x48
 931 0471 09       		.byte	0x9
 932 0472 B6040000 		.4byte	0x4b6
 933 0476 06       		.uleb128 0x6
 934 0477 BB030000 		.4byte	.LASF58
 935 047b 0C       		.byte	0xc
 936 047c 49       		.byte	0x49
 937 047d 19       		.byte	0x19
 938 047e DE000000 		.4byte	0xde
 939 0482 00       		.byte	0
 940 0483 06       		.uleb128 0x6
 941 0484 7C000000 		.4byte	.LASF59
 942 0488 0C       		.byte	0xc
 943 0489 4A       		.byte	0x4a
 944 048a 19       		.byte	0x19
 945 048b DE000000 		.4byte	0xde
 946 048f 04       		.byte	0x4
 947 0490 06       		.uleb128 0x6
 948 0491 C0010000 		.4byte	.LASF60
 949 0495 0C       		.byte	0xc
 950 0496 4B       		.byte	0x4b
 951 0497 19       		.byte	0x19
 952 0498 DE000000 		.4byte	0xde
 953 049c 08       		.byte	0x8
 954 049d 07       		.uleb128 0x7
 955 049e 6E00     		.ascii	"n\000"
 956 04a0 0C       		.byte	0xc
 957 04a1 4C       		.byte	0x4c
 958 04a2 19       		.byte	0x19
 959 04a3 4A010000 		.4byte	0x14a
 960 04a7 0C       		.byte	0xc
 961 04a8 06       		.uleb128 0x6
 962 04a9 80020000 		.4byte	.LASF61
 963 04ad 0C       		.byte	0xc
 964 04ae 4D       		.byte	0x4d
 965 04af 19       		.byte	0x19
 966 04b0 EA000000 		.4byte	0xea
 967 04b4 10       		.byte	0x10
 968 04b5 00       		.byte	0
ARM GAS  /tmp/ccNnCpkG.s 			page 18


 969 04b6 03       		.uleb128 0x3
 970 04b7 82000000 		.4byte	.LASF62
 971 04bb 0C       		.byte	0xc
 972 04bc 4E       		.byte	0x4e
 973 04bd 03       		.byte	0x3
 974 04be 6D040000 		.4byte	0x46d
 975 04c2 0E       		.uleb128 0xe
 976 04c3 04       		.byte	0x4
 977 04c4 0A       		.byte	0xa
 978 04c5 C6       		.byte	0xc6
 979 04c6 03       		.byte	0x3
 980 04c7 2D050000 		.4byte	0x52d
 981 04cb 0F       		.uleb128 0xf
 982 04cc 07000000 		.4byte	.LASF63
 983 04d0 0A       		.byte	0xa
 984 04d1 CD       		.byte	0xcd
 985 04d2 19       		.byte	0x19
 986 04d3 26010000 		.4byte	0x126
 987 04d7 0F       		.uleb128 0xf
 988 04d8 AC000000 		.4byte	.LASF64
 989 04dc 0A       		.byte	0xa
 990 04dd D4       		.byte	0xd4
 991 04de 19       		.byte	0x19
 992 04df 26010000 		.4byte	0x126
 993 04e3 0F       		.uleb128 0xf
 994 04e4 34050000 		.4byte	.LASF65
 995 04e8 0A       		.byte	0xa
 996 04e9 DB       		.byte	0xdb
 997 04ea 1A       		.byte	0x1a
 998 04eb CD020000 		.4byte	0x2cd
 999 04ef 0F       		.uleb128 0xf
 1000 04f0 81010000 		.4byte	.LASF66
 1001 04f4 0A       		.byte	0xa
 1002 04f5 E2       		.byte	0xe2
 1003 04f6 1A       		.byte	0x1a
 1004 04f7 2D050000 		.4byte	0x52d
 1005 04fb 0F       		.uleb128 0xf
 1006 04fc B5000000 		.4byte	.LASF67
 1007 0500 0A       		.byte	0xa
 1008 0501 E7       		.byte	0xe7
 1009 0502 19       		.byte	0x19
 1010 0503 26010000 		.4byte	0x126
 1011 0507 0F       		.uleb128 0xf
 1012 0508 7A010000 		.4byte	.LASF68
 1013 050c 0A       		.byte	0xa
 1014 050d F0       		.byte	0xf0
 1015 050e 1A       		.byte	0x1a
 1016 050f 5B050000 		.4byte	0x55b
 1017 0513 0F       		.uleb128 0xf
 1018 0514 44030000 		.4byte	.LASF69
 1019 0518 0A       		.byte	0xa
 1020 0519 F9       		.byte	0xf9
 1021 051a 1A       		.byte	0x1a
 1022 051b A3050000 		.4byte	0x5a3
 1023 051f 10       		.uleb128 0x10
 1024 0520 FC020000 		.4byte	.LASF70
 1025 0524 0A       		.byte	0xa
ARM GAS  /tmp/ccNnCpkG.s 			page 19


 1026 0525 0101     		.2byte	0x101
 1027 0527 19       		.byte	0x19
 1028 0528 32010000 		.4byte	0x132
 1029 052c 00       		.byte	0
 1030 052d 0A       		.uleb128 0xa
 1031 052e 04       		.byte	0x4
 1032 052f 60020000 		.4byte	0x260
 1033 0533 05       		.uleb128 0x5
 1034 0534 1D030000 		.4byte	.LASF71
 1035 0538 0C       		.byte	0xc
 1036 0539 0D       		.byte	0xd
 1037 053a 34       		.byte	0x34
 1038 053b 10       		.byte	0x10
 1039 053c 5B050000 		.4byte	0x55b
 1040 0540 06       		.uleb128 0x6
 1041 0541 8C010000 		.4byte	.LASF30
 1042 0545 0D       		.byte	0xd
 1043 0546 35       		.byte	0x35
 1044 0547 19       		.byte	0x19
 1045 0548 99020000 		.4byte	0x299
 1046 054c 00       		.byte	0
 1047 054d 07       		.uleb128 0x7
 1048 054e 636E7400 		.ascii	"cnt\000"
 1049 0552 0D       		.byte	0xd
 1050 0553 37       		.byte	0x37
 1051 0554 19       		.byte	0x19
 1052 0555 3E010000 		.4byte	0x13e
 1053 0559 08       		.byte	0x8
 1054 055a 00       		.byte	0
 1055 055b 0A       		.uleb128 0xa
 1056 055c 04       		.byte	0x4
 1057 055d 33050000 		.4byte	0x533
 1058 0561 05       		.uleb128 0x5
 1059 0562 FD030000 		.4byte	.LASF72
 1060 0566 14       		.byte	0x14
 1061 0567 0E       		.byte	0xe
 1062 0568 39       		.byte	0x39
 1063 0569 08       		.byte	0x8
 1064 056a A3050000 		.4byte	0x5a3
 1065 056e 06       		.uleb128 0x6
 1066 056f 8C010000 		.4byte	.LASF30
 1067 0573 0E       		.byte	0xe
 1068 0574 3A       		.byte	0x3a
 1069 0575 19       		.byte	0x19
 1070 0576 99020000 		.4byte	0x299
 1071 057a 00       		.byte	0
 1072 057b 06       		.uleb128 0x6
 1073 057c 5B030000 		.4byte	.LASF73
 1074 0580 0E       		.byte	0xe
 1075 0581 3C       		.byte	0x3c
 1076 0582 1A       		.byte	0x1a
 1077 0583 6C020000 		.4byte	0x26c
 1078 0587 08       		.byte	0x8
 1079 0588 06       		.uleb128 0x6
 1080 0589 BD000000 		.4byte	.LASF50
 1081 058d 0E       		.byte	0xe
 1082 058e 3E       		.byte	0x3e
ARM GAS  /tmp/ccNnCpkG.s 			page 20


 1083 058f 1A       		.byte	0x1a
 1084 0590 CD050000 		.4byte	0x5cd
 1085 0594 0C       		.byte	0xc
 1086 0595 07       		.uleb128 0x7
 1087 0596 636E7400 		.ascii	"cnt\000"
 1088 059a 0E       		.byte	0xe
 1089 059b 41       		.byte	0x41
 1090 059c 19       		.byte	0x19
 1091 059d 3E010000 		.4byte	0x13e
 1092 05a1 10       		.byte	0x10
 1093 05a2 00       		.byte	0
 1094 05a3 0A       		.uleb128 0xa
 1095 05a4 04       		.byte	0x4
 1096 05a5 61050000 		.4byte	0x561
 1097 05a9 0A       		.uleb128 0xa
 1098 05aa 04       		.byte	0x4
 1099 05ab B6050000 		.4byte	0x5b6
 1100 05af 04       		.uleb128 0x4
 1101 05b0 01       		.byte	0x1
 1102 05b1 08       		.byte	0x8
 1103 05b2 A7030000 		.4byte	.LASF74
 1104 05b6 11       		.uleb128 0x11
 1105 05b7 AF050000 		.4byte	0x5af
 1106 05bb 0A       		.uleb128 0xa
 1107 05bc 04       		.byte	0x4
 1108 05bd DB020000 		.4byte	0x2db
 1109 05c1 03       		.uleb128 0x3
 1110 05c2 59010000 		.4byte	.LASF75
 1111 05c6 0E       		.byte	0xe
 1112 05c7 34       		.byte	0x34
 1113 05c8 19       		.byte	0x19
 1114 05c9 61050000 		.4byte	0x561
 1115 05cd 0A       		.uleb128 0xa
 1116 05ce 04       		.byte	0x4
 1117 05cf C1050000 		.4byte	0x5c1
 1118 05d3 04       		.uleb128 0x4
 1119 05d4 01       		.byte	0x1
 1120 05d5 02       		.byte	0x2
 1121 05d6 BE020000 		.4byte	.LASF76
 1122 05da 0D       		.uleb128 0xd
 1123 05db 08       		.byte	0x8
 1124 05dc 0F       		.byte	0xf
 1125 05dd 51       		.byte	0x51
 1126 05de 09       		.byte	0x9
 1127 05df FE050000 		.4byte	0x5fe
 1128 05e3 06       		.uleb128 0x6
 1129 05e4 5E050000 		.4byte	.LASF77
 1130 05e8 0F       		.byte	0xf
 1131 05e9 55       		.byte	0x55
 1132 05ea 0C       		.byte	0xc
 1133 05eb FE050000 		.4byte	0x5fe
 1134 05ef 00       		.byte	0
 1135 05f0 06       		.uleb128 0x6
 1136 05f1 E9010000 		.4byte	.LASF78
 1137 05f5 0F       		.byte	0xf
 1138 05f6 59       		.byte	0x59
 1139 05f7 0C       		.byte	0xc
ARM GAS  /tmp/ccNnCpkG.s 			page 21


 1140 05f8 FE050000 		.4byte	0x5fe
 1141 05fc 04       		.byte	0x4
 1142 05fd 00       		.byte	0
 1143 05fe 0A       		.uleb128 0xa
 1144 05ff 04       		.byte	0x4
 1145 0600 AE000000 		.4byte	0xae
 1146 0604 03       		.uleb128 0x3
 1147 0605 76020000 		.4byte	.LASF79
 1148 0609 0F       		.byte	0xf
 1149 060a 5A       		.byte	0x5a
 1150 060b 03       		.byte	0x3
 1151 060c DA050000 		.4byte	0x5da
 1152 0610 12       		.uleb128 0x12
 1153 0611 42020000 		.4byte	.LASF83
 1154 0615 0F       		.byte	0xf
 1155 0616 65       		.byte	0x65
 1156 0617 12       		.byte	0x12
 1157 0618 04060000 		.4byte	0x604
 1158 061c 13       		.uleb128 0x13
 1159 061d 10060000 		.4byte	0x610
 1160 0621 01       		.byte	0x1
 1161 0622 3A       		.byte	0x3a
 1162 0623 0B       		.byte	0xb
 1163 0624 05       		.uleb128 0x5
 1164 0625 03       		.byte	0x3
 1165 0626 00000000 		.4byte	ch_memcore
 1166 062a 14       		.uleb128 0x14
 1167 062b 2A030000 		.4byte	.LASF99
 1168 062f 01       		.byte	0x1
 1169 0630 A7       		.byte	0xa7
 1170 0631 08       		.byte	0x8
 1171 0632 2C000000 		.4byte	0x2c
 1172 0636 00000000 		.4byte	.LFB304
 1173 063a 10000000 		.4byte	.LFE304-.LFB304
 1174 063e 01       		.uleb128 0x1
 1175 063f 9C       		.byte	0x9c
 1176 0640 15       		.uleb128 0x15
 1177 0641 1A010000 		.4byte	.LASF84
 1178 0645 01       		.byte	0x1
 1179 0646 94       		.byte	0x94
 1180 0647 07       		.byte	0x7
 1181 0648 CD020000 		.4byte	0x2cd
 1182 064c 00000000 		.4byte	.LFB303
 1183 0650 30000000 		.4byte	.LFE303-.LFB303
 1184 0654 01       		.uleb128 0x1
 1185 0655 9C       		.byte	0x9c
 1186 0656 7D070000 		.4byte	0x77d
 1187 065a 16       		.uleb128 0x16
 1188 065b 98010000 		.4byte	.LASF80
 1189 065f 01       		.byte	0x1
 1190 0660 94       		.byte	0x94
 1191 0661 2B       		.byte	0x2b
 1192 0662 2C000000 		.4byte	0x2c
 1193 0666 04000000 		.4byte	.LLST4
 1194 066a 00000000 		.4byte	.LVUS4
 1195 066e 16       		.uleb128 0x16
 1196 066f 61010000 		.4byte	.LASF81
ARM GAS  /tmp/ccNnCpkG.s 			page 22


 1197 0673 01       		.byte	0x1
 1198 0674 95       		.byte	0x95
 1199 0675 2D       		.byte	0x2d
 1200 0676 38000000 		.4byte	0x38
 1201 067a 27000000 		.4byte	.LLST5
 1202 067e 23000000 		.4byte	.LVUS5
 1203 0682 16       		.uleb128 0x16
 1204 0683 D8030000 		.4byte	.LASF82
 1205 0687 01       		.byte	0x1
 1206 0688 96       		.byte	0x96
 1207 0689 2B       		.byte	0x2b
 1208 068a 2C000000 		.4byte	0x2c
 1209 068e 4C000000 		.4byte	.LLST6
 1210 0692 46000000 		.4byte	.LVUS6
 1211 0696 17       		.uleb128 0x17
 1212 0697 7000     		.ascii	"p\000"
 1213 0699 01       		.byte	0x1
 1214 069a 97       		.byte	0x97
 1215 069b 09       		.byte	0x9
 1216 069c CD020000 		.4byte	0x2cd
 1217 06a0 7D000000 		.4byte	.LLST7
 1218 06a4 79000000 		.4byte	.LVUS7
 1219 06a8 18       		.uleb128 0x18
 1220 06a9 79080000 		.4byte	0x879
 1221 06ad 00000000 		.4byte	.LBI24
 1222 06b1 03       		.byte	.LVU40
 1223 06b2 00000000 		.4byte	.Ldebug_ranges0+0
 1224 06b6 01       		.byte	0x1
 1225 06b7 99       		.byte	0x99
 1226 06b8 03       		.byte	0x3
 1227 06b9 FE060000 		.4byte	0x6fe
 1228 06bd 19       		.uleb128 0x19
 1229 06be 8D080000 		.4byte	0x88d
 1230 06c2 00000000 		.4byte	.LBI26
 1231 06c6 05       		.byte	.LVU42
 1232 06c7 28000000 		.4byte	.Ldebug_ranges0+0x28
 1233 06cb 02       		.byte	0x2
 1234 06cc 6301     		.2byte	0x163
 1235 06ce 03       		.byte	0x3
 1236 06cf F4060000 		.4byte	0x6f4
 1237 06d3 1A       		.uleb128 0x1a
 1238 06d4 97080000 		.4byte	0x897
 1239 06d8 00000000 		.4byte	.LBI27
 1240 06dc 07       		.byte	.LVU44
 1241 06dd 30000000 		.4byte	.Ldebug_ranges0+0x30
 1242 06e1 03       		.byte	0x3
 1243 06e2 6202     		.2byte	0x262
 1244 06e4 03       		.byte	0x3
 1245 06e5 1B       		.uleb128 0x1b
 1246 06e6 A5080000 		.4byte	0x8a5
 1247 06ea 9E000000 		.4byte	.LLST8
 1248 06ee 9C000000 		.4byte	.LVUS8
 1249 06f2 00       		.byte	0
 1250 06f3 00       		.byte	0
 1251 06f4 1C       		.uleb128 0x1c
 1252 06f5 12000000 		.4byte	.LVL11
 1253 06f9 B3080000 		.4byte	0x8b3
ARM GAS  /tmp/ccNnCpkG.s 			page 23


 1254 06fd 00       		.byte	0
 1255 06fe 18       		.uleb128 0x18
 1256 06ff 4C080000 		.4byte	0x84c
 1257 0703 1E000000 		.4byte	.LBI42
 1258 0707 01       		.byte	.LVU56
 1259 0708 50000000 		.4byte	.Ldebug_ranges0+0x50
 1260 070c 01       		.byte	0x1
 1261 070d 9B       		.byte	0x9b
 1262 070e 03       		.byte	0x3
 1263 070f 5E070000 		.4byte	0x75e
 1264 0713 1D       		.uleb128 0x1d
 1265 0714 50000000 		.4byte	.Ldebug_ranges0+0x50
 1266 0718 19       		.uleb128 0x19
 1267 0719 83080000 		.4byte	0x883
 1268 071d 22000000 		.4byte	.LBI44
 1269 0721 04       		.byte	.LVU63
 1270 0722 68000000 		.4byte	.Ldebug_ranges0+0x68
 1271 0726 02       		.byte	0x2
 1272 0727 7A01     		.2byte	0x17a
 1273 0729 03       		.byte	0x3
 1274 072a 53070000 		.4byte	0x753
 1275 072e 1E       		.uleb128 0x1e
 1276 072f 97080000 		.4byte	0x897
 1277 0733 22000000 		.4byte	.LBI45
 1278 0737 06       		.byte	.LVU65
 1279 0738 22000000 		.4byte	.LBB45
 1280 073c 06000000 		.4byte	.LBE45-.LBB45
 1281 0740 03       		.byte	0x3
 1282 0741 7502     		.2byte	0x275
 1283 0743 03       		.byte	0x3
 1284 0744 1B       		.uleb128 0x1b
 1285 0745 A5080000 		.4byte	0x8a5
 1286 0749 B5000000 		.4byte	.LLST9
 1287 074d B3000000 		.4byte	.LVUS9
 1288 0751 00       		.byte	0
 1289 0752 00       		.byte	0
 1290 0753 1C       		.uleb128 0x1c
 1291 0754 22000000 		.4byte	.LVL14
 1292 0758 BF080000 		.4byte	0x8bf
 1293 075c 00       		.byte	0
 1294 075d 00       		.byte	0
 1295 075e 1F       		.uleb128 0x1f
 1296 075f 1C000000 		.4byte	.LVL12
 1297 0763 7D070000 		.4byte	0x77d
 1298 0767 20       		.uleb128 0x20
 1299 0768 01       		.uleb128 0x1
 1300 0769 50       		.byte	0x50
 1301 076a 03       		.uleb128 0x3
 1302 076b 91       		.byte	0x91
 1303 076c 74       		.sleb128 -12
 1304 076d 06       		.byte	0x6
 1305 076e 20       		.uleb128 0x20
 1306 076f 01       		.uleb128 0x1
 1307 0770 51       		.byte	0x51
 1308 0771 02       		.uleb128 0x2
 1309 0772 71       		.byte	0x71
 1310 0773 00       		.sleb128 0
ARM GAS  /tmp/ccNnCpkG.s 			page 24


 1311 0774 20       		.uleb128 0x20
 1312 0775 01       		.uleb128 0x1
 1313 0776 52       		.byte	0x52
 1314 0777 03       		.uleb128 0x3
 1315 0778 91       		.byte	0x91
 1316 0779 6C       		.sleb128 -20
 1317 077a 06       		.byte	0x6
 1318 077b 00       		.byte	0
 1319 077c 00       		.byte	0
 1320 077d 15       		.uleb128 0x15
 1321 077e A0020000 		.4byte	.LASF85
 1322 0782 01       		.byte	0x1
 1323 0783 70       		.byte	0x70
 1324 0784 07       		.byte	0x7
 1325 0785 CD020000 		.4byte	0x2cd
 1326 0789 00000000 		.4byte	.LFB302
 1327 078d 30000000 		.4byte	.LFE302-.LFB302
 1328 0791 01       		.uleb128 0x1
 1329 0792 9C       		.byte	0x9c
 1330 0793 FD070000 		.4byte	0x7fd
 1331 0797 16       		.uleb128 0x16
 1332 0798 98010000 		.4byte	.LASF80
 1333 079c 01       		.byte	0x1
 1334 079d 70       		.byte	0x70
 1335 079e 2C       		.byte	0x2c
 1336 079f 2C000000 		.4byte	0x2c
 1337 07a3 D1000000 		.4byte	.LLST0
 1338 07a7 C9000000 		.4byte	.LVUS0
 1339 07ab 21       		.uleb128 0x21
 1340 07ac 61010000 		.4byte	.LASF81
 1341 07b0 01       		.byte	0x1
 1342 07b1 71       		.byte	0x71
 1343 07b2 2E       		.byte	0x2e
 1344 07b3 38000000 		.4byte	0x38
 1345 07b7 01       		.uleb128 0x1
 1346 07b8 51       		.byte	0x51
 1347 07b9 16       		.uleb128 0x16
 1348 07ba D8030000 		.4byte	.LASF82
 1349 07be 01       		.byte	0x1
 1350 07bf 72       		.byte	0x72
 1351 07c0 2C       		.byte	0x2c
 1352 07c1 2C000000 		.4byte	0x2c
 1353 07c5 19010000 		.4byte	.LLST1
 1354 07c9 15010000 		.4byte	.LVUS1
 1355 07cd 17       		.uleb128 0x17
 1356 07ce 7000     		.ascii	"p\000"
 1357 07d0 01       		.byte	0x1
 1358 07d1 73       		.byte	0x73
 1359 07d2 0C       		.byte	0xc
 1360 07d3 FE050000 		.4byte	0x5fe
 1361 07d7 42010000 		.4byte	.LLST2
 1362 07db 3A010000 		.4byte	.LVUS2
 1363 07df 22       		.uleb128 0x22
 1364 07e0 BD000000 		.4byte	.LASF50
 1365 07e4 01       		.byte	0x1
 1366 07e5 73       		.byte	0x73
 1367 07e6 10       		.byte	0x10
ARM GAS  /tmp/ccNnCpkG.s 			page 25


 1368 07e7 FE050000 		.4byte	0x5fe
 1369 07eb 94010000 		.4byte	.LLST3
 1370 07ef 92010000 		.4byte	.LVUS3
 1371 07f3 23       		.uleb128 0x23
 1372 07f4 03030000 		.4byte	.LASF88
 1373 07f8 0D080000 		.4byte	0x80d
 1374 07fc 00       		.byte	0
 1375 07fd 24       		.uleb128 0x24
 1376 07fe B6050000 		.4byte	0x5b6
 1377 0802 0D080000 		.4byte	0x80d
 1378 0806 25       		.uleb128 0x25
 1379 0807 38000000 		.4byte	0x38
 1380 080b 1D       		.byte	0x1d
 1381 080c 00       		.byte	0
 1382 080d 11       		.uleb128 0x11
 1383 080e FD070000 		.4byte	0x7fd
 1384 0812 26       		.uleb128 0x26
 1385 0813 DA020000 		.4byte	.LASF100
 1386 0817 01       		.byte	0x1
 1387 0818 51       		.byte	0x51
 1388 0819 06       		.byte	0x6
 1389 081a 00000000 		.4byte	.LFB301
 1390 081e 18000000 		.4byte	.LFE301-.LFB301
 1391 0822 01       		.uleb128 0x1
 1392 0823 9C       		.byte	0x9c
 1393 0824 41080000 		.4byte	0x841
 1394 0828 12       		.uleb128 0x12
 1395 0829 DF030000 		.4byte	.LASF86
 1396 082d 01       		.byte	0x1
 1397 082e 53       		.byte	0x53
 1398 082f 12       		.byte	0x12
 1399 0830 41080000 		.4byte	0x841
 1400 0834 12       		.uleb128 0x12
 1401 0835 EF020000 		.4byte	.LASF87
 1402 0839 01       		.byte	0x1
 1403 083a 54       		.byte	0x54
 1404 083b 12       		.byte	0x12
 1405 083c 41080000 		.4byte	0x841
 1406 0840 00       		.byte	0
 1407 0841 24       		.uleb128 0x24
 1408 0842 AE000000 		.4byte	0xae
 1409 0846 4C080000 		.4byte	0x84c
 1410 084a 27       		.uleb128 0x27
 1411 084b 00       		.byte	0
 1412 084c 28       		.uleb128 0x28
 1413 084d 4A050000 		.4byte	.LASF92
 1414 0851 02       		.byte	0x2
 1415 0852 6D01     		.2byte	0x16d
 1416 0854 14       		.byte	0x14
 1417 0855 03       		.byte	0x3
 1418 0856 64080000 		.4byte	0x864
 1419 085a 23       		.uleb128 0x23
 1420 085b 03030000 		.4byte	.LASF88
 1421 085f 74080000 		.4byte	0x874
 1422 0863 00       		.byte	0
 1423 0864 24       		.uleb128 0x24
 1424 0865 B6050000 		.4byte	0x5b6
ARM GAS  /tmp/ccNnCpkG.s 			page 26


 1425 0869 74080000 		.4byte	0x874
 1426 086d 25       		.uleb128 0x25
 1427 086e 38000000 		.4byte	0x38
 1428 0872 0B       		.byte	0xb
 1429 0873 00       		.byte	0
 1430 0874 11       		.uleb128 0x11
 1431 0875 64080000 		.4byte	0x864
 1432 0879 29       		.uleb128 0x29
 1433 087a 0C030000 		.4byte	.LASF89
 1434 087e 02       		.byte	0x2
 1435 087f 6101     		.2byte	0x161
 1436 0881 14       		.byte	0x14
 1437 0882 03       		.byte	0x3
 1438 0883 29       		.uleb128 0x29
 1439 0884 ED000000 		.4byte	.LASF90
 1440 0888 03       		.byte	0x3
 1441 0889 7202     		.2byte	0x272
 1442 088b 14       		.byte	0x14
 1443 088c 03       		.byte	0x3
 1444 088d 29       		.uleb128 0x29
 1445 088e 72000000 		.4byte	.LASF91
 1446 0892 03       		.byte	0x3
 1447 0893 5A02     		.2byte	0x25a
 1448 0895 14       		.byte	0x14
 1449 0896 03       		.byte	0x3
 1450 0897 28       		.uleb128 0x28
 1451 0898 CA030000 		.4byte	.LASF93
 1452 089c 04       		.byte	0x4
 1453 089d EB01     		.2byte	0x1eb
 1454 089f 1B       		.byte	0x1b
 1455 08a0 03       		.byte	0x3
 1456 08a1 B3080000 		.4byte	0x8b3
 1457 08a5 2A       		.uleb128 0x2a
 1458 08a6 E5000000 		.4byte	.LASF101
 1459 08aa 04       		.byte	0x4
 1460 08ab EB01     		.2byte	0x1eb
 1461 08ad 32       		.byte	0x32
 1462 08ae C6000000 		.4byte	0xc6
 1463 08b2 00       		.byte	0
 1464 08b3 2B       		.uleb128 0x2b
 1465 08b4 16050000 		.4byte	.LASF94
 1466 08b8 16050000 		.4byte	.LASF94
 1467 08bc 10       		.byte	0x10
 1468 08bd 4F       		.byte	0x4f
 1469 08be 08       		.byte	0x8
 1470 08bf 2B       		.uleb128 0x2b
 1471 08c0 0A020000 		.4byte	.LASF95
 1472 08c4 0A020000 		.4byte	.LASF95
 1473 08c8 10       		.byte	0x10
 1474 08c9 50       		.byte	0x50
 1475 08ca 08       		.byte	0x8
 1476 08cb 00       		.byte	0
 1477              		.section	.debug_abbrev,"",%progbits
 1478              	.Ldebug_abbrev0:
 1479 0000 01       		.uleb128 0x1
 1480 0001 11       		.uleb128 0x11
 1481 0002 01       		.byte	0x1
ARM GAS  /tmp/ccNnCpkG.s 			page 27


 1482 0003 25       		.uleb128 0x25
 1483 0004 0E       		.uleb128 0xe
 1484 0005 13       		.uleb128 0x13
 1485 0006 0B       		.uleb128 0xb
 1486 0007 03       		.uleb128 0x3
 1487 0008 0E       		.uleb128 0xe
 1488 0009 1B       		.uleb128 0x1b
 1489 000a 0E       		.uleb128 0xe
 1490 000b 55       		.uleb128 0x55
 1491 000c 17       		.uleb128 0x17
 1492 000d 11       		.uleb128 0x11
 1493 000e 01       		.uleb128 0x1
 1494 000f 10       		.uleb128 0x10
 1495 0010 17       		.uleb128 0x17
 1496 0011 00       		.byte	0
 1497 0012 00       		.byte	0
 1498 0013 02       		.uleb128 0x2
 1499 0014 24       		.uleb128 0x24
 1500 0015 00       		.byte	0
 1501 0016 0B       		.uleb128 0xb
 1502 0017 0B       		.uleb128 0xb
 1503 0018 3E       		.uleb128 0x3e
 1504 0019 0B       		.uleb128 0xb
 1505 001a 03       		.uleb128 0x3
 1506 001b 08       		.uleb128 0x8
 1507 001c 00       		.byte	0
 1508 001d 00       		.byte	0
 1509 001e 03       		.uleb128 0x3
 1510 001f 16       		.uleb128 0x16
 1511 0020 00       		.byte	0
 1512 0021 03       		.uleb128 0x3
 1513 0022 0E       		.uleb128 0xe
 1514 0023 3A       		.uleb128 0x3a
 1515 0024 0B       		.uleb128 0xb
 1516 0025 3B       		.uleb128 0x3b
 1517 0026 0B       		.uleb128 0xb
 1518 0027 39       		.uleb128 0x39
 1519 0028 0B       		.uleb128 0xb
 1520 0029 49       		.uleb128 0x49
 1521 002a 13       		.uleb128 0x13
 1522 002b 00       		.byte	0
 1523 002c 00       		.byte	0
 1524 002d 04       		.uleb128 0x4
 1525 002e 24       		.uleb128 0x24
 1526 002f 00       		.byte	0
 1527 0030 0B       		.uleb128 0xb
 1528 0031 0B       		.uleb128 0xb
 1529 0032 3E       		.uleb128 0x3e
 1530 0033 0B       		.uleb128 0xb
 1531 0034 03       		.uleb128 0x3
 1532 0035 0E       		.uleb128 0xe
 1533 0036 00       		.byte	0
 1534 0037 00       		.byte	0
 1535 0038 05       		.uleb128 0x5
 1536 0039 13       		.uleb128 0x13
 1537 003a 01       		.byte	0x1
 1538 003b 03       		.uleb128 0x3
ARM GAS  /tmp/ccNnCpkG.s 			page 28


 1539 003c 0E       		.uleb128 0xe
 1540 003d 0B       		.uleb128 0xb
 1541 003e 0B       		.uleb128 0xb
 1542 003f 3A       		.uleb128 0x3a
 1543 0040 0B       		.uleb128 0xb
 1544 0041 3B       		.uleb128 0x3b
 1545 0042 0B       		.uleb128 0xb
 1546 0043 39       		.uleb128 0x39
 1547 0044 0B       		.uleb128 0xb
 1548 0045 01       		.uleb128 0x1
 1549 0046 13       		.uleb128 0x13
 1550 0047 00       		.byte	0
 1551 0048 00       		.byte	0
 1552 0049 06       		.uleb128 0x6
 1553 004a 0D       		.uleb128 0xd
 1554 004b 00       		.byte	0
 1555 004c 03       		.uleb128 0x3
 1556 004d 0E       		.uleb128 0xe
 1557 004e 3A       		.uleb128 0x3a
 1558 004f 0B       		.uleb128 0xb
 1559 0050 3B       		.uleb128 0x3b
 1560 0051 0B       		.uleb128 0xb
 1561 0052 39       		.uleb128 0x39
 1562 0053 0B       		.uleb128 0xb
 1563 0054 49       		.uleb128 0x49
 1564 0055 13       		.uleb128 0x13
 1565 0056 38       		.uleb128 0x38
 1566 0057 0B       		.uleb128 0xb
 1567 0058 00       		.byte	0
 1568 0059 00       		.byte	0
 1569 005a 07       		.uleb128 0x7
 1570 005b 0D       		.uleb128 0xd
 1571 005c 00       		.byte	0
 1572 005d 03       		.uleb128 0x3
 1573 005e 08       		.uleb128 0x8
 1574 005f 3A       		.uleb128 0x3a
 1575 0060 0B       		.uleb128 0xb
 1576 0061 3B       		.uleb128 0x3b
 1577 0062 0B       		.uleb128 0xb
 1578 0063 39       		.uleb128 0x39
 1579 0064 0B       		.uleb128 0xb
 1580 0065 49       		.uleb128 0x49
 1581 0066 13       		.uleb128 0x13
 1582 0067 38       		.uleb128 0x38
 1583 0068 0B       		.uleb128 0xb
 1584 0069 00       		.byte	0
 1585 006a 00       		.byte	0
 1586 006b 08       		.uleb128 0x8
 1587 006c 0D       		.uleb128 0xd
 1588 006d 00       		.byte	0
 1589 006e 03       		.uleb128 0x3
 1590 006f 08       		.uleb128 0x8
 1591 0070 3A       		.uleb128 0x3a
 1592 0071 0B       		.uleb128 0xb
 1593 0072 3B       		.uleb128 0x3b
 1594 0073 05       		.uleb128 0x5
 1595 0074 39       		.uleb128 0x39
ARM GAS  /tmp/ccNnCpkG.s 			page 29


 1596 0075 0B       		.uleb128 0xb
 1597 0076 49       		.uleb128 0x49
 1598 0077 13       		.uleb128 0x13
 1599 0078 38       		.uleb128 0x38
 1600 0079 0B       		.uleb128 0xb
 1601 007a 00       		.byte	0
 1602 007b 00       		.byte	0
 1603 007c 09       		.uleb128 0x9
 1604 007d 0D       		.uleb128 0xd
 1605 007e 00       		.byte	0
 1606 007f 03       		.uleb128 0x3
 1607 0080 0E       		.uleb128 0xe
 1608 0081 3A       		.uleb128 0x3a
 1609 0082 0B       		.uleb128 0xb
 1610 0083 3B       		.uleb128 0x3b
 1611 0084 05       		.uleb128 0x5
 1612 0085 39       		.uleb128 0x39
 1613 0086 0B       		.uleb128 0xb
 1614 0087 49       		.uleb128 0x49
 1615 0088 13       		.uleb128 0x13
 1616 0089 38       		.uleb128 0x38
 1617 008a 0B       		.uleb128 0xb
 1618 008b 00       		.byte	0
 1619 008c 00       		.byte	0
 1620 008d 0A       		.uleb128 0xa
 1621 008e 0F       		.uleb128 0xf
 1622 008f 00       		.byte	0
 1623 0090 0B       		.uleb128 0xb
 1624 0091 0B       		.uleb128 0xb
 1625 0092 49       		.uleb128 0x49
 1626 0093 13       		.uleb128 0x13
 1627 0094 00       		.byte	0
 1628 0095 00       		.byte	0
 1629 0096 0B       		.uleb128 0xb
 1630 0097 0F       		.uleb128 0xf
 1631 0098 00       		.byte	0
 1632 0099 0B       		.uleb128 0xb
 1633 009a 0B       		.uleb128 0xb
 1634 009b 00       		.byte	0
 1635 009c 00       		.byte	0
 1636 009d 0C       		.uleb128 0xc
 1637 009e 13       		.uleb128 0x13
 1638 009f 01       		.byte	0x1
 1639 00a0 03       		.uleb128 0x3
 1640 00a1 0E       		.uleb128 0xe
 1641 00a2 0B       		.uleb128 0xb
 1642 00a3 0B       		.uleb128 0xb
 1643 00a4 3A       		.uleb128 0x3a
 1644 00a5 0B       		.uleb128 0xb
 1645 00a6 3B       		.uleb128 0x3b
 1646 00a7 05       		.uleb128 0x5
 1647 00a8 39       		.uleb128 0x39
 1648 00a9 0B       		.uleb128 0xb
 1649 00aa 01       		.uleb128 0x1
 1650 00ab 13       		.uleb128 0x13
 1651 00ac 00       		.byte	0
 1652 00ad 00       		.byte	0
ARM GAS  /tmp/ccNnCpkG.s 			page 30


 1653 00ae 0D       		.uleb128 0xd
 1654 00af 13       		.uleb128 0x13
 1655 00b0 01       		.byte	0x1
 1656 00b1 0B       		.uleb128 0xb
 1657 00b2 0B       		.uleb128 0xb
 1658 00b3 3A       		.uleb128 0x3a
 1659 00b4 0B       		.uleb128 0xb
 1660 00b5 3B       		.uleb128 0x3b
 1661 00b6 0B       		.uleb128 0xb
 1662 00b7 39       		.uleb128 0x39
 1663 00b8 0B       		.uleb128 0xb
 1664 00b9 01       		.uleb128 0x1
 1665 00ba 13       		.uleb128 0x13
 1666 00bb 00       		.byte	0
 1667 00bc 00       		.byte	0
 1668 00bd 0E       		.uleb128 0xe
 1669 00be 17       		.uleb128 0x17
 1670 00bf 01       		.byte	0x1
 1671 00c0 0B       		.uleb128 0xb
 1672 00c1 0B       		.uleb128 0xb
 1673 00c2 3A       		.uleb128 0x3a
 1674 00c3 0B       		.uleb128 0xb
 1675 00c4 3B       		.uleb128 0x3b
 1676 00c5 0B       		.uleb128 0xb
 1677 00c6 39       		.uleb128 0x39
 1678 00c7 0B       		.uleb128 0xb
 1679 00c8 01       		.uleb128 0x1
 1680 00c9 13       		.uleb128 0x13
 1681 00ca 00       		.byte	0
 1682 00cb 00       		.byte	0
 1683 00cc 0F       		.uleb128 0xf
 1684 00cd 0D       		.uleb128 0xd
 1685 00ce 00       		.byte	0
 1686 00cf 03       		.uleb128 0x3
 1687 00d0 0E       		.uleb128 0xe
 1688 00d1 3A       		.uleb128 0x3a
 1689 00d2 0B       		.uleb128 0xb
 1690 00d3 3B       		.uleb128 0x3b
 1691 00d4 0B       		.uleb128 0xb
 1692 00d5 39       		.uleb128 0x39
 1693 00d6 0B       		.uleb128 0xb
 1694 00d7 49       		.uleb128 0x49
 1695 00d8 13       		.uleb128 0x13
 1696 00d9 00       		.byte	0
 1697 00da 00       		.byte	0
 1698 00db 10       		.uleb128 0x10
 1699 00dc 0D       		.uleb128 0xd
 1700 00dd 00       		.byte	0
 1701 00de 03       		.uleb128 0x3
 1702 00df 0E       		.uleb128 0xe
 1703 00e0 3A       		.uleb128 0x3a
 1704 00e1 0B       		.uleb128 0xb
 1705 00e2 3B       		.uleb128 0x3b
 1706 00e3 05       		.uleb128 0x5
 1707 00e4 39       		.uleb128 0x39
 1708 00e5 0B       		.uleb128 0xb
 1709 00e6 49       		.uleb128 0x49
ARM GAS  /tmp/ccNnCpkG.s 			page 31


 1710 00e7 13       		.uleb128 0x13
 1711 00e8 00       		.byte	0
 1712 00e9 00       		.byte	0
 1713 00ea 11       		.uleb128 0x11
 1714 00eb 26       		.uleb128 0x26
 1715 00ec 00       		.byte	0
 1716 00ed 49       		.uleb128 0x49
 1717 00ee 13       		.uleb128 0x13
 1718 00ef 00       		.byte	0
 1719 00f0 00       		.byte	0
 1720 00f1 12       		.uleb128 0x12
 1721 00f2 34       		.uleb128 0x34
 1722 00f3 00       		.byte	0
 1723 00f4 03       		.uleb128 0x3
 1724 00f5 0E       		.uleb128 0xe
 1725 00f6 3A       		.uleb128 0x3a
 1726 00f7 0B       		.uleb128 0xb
 1727 00f8 3B       		.uleb128 0x3b
 1728 00f9 0B       		.uleb128 0xb
 1729 00fa 39       		.uleb128 0x39
 1730 00fb 0B       		.uleb128 0xb
 1731 00fc 49       		.uleb128 0x49
 1732 00fd 13       		.uleb128 0x13
 1733 00fe 3F       		.uleb128 0x3f
 1734 00ff 19       		.uleb128 0x19
 1735 0100 3C       		.uleb128 0x3c
 1736 0101 19       		.uleb128 0x19
 1737 0102 00       		.byte	0
 1738 0103 00       		.byte	0
 1739 0104 13       		.uleb128 0x13
 1740 0105 34       		.uleb128 0x34
 1741 0106 00       		.byte	0
 1742 0107 47       		.uleb128 0x47
 1743 0108 13       		.uleb128 0x13
 1744 0109 3A       		.uleb128 0x3a
 1745 010a 0B       		.uleb128 0xb
 1746 010b 3B       		.uleb128 0x3b
 1747 010c 0B       		.uleb128 0xb
 1748 010d 39       		.uleb128 0x39
 1749 010e 0B       		.uleb128 0xb
 1750 010f 02       		.uleb128 0x2
 1751 0110 18       		.uleb128 0x18
 1752 0111 00       		.byte	0
 1753 0112 00       		.byte	0
 1754 0113 14       		.uleb128 0x14
 1755 0114 2E       		.uleb128 0x2e
 1756 0115 00       		.byte	0
 1757 0116 3F       		.uleb128 0x3f
 1758 0117 19       		.uleb128 0x19
 1759 0118 03       		.uleb128 0x3
 1760 0119 0E       		.uleb128 0xe
 1761 011a 3A       		.uleb128 0x3a
 1762 011b 0B       		.uleb128 0xb
 1763 011c 3B       		.uleb128 0x3b
 1764 011d 0B       		.uleb128 0xb
 1765 011e 39       		.uleb128 0x39
 1766 011f 0B       		.uleb128 0xb
ARM GAS  /tmp/ccNnCpkG.s 			page 32


 1767 0120 27       		.uleb128 0x27
 1768 0121 19       		.uleb128 0x19
 1769 0122 49       		.uleb128 0x49
 1770 0123 13       		.uleb128 0x13
 1771 0124 11       		.uleb128 0x11
 1772 0125 01       		.uleb128 0x1
 1773 0126 12       		.uleb128 0x12
 1774 0127 06       		.uleb128 0x6
 1775 0128 40       		.uleb128 0x40
 1776 0129 18       		.uleb128 0x18
 1777 012a 9742     		.uleb128 0x2117
 1778 012c 19       		.uleb128 0x19
 1779 012d 00       		.byte	0
 1780 012e 00       		.byte	0
 1781 012f 15       		.uleb128 0x15
 1782 0130 2E       		.uleb128 0x2e
 1783 0131 01       		.byte	0x1
 1784 0132 3F       		.uleb128 0x3f
 1785 0133 19       		.uleb128 0x19
 1786 0134 03       		.uleb128 0x3
 1787 0135 0E       		.uleb128 0xe
 1788 0136 3A       		.uleb128 0x3a
 1789 0137 0B       		.uleb128 0xb
 1790 0138 3B       		.uleb128 0x3b
 1791 0139 0B       		.uleb128 0xb
 1792 013a 39       		.uleb128 0x39
 1793 013b 0B       		.uleb128 0xb
 1794 013c 27       		.uleb128 0x27
 1795 013d 19       		.uleb128 0x19
 1796 013e 49       		.uleb128 0x49
 1797 013f 13       		.uleb128 0x13
 1798 0140 11       		.uleb128 0x11
 1799 0141 01       		.uleb128 0x1
 1800 0142 12       		.uleb128 0x12
 1801 0143 06       		.uleb128 0x6
 1802 0144 40       		.uleb128 0x40
 1803 0145 18       		.uleb128 0x18
 1804 0146 9742     		.uleb128 0x2117
 1805 0148 19       		.uleb128 0x19
 1806 0149 01       		.uleb128 0x1
 1807 014a 13       		.uleb128 0x13
 1808 014b 00       		.byte	0
 1809 014c 00       		.byte	0
 1810 014d 16       		.uleb128 0x16
 1811 014e 05       		.uleb128 0x5
 1812 014f 00       		.byte	0
 1813 0150 03       		.uleb128 0x3
 1814 0151 0E       		.uleb128 0xe
 1815 0152 3A       		.uleb128 0x3a
 1816 0153 0B       		.uleb128 0xb
 1817 0154 3B       		.uleb128 0x3b
 1818 0155 0B       		.uleb128 0xb
 1819 0156 39       		.uleb128 0x39
 1820 0157 0B       		.uleb128 0xb
 1821 0158 49       		.uleb128 0x49
 1822 0159 13       		.uleb128 0x13
 1823 015a 02       		.uleb128 0x2
ARM GAS  /tmp/ccNnCpkG.s 			page 33


 1824 015b 17       		.uleb128 0x17
 1825 015c B742     		.uleb128 0x2137
 1826 015e 17       		.uleb128 0x17
 1827 015f 00       		.byte	0
 1828 0160 00       		.byte	0
 1829 0161 17       		.uleb128 0x17
 1830 0162 34       		.uleb128 0x34
 1831 0163 00       		.byte	0
 1832 0164 03       		.uleb128 0x3
 1833 0165 08       		.uleb128 0x8
 1834 0166 3A       		.uleb128 0x3a
 1835 0167 0B       		.uleb128 0xb
 1836 0168 3B       		.uleb128 0x3b
 1837 0169 0B       		.uleb128 0xb
 1838 016a 39       		.uleb128 0x39
 1839 016b 0B       		.uleb128 0xb
 1840 016c 49       		.uleb128 0x49
 1841 016d 13       		.uleb128 0x13
 1842 016e 02       		.uleb128 0x2
 1843 016f 17       		.uleb128 0x17
 1844 0170 B742     		.uleb128 0x2137
 1845 0172 17       		.uleb128 0x17
 1846 0173 00       		.byte	0
 1847 0174 00       		.byte	0
 1848 0175 18       		.uleb128 0x18
 1849 0176 1D       		.uleb128 0x1d
 1850 0177 01       		.byte	0x1
 1851 0178 31       		.uleb128 0x31
 1852 0179 13       		.uleb128 0x13
 1853 017a 52       		.uleb128 0x52
 1854 017b 01       		.uleb128 0x1
 1855 017c B842     		.uleb128 0x2138
 1856 017e 0B       		.uleb128 0xb
 1857 017f 55       		.uleb128 0x55
 1858 0180 17       		.uleb128 0x17
 1859 0181 58       		.uleb128 0x58
 1860 0182 0B       		.uleb128 0xb
 1861 0183 59       		.uleb128 0x59
 1862 0184 0B       		.uleb128 0xb
 1863 0185 57       		.uleb128 0x57
 1864 0186 0B       		.uleb128 0xb
 1865 0187 01       		.uleb128 0x1
 1866 0188 13       		.uleb128 0x13
 1867 0189 00       		.byte	0
 1868 018a 00       		.byte	0
 1869 018b 19       		.uleb128 0x19
 1870 018c 1D       		.uleb128 0x1d
 1871 018d 01       		.byte	0x1
 1872 018e 31       		.uleb128 0x31
 1873 018f 13       		.uleb128 0x13
 1874 0190 52       		.uleb128 0x52
 1875 0191 01       		.uleb128 0x1
 1876 0192 B842     		.uleb128 0x2138
 1877 0194 0B       		.uleb128 0xb
 1878 0195 55       		.uleb128 0x55
 1879 0196 17       		.uleb128 0x17
 1880 0197 58       		.uleb128 0x58
ARM GAS  /tmp/ccNnCpkG.s 			page 34


 1881 0198 0B       		.uleb128 0xb
 1882 0199 59       		.uleb128 0x59
 1883 019a 05       		.uleb128 0x5
 1884 019b 57       		.uleb128 0x57
 1885 019c 0B       		.uleb128 0xb
 1886 019d 01       		.uleb128 0x1
 1887 019e 13       		.uleb128 0x13
 1888 019f 00       		.byte	0
 1889 01a0 00       		.byte	0
 1890 01a1 1A       		.uleb128 0x1a
 1891 01a2 1D       		.uleb128 0x1d
 1892 01a3 01       		.byte	0x1
 1893 01a4 31       		.uleb128 0x31
 1894 01a5 13       		.uleb128 0x13
 1895 01a6 52       		.uleb128 0x52
 1896 01a7 01       		.uleb128 0x1
 1897 01a8 B842     		.uleb128 0x2138
 1898 01aa 0B       		.uleb128 0xb
 1899 01ab 55       		.uleb128 0x55
 1900 01ac 17       		.uleb128 0x17
 1901 01ad 58       		.uleb128 0x58
 1902 01ae 0B       		.uleb128 0xb
 1903 01af 59       		.uleb128 0x59
 1904 01b0 05       		.uleb128 0x5
 1905 01b1 57       		.uleb128 0x57
 1906 01b2 0B       		.uleb128 0xb
 1907 01b3 00       		.byte	0
 1908 01b4 00       		.byte	0
 1909 01b5 1B       		.uleb128 0x1b
 1910 01b6 05       		.uleb128 0x5
 1911 01b7 00       		.byte	0
 1912 01b8 31       		.uleb128 0x31
 1913 01b9 13       		.uleb128 0x13
 1914 01ba 02       		.uleb128 0x2
 1915 01bb 17       		.uleb128 0x17
 1916 01bc B742     		.uleb128 0x2137
 1917 01be 17       		.uleb128 0x17
 1918 01bf 00       		.byte	0
 1919 01c0 00       		.byte	0
 1920 01c1 1C       		.uleb128 0x1c
 1921 01c2 898201   		.uleb128 0x4109
 1922 01c5 00       		.byte	0
 1923 01c6 11       		.uleb128 0x11
 1924 01c7 01       		.uleb128 0x1
 1925 01c8 31       		.uleb128 0x31
 1926 01c9 13       		.uleb128 0x13
 1927 01ca 00       		.byte	0
 1928 01cb 00       		.byte	0
 1929 01cc 1D       		.uleb128 0x1d
 1930 01cd 0B       		.uleb128 0xb
 1931 01ce 01       		.byte	0x1
 1932 01cf 55       		.uleb128 0x55
 1933 01d0 17       		.uleb128 0x17
 1934 01d1 00       		.byte	0
 1935 01d2 00       		.byte	0
 1936 01d3 1E       		.uleb128 0x1e
 1937 01d4 1D       		.uleb128 0x1d
ARM GAS  /tmp/ccNnCpkG.s 			page 35


 1938 01d5 01       		.byte	0x1
 1939 01d6 31       		.uleb128 0x31
 1940 01d7 13       		.uleb128 0x13
 1941 01d8 52       		.uleb128 0x52
 1942 01d9 01       		.uleb128 0x1
 1943 01da B842     		.uleb128 0x2138
 1944 01dc 0B       		.uleb128 0xb
 1945 01dd 11       		.uleb128 0x11
 1946 01de 01       		.uleb128 0x1
 1947 01df 12       		.uleb128 0x12
 1948 01e0 06       		.uleb128 0x6
 1949 01e1 58       		.uleb128 0x58
 1950 01e2 0B       		.uleb128 0xb
 1951 01e3 59       		.uleb128 0x59
 1952 01e4 05       		.uleb128 0x5
 1953 01e5 57       		.uleb128 0x57
 1954 01e6 0B       		.uleb128 0xb
 1955 01e7 00       		.byte	0
 1956 01e8 00       		.byte	0
 1957 01e9 1F       		.uleb128 0x1f
 1958 01ea 898201   		.uleb128 0x4109
 1959 01ed 01       		.byte	0x1
 1960 01ee 11       		.uleb128 0x11
 1961 01ef 01       		.uleb128 0x1
 1962 01f0 31       		.uleb128 0x31
 1963 01f1 13       		.uleb128 0x13
 1964 01f2 00       		.byte	0
 1965 01f3 00       		.byte	0
 1966 01f4 20       		.uleb128 0x20
 1967 01f5 8A8201   		.uleb128 0x410a
 1968 01f8 00       		.byte	0
 1969 01f9 02       		.uleb128 0x2
 1970 01fa 18       		.uleb128 0x18
 1971 01fb 9142     		.uleb128 0x2111
 1972 01fd 18       		.uleb128 0x18
 1973 01fe 00       		.byte	0
 1974 01ff 00       		.byte	0
 1975 0200 21       		.uleb128 0x21
 1976 0201 05       		.uleb128 0x5
 1977 0202 00       		.byte	0
 1978 0203 03       		.uleb128 0x3
 1979 0204 0E       		.uleb128 0xe
 1980 0205 3A       		.uleb128 0x3a
 1981 0206 0B       		.uleb128 0xb
 1982 0207 3B       		.uleb128 0x3b
 1983 0208 0B       		.uleb128 0xb
 1984 0209 39       		.uleb128 0x39
 1985 020a 0B       		.uleb128 0xb
 1986 020b 49       		.uleb128 0x49
 1987 020c 13       		.uleb128 0x13
 1988 020d 02       		.uleb128 0x2
 1989 020e 18       		.uleb128 0x18
 1990 020f 00       		.byte	0
 1991 0210 00       		.byte	0
 1992 0211 22       		.uleb128 0x22
 1993 0212 34       		.uleb128 0x34
 1994 0213 00       		.byte	0
ARM GAS  /tmp/ccNnCpkG.s 			page 36


 1995 0214 03       		.uleb128 0x3
 1996 0215 0E       		.uleb128 0xe
 1997 0216 3A       		.uleb128 0x3a
 1998 0217 0B       		.uleb128 0xb
 1999 0218 3B       		.uleb128 0x3b
 2000 0219 0B       		.uleb128 0xb
 2001 021a 39       		.uleb128 0x39
 2002 021b 0B       		.uleb128 0xb
 2003 021c 49       		.uleb128 0x49
 2004 021d 13       		.uleb128 0x13
 2005 021e 02       		.uleb128 0x2
 2006 021f 17       		.uleb128 0x17
 2007 0220 B742     		.uleb128 0x2137
 2008 0222 17       		.uleb128 0x17
 2009 0223 00       		.byte	0
 2010 0224 00       		.byte	0
 2011 0225 23       		.uleb128 0x23
 2012 0226 34       		.uleb128 0x34
 2013 0227 00       		.byte	0
 2014 0228 03       		.uleb128 0x3
 2015 0229 0E       		.uleb128 0xe
 2016 022a 49       		.uleb128 0x49
 2017 022b 13       		.uleb128 0x13
 2018 022c 34       		.uleb128 0x34
 2019 022d 19       		.uleb128 0x19
 2020 022e 00       		.byte	0
 2021 022f 00       		.byte	0
 2022 0230 24       		.uleb128 0x24
 2023 0231 01       		.uleb128 0x1
 2024 0232 01       		.byte	0x1
 2025 0233 49       		.uleb128 0x49
 2026 0234 13       		.uleb128 0x13
 2027 0235 01       		.uleb128 0x1
 2028 0236 13       		.uleb128 0x13
 2029 0237 00       		.byte	0
 2030 0238 00       		.byte	0
 2031 0239 25       		.uleb128 0x25
 2032 023a 21       		.uleb128 0x21
 2033 023b 00       		.byte	0
 2034 023c 49       		.uleb128 0x49
 2035 023d 13       		.uleb128 0x13
 2036 023e 2F       		.uleb128 0x2f
 2037 023f 0B       		.uleb128 0xb
 2038 0240 00       		.byte	0
 2039 0241 00       		.byte	0
 2040 0242 26       		.uleb128 0x26
 2041 0243 2E       		.uleb128 0x2e
 2042 0244 01       		.byte	0x1
 2043 0245 3F       		.uleb128 0x3f
 2044 0246 19       		.uleb128 0x19
 2045 0247 03       		.uleb128 0x3
 2046 0248 0E       		.uleb128 0xe
 2047 0249 3A       		.uleb128 0x3a
 2048 024a 0B       		.uleb128 0xb
 2049 024b 3B       		.uleb128 0x3b
 2050 024c 0B       		.uleb128 0xb
 2051 024d 39       		.uleb128 0x39
ARM GAS  /tmp/ccNnCpkG.s 			page 37


 2052 024e 0B       		.uleb128 0xb
 2053 024f 27       		.uleb128 0x27
 2054 0250 19       		.uleb128 0x19
 2055 0251 11       		.uleb128 0x11
 2056 0252 01       		.uleb128 0x1
 2057 0253 12       		.uleb128 0x12
 2058 0254 06       		.uleb128 0x6
 2059 0255 40       		.uleb128 0x40
 2060 0256 18       		.uleb128 0x18
 2061 0257 9742     		.uleb128 0x2117
 2062 0259 19       		.uleb128 0x19
 2063 025a 01       		.uleb128 0x1
 2064 025b 13       		.uleb128 0x13
 2065 025c 00       		.byte	0
 2066 025d 00       		.byte	0
 2067 025e 27       		.uleb128 0x27
 2068 025f 21       		.uleb128 0x21
 2069 0260 00       		.byte	0
 2070 0261 00       		.byte	0
 2071 0262 00       		.byte	0
 2072 0263 28       		.uleb128 0x28
 2073 0264 2E       		.uleb128 0x2e
 2074 0265 01       		.byte	0x1
 2075 0266 03       		.uleb128 0x3
 2076 0267 0E       		.uleb128 0xe
 2077 0268 3A       		.uleb128 0x3a
 2078 0269 0B       		.uleb128 0xb
 2079 026a 3B       		.uleb128 0x3b
 2080 026b 05       		.uleb128 0x5
 2081 026c 39       		.uleb128 0x39
 2082 026d 0B       		.uleb128 0xb
 2083 026e 27       		.uleb128 0x27
 2084 026f 19       		.uleb128 0x19
 2085 0270 20       		.uleb128 0x20
 2086 0271 0B       		.uleb128 0xb
 2087 0272 01       		.uleb128 0x1
 2088 0273 13       		.uleb128 0x13
 2089 0274 00       		.byte	0
 2090 0275 00       		.byte	0
 2091 0276 29       		.uleb128 0x29
 2092 0277 2E       		.uleb128 0x2e
 2093 0278 00       		.byte	0
 2094 0279 03       		.uleb128 0x3
 2095 027a 0E       		.uleb128 0xe
 2096 027b 3A       		.uleb128 0x3a
 2097 027c 0B       		.uleb128 0xb
 2098 027d 3B       		.uleb128 0x3b
 2099 027e 05       		.uleb128 0x5
 2100 027f 39       		.uleb128 0x39
 2101 0280 0B       		.uleb128 0xb
 2102 0281 27       		.uleb128 0x27
 2103 0282 19       		.uleb128 0x19
 2104 0283 20       		.uleb128 0x20
 2105 0284 0B       		.uleb128 0xb
 2106 0285 00       		.byte	0
 2107 0286 00       		.byte	0
 2108 0287 2A       		.uleb128 0x2a
ARM GAS  /tmp/ccNnCpkG.s 			page 38


 2109 0288 05       		.uleb128 0x5
 2110 0289 00       		.byte	0
 2111 028a 03       		.uleb128 0x3
 2112 028b 0E       		.uleb128 0xe
 2113 028c 3A       		.uleb128 0x3a
 2114 028d 0B       		.uleb128 0xb
 2115 028e 3B       		.uleb128 0x3b
 2116 028f 05       		.uleb128 0x5
 2117 0290 39       		.uleb128 0x39
 2118 0291 0B       		.uleb128 0xb
 2119 0292 49       		.uleb128 0x49
 2120 0293 13       		.uleb128 0x13
 2121 0294 00       		.byte	0
 2122 0295 00       		.byte	0
 2123 0296 2B       		.uleb128 0x2b
 2124 0297 2E       		.uleb128 0x2e
 2125 0298 00       		.byte	0
 2126 0299 3F       		.uleb128 0x3f
 2127 029a 19       		.uleb128 0x19
 2128 029b 3C       		.uleb128 0x3c
 2129 029c 19       		.uleb128 0x19
 2130 029d 6E       		.uleb128 0x6e
 2131 029e 0E       		.uleb128 0xe
 2132 029f 03       		.uleb128 0x3
 2133 02a0 0E       		.uleb128 0xe
 2134 02a1 3A       		.uleb128 0x3a
 2135 02a2 0B       		.uleb128 0xb
 2136 02a3 3B       		.uleb128 0x3b
 2137 02a4 0B       		.uleb128 0xb
 2138 02a5 39       		.uleb128 0x39
 2139 02a6 0B       		.uleb128 0xb
 2140 02a7 00       		.byte	0
 2141 02a8 00       		.byte	0
 2142 02a9 00       		.byte	0
 2143              		.section	.debug_loc,"",%progbits
 2144              	.Ldebug_loc0:
 2145              	.LVUS4:
 2146 0000 00       		.uleb128 0
 2147 0001 00       		.uleb128 .LVU52
 2148 0002 00       		.uleb128 .LVU52
 2149 0003 00       		.uleb128 0
 2150              	.LLST4:
 2151 0004 00000000 		.4byte	.LVL9
 2152 0008 11000000 		.4byte	.LVL11-1
 2153 000c 0100     		.2byte	0x1
 2154 000e 50       		.byte	0x50
 2155 000f 11000000 		.4byte	.LVL11-1
 2156 0013 30000000 		.4byte	.LFE303
 2157 0017 0200     		.2byte	0x2
 2158 0019 91       		.byte	0x91
 2159 001a 74       		.sleb128 -12
 2160 001b 00000000 		.4byte	0
 2161 001f 00000000 		.4byte	0
 2162              	.LVUS5:
 2163 0023 00       		.uleb128 0
 2164 0024 00       		.uleb128 .LVU52
 2165 0025 00       		.uleb128 .LVU52
ARM GAS  /tmp/ccNnCpkG.s 			page 39


 2166 0026 00       		.uleb128 0
 2167              	.LLST5:
 2168 0027 00000000 		.4byte	.LVL9
 2169 002b 11000000 		.4byte	.LVL11-1
 2170 002f 0100     		.2byte	0x1
 2171 0031 51       		.byte	0x51
 2172 0032 11000000 		.4byte	.LVL11-1
 2173 0036 30000000 		.4byte	.LFE303
 2174 003a 0200     		.2byte	0x2
 2175 003c 91       		.byte	0x91
 2176 003d 70       		.sleb128 -16
 2177 003e 00000000 		.4byte	0
 2178 0042 00000000 		.4byte	0
 2179              	.LVUS6:
 2180 0046 00       		.uleb128 0
 2181 0047 00       		.uleb128 .LVU52
 2182 0048 00       		.uleb128 .LVU52
 2183 0049 00       		.uleb128 .LVU55
 2184 004a 00       		.uleb128 .LVU55
 2185 004b 00       		.uleb128 0
 2186              	.LLST6:
 2187 004c 00000000 		.4byte	.LVL9
 2188 0050 11000000 		.4byte	.LVL11-1
 2189 0054 0100     		.2byte	0x1
 2190 0056 52       		.byte	0x52
 2191 0057 11000000 		.4byte	.LVL11-1
 2192 005b 1E000000 		.4byte	.LVL13
 2193 005f 0200     		.2byte	0x2
 2194 0061 91       		.byte	0x91
 2195 0062 6C       		.sleb128 -20
 2196 0063 1E000000 		.4byte	.LVL13
 2197 0067 30000000 		.4byte	.LFE303
 2198 006b 0400     		.2byte	0x4
 2199 006d F3       		.byte	0xf3
 2200 006e 01       		.uleb128 0x1
 2201 006f 52       		.byte	0x52
 2202 0070 9F       		.byte	0x9f
 2203 0071 00000000 		.4byte	0
 2204 0075 00000000 		.4byte	0
 2205              	.LVUS7:
 2206 0079 00       		.uleb128 .LVU55
 2207 007a 00       		.uleb128 .LVU59
 2208 007b 00       		.uleb128 .LVU59
 2209 007c 00       		.uleb128 0
 2210              	.LLST7:
 2211 007d 1E000000 		.4byte	.LVL13
 2212 0081 21000000 		.4byte	.LVL14-1
 2213 0085 0100     		.2byte	0x1
 2214 0087 50       		.byte	0x50
 2215 0088 21000000 		.4byte	.LVL14-1
 2216 008c 30000000 		.4byte	.LFE303
 2217 0090 0200     		.2byte	0x2
 2218 0092 91       		.byte	0x91
 2219 0093 6C       		.sleb128 -20
 2220 0094 00000000 		.4byte	0
 2221 0098 00000000 		.4byte	0
 2222              	.LVUS8:
ARM GAS  /tmp/ccNnCpkG.s 			page 40


 2223 009c 07       		.uleb128 .LVU44
 2224 009d 00       		.uleb128 .LVU50
 2225              	.LLST8:
 2226 009e 00000000 		.4byte	.LVL9
 2227 00a2 0E000000 		.4byte	.LVL10
 2228 00a6 0300     		.2byte	0x3
 2229 00a8 08       		.byte	0x8
 2230 00a9 20       		.byte	0x20
 2231 00aa 9F       		.byte	0x9f
 2232 00ab 00000000 		.4byte	0
 2233 00af 00000000 		.4byte	0
 2234              	.LVUS9:
 2235 00b3 06       		.uleb128 .LVU65
 2236 00b4 00       		.uleb128 .LVU67
 2237              	.LLST9:
 2238 00b5 22000000 		.4byte	.LVL14
 2239 00b9 28000000 		.4byte	.LVL15
 2240 00bd 0200     		.2byte	0x2
 2241 00bf 30       		.byte	0x30
 2242 00c0 9F       		.byte	0x9f
 2243 00c1 00000000 		.4byte	0
 2244 00c5 00000000 		.4byte	0
 2245              	.LVUS0:
 2246 00c9 00       		.uleb128 0
 2247 00ca 00       		.uleb128 .LVU20
 2248 00cb 00       		.uleb128 .LVU20
 2249 00cc 00       		.uleb128 .LVU23
 2250 00cd 00       		.uleb128 .LVU23
 2251 00ce 00       		.uleb128 .LVU28
 2252 00cf 00       		.uleb128 .LVU28
 2253 00d0 00       		.uleb128 0
 2254              	.LLST0:
 2255 00d1 00000000 		.4byte	.LVL0
 2256 00d5 0C000000 		.4byte	.LVL1
 2257 00d9 0100     		.2byte	0x1
 2258 00db 50       		.byte	0x50
 2259 00dc 0C000000 		.4byte	.LVL1
 2260 00e0 10000000 		.4byte	.LVL3
 2261 00e4 0600     		.2byte	0x6
 2262 00e6 73       		.byte	0x73
 2263 00e7 00       		.sleb128 0
 2264 00e8 76       		.byte	0x76
 2265 00e9 00       		.sleb128 0
 2266 00ea 1A       		.byte	0x1a
 2267 00eb 9F       		.byte	0x9f
 2268 00ec 10000000 		.4byte	.LVL3
 2269 00f0 1A000000 		.4byte	.LVL5
 2270 00f4 0100     		.2byte	0x1
 2271 00f6 53       		.byte	0x53
 2272 00f7 1A000000 		.4byte	.LVL5
 2273 00fb 30000000 		.4byte	.LFE302
 2274 00ff 0C00     		.2byte	0xc
 2275 0101 F3       		.byte	0xf3
 2276 0102 01       		.uleb128 0x1
 2277 0103 50       		.byte	0x50
 2278 0104 71       		.byte	0x71
 2279 0105 00       		.sleb128 0
ARM GAS  /tmp/ccNnCpkG.s 			page 41


 2280 0106 22       		.byte	0x22
 2281 0107 31       		.byte	0x31
 2282 0108 1C       		.byte	0x1c
 2283 0109 76       		.byte	0x76
 2284 010a 00       		.sleb128 0
 2285 010b 1A       		.byte	0x1a
 2286 010c 9F       		.byte	0x9f
 2287 010d 00000000 		.4byte	0
 2288 0111 00000000 		.4byte	0
 2289              	.LVUS1:
 2290 0115 00       		.uleb128 0
 2291 0116 00       		.uleb128 .LVU22
 2292 0117 00       		.uleb128 .LVU22
 2293 0118 00       		.uleb128 0
 2294              	.LLST1:
 2295 0119 00000000 		.4byte	.LVL0
 2296 011d 0E000000 		.4byte	.LVL2
 2297 0121 0100     		.2byte	0x1
 2298 0123 52       		.byte	0x52
 2299 0124 0E000000 		.4byte	.LVL2
 2300 0128 30000000 		.4byte	.LFE302
 2301 012c 0400     		.2byte	0x4
 2302 012e F3       		.byte	0xf3
 2303 012f 01       		.uleb128 0x1
 2304 0130 52       		.byte	0x52
 2305 0131 9F       		.byte	0x9f
 2306 0132 00000000 		.4byte	0
 2307 0136 00000000 		.4byte	0
 2308              	.LVUS2:
 2309 013a 00       		.uleb128 .LVU26
 2310 013b 01       		.uleb128 .LVU34
 2311 013c 01       		.uleb128 .LVU34
 2312 013d 00       		.uleb128 .LVU35
 2313 013e 00       		.uleb128 .LVU35
 2314 013f 00       		.uleb128 .LVU36
 2315 0140 00       		.uleb128 .LVU36
 2316 0141 00       		.uleb128 0
 2317              	.LLST2:
 2318 0142 18000000 		.4byte	.LVL4
 2319 0146 24000000 		.4byte	.LVL6
 2320 014a 0100     		.2byte	0x1
 2321 014c 50       		.byte	0x50
 2322 014d 24000000 		.4byte	.LVL6
 2323 0151 26000000 		.4byte	.LVL7
 2324 0155 0F00     		.2byte	0xf
 2325 0157 75       		.byte	0x75
 2326 0158 00       		.sleb128 0
 2327 0159 71       		.byte	0x71
 2328 015a 00       		.sleb128 0
 2329 015b 22       		.byte	0x22
 2330 015c F3       		.byte	0xf3
 2331 015d 01       		.uleb128 0x1
 2332 015e 52       		.byte	0x52
 2333 015f 22       		.byte	0x22
 2334 0160 31       		.byte	0x31
 2335 0161 1C       		.byte	0x1c
 2336 0162 76       		.byte	0x76
ARM GAS  /tmp/ccNnCpkG.s 			page 42


 2337 0163 00       		.sleb128 0
 2338 0164 1A       		.byte	0x1a
 2339 0165 9F       		.byte	0x9f
 2340 0166 26000000 		.4byte	.LVL7
 2341 016a 28000000 		.4byte	.LVL8
 2342 016e 0100     		.2byte	0x1
 2343 0170 50       		.byte	0x50
 2344 0171 28000000 		.4byte	.LVL8
 2345 0175 30000000 		.4byte	.LFE302
 2346 0179 0F00     		.2byte	0xf
 2347 017b 75       		.byte	0x75
 2348 017c 00       		.sleb128 0
 2349 017d 71       		.byte	0x71
 2350 017e 00       		.sleb128 0
 2351 017f 22       		.byte	0x22
 2352 0180 F3       		.byte	0xf3
 2353 0181 01       		.uleb128 0x1
 2354 0182 52       		.byte	0x52
 2355 0183 22       		.byte	0x22
 2356 0184 31       		.byte	0x31
 2357 0185 1C       		.byte	0x1c
 2358 0186 76       		.byte	0x76
 2359 0187 00       		.sleb128 0
 2360 0188 1A       		.byte	0x1a
 2361 0189 9F       		.byte	0x9f
 2362 018a 00000000 		.4byte	0
 2363 018e 00000000 		.4byte	0
 2364              	.LVUS3:
 2365 0192 00       		.uleb128 .LVU28
 2366 0193 00       		.uleb128 0
 2367              	.LLST3:
 2368 0194 1A000000 		.4byte	.LVL5
 2369 0198 30000000 		.4byte	.LFE302
 2370 019c 0100     		.2byte	0x1
 2371 019e 53       		.byte	0x53
 2372 019f 00000000 		.4byte	0
 2373 01a3 00000000 		.4byte	0
 2374              		.section	.debug_aranges,"",%progbits
 2375 0000 34000000 		.4byte	0x34
 2376 0004 0200     		.2byte	0x2
 2377 0006 00000000 		.4byte	.Ldebug_info0
 2378 000a 04       		.byte	0x4
 2379 000b 00       		.byte	0
 2380 000c 0000     		.2byte	0
 2381 000e 0000     		.2byte	0
 2382 0010 00000000 		.4byte	.LFB301
 2383 0014 18000000 		.4byte	.LFE301-.LFB301
 2384 0018 00000000 		.4byte	.LFB302
 2385 001c 30000000 		.4byte	.LFE302-.LFB302
 2386 0020 00000000 		.4byte	.LFB303
 2387 0024 30000000 		.4byte	.LFE303-.LFB303
 2388 0028 00000000 		.4byte	.LFB304
 2389 002c 10000000 		.4byte	.LFE304-.LFB304
 2390 0030 00000000 		.4byte	0
 2391 0034 00000000 		.4byte	0
 2392              		.section	.debug_ranges,"",%progbits
 2393              	.Ldebug_ranges0:
ARM GAS  /tmp/ccNnCpkG.s 			page 43


 2394 0000 00000000 		.4byte	.LBB24
 2395 0004 00000000 		.4byte	.LBE24
 2396 0008 00000000 		.4byte	.LBB39
 2397 000c 00000000 		.4byte	.LBE39
 2398 0010 02000000 		.4byte	.LBB40
 2399 0014 04000000 		.4byte	.LBE40
 2400 0018 0A000000 		.4byte	.LBB41
 2401 001c 12000000 		.4byte	.LBE41
 2402 0020 00000000 		.4byte	0
 2403 0024 00000000 		.4byte	0
 2404 0028 00000000 		.4byte	.LBB26
 2405 002c 00000000 		.4byte	.LBE26
 2406 0030 00000000 		.4byte	.LBB33
 2407 0034 00000000 		.4byte	.LBE33
 2408 0038 02000000 		.4byte	.LBB34
 2409 003c 04000000 		.4byte	.LBE34
 2410 0040 0A000000 		.4byte	.LBB35
 2411 0044 0E000000 		.4byte	.LBE35
 2412 0048 00000000 		.4byte	0
 2413 004c 00000000 		.4byte	0
 2414 0050 1E000000 		.4byte	.LBB42
 2415 0054 22000000 		.4byte	.LBE42
 2416 0058 22000000 		.4byte	.LBB49
 2417 005c 28000000 		.4byte	.LBE49
 2418 0060 00000000 		.4byte	0
 2419 0064 00000000 		.4byte	0
 2420 0068 22000000 		.4byte	.LBB44
 2421 006c 22000000 		.4byte	.LBE44
 2422 0070 22000000 		.4byte	.LBB47
 2423 0074 28000000 		.4byte	.LBE47
 2424 0078 00000000 		.4byte	0
 2425 007c 00000000 		.4byte	0
 2426 0080 00000000 		.4byte	.LFB301
 2427 0084 18000000 		.4byte	.LFE301
 2428 0088 00000000 		.4byte	.LFB302
 2429 008c 30000000 		.4byte	.LFE302
 2430 0090 00000000 		.4byte	.LFB303
 2431 0094 30000000 		.4byte	.LFE303
 2432 0098 00000000 		.4byte	.LFB304
 2433 009c 10000000 		.4byte	.LFE304
 2434 00a0 00000000 		.4byte	0
 2435 00a4 00000000 		.4byte	0
 2436              		.section	.debug_line,"",%progbits
 2437              	.Ldebug_line0:
 2438 0000 33040000 		.section	.debug_str,"MS",%progbits,1
 2438      0300D002 
 2438      00000201 
 2438      FB0E0D00 
 2438      01010101 
 2439              	.LASF4:
 2440 0000 73697A65 		.ascii	"size_t\000"
 2440      5F7400
 2441              	.LASF63:
 2442 0007 7264796D 		.ascii	"rdymsg\000"
 2442      736700
 2443              	.LASF97:
 2444 000e 2E2E2F2E 		.ascii	"../../modules/ChibiOS/os/oslib/src/chmemcore.c\000"
ARM GAS  /tmp/ccNnCpkG.s 			page 44


 2444      2E2F6D6F 
 2444      64756C65 
 2444      732F4368 
 2444      6962694F 
 2445              	.LASF18:
 2446 003d 75696E74 		.ascii	"uint64_t\000"
 2446      36345F74 
 2446      00
 2447              	.LASF5:
 2448 0046 5F5F7569 		.ascii	"__uint8_t\000"
 2448      6E74385F 
 2448      7400
 2449              	.LASF53:
 2450 0050 70726576 		.ascii	"prev\000"
 2450      00
 2451              	.LASF57:
 2452 0055 706F7274 		.ascii	"port_intctx\000"
 2452      5F696E74 
 2452      63747800 
 2453              	.LASF52:
 2454 0061 63685F74 		.ascii	"ch_threads_queue\000"
 2454      68726561 
 2454      64735F71 
 2454      75657565 
 2454      00
 2455              	.LASF91:
 2456 0072 706F7274 		.ascii	"port_lock\000"
 2456      5F6C6F63 
 2456      6B00
 2457              	.LASF59:
 2458 007c 776F7273 		.ascii	"worst\000"
 2458      7400
 2459              	.LASF62:
 2460 0082 74696D65 		.ascii	"time_measurement_t\000"
 2460      5F6D6561 
 2460      73757265 
 2460      6D656E74 
 2460      5F7400
 2461              	.LASF14:
 2462 0095 6C6F6E67 		.ascii	"long long unsigned int\000"
 2462      206C6F6E 
 2462      6720756E 
 2462      7369676E 
 2462      65642069 
 2463              	.LASF64:
 2464 00ac 65786974 		.ascii	"exitcode\000"
 2464      636F6465 
 2464      00
 2465              	.LASF67:
 2466 00b5 73656E74 		.ascii	"sentmsg\000"
 2466      6D736700 
 2467              	.LASF50:
 2468 00bd 6E657874 		.ascii	"next\000"
 2468      00
 2469              	.LASF20:
 2470 00c2 72747469 		.ascii	"rttime_t\000"
 2470      6D655F74 
ARM GAS  /tmp/ccNnCpkG.s 			page 45


 2470      00
 2471              	.LASF1:
 2472 00cb 6C6F6E67 		.ascii	"long long int\000"
 2472      206C6F6E 
 2472      6720696E 
 2472      7400
 2473              	.LASF3:
 2474 00d9 7369676E 		.ascii	"signed char\000"
 2474      65642063 
 2474      68617200 
 2475              	.LASF101:
 2476 00e5 62617365 		.ascii	"basePri\000"
 2476      50726900 
 2477              	.LASF90:
 2478 00ed 706F7274 		.ascii	"port_unlock\000"
 2478      5F756E6C 
 2478      6F636B00 
 2479              	.LASF40:
 2480 00f9 6D736771 		.ascii	"msgqueue\000"
 2480      75657565 
 2480      00
 2481              	.LASF36:
 2482 0102 73746174 		.ascii	"state\000"
 2482      6500
 2483              	.LASF10:
 2484 0108 6C6F6E67 		.ascii	"long int\000"
 2484      20696E74 
 2484      00
 2485              	.LASF22:
 2486 0111 74737461 		.ascii	"tstate_t\000"
 2486      74655F74 
 2486      00
 2487              	.LASF84:
 2488 011a 6368436F 		.ascii	"chCoreAllocAlignedWithOffset\000"
 2488      7265416C 
 2488      6C6F6341 
 2488      6C69676E 
 2488      65645769 
 2489              	.LASF45:
 2490 0137 73746174 		.ascii	"stats\000"
 2490      7300
 2491              	.LASF11:
 2492 013d 5F5F7569 		.ascii	"__uint32_t\000"
 2492      6E743332 
 2492      5F7400
 2493              	.LASF54:
 2494 0148 72656761 		.ascii	"regarm_t\000"
 2494      726D5F74 
 2494      00
 2495              	.LASF39:
 2496 0151 77616974 		.ascii	"waiting\000"
 2496      696E6700 
 2497              	.LASF75:
 2498 0159 6D757465 		.ascii	"mutex_t\000"
 2498      785F7400 
 2499              	.LASF81:
 2500 0161 616C6967 		.ascii	"align\000"
ARM GAS  /tmp/ccNnCpkG.s 			page 46


 2500      6E00
 2501              	.LASF27:
 2502 0167 636E745F 		.ascii	"cnt_t\000"
 2502      7400
 2503              	.LASF0:
 2504 016d 756E7369 		.ascii	"unsigned int\000"
 2504      676E6564 
 2504      20696E74 
 2504      00
 2505              	.LASF68:
 2506 017a 77747365 		.ascii	"wtsemp\000"
 2506      6D7000
 2507              	.LASF66:
 2508 0181 77747472 		.ascii	"wttrp\000"
 2508      7000
 2509              	.LASF34:
 2510 0187 6E616D65 		.ascii	"name\000"
 2510      00
 2511              	.LASF30:
 2512 018c 71756575 		.ascii	"queue\000"
 2512      6500
 2513              	.LASF44:
 2514 0192 6D706F6F 		.ascii	"mpool\000"
 2514      6C00
 2515              	.LASF80:
 2516 0198 73697A65 		.ascii	"size\000"
 2516      00
 2517              	.LASF8:
 2518 019d 73686F72 		.ascii	"short unsigned int\000"
 2518      7420756E 
 2518      7369676E 
 2518      65642069 
 2518      6E7400
 2519              	.LASF48:
 2520 01b0 63685F74 		.ascii	"ch_thread\000"
 2520      68726561 
 2520      6400
 2521              	.LASF25:
 2522 01ba 6D73675F 		.ascii	"msg_t\000"
 2522      7400
 2523              	.LASF60:
 2524 01c0 6C617374 		.ascii	"last\000"
 2524      00
 2525              	.LASF28:
 2526 01c5 75636E74 		.ascii	"ucnt_t\000"
 2526      5F7400
 2527              	.LASF41:
 2528 01cc 6570656E 		.ascii	"epending\000"
 2528      64696E67 
 2528      00
 2529              	.LASF21:
 2530 01d5 746D6F64 		.ascii	"tmode_t\000"
 2530      655F7400 
 2531              	.LASF26:
 2532 01dd 6576656E 		.ascii	"eventmask_t\000"
 2532      746D6173 
 2532      6B5F7400 
ARM GAS  /tmp/ccNnCpkG.s 			page 47


 2533              	.LASF78:
 2534 01e9 656E646D 		.ascii	"endmem\000"
 2534      656D00
 2535              	.LASF55:
 2536 01f0 73746B61 		.ascii	"stkalign_t\000"
 2536      6C69676E 
 2536      5F7400
 2537              	.LASF32:
 2538 01fb 6E657765 		.ascii	"newer\000"
 2538      7200
 2539              	.LASF43:
 2540 0201 7265616C 		.ascii	"realprio\000"
 2540      7072696F 
 2540      00
 2541              	.LASF95:
 2542 020a 5F737461 		.ascii	"_stats_stop_measure_crit_thd\000"
 2542      74735F73 
 2542      746F705F 
 2542      6D656173 
 2542      7572655F 
 2543              	.LASF19:
 2544 0227 7274636E 		.ascii	"rtcnt_t\000"
 2544      745F7400 
 2545              	.LASF46:
 2546 022f 74687265 		.ascii	"thread_reference_t\000"
 2546      61645F72 
 2546      65666572 
 2546      656E6365 
 2546      5F7400
 2547              	.LASF83:
 2548 0242 63685F6D 		.ascii	"ch_memcore\000"
 2548      656D636F 
 2548      726500
 2549              	.LASF2:
 2550 024d 6C6F6E67 		.ascii	"long double\000"
 2550      20646F75 
 2550      626C6500 
 2551              	.LASF56:
 2552 0259 706F7274 		.ascii	"port_context\000"
 2552      5F636F6E 
 2552      74657874 
 2552      00
 2553              	.LASF31:
 2554 0266 7072696F 		.ascii	"prio\000"
 2554      00
 2555              	.LASF13:
 2556 026b 5F5F7569 		.ascii	"__uint64_t\000"
 2556      6E743634 
 2556      5F7400
 2557              	.LASF79:
 2558 0276 6D656D63 		.ascii	"memcore_t\000"
 2558      6F72655F 
 2558      7400
 2559              	.LASF61:
 2560 0280 63756D75 		.ascii	"cumulative\000"
 2560      6C617469 
 2560      766500
ARM GAS  /tmp/ccNnCpkG.s 			page 48


 2561              	.LASF23:
 2562 028b 74726566 		.ascii	"trefs_t\000"
 2562      735F7400 
 2563              	.LASF38:
 2564 0293 72656673 		.ascii	"refs\000"
 2564      00
 2565              	.LASF24:
 2566 0298 74707269 		.ascii	"tprio_t\000"
 2566      6F5F7400 
 2567              	.LASF85:
 2568 02a0 6368436F 		.ascii	"chCoreAllocAlignedWithOffsetI\000"
 2568      7265416C 
 2568      6C6F6341 
 2568      6C69676E 
 2568      65645769 
 2569              	.LASF76:
 2570 02be 5F426F6F 		.ascii	"_Bool\000"
 2570      6C00
 2571              	.LASF16:
 2572 02c4 696E7433 		.ascii	"int32_t\000"
 2572      325F7400 
 2573              	.LASF6:
 2574 02cc 756E7369 		.ascii	"unsigned char\000"
 2574      676E6564 
 2574      20636861 
 2574      7200
 2575              	.LASF100:
 2576 02da 5F636F72 		.ascii	"_core_init\000"
 2576      655F696E 
 2576      697400
 2577              	.LASF7:
 2578 02e5 73686F72 		.ascii	"short int\000"
 2578      7420696E 
 2578      7400
 2579              	.LASF87:
 2580 02ef 5F5F6865 		.ascii	"__heap_end__\000"
 2580      61705F65 
 2580      6E645F5F 
 2580      00
 2581              	.LASF70:
 2582 02fc 65776D61 		.ascii	"ewmask\000"
 2582      736B00
 2583              	.LASF88:
 2584 0303 5F5F6675 		.ascii	"__func__\000"
 2584      6E635F5F 
 2584      00
 2585              	.LASF89:
 2586 030c 63685379 		.ascii	"chSysLock\000"
 2586      734C6F63 
 2586      6B00
 2587              	.LASF35:
 2588 0316 77616261 		.ascii	"wabase\000"
 2588      736500
 2589              	.LASF71:
 2590 031d 63685F73 		.ascii	"ch_semaphore\000"
 2590      656D6170 
 2590      686F7265 
ARM GAS  /tmp/ccNnCpkG.s 			page 49


 2590      00
 2591              	.LASF99:
 2592 032a 6368436F 		.ascii	"chCoreGetStatusX\000"
 2592      72654765 
 2592      74537461 
 2592      74757358 
 2592      00
 2593              	.LASF17:
 2594 033b 75696E74 		.ascii	"uint32_t\000"
 2594      33325F74 
 2594      00
 2595              	.LASF69:
 2596 0344 77746D74 		.ascii	"wtmtxp\000"
 2596      787000
 2597              	.LASF49:
 2598 034b 63685F74 		.ascii	"ch_threads_list\000"
 2598      68726561 
 2598      64735F6C 
 2598      69737400 
 2599              	.LASF73:
 2600 035b 6F776E65 		.ascii	"owner\000"
 2600      7200
 2601              	.LASF12:
 2602 0361 6C6F6E67 		.ascii	"long unsigned int\000"
 2602      20756E73 
 2602      69676E65 
 2602      6420696E 
 2602      7400
 2603              	.LASF98:
 2604 0373 2F686F6D 		.ascii	"/home/mahathi/mathur407_payload2/4.0.7/build/CUAVv5"
 2604      652F6D61 
 2604      68617468 
 2604      692F6D61 
 2604      74687572 
 2605 03a6 00       		.ascii	"\000"
 2606              	.LASF74:
 2607 03a7 63686172 		.ascii	"char\000"
 2607      00
 2608              	.LASF33:
 2609 03ac 6F6C6465 		.ascii	"older\000"
 2609      7200
 2610              	.LASF29:
 2611 03b2 74687265 		.ascii	"thread_t\000"
 2611      61645F74 
 2611      00
 2612              	.LASF58:
 2613 03bb 62657374 		.ascii	"best\000"
 2613      00
 2614              	.LASF9:
 2615 03c0 5F5F696E 		.ascii	"__int32_t\000"
 2615      7433325F 
 2615      7400
 2616              	.LASF93:
 2617 03ca 5F5F7365 		.ascii	"__set_BASEPRI\000"
 2617      745F4241 
 2617      53455052 
 2617      4900
ARM GAS  /tmp/ccNnCpkG.s 			page 50


 2618              	.LASF82:
 2619 03d8 6F666673 		.ascii	"offset\000"
 2619      657400
 2620              	.LASF86:
 2621 03df 5F5F6865 		.ascii	"__heap_base__\000"
 2621      61705F62 
 2621      6173655F 
 2621      5F00
 2622              	.LASF51:
 2623 03ed 74687265 		.ascii	"threads_queue_t\000"
 2623      6164735F 
 2623      71756575 
 2623      655F7400 
 2624              	.LASF72:
 2625 03fd 63685F6D 		.ascii	"ch_mutex\000"
 2625      75746578 
 2625      00
 2626              	.LASF96:
 2627 0406 474E5520 		.ascii	"GNU C17 10.2.1 20201103 (release) -mcpu=cortex-m7 -"
 2627      43313720 
 2627      31302E32 
 2627      2E312032 
 2627      30323031 
 2628 0439 6D666C6F 		.ascii	"mfloat-abi=hard -mfpu=fpv4-sp-d16 -mno-thumb-interw"
 2628      61742D61 
 2628      62693D68 
 2628      61726420 
 2628      2D6D6670 
 2629 046c 6F726B20 		.ascii	"ork -mthumb -march=armv7e-m+fp -g -Os -fomit-frame-"
 2629      2D6D7468 
 2629      756D6220 
 2629      2D6D6172 
 2629      63683D61 
 2630 049f 706F696E 		.ascii	"pointer -falign-functions=16 -ffunction-sections -f"
 2630      74657220 
 2630      2D66616C 
 2630      69676E2D 
 2630      66756E63 
 2631 04d2 64617461 		.ascii	"data-sections -fno-common -fsingle-precision-consta"
 2631      2D736563 
 2631      74696F6E 
 2631      73202D66 
 2631      6E6F2D63 
 2632 0505 6E7400   		.ascii	"nt\000"
 2633              	.LASF15:
 2634 0508 75696E74 		.ascii	"uint8_t\000"
 2634      385F7400 
 2635              	.LASF37:
 2636 0510 666C6167 		.ascii	"flags\000"
 2636      7300
 2637              	.LASF94:
 2638 0516 5F737461 		.ascii	"_stats_start_measure_crit_thd\000"
 2638      74735F73 
 2638      74617274 
 2638      5F6D6561 
 2638      73757265 
 2639              	.LASF65:
ARM GAS  /tmp/ccNnCpkG.s 			page 51


 2640 0534 77746F62 		.ascii	"wtobjp\000"
 2640      6A7000
 2641              	.LASF47:
 2642 053b 74687265 		.ascii	"threads_list_t\000"
 2642      6164735F 
 2642      6C697374 
 2642      5F7400
 2643              	.LASF92:
 2644 054a 63685379 		.ascii	"chSysUnlock\000"
 2644      73556E6C 
 2644      6F636B00 
 2645              	.LASF42:
 2646 0556 6D74786C 		.ascii	"mtxlist\000"
 2646      69737400 
 2647              	.LASF77:
 2648 055e 6E657874 		.ascii	"nextmem\000"
 2648      6D656D00 
 2649              		.ident	"GCC: (GNU Arm Embedded Toolchain 10-2020-q4-major) 10.2.1 20201103 (release)"
ARM GAS  /tmp/ccNnCpkG.s 			page 52


DEFINED SYMBOLS
                            *ABS*:0000000000000000 chmemcore.c
     /tmp/ccNnCpkG.s:18     .text._core_init:0000000000000000 $t
     /tmp/ccNnCpkG.s:26     .text._core_init:0000000000000000 _core_init
     /tmp/ccNnCpkG.s:50     .text._core_init:000000000000000c $d
     /tmp/ccNnCpkG.s:57     .text.chCoreAllocAlignedWithOffsetI:0000000000000000 $t
     /tmp/ccNnCpkG.s:64     .text.chCoreAllocAlignedWithOffsetI:0000000000000000 chCoreAllocAlignedWithOffsetI
     /tmp/ccNnCpkG.s:138    .text.chCoreAllocAlignedWithOffsetI:000000000000002c $d
     /tmp/ccNnCpkG.s:143    .text.chCoreAllocAlignedWithOffset:0000000000000000 $t
     /tmp/ccNnCpkG.s:150    .text.chCoreAllocAlignedWithOffset:0000000000000000 chCoreAllocAlignedWithOffset
     /tmp/ccNnCpkG.s:291    .text.chCoreGetStatusX:0000000000000000 $t
     /tmp/ccNnCpkG.s:298    .text.chCoreGetStatusX:0000000000000000 chCoreGetStatusX
     /tmp/ccNnCpkG.s:316    .text.chCoreGetStatusX:000000000000000c $d
     /tmp/ccNnCpkG.s:326    .bss.ch_memcore:0000000000000000 ch_memcore
     /tmp/ccNnCpkG.s:322    .bss.ch_memcore:0000000000000000 $d

UNDEFINED SYMBOLS
__heap_base__
__heap_end__
_stats_start_measure_crit_thd
_stats_stop_measure_crit_thd
