ARM GAS  /tmp/ccNnCpkG.s 			page 1


   1              		.cpu cortex-m7
   2              		.eabi_attribute 27, 1
   3              		.eabi_attribute 28, 1
   4              		.eabi_attribute 20, 1
   5              		.eabi_attribute 21, 1
   6              		.eabi_attribute 23, 3
   7              		.eabi_attribute 24, 1
   8              		.eabi_attribute 25, 1
   9              		.eabi_attribute 26, 1
  10              		.eabi_attribute 30, 4
  11              		.eabi_attribute 34, 1
  12              		.eabi_attribute 18, 4
  13              		.file	"chmemcore.c"
  14              		.text
  15              	.Ltext0:
  16              		.cfi_sections	.debug_frame
  17              		.section	.text._core_init,"ax",%progbits
  18              		.align	1
  19              		.global	_core_init
  20              		.arch armv7e-m
  21              		.syntax unified
  22              		.thumb
  23              		.thumb_func
  24              		.fpu fpv4-sp-d16
  25              		.type	_core_init, %function
  26              	_core_init:
  27              	.LFB301:
  28              		.file 1 "../../modules/ChibiOS/os/oslib/src/chmemcore.c"
  29              		.loc 1 81 23 view -0
  30              		.cfi_startproc
  31              		@ args = 0, pretend = 0, frame = 0
  32              		@ frame_needed = 0, uses_anonymous_args = 0
  33              		@ link register save eliminated.
  34              		.loc 1 83 3 view .LVU1
  35              		.loc 1 84 3 view .LVU2
  36              		.loc 1 87 3 view .LVU3
  37              		.loc 1 87 22 is_stmt 0 view .LVU4
  38 0000 024B     		ldr	r3, .L2
  39 0002 034A     		ldr	r2, .L2+4
  40 0004 1A60     		str	r2, [r3]
  41              		.loc 1 88 3 is_stmt 1 view .LVU5
  42              		.loc 1 88 22 is_stmt 0 view .LVU6
  43 0006 034A     		ldr	r2, .L2+8
  44 0008 5A60     		str	r2, [r3, #4]
  45              		.loc 1 96 1 view .LVU7
  46 000a 7047     		bx	lr
  47              	.L3:
  48              		.align	2
  49              	.L2:
  50 000c 00000000 		.word	.LANCHOR0
  51 0010 00000000 		.word	__heap_base__
  52 0014 00000000 		.word	__heap_end__
  53              		.cfi_endproc
  54              	.LFE301:
  55              		.size	_core_init, .-_core_init
  56              		.section	.text.chCoreAllocAlignedWithOffsetI,"ax",%progbits
  57              		.align	1
ARM GAS  /tmp/ccNnCpkG.s 			page 2


  58              		.global	chCoreAllocAlignedWithOffsetI
  59              		.syntax unified
  60              		.thumb
  61              		.thumb_func
  62              		.fpu fpv4-sp-d16
  63              		.type	chCoreAllocAlignedWithOffsetI, %function
  64              	chCoreAllocAlignedWithOffsetI:
  65              	.LVL0:
  66              	.LFB302:
  67              		.loc 1 114 52 is_stmt 1 view -0
  68              		.cfi_startproc
  69              		@ args = 0, pretend = 0, frame = 0
  70              		@ frame_needed = 0, uses_anonymous_args = 0
  71              		.loc 1 115 3 view .LVU9
  72              		.loc 1 117 21 view .LVU10
  73              		.loc 1 118 3 view .LVU11
  74              		.loc 1 118 3 view .LVU12
  75              		.loc 1 118 3 view .LVU13
  76              		.loc 1 120 3 view .LVU14
  77              		.loc 1 114 52 is_stmt 0 view .LVU15
  78 0000 70B5     		push	{r4, r5, r6, lr}
  79              		.cfi_def_cfa_offset 16
  80              		.cfi_offset 4, -16
  81              		.cfi_offset 5, -12
  82              		.cfi_offset 6, -8
  83              		.cfi_offset 14, -4
  84              		.loc 1 121 18 view .LVU16
  85 0002 0A4C     		ldr	r4, .L8
  86              		.loc 1 120 10 view .LVU17
  87 0004 431E     		subs	r3, r0, #1
  88 0006 4E42     		rsbs	r6, r1, #0
  89              		.loc 1 121 18 view .LVU18
  90 0008 2568     		ldr	r5, [r4]
  91              		.loc 1 120 10 view .LVU19
  92 000a 0B44     		add	r3, r3, r1
  93              	.LVL1:
  94              		.loc 1 121 3 is_stmt 1 view .LVU20
  95              		.loc 1 121 18 is_stmt 0 view .LVU21
  96 000c 2A44     		add	r2, r2, r5
  97              	.LVL2:
  98              		.loc 1 120 8 view .LVU22
  99 000e 3340     		ands	r3, r3, r6
 100              	.LVL3:
 101              		.loc 1 121 18 view .LVU23
 102 0010 013A     		subs	r2, r2, #1
 103 0012 5018     		adds	r0, r2, r1
 104              		.loc 1 125 6 view .LVU24
 105 0014 6268     		ldr	r2, [r4, #4]
 106              		.loc 1 121 18 view .LVU25
 107 0016 3040     		ands	r0, r0, r6
 108              	.LVL4:
 109              		.loc 1 122 3 is_stmt 1 view .LVU26
 110              		.loc 1 122 8 is_stmt 0 view .LVU27
 111 0018 0344     		add	r3, r3, r0
 112              	.LVL5:
 113              		.loc 1 125 3 is_stmt 1 view .LVU28
 114              		.loc 1 125 6 is_stmt 0 view .LVU29
ARM GAS  /tmp/ccNnCpkG.s 			page 3


 115 001a 9A42     		cmp	r2, r3
 116 001c 03D3     		bcc	.L7
 117              		.loc 1 125 34 discriminator 1 view .LVU30
 118 001e 9D42     		cmp	r5, r3
 119 0020 01D8     		bhi	.L7
 120              		.loc 1 129 3 is_stmt 1 view .LVU31
 121              		.loc 1 129 22 is_stmt 0 view .LVU32
 122 0022 2360     		str	r3, [r4]
 123              		.loc 1 131 3 is_stmt 1 view .LVU33
 124              	.LVL6:
 125              	.L4:
 126              		.loc 1 132 1 is_stmt 0 view .LVU34
 127 0024 70BD     		pop	{r4, r5, r6, pc}
 128              	.LVL7:
 129              	.L7:
 130              		.loc 1 126 12 view .LVU35
 131 0026 0020     		movs	r0, #0
 132              	.LVL8:
 133              		.loc 1 126 12 view .LVU36
 134 0028 FCE7     		b	.L4
 135              	.L9:
 136 002a 00BF     		.align	2
 137              	.L8:
 138 002c 00000000 		.word	.LANCHOR0
 139              		.cfi_endproc
 140              	.LFE302:
 141              		.size	chCoreAllocAlignedWithOffsetI, .-chCoreAllocAlignedWithOffsetI
 142              		.section	.text.chCoreAllocAlignedWithOffset,"ax",%progbits
 143              		.align	1
 144              		.global	chCoreAllocAlignedWithOffset
 145              		.syntax unified
 146              		.thumb
 147              		.thumb_func
 148              		.fpu fpv4-sp-d16
 149              		.type	chCoreAllocAlignedWithOffset, %function
 150              	chCoreAllocAlignedWithOffset:
 151              	.LVL9:
 152              	.LFB303:
 153              		.loc 1 150 51 is_stmt 1 view -0
 154              		.cfi_startproc
 155              		@ args = 0, pretend = 0, frame = 16
 156              		@ frame_needed = 0, uses_anonymous_args = 0
 157              		.loc 1 151 3 view .LVU38
 158              		.loc 1 153 3 view .LVU39
 159              	.LBB24:
 160              	.LBI24:
 161              		.file 2 "../../modules/ChibiOS/os/rt/include/chsys.h"
 162              		.loc 2 353 20 view .LVU40
 163              	.LBB25:
 164              		.loc 2 355 3 view .LVU41
 165              	.LBB26:
 166              	.LBI26:
 167              		.file 3 "../../modules/ChibiOS/os/common/ports/ARMCMx/chcore_v7m.h"
 168              		.loc 3 602 20 view .LVU42
 169              	.LBE26:
 170              	.LBE25:
 171              	.LBE24:
ARM GAS  /tmp/ccNnCpkG.s 			page 4


 172              		.loc 3 610 3 view .LVU43
 173              	.LBB39:
 174              	.LBB36:
 175              	.LBB33:
 176              	.LBB27:
 177              	.LBI27:
 178              		.file 4 "../../modules/ChibiOS/os/common/ext/ARM/CMSIS/Core/Include/cmsis_gcc.h"
 179              		.loc 4 491 27 view .LVU44
 180              	.LBB28:
 181              		.loc 4 493 3 view .LVU45
 182              	.LBE28:
 183              	.LBE27:
 184              	.LBE33:
 185              	.LBE36:
 186              	.LBE39:
 187              		.loc 1 150 51 is_stmt 0 view .LVU46
 188 0000 1FB5     		push	{r0, r1, r2, r3, r4, lr}
 189              		.cfi_def_cfa_offset 24
 190              		.cfi_offset 14, -4
 191              	.LBB40:
 192              	.LBB37:
 193              	.LBB34:
 194              	.LBB31:
 195              	.LBB29:
 196              		.loc 4 493 3 view .LVU47
 197 0002 2023     		movs	r3, #32
 198              	.LBE29:
 199              	.LBE31:
 200              	.LBE34:
 201              	.LBE37:
 202              	.LBE40:
 203              		.loc 1 150 51 view .LVU48
 204 0004 0192     		str	r2, [sp, #4]
 205 0006 CDE90210 		strd	r1, r0, [sp, #8]
 206              	.LBB41:
 207              	.LBB38:
 208              	.LBB35:
 209              	.LBB32:
 210              	.LBB30:
 211              		.loc 4 493 3 view .LVU49
 212              		.syntax unified
 213              	@ 493 "../../modules/ChibiOS/os/common/ext/ARM/CMSIS/Core/Include/cmsis_gcc.h" 1
 214 000a 83F31188 		MSR basepri, r3
 215              	@ 0 "" 2
 216              	.LVL10:
 217              		.loc 4 493 3 view .LVU50
 218              		.thumb
 219              		.syntax unified
 220              	.LBE30:
 221              	.LBE32:
 222              	.LBE35:
 223              		.loc 2 356 3 is_stmt 1 view .LVU51
 224 000e FFF7FEFF 		bl	_stats_start_measure_crit_thd
 225              	.LVL11:
 226              		.loc 2 357 20 view .LVU52
 227              	.LBE38:
 228              	.LBE41:
ARM GAS  /tmp/ccNnCpkG.s 			page 5


 229              		.loc 1 154 3 view .LVU53
 230              		.loc 1 154 7 is_stmt 0 view .LVU54
 231 0012 0398     		ldr	r0, [sp, #12]
 232 0014 DDE90121 		ldrd	r2, r1, [sp, #4]
 233 0018 FFF7FEFF 		bl	chCoreAllocAlignedWithOffsetI
 234              	.LVL12:
 235 001c 0190     		str	r0, [sp, #4]
 236              	.LVL13:
 237              		.loc 1 155 3 is_stmt 1 view .LVU55
 238              	.LBB42:
 239              	.LBI42:
 240              		.loc 2 365 20 view .LVU56
 241              	.LBB43:
 242              		.loc 2 367 22 view .LVU57
 243              		.loc 2 368 3 view .LVU58
 244 001e FFF7FEFF 		bl	_stats_stop_measure_crit_thd
 245              	.LVL14:
 246              		.loc 2 374 3 view .LVU59
 247              		.loc 2 374 3 view .LVU60
 248              		.loc 2 374 3 view .LVU61
 249              		.loc 2 378 3 view .LVU62
 250              	.LBB44:
 251              	.LBI44:
 252              		.loc 3 626 20 view .LVU63
 253              	.LBE44:
 254              	.LBE43:
 255              	.LBE42:
 256              		.loc 3 629 3 view .LVU64
 257              	.LBB49:
 258              	.LBB48:
 259              	.LBB47:
 260              	.LBB45:
 261              	.LBI45:
 262              		.loc 4 491 27 view .LVU65
 263              	.LBB46:
 264              		.loc 4 493 3 view .LVU66
 265 0022 0023     		movs	r3, #0
 266              		.syntax unified
 267              	@ 493 "../../modules/ChibiOS/os/common/ext/ARM/CMSIS/Core/Include/cmsis_gcc.h" 1
 268 0024 83F31188 		MSR basepri, r3
 269              	@ 0 "" 2
 270              	.LVL15:
 271              		.loc 4 493 3 is_stmt 0 view .LVU67
 272              		.thumb
 273              		.syntax unified
 274              	.LBE46:
 275              	.LBE45:
 276              	.LBE47:
 277              	.LBE48:
 278              	.LBE49:
 279              		.loc 1 157 3 is_stmt 1 view .LVU68
 280              		.loc 1 158 1 is_stmt 0 view .LVU69
 281 0028 0198     		ldr	r0, [sp, #4]
 282 002a 05B0     		add	sp, sp, #20
 283              		.cfi_def_cfa_offset 4
 284              		@ sp needed
 285 002c 5DF804FB 		ldr	pc, [sp], #4
ARM GAS  /tmp/ccNnCpkG.s 			page 6


 286              		.loc 1 158 1 view .LVU70
 287              		.cfi_endproc
 288              	.LFE303:
 289              		.size	chCoreAllocAlignedWithOffset, .-chCoreAllocAlignedWithOffset
 290              		.section	.text.chCoreGetStatusX,"ax",%progbits
 291              		.align	1
 292              		.global	chCoreGetStatusX
 293              		.syntax unified
 294              		.thumb
 295              		.thumb_func
 296              		.fpu fpv4-sp-d16
 297              		.type	chCoreGetStatusX, %function
 298              	chCoreGetStatusX:
 299              	.LFB304:
 300              		.loc 1 167 31 is_stmt 1 view -0
 301              		.cfi_startproc
 302              		@ args = 0, pretend = 0, frame = 0
 303              		@ frame_needed = 0, uses_anonymous_args = 0
 304              		@ link register save eliminated.
 305              		.loc 1 170 3 view .LVU72
 306              		.loc 1 170 29 is_stmt 0 view .LVU73
 307 0000 024B     		ldr	r3, .L12
 308              		.loc 1 170 37 view .LVU74
 309 0002 D3E90030 		ldrd	r3, r0, [r3]
 310              		.loc 1 172 1 view .LVU75
 311 0006 C01A     		subs	r0, r0, r3
 312 0008 7047     		bx	lr
 313              	.L13:
 314 000a 00BF     		.align	2
 315              	.L12:
 316 000c 00000000 		.word	.LANCHOR0
 317              		.cfi_endproc
 318              	.LFE304:
 319              		.size	chCoreGetStatusX, .-chCoreGetStatusX
 320              		.global	ch_memcore
 321              		.section	.bss.ch_memcore,"aw",%nobits
 322              		.align	2
 323              		.set	.LANCHOR0,. + 0
 324              		.type	ch_memcore, %object
 325              		.size	ch_memcore, 8
 326              	ch_memcore:
 327 0000 00000000 		.space	8
 327      00000000 
 328              		.text
 329              	.Letext0:
 330              		.file 5 "/opt/gcc-arm-none-eabi-10-2020-q4-major/lib/gcc/arm-none-eabi/10.2.1/include/stddef.h"
 331              		.file 6 "/opt/gcc-arm-none-eabi-10-2020-q4-major/arm-none-eabi/include/machine/_default_types.h"
 332              		.file 7 "/opt/gcc-arm-none-eabi-10-2020-q4-major/arm-none-eabi/include/sys/_stdint.h"
 333              		.file 8 "../../modules/ChibiOS/os/common/ports/ARMCMx/compilers/GCC/chtypes.h"
 334              		.file 9 "../../modules/ChibiOS/os/rt/include/chsystypes.h"
 335              		.file 10 "../../modules/ChibiOS/os/rt/include/chschd.h"
 336              		.file 11 "../../modules/ChibiOS/os/common/ports/ARMCMx/chcore.h"
 337              		.file 12 "../../modules/ChibiOS/os/rt/include/chtm.h"
 338              		.file 13 "../../modules/ChibiOS/os/rt/include/chsem.h"
 339              		.file 14 "../../modules/ChibiOS/os/rt/include/chmtx.h"
 340              		.file 15 "../../modules/ChibiOS/os/oslib/include/chmemcore.h"
 341              		.file 16 "../../modules/ChibiOS/os/rt/include/chstats.h"
ARM GAS  /tmp/ccNnCpkG.s 			page 7

