ARM GAS  /tmp/ccA06uLL.s 			page 1


   1              		.cpu cortex-m7
   2              		.eabi_attribute 27, 1
   3              		.eabi_attribute 28, 1
   4              		.eabi_attribute 20, 1
   5              		.eabi_attribute 21, 1
   6              		.eabi_attribute 23, 3
   7              		.eabi_attribute 24, 1
   8              		.eabi_attribute 25, 1
   9              		.eabi_attribute 26, 1
  10              		.eabi_attribute 30, 4
  11              		.eabi_attribute 34, 1
  12              		.eabi_attribute 18, 4
  13              		.file	"chmsg.c"
  14              		.text
  15              	.Ltext0:
  16              		.cfi_sections	.debug_frame
  17              		.section	.text.chMsgSend,"ax",%progbits
  18              		.align	1
  19              		.global	chMsgSend
  20              		.arch armv7e-m
  21              		.syntax unified
  22              		.thumb
  23              		.thumb_func
  24              		.fpu fpv4-sp-d16
  25              		.type	chMsgSend, %function
  26              	chMsgSend:
  27              	.LVL0:
  28              	.LFB301:
  29              		.file 1 "../../modules/ChibiOS/os/rt/src/chmsg.c"
  30              		.loc 1 87 42 view -0
  31              		.cfi_startproc
  32              		@ args = 0, pretend = 0, frame = 8
  33              		@ frame_needed = 0, uses_anonymous_args = 0
  34              		.loc 1 88 3 view .LVU1
  35              		.loc 1 88 13 is_stmt 0 view .LVU2
  36 0000 124B     		ldr	r3, .L3
  37              		.loc 1 87 42 view .LVU3
  38 0002 73B5     		push	{r0, r1, r4, r5, r6, lr}
  39              		.cfi_def_cfa_offset 24
  40              		.cfi_offset 4, -16
  41              		.cfi_offset 5, -12
  42              		.cfi_offset 6, -8
  43              		.cfi_offset 14, -4
  44              		.loc 1 88 13 view .LVU4
  45 0004 9D69     		ldr	r5, [r3, #24]
  46              	.LVL1:
  47              		.loc 1 90 3 is_stmt 1 view .LVU5
  48              		.loc 1 90 3 view .LVU6
  49              		.loc 1 90 3 view .LVU7
  50              		.loc 1 92 3 view .LVU8
  51              	.LBB34:
  52              	.LBI34:
  53              		.file 2 "../../modules/ChibiOS/os/rt/include/chsys.h"
  54              		.loc 2 353 20 view .LVU9
  55              	.LBB35:
  56              		.loc 2 355 3 view .LVU10
  57              	.LBB36:
ARM GAS  /tmp/ccA06uLL.s 			page 2


  58              	.LBI36:
  59              		.file 3 "../../modules/ChibiOS/os/common/ports/ARMCMx/chcore_v7m.h"
  60              		.loc 3 602 20 view .LVU11
  61              	.LBE36:
  62              	.LBE35:
  63              	.LBE34:
  64              		.loc 3 610 3 view .LVU12
  65              	.LBB45:
  66              	.LBB43:
  67              	.LBB41:
  68              	.LBB37:
  69              	.LBI37:
  70              		.file 4 "../../modules/ChibiOS/os/common/ext/ARM/CMSIS/Core/Include/cmsis_gcc.h"
  71              		.loc 4 491 27 view .LVU13
  72              	.LBB38:
  73              		.loc 4 493 3 view .LVU14
  74              	.LBE38:
  75              	.LBE37:
  76              	.LBE41:
  77              	.LBE43:
  78              	.LBE45:
  79              		.loc 1 87 42 is_stmt 0 view .LVU15
  80 0006 0446     		mov	r4, r0
  81 0008 0E46     		mov	r6, r1
  82              	.LBB46:
  83              	.LBB44:
  84              	.LBB42:
  85              	.LBB40:
  86              	.LBB39:
  87              		.loc 4 493 3 view .LVU16
  88 000a 2023     		movs	r3, #32
  89              		.syntax unified
  90              	@ 493 "../../modules/ChibiOS/os/common/ext/ARM/CMSIS/Core/Include/cmsis_gcc.h" 1
  91 000c 83F31188 		MSR basepri, r3
  92              	@ 0 "" 2
  93              	.LVL2:
  94              		.loc 4 493 3 view .LVU17
  95              		.thumb
  96              		.syntax unified
  97              	.LBE39:
  98              	.LBE40:
  99              	.LBE42:
 100              		.loc 2 356 3 is_stmt 1 view .LVU18
 101 0010 FFF7FEFF 		bl	_stats_start_measure_crit_thd
 102              	.LVL3:
 103              		.loc 2 357 20 view .LVU19
 104              	.LBE44:
 105              	.LBE46:
 106              		.loc 1 93 3 view .LVU20
 107              		.loc 1 94 3 is_stmt 0 view .LVU21
 108 0014 04F12C03 		add	r3, r4, #44
 109              		.loc 1 93 18 view .LVU22
 110 0018 6E62     		str	r6, [r5, #36]
 111              		.loc 1 94 3 is_stmt 1 view .LVU23
 112              	.LVL4:
 113              	.LBB47:
 114              	.LBI47:
ARM GAS  /tmp/ccA06uLL.s 			page 3


 115              		.file 5 "../../modules/ChibiOS/os/rt/include/chschd.h"
 116              		.loc 5 598 20 view .LVU24
 117              	.LBB48:
 118              		.loc 5 600 3 view .LVU25
 119              		.loc 5 600 30 is_stmt 0 view .LVU26
 120 001a 2B60     		str	r3, [r5]
 121              		.loc 5 601 3 is_stmt 1 view .LVU27
 122              		.loc 5 601 35 is_stmt 0 view .LVU28
 123 001c 236B     		ldr	r3, [r4, #48]
 124              	.LVL5:
 125              		.loc 5 601 30 view .LVU29
 126 001e 6B60     		str	r3, [r5, #4]
 127              		.loc 5 602 3 is_stmt 1 view .LVU30
 128              		.loc 5 602 30 is_stmt 0 view .LVU31
 129 0020 1D60     		str	r5, [r3]
 130              	.LVL6:
 131              		.loc 5 603 3 is_stmt 1 view .LVU32
 132              	.LBE48:
 133              	.LBE47:
 134              		.loc 1 95 6 is_stmt 0 view .LVU33
 135 0022 94F82030 		ldrb	r3, [r4, #32]	@ zero_extendqisi2
 136              	.LBB50:
 137              	.LBB49:
 138              		.loc 5 603 30 view .LVU34
 139 0026 2563     		str	r5, [r4, #48]
 140              	.LVL7:
 141              		.loc 5 603 30 view .LVU35
 142              	.LBE49:
 143              	.LBE50:
 144              		.loc 1 95 3 is_stmt 1 view .LVU36
 145              		.loc 1 95 6 is_stmt 0 view .LVU37
 146 0028 0E2B     		cmp	r3, #14
 147 002a 02D1     		bne	.L2
 148              		.loc 1 96 5 is_stmt 1 view .LVU38
 149              		.loc 1 96 12 is_stmt 0 view .LVU39
 150 002c 2046     		mov	r0, r4
 151 002e FFF7FEFF 		bl	chSchReadyI
 152              	.LVL8:
 153              	.L2:
 154              		.loc 1 98 3 is_stmt 1 view .LVU40
 155 0032 0C20     		movs	r0, #12
 156 0034 FFF7FEFF 		bl	chSchGoSleepS
 157              	.LVL9:
 158              		.loc 1 99 3 view .LVU41
 159              		.loc 1 99 7 is_stmt 0 view .LVU42
 160 0038 686A     		ldr	r0, [r5, #36]
 161 003a 0190     		str	r0, [sp, #4]
 162              	.LVL10:
 163              		.loc 1 100 3 is_stmt 1 view .LVU43
 164              	.LBB51:
 165              	.LBI51:
 166              		.loc 2 365 20 view .LVU44
 167              	.LBB52:
 168              		.loc 2 367 22 view .LVU45
 169              		.loc 2 368 3 view .LVU46
 170 003c FFF7FEFF 		bl	_stats_stop_measure_crit_thd
 171              	.LVL11:
ARM GAS  /tmp/ccA06uLL.s 			page 4


 172              		.loc 2 374 3 view .LVU47
 173              		.loc 2 374 3 view .LVU48
 174              		.loc 2 374 3 view .LVU49
 175              		.loc 2 378 3 view .LVU50
 176              	.LBB53:
 177              	.LBI53:
 178              		.loc 3 626 20 view .LVU51
 179              	.LBE53:
 180              	.LBE52:
 181              	.LBE51:
 182              		.loc 3 629 3 view .LVU52
 183              	.LBB58:
 184              	.LBB57:
 185              	.LBB56:
 186              	.LBB54:
 187              	.LBI54:
 188              		.loc 4 491 27 view .LVU53
 189              	.LBB55:
 190              		.loc 4 493 3 view .LVU54
 191 0040 0023     		movs	r3, #0
 192              		.syntax unified
 193              	@ 493 "../../modules/ChibiOS/os/common/ext/ARM/CMSIS/Core/Include/cmsis_gcc.h" 1
 194 0042 83F31188 		MSR basepri, r3
 195              	@ 0 "" 2
 196              	.LVL12:
 197              		.loc 4 493 3 is_stmt 0 view .LVU55
 198              		.thumb
 199              		.syntax unified
 200              	.LBE55:
 201              	.LBE54:
 202              	.LBE56:
 203              	.LBE57:
 204              	.LBE58:
 205              		.loc 1 102 3 is_stmt 1 view .LVU56
 206              		.loc 1 103 1 is_stmt 0 view .LVU57
 207 0046 0198     		ldr	r0, [sp, #4]
 208 0048 02B0     		add	sp, sp, #8
 209              		.cfi_def_cfa_offset 16
 210              		@ sp needed
 211 004a 70BD     		pop	{r4, r5, r6, pc}
 212              	.LVL13:
 213              	.L4:
 214              		.loc 1 103 1 view .LVU58
 215              		.align	2
 216              	.L3:
 217 004c 00000000 		.word	ch
 218              		.cfi_endproc
 219              	.LFE301:
 220              		.size	chMsgSend, .-chMsgSend
 221              		.section	.text.chMsgWait,"ax",%progbits
 222              		.align	1
 223              		.global	chMsgWait
 224              		.syntax unified
 225              		.thumb
 226              		.thumb_func
 227              		.fpu fpv4-sp-d16
 228              		.type	chMsgWait, %function
ARM GAS  /tmp/ccA06uLL.s 			page 5


 229              	chMsgWait:
 230              	.LFB302:
 231              		.loc 1 121 27 is_stmt 1 view -0
 232              		.cfi_startproc
 233              		@ args = 0, pretend = 0, frame = 0
 234              		@ frame_needed = 0, uses_anonymous_args = 0
 235              		.loc 1 122 3 view .LVU60
 236              		.loc 1 124 3 view .LVU61
 237              	.LBB73:
 238              	.LBI73:
 239              		.loc 2 353 20 view .LVU62
 240              	.LBB74:
 241              		.loc 2 355 3 view .LVU63
 242              	.LBB75:
 243              	.LBI75:
 244              		.loc 3 602 20 view .LVU64
 245              	.LBE75:
 246              	.LBE74:
 247              	.LBE73:
 248              		.loc 3 610 3 view .LVU65
 249              	.LVL14:
 250              	.LBB85:
 251              	.LBB82:
 252              	.LBB80:
 253              	.LBB76:
 254              	.LBI76:
 255              		.loc 4 491 27 view .LVU66
 256              	.LBB77:
 257              		.loc 4 493 3 view .LVU67
 258 0000 2023     		movs	r3, #32
 259              	.LBE77:
 260              	.LBE76:
 261              	.LBE80:
 262              	.LBE82:
 263              	.LBE85:
 264              		.loc 1 121 27 is_stmt 0 view .LVU68
 265 0002 10B5     		push	{r4, lr}
 266              		.cfi_def_cfa_offset 8
 267              		.cfi_offset 4, -8
 268              		.cfi_offset 14, -4
 269              	.LBB86:
 270              	.LBB83:
 271              	.LBB81:
 272              	.LBB79:
 273              	.LBB78:
 274              		.loc 4 493 3 view .LVU69
 275              		.syntax unified
 276              	@ 493 "../../modules/ChibiOS/os/common/ext/ARM/CMSIS/Core/Include/cmsis_gcc.h" 1
 277 0004 83F31188 		MSR basepri, r3
 278              	@ 0 "" 2
 279              	.LVL15:
 280              		.loc 4 493 3 view .LVU70
 281              		.thumb
 282              		.syntax unified
 283              	.LBE78:
 284              	.LBE79:
 285              	.LBE81:
ARM GAS  /tmp/ccA06uLL.s 			page 6


 286              		.loc 2 356 3 is_stmt 1 view .LVU71
 287              	.LBE83:
 288              	.LBE86:
 289              		.loc 1 125 8 is_stmt 0 view .LVU72
 290 0008 0D4C     		ldr	r4, .L7
 291              	.LBB87:
 292              	.LBB84:
 293              		.loc 2 356 3 view .LVU73
 294 000a FFF7FEFF 		bl	_stats_start_measure_crit_thd
 295              	.LVL16:
 296              		.loc 2 357 20 is_stmt 1 view .LVU74
 297              	.LBE84:
 298              	.LBE87:
 299              		.loc 1 125 3 view .LVU75
 300              		.loc 1 125 8 is_stmt 0 view .LVU76
 301 000e A369     		ldr	r3, [r4, #24]
 302              	.LVL17:
 303              	.LBB88:
 304              	.LBI88:
 305              		.file 6 "../../modules/ChibiOS/os/rt/include/chmsg.h"
 306              		.loc 6 79 20 is_stmt 1 view .LVU77
 307              	.LBB89:
 308              		.loc 6 81 21 view .LVU78
 309              		.loc 6 83 3 view .LVU79
 310              		.loc 6 83 50 is_stmt 0 view .LVU80
 311 0010 03F12C02 		add	r2, r3, #44
 312              	.LBE89:
 313              	.LBE88:
 314              		.loc 1 125 6 view .LVU81
 315 0014 DB6A     		ldr	r3, [r3, #44]
 316 0016 9342     		cmp	r3, r2
 317 0018 02D1     		bne	.L6
 318              		.loc 1 126 5 is_stmt 1 view .LVU82
 319 001a 0E20     		movs	r0, #14
 320 001c FFF7FEFF 		bl	chSchGoSleepS
 321              	.LVL18:
 322              	.L6:
 323              		.loc 1 128 3 view .LVU83
 324              		.loc 1 128 27 is_stmt 0 view .LVU84
 325 0020 A369     		ldr	r3, [r4, #24]
 326              	.LVL19:
 327              	.LBB90:
 328              	.LBI90:
 329              		.loc 5 606 25 is_stmt 1 view .LVU85
 330              	.LBB91:
 331              		.loc 5 607 3 view .LVU86
 332              		.loc 5 607 13 is_stmt 0 view .LVU87
 333 0022 DC6A     		ldr	r4, [r3, #44]
 334              	.LVL20:
 335              		.loc 5 609 3 is_stmt 1 view .LVU88
 336              		.loc 5 609 36 is_stmt 0 view .LVU89
 337 0024 2268     		ldr	r2, [r4]
 338              		.loc 5 609 25 view .LVU90
 339 0026 43F82C2F 		str	r2, [r3, #44]!
 340              	.LVL21:
 341              		.loc 5 610 3 is_stmt 1 view .LVU91
 342              		.loc 5 610 25 is_stmt 0 view .LVU92
ARM GAS  /tmp/ccA06uLL.s 			page 7


 343 002a 5360     		str	r3, [r2, #4]
 344              		.loc 5 612 3 is_stmt 1 view .LVU93
 345              	.LVL22:
 346              		.loc 5 612 3 is_stmt 0 view .LVU94
 347              	.LBE91:
 348              	.LBE90:
 349              		.loc 1 129 3 is_stmt 1 view .LVU95
 350              		.loc 1 129 13 is_stmt 0 view .LVU96
 351 002c 0D23     		movs	r3, #13
 352 002e 84F82030 		strb	r3, [r4, #32]
 353              		.loc 1 130 3 is_stmt 1 view .LVU97
 354              	.LBB92:
 355              	.LBI92:
 356              		.loc 2 365 20 view .LVU98
 357              	.LBB93:
 358              		.loc 2 367 22 view .LVU99
 359              		.loc 2 368 3 view .LVU100
 360 0032 FFF7FEFF 		bl	_stats_stop_measure_crit_thd
 361              	.LVL23:
 362              		.loc 2 374 3 view .LVU101
 363              		.loc 2 374 3 view .LVU102
 364              		.loc 2 374 3 view .LVU103
 365              		.loc 2 378 3 view .LVU104
 366              	.LBB94:
 367              	.LBI94:
 368              		.loc 3 626 20 view .LVU105
 369              	.LBE94:
 370              	.LBE93:
 371              	.LBE92:
 372              		.loc 3 629 3 view .LVU106
 373              	.LBB99:
 374              	.LBB98:
 375              	.LBB97:
 376              	.LBB95:
 377              	.LBI95:
 378              		.loc 4 491 27 view .LVU107
 379              	.LBB96:
 380              		.loc 4 493 3 view .LVU108
 381 0036 0023     		movs	r3, #0
 382              		.syntax unified
 383              	@ 493 "../../modules/ChibiOS/os/common/ext/ARM/CMSIS/Core/Include/cmsis_gcc.h" 1
 384 0038 83F31188 		MSR basepri, r3
 385              	@ 0 "" 2
 386              	.LVL24:
 387              		.loc 4 493 3 is_stmt 0 view .LVU109
 388              		.thumb
 389              		.syntax unified
 390              	.LBE96:
 391              	.LBE95:
 392              	.LBE97:
 393              	.LBE98:
 394              	.LBE99:
 395              		.loc 1 132 3 is_stmt 1 view .LVU110
 396              		.loc 1 133 1 is_stmt 0 view .LVU111
 397 003c 2046     		mov	r0, r4
 398 003e 10BD     		pop	{r4, pc}
 399              	.LVL25:
ARM GAS  /tmp/ccA06uLL.s 			page 8


 400              	.L8:
 401              		.loc 1 133 1 view .LVU112
 402              		.align	2
 403              	.L7:
 404 0040 00000000 		.word	ch
 405              		.cfi_endproc
 406              	.LFE302:
 407              		.size	chMsgWait, .-chMsgWait
 408              		.section	.text.chMsgRelease,"ax",%progbits
 409              		.align	1
 410              		.global	chMsgRelease
 411              		.syntax unified
 412              		.thumb
 413              		.thumb_func
 414              		.fpu fpv4-sp-d16
 415              		.type	chMsgRelease, %function
 416              	chMsgRelease:
 417              	.LVL26:
 418              	.LFB303:
 419              		.loc 1 145 44 is_stmt 1 view -0
 420              		.cfi_startproc
 421              		@ args = 0, pretend = 0, frame = 8
 422              		@ frame_needed = 0, uses_anonymous_args = 0
 423              		.loc 1 147 3 view .LVU114
 424              	.LBB112:
 425              	.LBI112:
 426              		.loc 2 353 20 view .LVU115
 427              	.LBB113:
 428              		.loc 2 355 3 view .LVU116
 429              	.LBB114:
 430              	.LBI114:
 431              		.loc 3 602 20 view .LVU117
 432              	.LBE114:
 433              	.LBE113:
 434              	.LBE112:
 435              		.loc 3 610 3 view .LVU118
 436              	.LBB127:
 437              	.LBB124:
 438              	.LBB121:
 439              	.LBB115:
 440              	.LBI115:
 441              		.loc 4 491 27 view .LVU119
 442              	.LBB116:
 443              		.loc 4 493 3 view .LVU120
 444              	.LBE116:
 445              	.LBE115:
 446              	.LBE121:
 447              	.LBE124:
 448              	.LBE127:
 449              		.loc 1 145 44 is_stmt 0 view .LVU121
 450 0000 07B5     		push	{r0, r1, r2, lr}
 451              		.cfi_def_cfa_offset 16
 452              		.cfi_offset 14, -4
 453              	.LBB128:
 454              	.LBB125:
 455              	.LBB122:
 456              	.LBB119:
ARM GAS  /tmp/ccA06uLL.s 			page 9


 457              	.LBB117:
 458              		.loc 4 493 3 view .LVU122
 459 0002 2023     		movs	r3, #32
 460              	.LBE117:
 461              	.LBE119:
 462              	.LBE122:
 463              	.LBE125:
 464              	.LBE128:
 465              		.loc 1 145 44 view .LVU123
 466 0004 CDE90010 		strd	r1, r0, [sp]
 467              	.LBB129:
 468              	.LBB126:
 469              	.LBB123:
 470              	.LBB120:
 471              	.LBB118:
 472              		.loc 4 493 3 view .LVU124
 473              		.syntax unified
 474              	@ 493 "../../modules/ChibiOS/os/common/ext/ARM/CMSIS/Core/Include/cmsis_gcc.h" 1
 475 0008 83F31188 		MSR basepri, r3
 476              	@ 0 "" 2
 477              	.LVL27:
 478              		.loc 4 493 3 view .LVU125
 479              		.thumb
 480              		.syntax unified
 481              	.LBE118:
 482              	.LBE120:
 483              	.LBE123:
 484              		.loc 2 356 3 is_stmt 1 view .LVU126
 485 000c FFF7FEFF 		bl	_stats_start_measure_crit_thd
 486              	.LVL28:
 487              		.loc 2 357 20 view .LVU127
 488              	.LBE126:
 489              	.LBE129:
 490              		.loc 1 148 3 view .LVU128
 491              		.loc 1 148 3 view .LVU129
 492              		.loc 1 148 3 view .LVU130
 493              		.loc 1 149 3 view .LVU131
 494              	.LBB130:
 495              	.LBI130:
 496              		.loc 6 113 20 view .LVU132
 497              	.LBB131:
 498              		.loc 6 115 21 view .LVU133
 499              		.loc 6 117 3 view .LVU134
 500 0010 DDE90010 		ldrd	r1, r0, [sp]
 501 0014 FFF7FEFF 		bl	chSchWakeupS
 502              	.LVL29:
 503              		.loc 6 117 3 is_stmt 0 view .LVU135
 504              	.LBE131:
 505              	.LBE130:
 506              		.loc 1 150 3 is_stmt 1 view .LVU136
 507              	.LBB132:
 508              	.LBI132:
 509              		.loc 2 365 20 view .LVU137
 510              	.LBB133:
 511              		.loc 2 367 22 view .LVU138
 512              		.loc 2 368 3 view .LVU139
 513 0018 FFF7FEFF 		bl	_stats_stop_measure_crit_thd
ARM GAS  /tmp/ccA06uLL.s 			page 10


 514              	.LVL30:
 515              		.loc 2 374 3 view .LVU140
 516              		.loc 2 374 3 view .LVU141
 517              		.loc 2 374 3 view .LVU142
 518              		.loc 2 378 3 view .LVU143
 519              	.LBB134:
 520              	.LBI134:
 521              		.loc 3 626 20 view .LVU144
 522              	.LBE134:
 523              	.LBE133:
 524              	.LBE132:
 525              		.loc 3 629 3 view .LVU145
 526              	.LBB139:
 527              	.LBB138:
 528              	.LBB137:
 529              	.LBB135:
 530              	.LBI135:
 531              		.loc 4 491 27 view .LVU146
 532              	.LBB136:
 533              		.loc 4 493 3 view .LVU147
 534 001c 0023     		movs	r3, #0
 535              		.syntax unified
 536              	@ 493 "../../modules/ChibiOS/os/common/ext/ARM/CMSIS/Core/Include/cmsis_gcc.h" 1
 537 001e 83F31188 		MSR basepri, r3
 538              	@ 0 "" 2
 539              	.LVL31:
 540              		.loc 4 493 3 is_stmt 0 view .LVU148
 541              		.thumb
 542              		.syntax unified
 543              	.LBE136:
 544              	.LBE135:
 545              	.LBE137:
 546              	.LBE138:
 547              	.LBE139:
 548              		.loc 1 151 1 view .LVU149
 549 0022 03B0     		add	sp, sp, #12
 550              		.cfi_def_cfa_offset 4
 551              	.LVL32:
 552              		.loc 1 151 1 view .LVU150
 553              		@ sp needed
 554 0024 5DF804FB 		ldr	pc, [sp], #4
 555              		.loc 1 151 1 view .LVU151
 556              		.cfi_endproc
 557              	.LFE303:
 558              		.size	chMsgRelease, .-chMsgRelease
 559              		.text
 560              	.Letext0:
 561              		.file 7 "/opt/gcc-arm-none-eabi-10-2020-q4-major/arm-none-eabi/include/machine/_default_types.h"
 562              		.file 8 "/opt/gcc-arm-none-eabi-10-2020-q4-major/arm-none-eabi/include/sys/_stdint.h"
 563              		.file 9 "../../modules/ChibiOS/os/common/ports/ARMCMx/compilers/GCC/chtypes.h"
 564              		.file 10 "../../modules/ChibiOS/os/rt/include/chsystypes.h"
 565              		.file 11 "../../modules/ChibiOS/os/rt/include/chtime.h"
 566              		.file 12 "../../modules/ChibiOS/os/common/ports/ARMCMx/chcore.h"
 567              		.file 13 "../../modules/ChibiOS/os/rt/include/chtm.h"
 568              		.file 14 "../../modules/ChibiOS/os/rt/include/chstats.h"
 569              		.file 15 "../../modules/ChibiOS/os/rt/include/chsem.h"
 570              		.file 16 "../../modules/ChibiOS/os/rt/include/chmtx.h"
ARM GAS  /tmp/ccA06uLL.s 			page 11

