ARM GAS  /tmp/ccA06uLL.s 			page 1


   1              		.cpu cortex-m7
   2              		.eabi_attribute 27, 1
   3              		.eabi_attribute 28, 1
   4              		.eabi_attribute 20, 1
   5              		.eabi_attribute 21, 1
   6              		.eabi_attribute 23, 3
   7              		.eabi_attribute 24, 1
   8              		.eabi_attribute 25, 1
   9              		.eabi_attribute 26, 1
  10              		.eabi_attribute 30, 4
  11              		.eabi_attribute 34, 1
  12              		.eabi_attribute 18, 4
  13              		.file	"chmsg.c"
  14              		.text
  15              	.Ltext0:
  16              		.cfi_sections	.debug_frame
  17              		.section	.text.chMsgSend,"ax",%progbits
  18              		.align	1
  19              		.global	chMsgSend
  20              		.arch armv7e-m
  21              		.syntax unified
  22              		.thumb
  23              		.thumb_func
  24              		.fpu fpv4-sp-d16
  25              		.type	chMsgSend, %function
  26              	chMsgSend:
  27              	.LVL0:
  28              	.LFB301:
  29              		.file 1 "../../modules/ChibiOS/os/rt/src/chmsg.c"
  30              		.loc 1 87 42 view -0
  31              		.cfi_startproc
  32              		@ args = 0, pretend = 0, frame = 8
  33              		@ frame_needed = 0, uses_anonymous_args = 0
  34              		.loc 1 88 3 view .LVU1
  35              		.loc 1 88 13 is_stmt 0 view .LVU2
  36 0000 124B     		ldr	r3, .L3
  37              		.loc 1 87 42 view .LVU3
  38 0002 73B5     		push	{r0, r1, r4, r5, r6, lr}
  39              		.cfi_def_cfa_offset 24
  40              		.cfi_offset 4, -16
  41              		.cfi_offset 5, -12
  42              		.cfi_offset 6, -8
  43              		.cfi_offset 14, -4
  44              		.loc 1 88 13 view .LVU4
  45 0004 9D69     		ldr	r5, [r3, #24]
  46              	.LVL1:
  47              		.loc 1 90 3 is_stmt 1 view .LVU5
  48              		.loc 1 90 3 view .LVU6
  49              		.loc 1 90 3 view .LVU7
  50              		.loc 1 92 3 view .LVU8
  51              	.LBB34:
  52              	.LBI34:
  53              		.file 2 "../../modules/ChibiOS/os/rt/include/chsys.h"
  54              		.loc 2 353 20 view .LVU9
  55              	.LBB35:
  56              		.loc 2 355 3 view .LVU10
  57              	.LBB36:
ARM GAS  /tmp/ccA06uLL.s 			page 2


  58              	.LBI36:
  59              		.file 3 "../../modules/ChibiOS/os/common/ports/ARMCMx/chcore_v7m.h"
  60              		.loc 3 602 20 view .LVU11
  61              	.LBE36:
  62              	.LBE35:
  63              	.LBE34:
  64              		.loc 3 610 3 view .LVU12
  65              	.LBB45:
  66              	.LBB43:
  67              	.LBB41:
  68              	.LBB37:
  69              	.LBI37:
  70              		.file 4 "../../modules/ChibiOS/os/common/ext/ARM/CMSIS/Core/Include/cmsis_gcc.h"
  71              		.loc 4 491 27 view .LVU13
  72              	.LBB38:
  73              		.loc 4 493 3 view .LVU14
  74              	.LBE38:
  75              	.LBE37:
  76              	.LBE41:
  77              	.LBE43:
  78              	.LBE45:
  79              		.loc 1 87 42 is_stmt 0 view .LVU15
  80 0006 0446     		mov	r4, r0
  81 0008 0E46     		mov	r6, r1
  82              	.LBB46:
  83              	.LBB44:
  84              	.LBB42:
  85              	.LBB40:
  86              	.LBB39:
  87              		.loc 4 493 3 view .LVU16
  88 000a 2023     		movs	r3, #32
  89              		.syntax unified
  90              	@ 493 "../../modules/ChibiOS/os/common/ext/ARM/CMSIS/Core/Include/cmsis_gcc.h" 1
  91 000c 83F31188 		MSR basepri, r3
  92              	@ 0 "" 2
  93              	.LVL2:
  94              		.loc 4 493 3 view .LVU17
  95              		.thumb
  96              		.syntax unified
  97              	.LBE39:
  98              	.LBE40:
  99              	.LBE42:
 100              		.loc 2 356 3 is_stmt 1 view .LVU18
 101 0010 FFF7FEFF 		bl	_stats_start_measure_crit_thd
 102              	.LVL3:
 103              		.loc 2 357 20 view .LVU19
 104              	.LBE44:
 105              	.LBE46:
 106              		.loc 1 93 3 view .LVU20
 107              		.loc 1 94 3 is_stmt 0 view .LVU21
 108 0014 04F12C03 		add	r3, r4, #44
 109              		.loc 1 93 18 view .LVU22
 110 0018 6E62     		str	r6, [r5, #36]
 111              		.loc 1 94 3 is_stmt 1 view .LVU23
 112              	.LVL4:
 113              	.LBB47:
 114              	.LBI47:
ARM GAS  /tmp/ccA06uLL.s 			page 3


 115              		.file 5 "../../modules/ChibiOS/os/rt/include/chschd.h"
 116              		.loc 5 598 20 view .LVU24
 117              	.LBB48:
 118              		.loc 5 600 3 view .LVU25
 119              		.loc 5 600 30 is_stmt 0 view .LVU26
 120 001a 2B60     		str	r3, [r5]
 121              		.loc 5 601 3 is_stmt 1 view .LVU27
 122              		.loc 5 601 35 is_stmt 0 view .LVU28
 123 001c 236B     		ldr	r3, [r4, #48]
 124              	.LVL5:
 125              		.loc 5 601 30 view .LVU29
 126 001e 6B60     		str	r3, [r5, #4]
 127              		.loc 5 602 3 is_stmt 1 view .LVU30
 128              		.loc 5 602 30 is_stmt 0 view .LVU31
 129 0020 1D60     		str	r5, [r3]
 130              	.LVL6:
 131              		.loc 5 603 3 is_stmt 1 view .LVU32
 132              	.LBE48:
 133              	.LBE47:
 134              		.loc 1 95 6 is_stmt 0 view .LVU33
 135 0022 94F82030 		ldrb	r3, [r4, #32]	@ zero_extendqisi2
 136              	.LBB50:
 137              	.LBB49:
 138              		.loc 5 603 30 view .LVU34
 139 0026 2563     		str	r5, [r4, #48]
 140              	.LVL7:
 141              		.loc 5 603 30 view .LVU35
 142              	.LBE49:
 143              	.LBE50:
 144              		.loc 1 95 3 is_stmt 1 view .LVU36
 145              		.loc 1 95 6 is_stmt 0 view .LVU37
 146 0028 0E2B     		cmp	r3, #14
 147 002a 02D1     		bne	.L2
 148              		.loc 1 96 5 is_stmt 1 view .LVU38
 149              		.loc 1 96 12 is_stmt 0 view .LVU39
 150 002c 2046     		mov	r0, r4
 151 002e FFF7FEFF 		bl	chSchReadyI
 152              	.LVL8:
 153              	.L2:
 154              		.loc 1 98 3 is_stmt 1 view .LVU40
 155 0032 0C20     		movs	r0, #12
 156 0034 FFF7FEFF 		bl	chSchGoSleepS
 157              	.LVL9:
 158              		.loc 1 99 3 view .LVU41
 159              		.loc 1 99 7 is_stmt 0 view .LVU42
 160 0038 686A     		ldr	r0, [r5, #36]
 161 003a 0190     		str	r0, [sp, #4]
 162              	.LVL10:
 163              		.loc 1 100 3 is_stmt 1 view .LVU43
 164              	.LBB51:
 165              	.LBI51:
 166              		.loc 2 365 20 view .LVU44
 167              	.LBB52:
 168              		.loc 2 367 22 view .LVU45
 169              		.loc 2 368 3 view .LVU46
 170 003c FFF7FEFF 		bl	_stats_stop_measure_crit_thd
 171              	.LVL11:
ARM GAS  /tmp/ccA06uLL.s 			page 4


 172              		.loc 2 374 3 view .LVU47
 173              		.loc 2 374 3 view .LVU48
 174              		.loc 2 374 3 view .LVU49
 175              		.loc 2 378 3 view .LVU50
 176              	.LBB53:
 177              	.LBI53:
 178              		.loc 3 626 20 view .LVU51
 179              	.LBE53:
 180              	.LBE52:
 181              	.LBE51:
 182              		.loc 3 629 3 view .LVU52
 183              	.LBB58:
 184              	.LBB57:
 185              	.LBB56:
 186              	.LBB54:
 187              	.LBI54:
 188              		.loc 4 491 27 view .LVU53
 189              	.LBB55:
 190              		.loc 4 493 3 view .LVU54
 191 0040 0023     		movs	r3, #0
 192              		.syntax unified
 193              	@ 493 "../../modules/ChibiOS/os/common/ext/ARM/CMSIS/Core/Include/cmsis_gcc.h" 1
 194 0042 83F31188 		MSR basepri, r3
 195              	@ 0 "" 2
 196              	.LVL12:
 197              		.loc 4 493 3 is_stmt 0 view .LVU55
 198              		.thumb
 199              		.syntax unified
 200              	.LBE55:
 201              	.LBE54:
 202              	.LBE56:
 203              	.LBE57:
 204              	.LBE58:
 205              		.loc 1 102 3 is_stmt 1 view .LVU56
 206              		.loc 1 103 1 is_stmt 0 view .LVU57
 207 0046 0198     		ldr	r0, [sp, #4]
 208 0048 02B0     		add	sp, sp, #8
 209              		.cfi_def_cfa_offset 16
 210              		@ sp needed
 211 004a 70BD     		pop	{r4, r5, r6, pc}
 212              	.LVL13:
 213              	.L4:
 214              		.loc 1 103 1 view .LVU58
 215              		.align	2
 216              	.L3:
 217 004c 00000000 		.word	ch
 218              		.cfi_endproc
 219              	.LFE301:
 220              		.size	chMsgSend, .-chMsgSend
 221              		.section	.text.chMsgWait,"ax",%progbits
 222              		.align	1
 223              		.global	chMsgWait
 224              		.syntax unified
 225              		.thumb
 226              		.thumb_func
 227              		.fpu fpv4-sp-d16
 228              		.type	chMsgWait, %function
ARM GAS  /tmp/ccA06uLL.s 			page 5


 229              	chMsgWait:
 230              	.LFB302:
 231              		.loc 1 121 27 is_stmt 1 view -0
 232              		.cfi_startproc
 233              		@ args = 0, pretend = 0, frame = 0
 234              		@ frame_needed = 0, uses_anonymous_args = 0
 235              		.loc 1 122 3 view .LVU60
 236              		.loc 1 124 3 view .LVU61
 237              	.LBB73:
 238              	.LBI73:
 239              		.loc 2 353 20 view .LVU62
 240              	.LBB74:
 241              		.loc 2 355 3 view .LVU63
 242              	.LBB75:
 243              	.LBI75:
 244              		.loc 3 602 20 view .LVU64
 245              	.LBE75:
 246              	.LBE74:
 247              	.LBE73:
 248              		.loc 3 610 3 view .LVU65
 249              	.LVL14:
 250              	.LBB85:
 251              	.LBB82:
 252              	.LBB80:
 253              	.LBB76:
 254              	.LBI76:
 255              		.loc 4 491 27 view .LVU66
 256              	.LBB77:
 257              		.loc 4 493 3 view .LVU67
 258 0000 2023     		movs	r3, #32
 259              	.LBE77:
 260              	.LBE76:
 261              	.LBE80:
 262              	.LBE82:
 263              	.LBE85:
 264              		.loc 1 121 27 is_stmt 0 view .LVU68
 265 0002 10B5     		push	{r4, lr}
 266              		.cfi_def_cfa_offset 8
 267              		.cfi_offset 4, -8
 268              		.cfi_offset 14, -4
 269              	.LBB86:
 270              	.LBB83:
 271              	.LBB81:
 272              	.LBB79:
 273              	.LBB78:
 274              		.loc 4 493 3 view .LVU69
 275              		.syntax unified
 276              	@ 493 "../../modules/ChibiOS/os/common/ext/ARM/CMSIS/Core/Include/cmsis_gcc.h" 1
 277 0004 83F31188 		MSR basepri, r3
 278              	@ 0 "" 2
 279              	.LVL15:
 280              		.loc 4 493 3 view .LVU70
 281              		.thumb
 282              		.syntax unified
 283              	.LBE78:
 284              	.LBE79:
 285              	.LBE81:
ARM GAS  /tmp/ccA06uLL.s 			page 6


 286              		.loc 2 356 3 is_stmt 1 view .LVU71
 287              	.LBE83:
 288              	.LBE86:
 289              		.loc 1 125 8 is_stmt 0 view .LVU72
 290 0008 0D4C     		ldr	r4, .L7
 291              	.LBB87:
 292              	.LBB84:
 293              		.loc 2 356 3 view .LVU73
 294 000a FFF7FEFF 		bl	_stats_start_measure_crit_thd
 295              	.LVL16:
 296              		.loc 2 357 20 is_stmt 1 view .LVU74
 297              	.LBE84:
 298              	.LBE87:
 299              		.loc 1 125 3 view .LVU75
 300              		.loc 1 125 8 is_stmt 0 view .LVU76
 301 000e A369     		ldr	r3, [r4, #24]
 302              	.LVL17:
 303              	.LBB88:
 304              	.LBI88:
 305              		.file 6 "../../modules/ChibiOS/os/rt/include/chmsg.h"
 306              		.loc 6 79 20 is_stmt 1 view .LVU77
 307              	.LBB89:
 308              		.loc 6 81 21 view .LVU78
 309              		.loc 6 83 3 view .LVU79
 310              		.loc 6 83 50 is_stmt 0 view .LVU80
 311 0010 03F12C02 		add	r2, r3, #44
 312              	.LBE89:
 313              	.LBE88:
 314              		.loc 1 125 6 view .LVU81
 315 0014 DB6A     		ldr	r3, [r3, #44]
 316 0016 9342     		cmp	r3, r2
 317 0018 02D1     		bne	.L6
 318              		.loc 1 126 5 is_stmt 1 view .LVU82
 319 001a 0E20     		movs	r0, #14
 320 001c FFF7FEFF 		bl	chSchGoSleepS
 321              	.LVL18:
 322              	.L6:
 323              		.loc 1 128 3 view .LVU83
 324              		.loc 1 128 27 is_stmt 0 view .LVU84
 325 0020 A369     		ldr	r3, [r4, #24]
 326              	.LVL19:
 327              	.LBB90:
 328              	.LBI90:
 329              		.loc 5 606 25 is_stmt 1 view .LVU85
 330              	.LBB91:
 331              		.loc 5 607 3 view .LVU86
 332              		.loc 5 607 13 is_stmt 0 view .LVU87
 333 0022 DC6A     		ldr	r4, [r3, #44]
 334              	.LVL20:
 335              		.loc 5 609 3 is_stmt 1 view .LVU88
 336              		.loc 5 609 36 is_stmt 0 view .LVU89
 337 0024 2268     		ldr	r2, [r4]
 338              		.loc 5 609 25 view .LVU90
 339 0026 43F82C2F 		str	r2, [r3, #44]!
 340              	.LVL21:
 341              		.loc 5 610 3 is_stmt 1 view .LVU91
 342              		.loc 5 610 25 is_stmt 0 view .LVU92
ARM GAS  /tmp/ccA06uLL.s 			page 7


 343 002a 5360     		str	r3, [r2, #4]
 344              		.loc 5 612 3 is_stmt 1 view .LVU93
 345              	.LVL22:
 346              		.loc 5 612 3 is_stmt 0 view .LVU94
 347              	.LBE91:
 348              	.LBE90:
 349              		.loc 1 129 3 is_stmt 1 view .LVU95
 350              		.loc 1 129 13 is_stmt 0 view .LVU96
 351 002c 0D23     		movs	r3, #13
 352 002e 84F82030 		strb	r3, [r4, #32]
 353              		.loc 1 130 3 is_stmt 1 view .LVU97
 354              	.LBB92:
 355              	.LBI92:
 356              		.loc 2 365 20 view .LVU98
 357              	.LBB93:
 358              		.loc 2 367 22 view .LVU99
 359              		.loc 2 368 3 view .LVU100
 360 0032 FFF7FEFF 		bl	_stats_stop_measure_crit_thd
 361              	.LVL23:
 362              		.loc 2 374 3 view .LVU101
 363              		.loc 2 374 3 view .LVU102
 364              		.loc 2 374 3 view .LVU103
 365              		.loc 2 378 3 view .LVU104
 366              	.LBB94:
 367              	.LBI94:
 368              		.loc 3 626 20 view .LVU105
 369              	.LBE94:
 370              	.LBE93:
 371              	.LBE92:
 372              		.loc 3 629 3 view .LVU106
 373              	.LBB99:
 374              	.LBB98:
 375              	.LBB97:
 376              	.LBB95:
 377              	.LBI95:
 378              		.loc 4 491 27 view .LVU107
 379              	.LBB96:
 380              		.loc 4 493 3 view .LVU108
 381 0036 0023     		movs	r3, #0
 382              		.syntax unified
 383              	@ 493 "../../modules/ChibiOS/os/common/ext/ARM/CMSIS/Core/Include/cmsis_gcc.h" 1
 384 0038 83F31188 		MSR basepri, r3
 385              	@ 0 "" 2
 386              	.LVL24:
 387              		.loc 4 493 3 is_stmt 0 view .LVU109
 388              		.thumb
 389              		.syntax unified
 390              	.LBE96:
 391              	.LBE95:
 392              	.LBE97:
 393              	.LBE98:
 394              	.LBE99:
 395              		.loc 1 132 3 is_stmt 1 view .LVU110
 396              		.loc 1 133 1 is_stmt 0 view .LVU111
 397 003c 2046     		mov	r0, r4
 398 003e 10BD     		pop	{r4, pc}
 399              	.LVL25:
ARM GAS  /tmp/ccA06uLL.s 			page 8


 400              	.L8:
 401              		.loc 1 133 1 view .LVU112
 402              		.align	2
 403              	.L7:
 404 0040 00000000 		.word	ch
 405              		.cfi_endproc
 406              	.LFE302:
 407              		.size	chMsgWait, .-chMsgWait
 408              		.section	.text.chMsgRelease,"ax",%progbits
 409              		.align	1
 410              		.global	chMsgRelease
 411              		.syntax unified
 412              		.thumb
 413              		.thumb_func
 414              		.fpu fpv4-sp-d16
 415              		.type	chMsgRelease, %function
 416              	chMsgRelease:
 417              	.LVL26:
 418              	.LFB303:
 419              		.loc 1 145 44 is_stmt 1 view -0
 420              		.cfi_startproc
 421              		@ args = 0, pretend = 0, frame = 8
 422              		@ frame_needed = 0, uses_anonymous_args = 0
 423              		.loc 1 147 3 view .LVU114
 424              	.LBB112:
 425              	.LBI112:
 426              		.loc 2 353 20 view .LVU115
 427              	.LBB113:
 428              		.loc 2 355 3 view .LVU116
 429              	.LBB114:
 430              	.LBI114:
 431              		.loc 3 602 20 view .LVU117
 432              	.LBE114:
 433              	.LBE113:
 434              	.LBE112:
 435              		.loc 3 610 3 view .LVU118
 436              	.LBB127:
 437              	.LBB124:
 438              	.LBB121:
 439              	.LBB115:
 440              	.LBI115:
 441              		.loc 4 491 27 view .LVU119
 442              	.LBB116:
 443              		.loc 4 493 3 view .LVU120
 444              	.LBE116:
 445              	.LBE115:
 446              	.LBE121:
 447              	.LBE124:
 448              	.LBE127:
 449              		.loc 1 145 44 is_stmt 0 view .LVU121
 450 0000 07B5     		push	{r0, r1, r2, lr}
 451              		.cfi_def_cfa_offset 16
 452              		.cfi_offset 14, -4
 453              	.LBB128:
 454              	.LBB125:
 455              	.LBB122:
 456              	.LBB119:
ARM GAS  /tmp/ccA06uLL.s 			page 9


 457              	.LBB117:
 458              		.loc 4 493 3 view .LVU122
 459 0002 2023     		movs	r3, #32
 460              	.LBE117:
 461              	.LBE119:
 462              	.LBE122:
 463              	.LBE125:
 464              	.LBE128:
 465              		.loc 1 145 44 view .LVU123
 466 0004 CDE90010 		strd	r1, r0, [sp]
 467              	.LBB129:
 468              	.LBB126:
 469              	.LBB123:
 470              	.LBB120:
 471              	.LBB118:
 472              		.loc 4 493 3 view .LVU124
 473              		.syntax unified
 474              	@ 493 "../../modules/ChibiOS/os/common/ext/ARM/CMSIS/Core/Include/cmsis_gcc.h" 1
 475 0008 83F31188 		MSR basepri, r3
 476              	@ 0 "" 2
 477              	.LVL27:
 478              		.loc 4 493 3 view .LVU125
 479              		.thumb
 480              		.syntax unified
 481              	.LBE118:
 482              	.LBE120:
 483              	.LBE123:
 484              		.loc 2 356 3 is_stmt 1 view .LVU126
 485 000c FFF7FEFF 		bl	_stats_start_measure_crit_thd
 486              	.LVL28:
 487              		.loc 2 357 20 view .LVU127
 488              	.LBE126:
 489              	.LBE129:
 490              		.loc 1 148 3 view .LVU128
 491              		.loc 1 148 3 view .LVU129
 492              		.loc 1 148 3 view .LVU130
 493              		.loc 1 149 3 view .LVU131
 494              	.LBB130:
 495              	.LBI130:
 496              		.loc 6 113 20 view .LVU132
 497              	.LBB131:
 498              		.loc 6 115 21 view .LVU133
 499              		.loc 6 117 3 view .LVU134
 500 0010 DDE90010 		ldrd	r1, r0, [sp]
 501 0014 FFF7FEFF 		bl	chSchWakeupS
 502              	.LVL29:
 503              		.loc 6 117 3 is_stmt 0 view .LVU135
 504              	.LBE131:
 505              	.LBE130:
 506              		.loc 1 150 3 is_stmt 1 view .LVU136
 507              	.LBB132:
 508              	.LBI132:
 509              		.loc 2 365 20 view .LVU137
 510              	.LBB133:
 511              		.loc 2 367 22 view .LVU138
 512              		.loc 2 368 3 view .LVU139
 513 0018 FFF7FEFF 		bl	_stats_stop_measure_crit_thd
ARM GAS  /tmp/ccA06uLL.s 			page 10


 514              	.LVL30:
 515              		.loc 2 374 3 view .LVU140
 516              		.loc 2 374 3 view .LVU141
 517              		.loc 2 374 3 view .LVU142
 518              		.loc 2 378 3 view .LVU143
 519              	.LBB134:
 520              	.LBI134:
 521              		.loc 3 626 20 view .LVU144
 522              	.LBE134:
 523              	.LBE133:
 524              	.LBE132:
 525              		.loc 3 629 3 view .LVU145
 526              	.LBB139:
 527              	.LBB138:
 528              	.LBB137:
 529              	.LBB135:
 530              	.LBI135:
 531              		.loc 4 491 27 view .LVU146
 532              	.LBB136:
 533              		.loc 4 493 3 view .LVU147
 534 001c 0023     		movs	r3, #0
 535              		.syntax unified
 536              	@ 493 "../../modules/ChibiOS/os/common/ext/ARM/CMSIS/Core/Include/cmsis_gcc.h" 1
 537 001e 83F31188 		MSR basepri, r3
 538              	@ 0 "" 2
 539              	.LVL31:
 540              		.loc 4 493 3 is_stmt 0 view .LVU148
 541              		.thumb
 542              		.syntax unified
 543              	.LBE136:
 544              	.LBE135:
 545              	.LBE137:
 546              	.LBE138:
 547              	.LBE139:
 548              		.loc 1 151 1 view .LVU149
 549 0022 03B0     		add	sp, sp, #12
 550              		.cfi_def_cfa_offset 4
 551              	.LVL32:
 552              		.loc 1 151 1 view .LVU150
 553              		@ sp needed
 554 0024 5DF804FB 		ldr	pc, [sp], #4
 555              		.loc 1 151 1 view .LVU151
 556              		.cfi_endproc
 557              	.LFE303:
 558              		.size	chMsgRelease, .-chMsgRelease
 559              		.text
 560              	.Letext0:
 561              		.file 7 "/opt/gcc-arm-none-eabi-10-2020-q4-major/arm-none-eabi/include/machine/_default_types.h"
 562              		.file 8 "/opt/gcc-arm-none-eabi-10-2020-q4-major/arm-none-eabi/include/sys/_stdint.h"
 563              		.file 9 "../../modules/ChibiOS/os/common/ports/ARMCMx/compilers/GCC/chtypes.h"
 564              		.file 10 "../../modules/ChibiOS/os/rt/include/chsystypes.h"
 565              		.file 11 "../../modules/ChibiOS/os/rt/include/chtime.h"
 566              		.file 12 "../../modules/ChibiOS/os/common/ports/ARMCMx/chcore.h"
 567              		.file 13 "../../modules/ChibiOS/os/rt/include/chtm.h"
 568              		.file 14 "../../modules/ChibiOS/os/rt/include/chstats.h"
 569              		.file 15 "../../modules/ChibiOS/os/rt/include/chsem.h"
 570              		.file 16 "../../modules/ChibiOS/os/rt/include/chmtx.h"
ARM GAS  /tmp/ccA06uLL.s 			page 11


 571              		.section	.debug_info,"",%progbits
 572              	.Ldebug_info0:
 573 0000 A50D0000 		.4byte	0xda5
 574 0004 0400     		.2byte	0x4
 575 0006 00000000 		.4byte	.Ldebug_abbrev0
 576 000a 04       		.byte	0x4
 577 000b 01       		.uleb128 0x1
 578 000c 1A050000 		.4byte	.LASF123
 579 0010 0C       		.byte	0xc
 580 0011 BC040000 		.4byte	.LASF124
 581 0015 2B040000 		.4byte	.LASF125
 582 0019 80010000 		.4byte	.Ldebug_ranges0+0x180
 583 001d 00000000 		.4byte	0
 584 0021 00000000 		.4byte	.Ldebug_line0
 585 0025 02       		.uleb128 0x2
 586 0026 04       		.byte	0x4
 587 0027 05       		.byte	0x5
 588 0028 696E7400 		.ascii	"int\000"
 589 002c 03       		.uleb128 0x3
 590 002d 04       		.byte	0x4
 591 002e 07       		.byte	0x7
 592 002f BB010000 		.4byte	.LASF0
 593 0033 03       		.uleb128 0x3
 594 0034 08       		.byte	0x8
 595 0035 05       		.byte	0x5
 596 0036 F8000000 		.4byte	.LASF1
 597 003a 03       		.uleb128 0x3
 598 003b 08       		.byte	0x8
 599 003c 04       		.byte	0x4
 600 003d D9020000 		.4byte	.LASF2
 601 0041 03       		.uleb128 0x3
 602 0042 01       		.byte	0x1
 603 0043 06       		.byte	0x6
 604 0044 06010000 		.4byte	.LASF3
 605 0048 04       		.uleb128 0x4
 606 0049 43000000 		.4byte	.LASF7
 607 004d 07       		.byte	0x7
 608 004e 2B       		.byte	0x2b
 609 004f 18       		.byte	0x18
 610 0050 54000000 		.4byte	0x54
 611 0054 03       		.uleb128 0x3
 612 0055 01       		.byte	0x1
 613 0056 08       		.byte	0x8
 614 0057 62030000 		.4byte	.LASF4
 615 005b 03       		.uleb128 0x3
 616 005c 02       		.byte	0x2
 617 005d 05       		.byte	0x5
 618 005e 70030000 		.4byte	.LASF5
 619 0062 03       		.uleb128 0x3
 620 0063 02       		.byte	0x2
 621 0064 07       		.byte	0x7
 622 0065 E1010000 		.4byte	.LASF6
 623 0069 04       		.uleb128 0x4
 624 006a 66020000 		.4byte	.LASF8
 625 006e 07       		.byte	0x7
 626 006f 4D       		.byte	0x4d
 627 0070 18       		.byte	0x18
ARM GAS  /tmp/ccA06uLL.s 			page 12


 628 0071 75000000 		.4byte	0x75
 629 0075 03       		.uleb128 0x3
 630 0076 04       		.byte	0x4
 631 0077 05       		.byte	0x5
 632 0078 3C010000 		.4byte	.LASF9
 633 007c 04       		.uleb128 0x4
 634 007d 73010000 		.4byte	.LASF10
 635 0081 07       		.byte	0x7
 636 0082 4F       		.byte	0x4f
 637 0083 19       		.byte	0x19
 638 0084 88000000 		.4byte	0x88
 639 0088 03       		.uleb128 0x3
 640 0089 04       		.byte	0x4
 641 008a 07       		.byte	0x7
 642 008b 19040000 		.4byte	.LASF11
 643 008f 04       		.uleb128 0x4
 644 0090 10030000 		.4byte	.LASF12
 645 0094 07       		.byte	0x7
 646 0095 69       		.byte	0x69
 647 0096 19       		.byte	0x19
 648 0097 9B000000 		.4byte	0x9b
 649 009b 03       		.uleb128 0x3
 650 009c 08       		.byte	0x8
 651 009d 07       		.byte	0x7
 652 009e A1000000 		.4byte	.LASF13
 653 00a2 04       		.uleb128 0x4
 654 00a3 1C060000 		.4byte	.LASF14
 655 00a7 08       		.byte	0x8
 656 00a8 18       		.byte	0x18
 657 00a9 13       		.byte	0x13
 658 00aa 48000000 		.4byte	0x48
 659 00ae 04       		.uleb128 0x4
 660 00af 5A030000 		.4byte	.LASF15
 661 00b3 08       		.byte	0x8
 662 00b4 2C       		.byte	0x2c
 663 00b5 13       		.byte	0x13
 664 00b6 69000000 		.4byte	0x69
 665 00ba 04       		.uleb128 0x4
 666 00bb E7030000 		.4byte	.LASF16
 667 00bf 08       		.byte	0x8
 668 00c0 30       		.byte	0x30
 669 00c1 14       		.byte	0x14
 670 00c2 7C000000 		.4byte	0x7c
 671 00c6 04       		.uleb128 0x4
 672 00c7 2D000000 		.4byte	.LASF17
 673 00cb 08       		.byte	0x8
 674 00cc 3C       		.byte	0x3c
 675 00cd 14       		.byte	0x14
 676 00ce 8F000000 		.4byte	0x8f
 677 00d2 04       		.uleb128 0x4
 678 00d3 A7020000 		.4byte	.LASF18
 679 00d7 09       		.byte	0x9
 680 00d8 27       		.byte	0x27
 681 00d9 1D       		.byte	0x1d
 682 00da BA000000 		.4byte	0xba
 683 00de 04       		.uleb128 0x4
 684 00df EF000000 		.4byte	.LASF19
ARM GAS  /tmp/ccA06uLL.s 			page 13


 685 00e3 09       		.byte	0x9
 686 00e4 28       		.byte	0x28
 687 00e5 1D       		.byte	0x1d
 688 00e6 C6000000 		.4byte	0xc6
 689 00ea 04       		.uleb128 0x4
 690 00eb 39020000 		.4byte	.LASF20
 691 00ef 09       		.byte	0x9
 692 00f0 2A       		.byte	0x2a
 693 00f1 1D       		.byte	0x1d
 694 00f2 A2000000 		.4byte	0xa2
 695 00f6 04       		.uleb128 0x4
 696 00f7 4F010000 		.4byte	.LASF21
 697 00fb 09       		.byte	0x9
 698 00fc 2B       		.byte	0x2b
 699 00fd 1D       		.byte	0x1d
 700 00fe A2000000 		.4byte	0xa2
 701 0102 04       		.uleb128 0x4
 702 0103 26030000 		.4byte	.LASF22
 703 0107 09       		.byte	0x9
 704 0108 2C       		.byte	0x2c
 705 0109 1D       		.byte	0x1d
 706 010a A2000000 		.4byte	0xa2
 707 010e 04       		.uleb128 0x4
 708 010f 43030000 		.4byte	.LASF23
 709 0113 09       		.byte	0x9
 710 0114 2E       		.byte	0x2e
 711 0115 1D       		.byte	0x1d
 712 0116 BA000000 		.4byte	0xba
 713 011a 04       		.uleb128 0x4
 714 011b 12020000 		.4byte	.LASF24
 715 011f 09       		.byte	0x9
 716 0120 2F       		.byte	0x2f
 717 0121 1D       		.byte	0x1d
 718 0122 AE000000 		.4byte	0xae
 719 0126 04       		.uleb128 0x4
 720 0127 5A020000 		.4byte	.LASF25
 721 012b 09       		.byte	0x9
 722 012c 31       		.byte	0x31
 723 012d 1D       		.byte	0x1d
 724 012e BA000000 		.4byte	0xba
 725 0132 04       		.uleb128 0x4
 726 0133 B5010000 		.4byte	.LASF26
 727 0137 09       		.byte	0x9
 728 0138 33       		.byte	0x33
 729 0139 1D       		.byte	0x1d
 730 013a AE000000 		.4byte	0xae
 731 013e 04       		.uleb128 0x4
 732 013f 1D020000 		.4byte	.LASF27
 733 0143 09       		.byte	0x9
 734 0144 34       		.byte	0x34
 735 0145 1D       		.byte	0x1d
 736 0146 BA000000 		.4byte	0xba
 737 014a 04       		.uleb128 0x4
 738 014b 6A040000 		.4byte	.LASF28
 739 014f 0A       		.byte	0xa
 740 0150 34       		.byte	0x34
 741 0151 1A       		.byte	0x1a
ARM GAS  /tmp/ccA06uLL.s 			page 14


 742 0152 56010000 		.4byte	0x156
 743 0156 05       		.uleb128 0x5
 744 0157 03020000 		.4byte	.LASF47
 745 015b 60       		.byte	0x60
 746 015c 05       		.byte	0x5
 747 015d 8E       		.byte	0x8e
 748 015e 08       		.byte	0x8
 749 015f 54020000 		.4byte	0x254
 750 0163 06       		.uleb128 0x6
 751 0164 D5010000 		.4byte	.LASF29
 752 0168 05       		.byte	0x5
 753 0169 8F       		.byte	0x8f
 754 016a 19       		.byte	0x19
 755 016b 8D020000 		.4byte	0x28d
 756 016f 00       		.byte	0
 757 0170 06       		.uleb128 0x6
 758 0171 03030000 		.4byte	.LASF30
 759 0175 05       		.byte	0x5
 760 0176 90       		.byte	0x90
 761 0177 19       		.byte	0x19
 762 0178 0E010000 		.4byte	0x10e
 763 017c 08       		.byte	0x8
 764 017d 07       		.uleb128 0x7
 765 017e 63747800 		.ascii	"ctx\000"
 766 0182 05       		.byte	0x5
 767 0183 91       		.byte	0x91
 768 0184 19       		.byte	0x19
 769 0185 CA040000 		.4byte	0x4ca
 770 0189 0C       		.byte	0xc
 771 018a 06       		.uleb128 0x6
 772 018b 7B020000 		.4byte	.LASF31
 773 018f 05       		.byte	0x5
 774 0190 93       		.byte	0x93
 775 0191 1A       		.byte	0x1a
 776 0192 60020000 		.4byte	0x260
 777 0196 10       		.byte	0x10
 778 0197 06       		.uleb128 0x6
 779 0198 64040000 		.4byte	.LASF32
 780 019c 05       		.byte	0x5
 781 019d 94       		.byte	0x94
 782 019e 1A       		.byte	0x1a
 783 019f 60020000 		.4byte	0x260
 784 01a3 14       		.byte	0x14
 785 01a4 06       		.uleb128 0x6
 786 01a5 0D020000 		.4byte	.LASF33
 787 01a9 05       		.byte	0x5
 788 01aa 9B       		.byte	0x9b
 789 01ab 1A       		.byte	0x1a
 790 01ac F9070000 		.4byte	0x7f9
 791 01b0 18       		.byte	0x18
 792 01b1 06       		.uleb128 0x6
 793 01b2 A7030000 		.4byte	.LASF34
 794 01b6 05       		.byte	0x5
 795 01b7 A4       		.byte	0xa4
 796 01b8 1A       		.byte	0x1a
 797 01b9 10080000 		.4byte	0x810
 798 01bd 1C       		.byte	0x1c
ARM GAS  /tmp/ccA06uLL.s 			page 15


 799 01be 06       		.uleb128 0x6
 800 01bf 36010000 		.4byte	.LASF35
 801 01c3 05       		.byte	0x5
 802 01c4 A9       		.byte	0xa9
 803 01c5 19       		.byte	0x19
 804 01c6 F6000000 		.4byte	0xf6
 805 01ca 20       		.byte	0x20
 806 01cb 06       		.uleb128 0x6
 807 01cc 24060000 		.4byte	.LASF36
 808 01d0 05       		.byte	0x5
 809 01d1 AD       		.byte	0xad
 810 01d2 19       		.byte	0x19
 811 01d3 EA000000 		.4byte	0xea
 812 01d7 21       		.byte	0x21
 813 01d8 06       		.uleb128 0x6
 814 01d9 2E030000 		.4byte	.LASF37
 815 01dd 05       		.byte	0x5
 816 01de B2       		.byte	0xb2
 817 01df 19       		.byte	0x19
 818 01e0 02010000 		.4byte	0x102
 819 01e4 22       		.byte	0x22
 820 01e5 08       		.uleb128 0x8
 821 01e6 7500     		.ascii	"u\000"
 822 01e8 05       		.byte	0x5
 823 01e9 0301     		.2byte	0x103
 824 01eb 19       		.byte	0x19
 825 01ec 12070000 		.4byte	0x712
 826 01f0 24       		.byte	0x24
 827 01f1 09       		.uleb128 0x9
 828 01f2 97010000 		.4byte	.LASF38
 829 01f6 05       		.byte	0x5
 830 01f7 0801     		.2byte	0x108
 831 01f9 19       		.byte	0x19
 832 01fa 66020000 		.4byte	0x266
 833 01fe 28       		.byte	0x28
 834 01ff 09       		.uleb128 0x9
 835 0200 2D010000 		.4byte	.LASF39
 836 0204 05       		.byte	0x5
 837 0205 0E01     		.2byte	0x10e
 838 0207 19       		.byte	0x19
 839 0208 8D020000 		.4byte	0x28d
 840 020c 2C       		.byte	0x2c
 841 020d 09       		.uleb128 0x9
 842 020e 24020000 		.4byte	.LASF40
 843 0212 05       		.byte	0x5
 844 0213 1401     		.2byte	0x114
 845 0215 19       		.byte	0x19
 846 0216 26010000 		.4byte	0x126
 847 021a 34       		.byte	0x34
 848 021b 09       		.uleb128 0x9
 849 021c 78060000 		.4byte	.LASF41
 850 0220 05       		.byte	0x5
 851 0221 1B01     		.2byte	0x11b
 852 0223 1A       		.byte	0x1a
 853 0224 F3070000 		.4byte	0x7f3
 854 0228 38       		.byte	0x38
 855 0229 09       		.uleb128 0x9
ARM GAS  /tmp/ccA06uLL.s 			page 16


 856 022a 81020000 		.4byte	.LASF42
 857 022e 05       		.byte	0x5
 858 022f 1F01     		.2byte	0x11f
 859 0231 19       		.byte	0x19
 860 0232 0E010000 		.4byte	0x10e
 861 0236 3C       		.byte	0x3c
 862 0237 09       		.uleb128 0x9
 863 0238 DB010000 		.4byte	.LASF43
 864 023c 05       		.byte	0x5
 865 023d 2601     		.2byte	0x126
 866 023f 1A       		.byte	0x1a
 867 0240 4D030000 		.4byte	0x34d
 868 0244 40       		.byte	0x40
 869 0245 09       		.uleb128 0x9
 870 0246 5D010000 		.4byte	.LASF44
 871 024a 05       		.byte	0x5
 872 024b 2C01     		.2byte	0x12c
 873 024d 19       		.byte	0x19
 874 024e BC060000 		.4byte	0x6bc
 875 0252 48       		.byte	0x48
 876 0253 00       		.byte	0
 877 0254 04       		.uleb128 0x4
 878 0255 AF020000 		.4byte	.LASF45
 879 0259 0A       		.byte	0xa
 880 025a 39       		.byte	0x39
 881 025b 14       		.byte	0x14
 882 025c 60020000 		.4byte	0x260
 883 0260 0A       		.uleb128 0xa
 884 0261 04       		.byte	0x4
 885 0262 4A010000 		.4byte	0x14a
 886 0266 04       		.uleb128 0x4
 887 0267 4F060000 		.4byte	.LASF46
 888 026b 0A       		.byte	0xa
 889 026c 3E       		.byte	0x3e
 890 026d 20       		.byte	0x20
 891 026e 72020000 		.4byte	0x272
 892 0272 05       		.uleb128 0x5
 893 0273 03040000 		.4byte	.LASF48
 894 0277 04       		.byte	0x4
 895 0278 05       		.byte	0x5
 896 0279 7C       		.byte	0x7c
 897 027a 08       		.byte	0x8
 898 027b 8D020000 		.4byte	0x28d
 899 027f 06       		.uleb128 0x6
 900 0280 EA000000 		.4byte	.LASF49
 901 0284 05       		.byte	0x5
 902 0285 7D       		.byte	0x7d
 903 0286 1A       		.byte	0x1a
 904 0287 60020000 		.4byte	0x260
 905 028b 00       		.byte	0
 906 028c 00       		.byte	0
 907 028d 04       		.uleb128 0x4
 908 028e FB040000 		.4byte	.LASF50
 909 0292 0A       		.byte	0xa
 910 0293 45       		.byte	0x45
 911 0294 21       		.byte	0x21
 912 0295 99020000 		.4byte	0x299
ARM GAS  /tmp/ccA06uLL.s 			page 17


 913 0299 05       		.uleb128 0x5
 914 029a 5E000000 		.4byte	.LASF51
 915 029e 08       		.byte	0x8
 916 029f 05       		.byte	0x5
 917 02a0 83       		.byte	0x83
 918 02a1 08       		.byte	0x8
 919 02a2 C1020000 		.4byte	0x2c1
 920 02a6 06       		.uleb128 0x6
 921 02a7 EA000000 		.4byte	.LASF49
 922 02ab 05       		.byte	0x5
 923 02ac 84       		.byte	0x84
 924 02ad 1A       		.byte	0x1a
 925 02ae 60020000 		.4byte	0x260
 926 02b2 00       		.byte	0
 927 02b3 06       		.uleb128 0x6
 928 02b4 4D000000 		.4byte	.LASF52
 929 02b8 05       		.byte	0x5
 930 02b9 85       		.byte	0x85
 931 02ba 1A       		.byte	0x1a
 932 02bb 60020000 		.4byte	0x260
 933 02bf 04       		.byte	0x4
 934 02c0 00       		.byte	0
 935 02c1 04       		.uleb128 0x4
 936 02c2 00000000 		.4byte	.LASF53
 937 02c6 0A       		.byte	0xa
 938 02c7 4C       		.byte	0x4c
 939 02c8 1E       		.byte	0x1e
 940 02c9 CD020000 		.4byte	0x2cd
 941 02cd 0B       		.uleb128 0xb
 942 02ce 4C020000 		.4byte	.LASF54
 943 02d2 1C       		.byte	0x1c
 944 02d3 05       		.byte	0x5
 945 02d4 5E01     		.2byte	0x15e
 946 02d6 08       		.byte	0x8
 947 02d7 30030000 		.4byte	0x330
 948 02db 09       		.uleb128 0x9
 949 02dc D5010000 		.4byte	.LASF29
 950 02e0 05       		.byte	0x5
 951 02e1 5F01     		.2byte	0x15f
 952 02e3 19       		.byte	0x19
 953 02e4 8D020000 		.4byte	0x28d
 954 02e8 00       		.byte	0
 955 02e9 09       		.uleb128 0x9
 956 02ea 03030000 		.4byte	.LASF30
 957 02ee 05       		.byte	0x5
 958 02ef 6001     		.2byte	0x160
 959 02f1 19       		.byte	0x19
 960 02f2 0E010000 		.4byte	0x10e
 961 02f6 08       		.byte	0x8
 962 02f7 08       		.uleb128 0x8
 963 02f8 63747800 		.ascii	"ctx\000"
 964 02fc 05       		.byte	0x5
 965 02fd 6201     		.2byte	0x162
 966 02ff 19       		.byte	0x19
 967 0300 CA040000 		.4byte	0x4ca
 968 0304 0C       		.byte	0xc
 969 0305 09       		.uleb128 0x9
ARM GAS  /tmp/ccA06uLL.s 			page 18


 970 0306 7B020000 		.4byte	.LASF31
 971 030a 05       		.byte	0x5
 972 030b 6501     		.2byte	0x165
 973 030d 1A       		.byte	0x1a
 974 030e 60020000 		.4byte	0x260
 975 0312 10       		.byte	0x10
 976 0313 09       		.uleb128 0x9
 977 0314 64040000 		.4byte	.LASF32
 978 0318 05       		.byte	0x5
 979 0319 6601     		.2byte	0x166
 980 031b 1A       		.byte	0x1a
 981 031c 60020000 		.4byte	0x260
 982 0320 14       		.byte	0x14
 983 0321 09       		.uleb128 0x9
 984 0322 08030000 		.4byte	.LASF55
 985 0326 05       		.byte	0x5
 986 0327 6901     		.2byte	0x169
 987 0329 1A       		.byte	0x1a
 988 032a 60020000 		.4byte	0x260
 989 032e 18       		.byte	0x18
 990 032f 00       		.byte	0
 991 0330 04       		.uleb128 0x4
 992 0331 94040000 		.4byte	.LASF56
 993 0335 0A       		.byte	0xa
 994 0336 51       		.byte	0x51
 995 0337 10       		.byte	0x10
 996 0338 3C030000 		.4byte	0x33c
 997 033c 0A       		.uleb128 0xa
 998 033d 04       		.byte	0x4
 999 033e 42030000 		.4byte	0x342
 1000 0342 0C       		.uleb128 0xc
 1001 0343 4D030000 		.4byte	0x34d
 1002 0347 0D       		.uleb128 0xd
 1003 0348 4D030000 		.4byte	0x34d
 1004 034c 00       		.byte	0
 1005 034d 0E       		.uleb128 0xe
 1006 034e 04       		.byte	0x4
 1007 034f 04       		.uleb128 0x4
 1008 0350 33030000 		.4byte	.LASF57
 1009 0354 0A       		.byte	0xa
 1010 0355 56       		.byte	0x56
 1011 0356 21       		.byte	0x21
 1012 0357 5B030000 		.4byte	0x35b
 1013 035b 0B       		.uleb128 0xb
 1014 035c AE030000 		.4byte	.LASF58
 1015 0360 14       		.byte	0x14
 1016 0361 05       		.byte	0x5
 1017 0362 3901     		.2byte	0x139
 1018 0364 08       		.byte	0x8
 1019 0365 B0030000 		.4byte	0x3b0
 1020 0369 09       		.uleb128 0x9
 1021 036a EA000000 		.4byte	.LASF49
 1022 036e 05       		.byte	0x5
 1023 036f 3A01     		.2byte	0x13a
 1024 0371 1A       		.byte	0x1a
 1025 0372 16080000 		.4byte	0x816
 1026 0376 00       		.byte	0
ARM GAS  /tmp/ccA06uLL.s 			page 19


 1027 0377 09       		.uleb128 0x9
 1028 0378 4D000000 		.4byte	.LASF52
 1029 037c 05       		.byte	0x5
 1030 037d 3B01     		.2byte	0x13b
 1031 037f 1A       		.byte	0x1a
 1032 0380 16080000 		.4byte	0x816
 1033 0384 04       		.byte	0x4
 1034 0385 09       		.uleb128 0x9
 1035 0386 20000000 		.4byte	.LASF59
 1036 038a 05       		.byte	0x5
 1037 038b 3C01     		.2byte	0x13c
 1038 038d 19       		.byte	0x19
 1039 038e A6040000 		.4byte	0x4a6
 1040 0392 08       		.byte	0x8
 1041 0393 09       		.uleb128 0x9
 1042 0394 58010000 		.4byte	.LASF60
 1043 0398 05       		.byte	0x5
 1044 0399 3D01     		.2byte	0x13d
 1045 039b 19       		.byte	0x19
 1046 039c 30030000 		.4byte	0x330
 1047 03a0 0C       		.byte	0xc
 1048 03a1 08       		.uleb128 0x8
 1049 03a2 70617200 		.ascii	"par\000"
 1050 03a6 05       		.byte	0x5
 1051 03a7 3F01     		.2byte	0x13f
 1052 03a9 1A       		.byte	0x1a
 1053 03aa 4D030000 		.4byte	0x34d
 1054 03ae 10       		.byte	0x10
 1055 03af 00       		.byte	0
 1056 03b0 04       		.uleb128 0x4
 1057 03b1 D4000000 		.4byte	.LASF61
 1058 03b5 0A       		.byte	0xa
 1059 03b6 5B       		.byte	0x5b
 1060 03b7 28       		.byte	0x28
 1061 03b8 BC030000 		.4byte	0x3bc
 1062 03bc 0B       		.uleb128 0xb
 1063 03bd C2020000 		.4byte	.LASF62
 1064 03c1 10       		.byte	0x10
 1065 03c2 05       		.byte	0x5
 1066 03c3 4901     		.2byte	0x149
 1067 03c5 08       		.byte	0x8
 1068 03c6 03040000 		.4byte	0x403
 1069 03ca 09       		.uleb128 0x9
 1070 03cb EA000000 		.4byte	.LASF49
 1071 03cf 05       		.byte	0x5
 1072 03d0 4A01     		.2byte	0x14a
 1073 03d2 1A       		.byte	0x1a
 1074 03d3 16080000 		.4byte	0x816
 1075 03d7 00       		.byte	0
 1076 03d8 09       		.uleb128 0x9
 1077 03d9 4D000000 		.4byte	.LASF52
 1078 03dd 05       		.byte	0x5
 1079 03de 4C01     		.2byte	0x14c
 1080 03e0 1A       		.byte	0x1a
 1081 03e1 16080000 		.4byte	0x816
 1082 03e5 04       		.byte	0x4
 1083 03e6 09       		.uleb128 0x9
ARM GAS  /tmp/ccA06uLL.s 			page 20


 1084 03e7 20000000 		.4byte	.LASF59
 1085 03eb 05       		.byte	0x5
 1086 03ec 4E01     		.2byte	0x14e
 1087 03ee 19       		.byte	0x19
 1088 03ef A6040000 		.4byte	0x4a6
 1089 03f3 08       		.byte	0x8
 1090 03f4 09       		.uleb128 0x9
 1091 03f5 7A030000 		.4byte	.LASF63
 1092 03f9 05       		.byte	0x5
 1093 03fa 5601     		.2byte	0x156
 1094 03fc 19       		.byte	0x19
 1095 03fd 9A040000 		.4byte	0x49a
 1096 0401 0C       		.byte	0xc
 1097 0402 00       		.byte	0
 1098 0403 04       		.uleb128 0x4
 1099 0404 6F000000 		.4byte	.LASF64
 1100 0408 0A       		.byte	0xa
 1101 0409 60       		.byte	0x60
 1102 040a 20       		.byte	0x20
 1103 040b 0F040000 		.4byte	0x40f
 1104 040f 0B       		.uleb128 0xb
 1105 0410 87010000 		.4byte	.LASF65
 1106 0414 04       		.byte	0x4
 1107 0415 05       		.byte	0x5
 1108 0416 7001     		.2byte	0x170
 1109 0418 08       		.byte	0x8
 1110 0419 2C040000 		.4byte	0x42c
 1111 041d 09       		.uleb128 0x9
 1112 041e AB040000 		.4byte	.LASF66
 1113 0422 05       		.byte	0x5
 1114 0423 7801     		.2byte	0x178
 1115 0425 24       		.byte	0x24
 1116 0426 FF070000 		.4byte	0x7ff
 1117 042a 00       		.byte	0
 1118 042b 00       		.byte	0
 1119 042c 04       		.uleb128 0x4
 1120 042d 2D020000 		.4byte	.LASF67
 1121 0431 0A       		.byte	0xa
 1122 0432 65       		.byte	0x65
 1123 0433 1A       		.byte	0x1a
 1124 0434 38040000 		.4byte	0x438
 1125 0438 0B       		.uleb128 0xb
 1126 0439 8A030000 		.4byte	.LASF68
 1127 043d D0       		.byte	0xd0
 1128 043e 05       		.byte	0x5
 1129 043f 9001     		.2byte	0x190
 1130 0441 08       		.byte	0x8
 1131 0442 9A040000 		.4byte	0x49a
 1132 0446 09       		.uleb128 0x9
 1133 0447 14050000 		.4byte	.LASF69
 1134 044b 05       		.byte	0x5
 1135 044c 9401     		.2byte	0x194
 1136 044e 19       		.byte	0x19
 1137 044f C1020000 		.4byte	0x2c1
 1138 0453 00       		.byte	0
 1139 0454 09       		.uleb128 0x9
 1140 0455 1A010000 		.4byte	.LASF70
ARM GAS  /tmp/ccA06uLL.s 			page 21


 1141 0459 05       		.byte	0x5
 1142 045a 9801     		.2byte	0x198
 1143 045c 19       		.byte	0x19
 1144 045d B0030000 		.4byte	0x3b0
 1145 0461 1C       		.byte	0x1c
 1146 0462 08       		.uleb128 0x8
 1147 0463 64626700 		.ascii	"dbg\000"
 1148 0467 05       		.byte	0x5
 1149 0468 9C01     		.2byte	0x19c
 1150 046a 19       		.byte	0x19
 1151 046b 03040000 		.4byte	0x403
 1152 046f 2C       		.byte	0x2c
 1153 0470 09       		.uleb128 0x9
 1154 0471 C1000000 		.4byte	.LASF71
 1155 0475 05       		.byte	0x5
 1156 0476 A001     		.2byte	0x1a0
 1157 0478 19       		.byte	0x19
 1158 0479 4A010000 		.4byte	0x14a
 1159 047d 30       		.byte	0x30
 1160 047e 08       		.uleb128 0x8
 1161 047f 746D00   		.ascii	"tm\000"
 1162 0482 05       		.byte	0x5
 1163 0483 A501     		.2byte	0x1a5
 1164 0485 19       		.byte	0x19
 1165 0486 67060000 		.4byte	0x667
 1166 048a 90       		.byte	0x90
 1167 048b 09       		.uleb128 0x9
 1168 048c 36000000 		.4byte	.LASF72
 1169 0490 05       		.byte	0x5
 1170 0491 AB01     		.2byte	0x1ab
 1171 0493 19       		.byte	0x19
 1172 0494 06070000 		.4byte	0x706
 1173 0498 98       		.byte	0x98
 1174 0499 00       		.byte	0
 1175 049a 04       		.uleb128 0x4
 1176 049b 8A040000 		.4byte	.LASF73
 1177 049f 0B       		.byte	0xb
 1178 04a0 6D       		.byte	0x6d
 1179 04a1 12       		.byte	0x12
 1180 04a2 BA000000 		.4byte	0xba
 1181 04a6 04       		.uleb128 0x4
 1182 04a7 A7010000 		.4byte	.LASF74
 1183 04ab 0B       		.byte	0xb
 1184 04ac 79       		.byte	0x79
 1185 04ad 12       		.byte	0x12
 1186 04ae BA000000 		.4byte	0xba
 1187 04b2 04       		.uleb128 0x4
 1188 04b3 7E010000 		.4byte	.LASF75
 1189 04b7 0C       		.byte	0xc
 1190 04b8 65       		.byte	0x65
 1191 04b9 0F       		.byte	0xf
 1192 04ba 4D030000 		.4byte	0x34d
 1193 04be 04       		.uleb128 0x4
 1194 04bf 70020000 		.4byte	.LASF76
 1195 04c3 0C       		.byte	0xc
 1196 04c4 6D       		.byte	0x6d
 1197 04c5 12       		.byte	0x12
ARM GAS  /tmp/ccA06uLL.s 			page 22


 1198 04c6 C6000000 		.4byte	0xc6
 1199 04ca 05       		.uleb128 0x5
 1200 04cb E5020000 		.4byte	.LASF77
 1201 04cf 04       		.byte	0x4
 1202 04d0 0C       		.byte	0xc
 1203 04d1 89       		.byte	0x89
 1204 04d2 08       		.byte	0x8
 1205 04d3 E4040000 		.4byte	0x4e4
 1206 04d7 07       		.uleb128 0x7
 1207 04d8 737000   		.ascii	"sp\000"
 1208 04db 0C       		.byte	0xc
 1209 04dc 8A       		.byte	0x8a
 1210 04dd 17       		.byte	0x17
 1211 04de 4A060000 		.4byte	0x64a
 1212 04e2 00       		.byte	0
 1213 04e3 00       		.byte	0
 1214 04e4 0B       		.uleb128 0xb
 1215 04e5 52000000 		.4byte	.LASF78
 1216 04e9 64       		.byte	0x64
 1217 04ea 03       		.byte	0x3
 1218 04eb 5901     		.2byte	0x159
 1219 04ed 08       		.byte	0x8
 1220 04ee 4A060000 		.4byte	0x64a
 1221 04f2 08       		.uleb128 0x8
 1222 04f3 73313600 		.ascii	"s16\000"
 1223 04f7 03       		.byte	0x3
 1224 04f8 5B01     		.2byte	0x15b
 1225 04fa 11       		.byte	0x11
 1226 04fb B2040000 		.4byte	0x4b2
 1227 04ff 00       		.byte	0
 1228 0500 08       		.uleb128 0x8
 1229 0501 73313700 		.ascii	"s17\000"
 1230 0505 03       		.byte	0x3
 1231 0506 5C01     		.2byte	0x15c
 1232 0508 11       		.byte	0x11
 1233 0509 B2040000 		.4byte	0x4b2
 1234 050d 04       		.byte	0x4
 1235 050e 08       		.uleb128 0x8
 1236 050f 73313800 		.ascii	"s18\000"
 1237 0513 03       		.byte	0x3
 1238 0514 5D01     		.2byte	0x15d
 1239 0516 11       		.byte	0x11
 1240 0517 B2040000 		.4byte	0x4b2
 1241 051b 08       		.byte	0x8
 1242 051c 08       		.uleb128 0x8
 1243 051d 73313900 		.ascii	"s19\000"
 1244 0521 03       		.byte	0x3
 1245 0522 5E01     		.2byte	0x15e
 1246 0524 11       		.byte	0x11
 1247 0525 B2040000 		.4byte	0x4b2
 1248 0529 0C       		.byte	0xc
 1249 052a 08       		.uleb128 0x8
 1250 052b 73323000 		.ascii	"s20\000"
 1251 052f 03       		.byte	0x3
 1252 0530 5F01     		.2byte	0x15f
 1253 0532 11       		.byte	0x11
 1254 0533 B2040000 		.4byte	0x4b2
ARM GAS  /tmp/ccA06uLL.s 			page 23


 1255 0537 10       		.byte	0x10
 1256 0538 08       		.uleb128 0x8
 1257 0539 73323100 		.ascii	"s21\000"
 1258 053d 03       		.byte	0x3
 1259 053e 6001     		.2byte	0x160
 1260 0540 11       		.byte	0x11
 1261 0541 B2040000 		.4byte	0x4b2
 1262 0545 14       		.byte	0x14
 1263 0546 08       		.uleb128 0x8
 1264 0547 73323200 		.ascii	"s22\000"
 1265 054b 03       		.byte	0x3
 1266 054c 6101     		.2byte	0x161
 1267 054e 11       		.byte	0x11
 1268 054f B2040000 		.4byte	0x4b2
 1269 0553 18       		.byte	0x18
 1270 0554 08       		.uleb128 0x8
 1271 0555 73323300 		.ascii	"s23\000"
 1272 0559 03       		.byte	0x3
 1273 055a 6201     		.2byte	0x162
 1274 055c 11       		.byte	0x11
 1275 055d B2040000 		.4byte	0x4b2
 1276 0561 1C       		.byte	0x1c
 1277 0562 08       		.uleb128 0x8
 1278 0563 73323400 		.ascii	"s24\000"
 1279 0567 03       		.byte	0x3
 1280 0568 6301     		.2byte	0x163
 1281 056a 11       		.byte	0x11
 1282 056b B2040000 		.4byte	0x4b2
 1283 056f 20       		.byte	0x20
 1284 0570 08       		.uleb128 0x8
 1285 0571 73323500 		.ascii	"s25\000"
 1286 0575 03       		.byte	0x3
 1287 0576 6401     		.2byte	0x164
 1288 0578 11       		.byte	0x11
 1289 0579 B2040000 		.4byte	0x4b2
 1290 057d 24       		.byte	0x24
 1291 057e 08       		.uleb128 0x8
 1292 057f 73323600 		.ascii	"s26\000"
 1293 0583 03       		.byte	0x3
 1294 0584 6501     		.2byte	0x165
 1295 0586 11       		.byte	0x11
 1296 0587 B2040000 		.4byte	0x4b2
 1297 058b 28       		.byte	0x28
 1298 058c 08       		.uleb128 0x8
 1299 058d 73323700 		.ascii	"s27\000"
 1300 0591 03       		.byte	0x3
 1301 0592 6601     		.2byte	0x166
 1302 0594 11       		.byte	0x11
 1303 0595 B2040000 		.4byte	0x4b2
 1304 0599 2C       		.byte	0x2c
 1305 059a 08       		.uleb128 0x8
 1306 059b 73323800 		.ascii	"s28\000"
 1307 059f 03       		.byte	0x3
 1308 05a0 6701     		.2byte	0x167
 1309 05a2 11       		.byte	0x11
 1310 05a3 B2040000 		.4byte	0x4b2
 1311 05a7 30       		.byte	0x30
ARM GAS  /tmp/ccA06uLL.s 			page 24


 1312 05a8 08       		.uleb128 0x8
 1313 05a9 73323900 		.ascii	"s29\000"
 1314 05ad 03       		.byte	0x3
 1315 05ae 6801     		.2byte	0x168
 1316 05b0 11       		.byte	0x11
 1317 05b1 B2040000 		.4byte	0x4b2
 1318 05b5 34       		.byte	0x34
 1319 05b6 08       		.uleb128 0x8
 1320 05b7 73333000 		.ascii	"s30\000"
 1321 05bb 03       		.byte	0x3
 1322 05bc 6901     		.2byte	0x169
 1323 05be 11       		.byte	0x11
 1324 05bf B2040000 		.4byte	0x4b2
 1325 05c3 38       		.byte	0x38
 1326 05c4 08       		.uleb128 0x8
 1327 05c5 73333100 		.ascii	"s31\000"
 1328 05c9 03       		.byte	0x3
 1329 05ca 6A01     		.2byte	0x16a
 1330 05cc 11       		.byte	0x11
 1331 05cd B2040000 		.4byte	0x4b2
 1332 05d1 3C       		.byte	0x3c
 1333 05d2 08       		.uleb128 0x8
 1334 05d3 723400   		.ascii	"r4\000"
 1335 05d6 03       		.byte	0x3
 1336 05d7 6C01     		.2byte	0x16c
 1337 05d9 11       		.byte	0x11
 1338 05da B2040000 		.4byte	0x4b2
 1339 05de 40       		.byte	0x40
 1340 05df 08       		.uleb128 0x8
 1341 05e0 723500   		.ascii	"r5\000"
 1342 05e3 03       		.byte	0x3
 1343 05e4 6D01     		.2byte	0x16d
 1344 05e6 11       		.byte	0x11
 1345 05e7 B2040000 		.4byte	0x4b2
 1346 05eb 44       		.byte	0x44
 1347 05ec 08       		.uleb128 0x8
 1348 05ed 723600   		.ascii	"r6\000"
 1349 05f0 03       		.byte	0x3
 1350 05f1 6E01     		.2byte	0x16e
 1351 05f3 11       		.byte	0x11
 1352 05f4 B2040000 		.4byte	0x4b2
 1353 05f8 48       		.byte	0x48
 1354 05f9 08       		.uleb128 0x8
 1355 05fa 723700   		.ascii	"r7\000"
 1356 05fd 03       		.byte	0x3
 1357 05fe 6F01     		.2byte	0x16f
 1358 0600 11       		.byte	0x11
 1359 0601 B2040000 		.4byte	0x4b2
 1360 0605 4C       		.byte	0x4c
 1361 0606 08       		.uleb128 0x8
 1362 0607 723800   		.ascii	"r8\000"
 1363 060a 03       		.byte	0x3
 1364 060b 7001     		.2byte	0x170
 1365 060d 11       		.byte	0x11
 1366 060e B2040000 		.4byte	0x4b2
 1367 0612 50       		.byte	0x50
 1368 0613 08       		.uleb128 0x8
ARM GAS  /tmp/ccA06uLL.s 			page 25


 1369 0614 723900   		.ascii	"r9\000"
 1370 0617 03       		.byte	0x3
 1371 0618 7101     		.2byte	0x171
 1372 061a 11       		.byte	0x11
 1373 061b B2040000 		.4byte	0x4b2
 1374 061f 54       		.byte	0x54
 1375 0620 08       		.uleb128 0x8
 1376 0621 72313000 		.ascii	"r10\000"
 1377 0625 03       		.byte	0x3
 1378 0626 7201     		.2byte	0x172
 1379 0628 11       		.byte	0x11
 1380 0629 B2040000 		.4byte	0x4b2
 1381 062d 58       		.byte	0x58
 1382 062e 08       		.uleb128 0x8
 1383 062f 72313100 		.ascii	"r11\000"
 1384 0633 03       		.byte	0x3
 1385 0634 7301     		.2byte	0x173
 1386 0636 11       		.byte	0x11
 1387 0637 B2040000 		.4byte	0x4b2
 1388 063b 5C       		.byte	0x5c
 1389 063c 08       		.uleb128 0x8
 1390 063d 6C7200   		.ascii	"lr\000"
 1391 0640 03       		.byte	0x3
 1392 0641 7401     		.2byte	0x174
 1393 0643 11       		.byte	0x11
 1394 0644 B2040000 		.4byte	0x4b2
 1395 0648 60       		.byte	0x60
 1396 0649 00       		.byte	0
 1397 064a 0A       		.uleb128 0xa
 1398 064b 04       		.byte	0x4
 1399 064c E4040000 		.4byte	0x4e4
 1400 0650 0F       		.uleb128 0xf
 1401 0651 04       		.byte	0x4
 1402 0652 0D       		.byte	0xd
 1403 0653 38       		.byte	0x38
 1404 0654 09       		.byte	0x9
 1405 0655 67060000 		.4byte	0x667
 1406 0659 06       		.uleb128 0x6
 1407 065a B5040000 		.4byte	.LASF79
 1408 065e 0D       		.byte	0xd
 1409 065f 3C       		.byte	0x3c
 1410 0660 19       		.byte	0x19
 1411 0661 D2000000 		.4byte	0xd2
 1412 0665 00       		.byte	0
 1413 0666 00       		.byte	0
 1414 0667 04       		.uleb128 0x4
 1415 0668 F2020000 		.4byte	.LASF80
 1416 066c 0D       		.byte	0xd
 1417 066d 3D       		.byte	0x3d
 1418 066e 03       		.byte	0x3
 1419 066f 50060000 		.4byte	0x650
 1420 0673 0F       		.uleb128 0xf
 1421 0674 18       		.byte	0x18
 1422 0675 0D       		.byte	0xd
 1423 0676 48       		.byte	0x48
 1424 0677 09       		.byte	0x9
 1425 0678 BC060000 		.4byte	0x6bc
ARM GAS  /tmp/ccA06uLL.s 			page 26


 1426 067c 06       		.uleb128 0x6
 1427 067d 73040000 		.4byte	.LASF81
 1428 0681 0D       		.byte	0xd
 1429 0682 49       		.byte	0x49
 1430 0683 19       		.byte	0x19
 1431 0684 D2000000 		.4byte	0xd2
 1432 0688 00       		.byte	0
 1433 0689 06       		.uleb128 0x6
 1434 068a 88000000 		.4byte	.LASF82
 1435 068e 0D       		.byte	0xd
 1436 068f 4A       		.byte	0x4a
 1437 0690 19       		.byte	0x19
 1438 0691 D2000000 		.4byte	0xd2
 1439 0695 04       		.byte	0x4
 1440 0696 06       		.uleb128 0x6
 1441 0697 18020000 		.4byte	.LASF83
 1442 069b 0D       		.byte	0xd
 1443 069c 4B       		.byte	0x4b
 1444 069d 19       		.byte	0x19
 1445 069e D2000000 		.4byte	0xd2
 1446 06a2 08       		.byte	0x8
 1447 06a3 07       		.uleb128 0x7
 1448 06a4 6E00     		.ascii	"n\000"
 1449 06a6 0D       		.byte	0xd
 1450 06a7 4C       		.byte	0x4c
 1451 06a8 19       		.byte	0x19
 1452 06a9 3E010000 		.4byte	0x13e
 1453 06ad 0C       		.byte	0xc
 1454 06ae 06       		.uleb128 0x6
 1455 06af 1B030000 		.4byte	.LASF84
 1456 06b3 0D       		.byte	0xd
 1457 06b4 4D       		.byte	0x4d
 1458 06b5 19       		.byte	0x19
 1459 06b6 DE000000 		.4byte	0xde
 1460 06ba 10       		.byte	0x10
 1461 06bb 00       		.byte	0
 1462 06bc 04       		.uleb128 0x4
 1463 06bd 8E000000 		.4byte	.LASF85
 1464 06c1 0D       		.byte	0xd
 1465 06c2 4E       		.byte	0x4e
 1466 06c3 03       		.byte	0x3
 1467 06c4 73060000 		.4byte	0x673
 1468 06c8 0F       		.uleb128 0xf
 1469 06c9 38       		.byte	0x38
 1470 06ca 0E       		.byte	0xe
 1471 06cb 38       		.byte	0x38
 1472 06cc 09       		.byte	0x9
 1473 06cd 06070000 		.4byte	0x706
 1474 06d1 06       		.uleb128 0x6
 1475 06d2 CF010000 		.4byte	.LASF86
 1476 06d6 0E       		.byte	0xe
 1477 06d7 39       		.byte	0x39
 1478 06d8 19       		.byte	0x19
 1479 06d9 3E010000 		.4byte	0x13e
 1480 06dd 00       		.byte	0
 1481 06de 06       		.uleb128 0x6
 1482 06df 4B030000 		.4byte	.LASF87
ARM GAS  /tmp/ccA06uLL.s 			page 27


 1483 06e3 0E       		.byte	0xe
 1484 06e4 3A       		.byte	0x3a
 1485 06e5 19       		.byte	0x19
 1486 06e6 3E010000 		.4byte	0x13e
 1487 06ea 04       		.byte	0x4
 1488 06eb 06       		.uleb128 0x6
 1489 06ec 80060000 		.4byte	.LASF88
 1490 06f0 0E       		.byte	0xe
 1491 06f1 3B       		.byte	0x3b
 1492 06f2 19       		.byte	0x19
 1493 06f3 BC060000 		.4byte	0x6bc
 1494 06f7 08       		.byte	0x8
 1495 06f8 06       		.uleb128 0x6
 1496 06f9 41020000 		.4byte	.LASF89
 1497 06fd 0E       		.byte	0xe
 1498 06fe 3D       		.byte	0x3d
 1499 06ff 19       		.byte	0x19
 1500 0700 BC060000 		.4byte	0x6bc
 1501 0704 20       		.byte	0x20
 1502 0705 00       		.byte	0
 1503 0706 04       		.uleb128 0x4
 1504 0707 F4010000 		.4byte	.LASF90
 1505 070b 0E       		.byte	0xe
 1506 070c 3F       		.byte	0x3f
 1507 070d 03       		.byte	0x3
 1508 070e C8060000 		.4byte	0x6c8
 1509 0712 10       		.uleb128 0x10
 1510 0713 04       		.byte	0x4
 1511 0714 05       		.byte	0x5
 1512 0715 C6       		.byte	0xc6
 1513 0716 03       		.byte	0x3
 1514 0717 7D070000 		.4byte	0x77d
 1515 071b 11       		.uleb128 0x11
 1516 071c 26000000 		.4byte	.LASF91
 1517 0720 05       		.byte	0x5
 1518 0721 CD       		.byte	0xcd
 1519 0722 19       		.byte	0x19
 1520 0723 1A010000 		.4byte	0x11a
 1521 0727 11       		.uleb128 0x11
 1522 0728 B8000000 		.4byte	.LASF92
 1523 072c 05       		.byte	0x5
 1524 072d D4       		.byte	0xd4
 1525 072e 19       		.byte	0x19
 1526 072f 1A010000 		.4byte	0x11a
 1527 0733 11       		.uleb128 0x11
 1528 0734 48060000 		.4byte	.LASF93
 1529 0738 05       		.byte	0x5
 1530 0739 DB       		.byte	0xdb
 1531 073a 1A       		.byte	0x1a
 1532 073b 4D030000 		.4byte	0x34d
 1533 073f 11       		.uleb128 0x11
 1534 0740 1A000000 		.4byte	.LASF94
 1535 0744 05       		.byte	0x5
 1536 0745 E2       		.byte	0xe2
 1537 0746 1A       		.byte	0x1a
 1538 0747 7D070000 		.4byte	0x77d
 1539 074b 11       		.uleb128 0x11
ARM GAS  /tmp/ccA06uLL.s 			page 28


 1540 074c CC000000 		.4byte	.LASF95
 1541 0750 05       		.byte	0x5
 1542 0751 E7       		.byte	0xe7
 1543 0752 19       		.byte	0x19
 1544 0753 1A010000 		.4byte	0x11a
 1545 0757 11       		.uleb128 0x11
 1546 0758 C8010000 		.4byte	.LASF96
 1547 075c 05       		.byte	0x5
 1548 075d F0       		.byte	0xf0
 1549 075e 1A       		.byte	0x1a
 1550 075f AB070000 		.4byte	0x7ab
 1551 0763 11       		.uleb128 0x11
 1552 0764 F0030000 		.4byte	.LASF97
 1553 0768 05       		.byte	0x5
 1554 0769 F9       		.byte	0xf9
 1555 076a 1A       		.byte	0x1a
 1556 076b F3070000 		.4byte	0x7f3
 1557 076f 12       		.uleb128 0x12
 1558 0770 83030000 		.4byte	.LASF98
 1559 0774 05       		.byte	0x5
 1560 0775 0101     		.2byte	0x101
 1561 0777 19       		.byte	0x19
 1562 0778 26010000 		.4byte	0x126
 1563 077c 00       		.byte	0
 1564 077d 0A       		.uleb128 0xa
 1565 077e 04       		.byte	0x4
 1566 077f 54020000 		.4byte	0x254
 1567 0783 05       		.uleb128 0x5
 1568 0784 CC030000 		.4byte	.LASF99
 1569 0788 0C       		.byte	0xc
 1570 0789 0F       		.byte	0xf
 1571 078a 34       		.byte	0x34
 1572 078b 10       		.byte	0x10
 1573 078c AB070000 		.4byte	0x7ab
 1574 0790 06       		.uleb128 0x6
 1575 0791 D5010000 		.4byte	.LASF29
 1576 0795 0F       		.byte	0xf
 1577 0796 35       		.byte	0x35
 1578 0797 19       		.byte	0x19
 1579 0798 8D020000 		.4byte	0x28d
 1580 079c 00       		.byte	0
 1581 079d 07       		.uleb128 0x7
 1582 079e 636E7400 		.ascii	"cnt\000"
 1583 07a2 0F       		.byte	0xf
 1584 07a3 37       		.byte	0x37
 1585 07a4 19       		.byte	0x19
 1586 07a5 32010000 		.4byte	0x132
 1587 07a9 08       		.byte	0x8
 1588 07aa 00       		.byte	0
 1589 07ab 0A       		.uleb128 0xa
 1590 07ac 04       		.byte	0x4
 1591 07ad 83070000 		.4byte	0x783
 1592 07b1 05       		.uleb128 0x5
 1593 07b2 0B050000 		.4byte	.LASF100
 1594 07b6 14       		.byte	0x14
 1595 07b7 10       		.byte	0x10
 1596 07b8 39       		.byte	0x39
ARM GAS  /tmp/ccA06uLL.s 			page 29


 1597 07b9 08       		.byte	0x8
 1598 07ba F3070000 		.4byte	0x7f3
 1599 07be 06       		.uleb128 0x6
 1600 07bf D5010000 		.4byte	.LASF29
 1601 07c3 10       		.byte	0x10
 1602 07c4 3A       		.byte	0x3a
 1603 07c5 19       		.byte	0x19
 1604 07c6 8D020000 		.4byte	0x28d
 1605 07ca 00       		.byte	0
 1606 07cb 06       		.uleb128 0x6
 1607 07cc 13040000 		.4byte	.LASF101
 1608 07d0 10       		.byte	0x10
 1609 07d1 3C       		.byte	0x3c
 1610 07d2 1A       		.byte	0x1a
 1611 07d3 60020000 		.4byte	0x260
 1612 07d7 08       		.byte	0x8
 1613 07d8 06       		.uleb128 0x6
 1614 07d9 EA000000 		.4byte	.LASF49
 1615 07dd 10       		.byte	0x10
 1616 07de 3E       		.byte	0x3e
 1617 07df 1A       		.byte	0x1a
 1618 07e0 34080000 		.4byte	0x834
 1619 07e4 0C       		.byte	0xc
 1620 07e5 07       		.uleb128 0x7
 1621 07e6 636E7400 		.ascii	"cnt\000"
 1622 07ea 10       		.byte	0x10
 1623 07eb 41       		.byte	0x41
 1624 07ec 19       		.byte	0x19
 1625 07ed 32010000 		.4byte	0x132
 1626 07f1 10       		.byte	0x10
 1627 07f2 00       		.byte	0
 1628 07f3 0A       		.uleb128 0xa
 1629 07f4 04       		.byte	0x4
 1630 07f5 B1070000 		.4byte	0x7b1
 1631 07f9 0A       		.uleb128 0xa
 1632 07fa 04       		.byte	0x4
 1633 07fb 0B080000 		.4byte	0x80b
 1634 07ff 13       		.uleb128 0x13
 1635 0800 F9070000 		.4byte	0x7f9
 1636 0804 03       		.uleb128 0x3
 1637 0805 01       		.byte	0x1
 1638 0806 08       		.byte	0x8
 1639 0807 5F040000 		.4byte	.LASF102
 1640 080b 14       		.uleb128 0x14
 1641 080c 04080000 		.4byte	0x804
 1642 0810 0A       		.uleb128 0xa
 1643 0811 04       		.byte	0x4
 1644 0812 BE040000 		.4byte	0x4be
 1645 0816 0A       		.uleb128 0xa
 1646 0817 04       		.byte	0x4
 1647 0818 4F030000 		.4byte	0x34f
 1648 081c 15       		.uleb128 0x15
 1649 081d 636800   		.ascii	"ch\000"
 1650 0820 05       		.byte	0x5
 1651 0821 C701     		.2byte	0x1c7
 1652 0823 14       		.byte	0x14
 1653 0824 2C040000 		.4byte	0x42c
ARM GAS  /tmp/ccA06uLL.s 			page 30


 1654 0828 04       		.uleb128 0x4
 1655 0829 9F010000 		.4byte	.LASF103
 1656 082d 10       		.byte	0x10
 1657 082e 34       		.byte	0x34
 1658 082f 19       		.byte	0x19
 1659 0830 B1070000 		.4byte	0x7b1
 1660 0834 0A       		.uleb128 0xa
 1661 0835 04       		.byte	0x4
 1662 0836 28080000 		.4byte	0x828
 1663 083a 03       		.uleb128 0x3
 1664 083b 01       		.byte	0x1
 1665 083c 02       		.byte	0x2
 1666 083d 54030000 		.4byte	.LASF104
 1667 0841 16       		.uleb128 0x16
 1668 0842 BF030000 		.4byte	.LASF126
 1669 0846 01       		.byte	0x1
 1670 0847 91       		.byte	0x91
 1671 0848 06       		.byte	0x6
 1672 0849 00000000 		.4byte	.LFB303
 1673 084d 28000000 		.4byte	.LFE303-.LFB303
 1674 0851 01       		.uleb128 0x1
 1675 0852 9C       		.byte	0x9c
 1676 0853 86090000 		.4byte	0x986
 1677 0857 17       		.uleb128 0x17
 1678 0858 747000   		.ascii	"tp\000"
 1679 085b 01       		.byte	0x1
 1680 085c 91       		.byte	0x91
 1681 085d 1D       		.byte	0x1d
 1682 085e 60020000 		.4byte	0x260
 1683 0862 04000000 		.4byte	.LLST13
 1684 0866 00000000 		.4byte	.LVUS13
 1685 086a 17       		.uleb128 0x17
 1686 086b 6D736700 		.ascii	"msg\000"
 1687 086f 01       		.byte	0x1
 1688 0870 91       		.byte	0x91
 1689 0871 27       		.byte	0x27
 1690 0872 1A010000 		.4byte	0x11a
 1691 0876 29000000 		.4byte	.LLST14
 1692 087a 23000000 		.4byte	.LVUS14
 1693 087e 18       		.uleb128 0x18
 1694 087f 94030000 		.4byte	.LASF107
 1695 0883 96090000 		.4byte	0x996
 1696 0887 19       		.uleb128 0x19
 1697 0888 D50C0000 		.4byte	0xcd5
 1698 088c 00000000 		.4byte	.LBI112
 1699 0890 02       		.byte	.LVU115
 1700 0891 00010000 		.4byte	.Ldebug_ranges0+0x100
 1701 0895 01       		.byte	0x1
 1702 0896 93       		.byte	0x93
 1703 0897 03       		.byte	0x3
 1704 0898 DD080000 		.4byte	0x8dd
 1705 089c 1A       		.uleb128 0x1a
 1706 089d 430D0000 		.4byte	0xd43
 1707 08a1 00000000 		.4byte	.LBI114
 1708 08a5 04       		.byte	.LVU117
 1709 08a6 28010000 		.4byte	.Ldebug_ranges0+0x128
 1710 08aa 02       		.byte	0x2
ARM GAS  /tmp/ccA06uLL.s 			page 31


 1711 08ab 6301     		.2byte	0x163
 1712 08ad 03       		.byte	0x3
 1713 08ae D3080000 		.4byte	0x8d3
 1714 08b2 1B       		.uleb128 0x1b
 1715 08b3 4D0D0000 		.4byte	0xd4d
 1716 08b7 00000000 		.4byte	.LBI115
 1717 08bb 06       		.byte	.LVU119
 1718 08bc 30010000 		.4byte	.Ldebug_ranges0+0x130
 1719 08c0 03       		.byte	0x3
 1720 08c1 6202     		.2byte	0x262
 1721 08c3 03       		.byte	0x3
 1722 08c4 1C       		.uleb128 0x1c
 1723 08c5 5B0D0000 		.4byte	0xd5b
 1724 08c9 56000000 		.4byte	.LLST15
 1725 08cd 54000000 		.4byte	.LVUS15
 1726 08d1 00       		.byte	0
 1727 08d2 00       		.byte	0
 1728 08d3 1D       		.uleb128 0x1d
 1729 08d4 10000000 		.4byte	.LVL28
 1730 08d8 690D0000 		.4byte	0xd69
 1731 08dc 00       		.byte	0
 1732 08dd 1E       		.uleb128 0x1e
 1733 08de 660C0000 		.4byte	0xc66
 1734 08e2 10000000 		.4byte	.LBI130
 1735 08e6 05       		.byte	.LVU132
 1736 08e7 10000000 		.4byte	.LBB130
 1737 08eb 08000000 		.4byte	.LBE130-.LBB130
 1738 08ef 01       		.byte	0x1
 1739 08f0 95       		.byte	0x95
 1740 08f1 03       		.byte	0x3
 1741 08f2 29090000 		.4byte	0x929
 1742 08f6 1C       		.uleb128 0x1c
 1743 08f7 7E0C0000 		.4byte	0xc7e
 1744 08fb 6D000000 		.4byte	.LLST16
 1745 08ff 6B000000 		.4byte	.LVUS16
 1746 0903 1C       		.uleb128 0x1c
 1747 0904 730C0000 		.4byte	0xc73
 1748 0908 83000000 		.4byte	.LLST17
 1749 090c 81000000 		.4byte	.LVUS17
 1750 0910 1F       		.uleb128 0x1f
 1751 0911 18000000 		.4byte	.LVL29
 1752 0915 750D0000 		.4byte	0xd75
 1753 0919 20       		.uleb128 0x20
 1754 091a 01       		.uleb128 0x1
 1755 091b 50       		.byte	0x50
 1756 091c 03       		.uleb128 0x3
 1757 091d 91       		.byte	0x91
 1758 091e 74       		.sleb128 -12
 1759 091f 06       		.byte	0x6
 1760 0920 20       		.uleb128 0x20
 1761 0921 01       		.uleb128 0x1
 1762 0922 51       		.byte	0x51
 1763 0923 03       		.uleb128 0x3
 1764 0924 7D       		.byte	0x7d
 1765 0925 00       		.sleb128 0
 1766 0926 06       		.byte	0x6
 1767 0927 00       		.byte	0
ARM GAS  /tmp/ccA06uLL.s 			page 32


 1768 0928 00       		.byte	0
 1769 0929 21       		.uleb128 0x21
 1770 092a A80C0000 		.4byte	0xca8
 1771 092e 18000000 		.4byte	.LBI132
 1772 0932 02       		.byte	.LVU137
 1773 0933 50010000 		.4byte	.Ldebug_ranges0+0x150
 1774 0937 01       		.byte	0x1
 1775 0938 96       		.byte	0x96
 1776 0939 03       		.byte	0x3
 1777 093a 22       		.uleb128 0x22
 1778 093b 50010000 		.4byte	.Ldebug_ranges0+0x150
 1779 093f 1A       		.uleb128 0x1a
 1780 0940 390D0000 		.4byte	0xd39
 1781 0944 1C000000 		.4byte	.LBI134
 1782 0948 04       		.byte	.LVU144
 1783 0949 68010000 		.4byte	.Ldebug_ranges0+0x168
 1784 094d 02       		.byte	0x2
 1785 094e 7A01     		.2byte	0x17a
 1786 0950 03       		.byte	0x3
 1787 0951 7A090000 		.4byte	0x97a
 1788 0955 23       		.uleb128 0x23
 1789 0956 4D0D0000 		.4byte	0xd4d
 1790 095a 1C000000 		.4byte	.LBI135
 1791 095e 06       		.byte	.LVU146
 1792 095f 1C000000 		.4byte	.LBB135
 1793 0963 06000000 		.4byte	.LBE135-.LBB135
 1794 0967 03       		.byte	0x3
 1795 0968 7502     		.2byte	0x275
 1796 096a 03       		.byte	0x3
 1797 096b 1C       		.uleb128 0x1c
 1798 096c 5B0D0000 		.4byte	0xd5b
 1799 0970 99000000 		.4byte	.LLST18
 1800 0974 97000000 		.4byte	.LVUS18
 1801 0978 00       		.byte	0
 1802 0979 00       		.byte	0
 1803 097a 1D       		.uleb128 0x1d
 1804 097b 1C000000 		.4byte	.LVL30
 1805 097f 820D0000 		.4byte	0xd82
 1806 0983 00       		.byte	0
 1807 0984 00       		.byte	0
 1808 0985 00       		.byte	0
 1809 0986 24       		.uleb128 0x24
 1810 0987 0B080000 		.4byte	0x80b
 1811 098b 96090000 		.4byte	0x996
 1812 098f 25       		.uleb128 0x25
 1813 0990 2C000000 		.4byte	0x2c
 1814 0994 0C       		.byte	0xc
 1815 0995 00       		.byte	0
 1816 0996 14       		.uleb128 0x14
 1817 0997 86090000 		.4byte	0x986
 1818 099b 26       		.uleb128 0x26
 1819 099c F1040000 		.4byte	.LASF105
 1820 09a0 01       		.byte	0x1
 1821 09a1 79       		.byte	0x79
 1822 09a2 0B       		.byte	0xb
 1823 09a3 60020000 		.4byte	0x260
 1824 09a7 00000000 		.4byte	.LFB302
ARM GAS  /tmp/ccA06uLL.s 			page 33


 1825 09ab 44000000 		.4byte	.LFE302-.LFB302
 1826 09af 01       		.uleb128 0x1
 1827 09b0 9C       		.byte	0x9c
 1828 09b1 E90A0000 		.4byte	0xae9
 1829 09b5 27       		.uleb128 0x27
 1830 09b6 747000   		.ascii	"tp\000"
 1831 09b9 01       		.byte	0x1
 1832 09ba 7A       		.byte	0x7a
 1833 09bb 0D       		.byte	0xd
 1834 09bc 60020000 		.4byte	0x260
 1835 09c0 B1000000 		.4byte	.LLST7
 1836 09c4 AD000000 		.4byte	.LVUS7
 1837 09c8 19       		.uleb128 0x19
 1838 09c9 D50C0000 		.4byte	0xcd5
 1839 09cd 00000000 		.4byte	.LBI73
 1840 09d1 03       		.byte	.LVU62
 1841 09d2 88000000 		.4byte	.Ldebug_ranges0+0x88
 1842 09d6 01       		.byte	0x1
 1843 09d7 7C       		.byte	0x7c
 1844 09d8 03       		.byte	0x3
 1845 09d9 1E0A0000 		.4byte	0xa1e
 1846 09dd 1A       		.uleb128 0x1a
 1847 09de 430D0000 		.4byte	0xd43
 1848 09e2 00000000 		.4byte	.LBI75
 1849 09e6 05       		.byte	.LVU64
 1850 09e7 B0000000 		.4byte	.Ldebug_ranges0+0xb0
 1851 09eb 02       		.byte	0x2
 1852 09ec 6301     		.2byte	0x163
 1853 09ee 03       		.byte	0x3
 1854 09ef 140A0000 		.4byte	0xa14
 1855 09f3 1B       		.uleb128 0x1b
 1856 09f4 4D0D0000 		.4byte	0xd4d
 1857 09f8 00000000 		.4byte	.LBI76
 1858 09fc 07       		.byte	.LVU66
 1859 09fd B8000000 		.4byte	.Ldebug_ranges0+0xb8
 1860 0a01 03       		.byte	0x3
 1861 0a02 6202     		.2byte	0x262
 1862 0a04 03       		.byte	0x3
 1863 0a05 1C       		.uleb128 0x1c
 1864 0a06 5B0D0000 		.4byte	0xd5b
 1865 0a0a D1000000 		.4byte	.LLST8
 1866 0a0e CF000000 		.4byte	.LVUS8
 1867 0a12 00       		.byte	0
 1868 0a13 00       		.byte	0
 1869 0a14 1D       		.uleb128 0x1d
 1870 0a15 0E000000 		.4byte	.LVL16
 1871 0a19 690D0000 		.4byte	0xd69
 1872 0a1d 00       		.byte	0
 1873 0a1e 1E       		.uleb128 0x1e
 1874 0a1f 8B0C0000 		.4byte	0xc8b
 1875 0a23 10000000 		.4byte	.LBI88
 1876 0a27 00       		.byte	.LVU77
 1877 0a28 10000000 		.4byte	.LBB88
 1878 0a2c 04000000 		.4byte	.LBE88-.LBB88
 1879 0a30 01       		.byte	0x1
 1880 0a31 7D       		.byte	0x7d
 1881 0a32 08       		.byte	0x8
ARM GAS  /tmp/ccA06uLL.s 			page 34


 1882 0a33 450A0000 		.4byte	0xa45
 1883 0a37 1C       		.uleb128 0x1c
 1884 0a38 9C0C0000 		.4byte	0xc9c
 1885 0a3c E8000000 		.4byte	.LLST9
 1886 0a40 E6000000 		.4byte	.LVUS9
 1887 0a44 00       		.byte	0
 1888 0a45 1E       		.uleb128 0x1e
 1889 0a46 DF0C0000 		.4byte	0xcdf
 1890 0a4a 22000000 		.4byte	.LBI90
 1891 0a4e 00       		.byte	.LVU85
 1892 0a4f 22000000 		.4byte	.LBB90
 1893 0a53 0A000000 		.4byte	.LBE90-.LBB90
 1894 0a57 01       		.byte	0x1
 1895 0a58 80       		.byte	0x80
 1896 0a59 08       		.byte	0x8
 1897 0a5a 790A0000 		.4byte	0xa79
 1898 0a5e 1C       		.uleb128 0x1c
 1899 0a5f F10C0000 		.4byte	0xcf1
 1900 0a63 FF000000 		.4byte	.LLST10
 1901 0a67 FB000000 		.4byte	.LVUS10
 1902 0a6b 28       		.uleb128 0x28
 1903 0a6c FE0C0000 		.4byte	0xcfe
 1904 0a70 21010000 		.4byte	.LLST11
 1905 0a74 1F010000 		.4byte	.LVUS11
 1906 0a78 00       		.byte	0
 1907 0a79 19       		.uleb128 0x19
 1908 0a7a A80C0000 		.4byte	0xca8
 1909 0a7e 32000000 		.4byte	.LBI92
 1910 0a82 01       		.byte	.LVU98
 1911 0a83 D0000000 		.4byte	.Ldebug_ranges0+0xd0
 1912 0a87 01       		.byte	0x1
 1913 0a88 82       		.byte	0x82
 1914 0a89 03       		.byte	0x3
 1915 0a8a D90A0000 		.4byte	0xad9
 1916 0a8e 22       		.uleb128 0x22
 1917 0a8f D0000000 		.4byte	.Ldebug_ranges0+0xd0
 1918 0a93 1A       		.uleb128 0x1a
 1919 0a94 390D0000 		.4byte	0xd39
 1920 0a98 36000000 		.4byte	.LBI94
 1921 0a9c 04       		.byte	.LVU105
 1922 0a9d E8000000 		.4byte	.Ldebug_ranges0+0xe8
 1923 0aa1 02       		.byte	0x2
 1924 0aa2 7A01     		.2byte	0x17a
 1925 0aa4 03       		.byte	0x3
 1926 0aa5 CE0A0000 		.4byte	0xace
 1927 0aa9 23       		.uleb128 0x23
 1928 0aaa 4D0D0000 		.4byte	0xd4d
 1929 0aae 36000000 		.4byte	.LBI95
 1930 0ab2 06       		.byte	.LVU107
 1931 0ab3 36000000 		.4byte	.LBB95
 1932 0ab7 06000000 		.4byte	.LBE95-.LBB95
 1933 0abb 03       		.byte	0x3
 1934 0abc 7502     		.2byte	0x275
 1935 0abe 03       		.byte	0x3
 1936 0abf 1C       		.uleb128 0x1c
 1937 0ac0 5B0D0000 		.4byte	0xd5b
 1938 0ac4 36010000 		.4byte	.LLST12
ARM GAS  /tmp/ccA06uLL.s 			page 35


 1939 0ac8 34010000 		.4byte	.LVUS12
 1940 0acc 00       		.byte	0
 1941 0acd 00       		.byte	0
 1942 0ace 1D       		.uleb128 0x1d
 1943 0acf 36000000 		.4byte	.LVL23
 1944 0ad3 820D0000 		.4byte	0xd82
 1945 0ad7 00       		.byte	0
 1946 0ad8 00       		.byte	0
 1947 0ad9 1F       		.uleb128 0x1f
 1948 0ada 20000000 		.4byte	.LVL18
 1949 0ade 8E0D0000 		.4byte	0xd8e
 1950 0ae2 20       		.uleb128 0x20
 1951 0ae3 01       		.uleb128 0x1
 1952 0ae4 50       		.byte	0x50
 1953 0ae5 01       		.uleb128 0x1
 1954 0ae6 3E       		.byte	0x3e
 1955 0ae7 00       		.byte	0
 1956 0ae8 00       		.byte	0
 1957 0ae9 26       		.uleb128 0x26
 1958 0aea 45010000 		.4byte	.LASF106
 1959 0aee 01       		.byte	0x1
 1960 0aef 57       		.byte	0x57
 1961 0af0 07       		.byte	0x7
 1962 0af1 1A010000 		.4byte	0x11a
 1963 0af5 00000000 		.4byte	.LFB301
 1964 0af9 50000000 		.4byte	.LFE301-.LFB301
 1965 0afd 01       		.uleb128 0x1
 1966 0afe 9C       		.byte	0x9c
 1967 0aff 510C0000 		.4byte	0xc51
 1968 0b03 17       		.uleb128 0x17
 1969 0b04 747000   		.ascii	"tp\000"
 1970 0b07 01       		.byte	0x1
 1971 0b08 57       		.byte	0x57
 1972 0b09 1B       		.byte	0x1b
 1973 0b0a 60020000 		.4byte	0x260
 1974 0b0e 50010000 		.4byte	.LLST0
 1975 0b12 4A010000 		.4byte	.LVUS0
 1976 0b16 17       		.uleb128 0x17
 1977 0b17 6D736700 		.ascii	"msg\000"
 1978 0b1b 01       		.byte	0x1
 1979 0b1c 57       		.byte	0x57
 1980 0b1d 25       		.byte	0x25
 1981 0b1e 1A010000 		.4byte	0x11a
 1982 0b22 86010000 		.4byte	.LLST1
 1983 0b26 7C010000 		.4byte	.LVUS1
 1984 0b2a 27       		.uleb128 0x27
 1985 0b2b 63747000 		.ascii	"ctp\000"
 1986 0b2f 01       		.byte	0x1
 1987 0b30 58       		.byte	0x58
 1988 0b31 0D       		.byte	0xd
 1989 0b32 60020000 		.4byte	0x260
 1990 0b36 C9010000 		.4byte	.LLST2
 1991 0b3a C7010000 		.4byte	.LVUS2
 1992 0b3e 18       		.uleb128 0x18
 1993 0b3f 94030000 		.4byte	.LASF107
 1994 0b43 610C0000 		.4byte	0xc61
 1995 0b47 19       		.uleb128 0x19
ARM GAS  /tmp/ccA06uLL.s 			page 36


 1996 0b48 D50C0000 		.4byte	0xcd5
 1997 0b4c 06000000 		.4byte	.LBI34
 1998 0b50 04       		.byte	.LVU9
 1999 0b51 00000000 		.4byte	.Ldebug_ranges0+0
 2000 0b55 01       		.byte	0x1
 2001 0b56 5C       		.byte	0x5c
 2002 0b57 03       		.byte	0x3
 2003 0b58 9D0B0000 		.4byte	0xb9d
 2004 0b5c 1A       		.uleb128 0x1a
 2005 0b5d 430D0000 		.4byte	0xd43
 2006 0b61 06000000 		.4byte	.LBI36
 2007 0b65 06       		.byte	.LVU11
 2008 0b66 20000000 		.4byte	.Ldebug_ranges0+0x20
 2009 0b6a 02       		.byte	0x2
 2010 0b6b 6301     		.2byte	0x163
 2011 0b6d 03       		.byte	0x3
 2012 0b6e 930B0000 		.4byte	0xb93
 2013 0b72 1B       		.uleb128 0x1b
 2014 0b73 4D0D0000 		.4byte	0xd4d
 2015 0b77 06000000 		.4byte	.LBI37
 2016 0b7b 08       		.byte	.LVU13
 2017 0b7c 28000000 		.4byte	.Ldebug_ranges0+0x28
 2018 0b80 03       		.byte	0x3
 2019 0b81 6202     		.2byte	0x262
 2020 0b83 03       		.byte	0x3
 2021 0b84 1C       		.uleb128 0x1c
 2022 0b85 5B0D0000 		.4byte	0xd5b
 2023 0b89 DE010000 		.4byte	.LLST3
 2024 0b8d DC010000 		.4byte	.LVUS3
 2025 0b91 00       		.byte	0
 2026 0b92 00       		.byte	0
 2027 0b93 1D       		.uleb128 0x1d
 2028 0b94 14000000 		.4byte	.LVL3
 2029 0b98 690D0000 		.4byte	0xd69
 2030 0b9c 00       		.byte	0
 2031 0b9d 19       		.uleb128 0x19
 2032 0b9e 110D0000 		.4byte	0xd11
 2033 0ba2 1A000000 		.4byte	.LBI47
 2034 0ba6 01       		.byte	.LVU24
 2035 0ba7 40000000 		.4byte	.Ldebug_ranges0+0x40
 2036 0bab 01       		.byte	0x1
 2037 0bac 5E       		.byte	0x5e
 2038 0bad 03       		.byte	0x3
 2039 0bae CD0B0000 		.4byte	0xbcd
 2040 0bb2 1C       		.uleb128 0x1c
 2041 0bb3 2B0D0000 		.4byte	0xd2b
 2042 0bb7 F9010000 		.4byte	.LLST4
 2043 0bbb F3010000 		.4byte	.LVUS4
 2044 0bbf 1C       		.uleb128 0x1c
 2045 0bc0 1F0D0000 		.4byte	0xd1f
 2046 0bc4 27020000 		.4byte	.LLST5
 2047 0bc8 25020000 		.4byte	.LVUS5
 2048 0bcc 00       		.byte	0
 2049 0bcd 19       		.uleb128 0x19
 2050 0bce A80C0000 		.4byte	0xca8
 2051 0bd2 3C000000 		.4byte	.LBI51
 2052 0bd6 01       		.byte	.LVU44
ARM GAS  /tmp/ccA06uLL.s 			page 37


 2053 0bd7 58000000 		.4byte	.Ldebug_ranges0+0x58
 2054 0bdb 01       		.byte	0x1
 2055 0bdc 64       		.byte	0x64
 2056 0bdd 03       		.byte	0x3
 2057 0bde 2D0C0000 		.4byte	0xc2d
 2058 0be2 22       		.uleb128 0x22
 2059 0be3 58000000 		.4byte	.Ldebug_ranges0+0x58
 2060 0be7 1A       		.uleb128 0x1a
 2061 0be8 390D0000 		.4byte	0xd39
 2062 0bec 40000000 		.4byte	.LBI53
 2063 0bf0 04       		.byte	.LVU51
 2064 0bf1 70000000 		.4byte	.Ldebug_ranges0+0x70
 2065 0bf5 02       		.byte	0x2
 2066 0bf6 7A01     		.2byte	0x17a
 2067 0bf8 03       		.byte	0x3
 2068 0bf9 220C0000 		.4byte	0xc22
 2069 0bfd 23       		.uleb128 0x23
 2070 0bfe 4D0D0000 		.4byte	0xd4d
 2071 0c02 40000000 		.4byte	.LBI54
 2072 0c06 06       		.byte	.LVU53
 2073 0c07 40000000 		.4byte	.LBB54
 2074 0c0b 06000000 		.4byte	.LBE54-.LBB54
 2075 0c0f 03       		.byte	0x3
 2076 0c10 7502     		.2byte	0x275
 2077 0c12 03       		.byte	0x3
 2078 0c13 1C       		.uleb128 0x1c
 2079 0c14 5B0D0000 		.4byte	0xd5b
 2080 0c18 3C020000 		.4byte	.LLST6
 2081 0c1c 3A020000 		.4byte	.LVUS6
 2082 0c20 00       		.byte	0
 2083 0c21 00       		.byte	0
 2084 0c22 1D       		.uleb128 0x1d
 2085 0c23 40000000 		.4byte	.LVL11
 2086 0c27 820D0000 		.4byte	0xd82
 2087 0c2b 00       		.byte	0
 2088 0c2c 00       		.byte	0
 2089 0c2d 29       		.uleb128 0x29
 2090 0c2e 32000000 		.4byte	.LVL8
 2091 0c32 9B0D0000 		.4byte	0xd9b
 2092 0c36 410C0000 		.4byte	0xc41
 2093 0c3a 20       		.uleb128 0x20
 2094 0c3b 01       		.uleb128 0x1
 2095 0c3c 50       		.byte	0x50
 2096 0c3d 02       		.uleb128 0x2
 2097 0c3e 74       		.byte	0x74
 2098 0c3f 00       		.sleb128 0
 2099 0c40 00       		.byte	0
 2100 0c41 1F       		.uleb128 0x1f
 2101 0c42 38000000 		.4byte	.LVL9
 2102 0c46 8E0D0000 		.4byte	0xd8e
 2103 0c4a 20       		.uleb128 0x20
 2104 0c4b 01       		.uleb128 0x1
 2105 0c4c 50       		.byte	0x50
 2106 0c4d 01       		.uleb128 0x1
 2107 0c4e 3C       		.byte	0x3c
 2108 0c4f 00       		.byte	0
 2109 0c50 00       		.byte	0
ARM GAS  /tmp/ccA06uLL.s 			page 38


 2110 0c51 24       		.uleb128 0x24
 2111 0c52 0B080000 		.4byte	0x80b
 2112 0c56 610C0000 		.4byte	0xc61
 2113 0c5a 25       		.uleb128 0x25
 2114 0c5b 2C000000 		.4byte	0x2c
 2115 0c5f 09       		.byte	0x9
 2116 0c60 00       		.byte	0
 2117 0c61 14       		.uleb128 0x14
 2118 0c62 510C0000 		.4byte	0xc51
 2119 0c66 2A       		.uleb128 0x2a
 2120 0c67 6A060000 		.4byte	.LASF108
 2121 0c6b 06       		.byte	0x6
 2122 0c6c 71       		.byte	0x71
 2123 0c6d 14       		.byte	0x14
 2124 0c6e 03       		.byte	0x3
 2125 0c6f 8B0C0000 		.4byte	0xc8b
 2126 0c73 2B       		.uleb128 0x2b
 2127 0c74 747000   		.ascii	"tp\000"
 2128 0c77 06       		.byte	0x6
 2129 0c78 71       		.byte	0x71
 2130 0c79 2C       		.byte	0x2c
 2131 0c7a 60020000 		.4byte	0x260
 2132 0c7e 2B       		.uleb128 0x2b
 2133 0c7f 6D736700 		.ascii	"msg\000"
 2134 0c83 06       		.byte	0x6
 2135 0c84 71       		.byte	0x71
 2136 0c85 36       		.byte	0x36
 2137 0c86 1A010000 		.4byte	0x11a
 2138 0c8a 00       		.byte	0
 2139 0c8b 2C       		.uleb128 0x2c
 2140 0c8c 63010000 		.4byte	.LASF110
 2141 0c90 06       		.byte	0x6
 2142 0c91 4F       		.byte	0x4f
 2143 0c92 14       		.byte	0x14
 2144 0c93 3A080000 		.4byte	0x83a
 2145 0c97 03       		.byte	0x3
 2146 0c98 A80C0000 		.4byte	0xca8
 2147 0c9c 2B       		.uleb128 0x2b
 2148 0c9d 747000   		.ascii	"tp\000"
 2149 0ca0 06       		.byte	0x6
 2150 0ca1 4F       		.byte	0x4f
 2151 0ca2 2E       		.byte	0x2e
 2152 0ca3 60020000 		.4byte	0x260
 2153 0ca7 00       		.byte	0
 2154 0ca8 2D       		.uleb128 0x2d
 2155 0ca9 5E060000 		.4byte	.LASF109
 2156 0cad 02       		.byte	0x2
 2157 0cae 6D01     		.2byte	0x16d
 2158 0cb0 14       		.byte	0x14
 2159 0cb1 03       		.byte	0x3
 2160 0cb2 C00C0000 		.4byte	0xcc0
 2161 0cb6 18       		.uleb128 0x18
 2162 0cb7 94030000 		.4byte	.LASF107
 2163 0cbb D00C0000 		.4byte	0xcd0
 2164 0cbf 00       		.byte	0
 2165 0cc0 24       		.uleb128 0x24
 2166 0cc1 0B080000 		.4byte	0x80b
ARM GAS  /tmp/ccA06uLL.s 			page 39


 2167 0cc5 D00C0000 		.4byte	0xcd0
 2168 0cc9 25       		.uleb128 0x25
 2169 0cca 2C000000 		.4byte	0x2c
 2170 0cce 0B       		.byte	0xb
 2171 0ccf 00       		.byte	0
 2172 0cd0 14       		.uleb128 0x14
 2173 0cd1 C00C0000 		.4byte	0xcc0
 2174 0cd5 2E       		.uleb128 0x2e
 2175 0cd6 9D030000 		.4byte	.LASF113
 2176 0cda 02       		.byte	0x2
 2177 0cdb 6101     		.2byte	0x161
 2178 0cdd 14       		.byte	0x14
 2179 0cde 03       		.byte	0x3
 2180 0cdf 2F       		.uleb128 0x2f
 2181 0ce0 78040000 		.4byte	.LASF111
 2182 0ce4 05       		.byte	0x5
 2183 0ce5 5E02     		.2byte	0x25e
 2184 0ce7 19       		.byte	0x19
 2185 0ce8 60020000 		.4byte	0x260
 2186 0cec 03       		.byte	0x3
 2187 0ced 0B0D0000 		.4byte	0xd0b
 2188 0cf1 30       		.uleb128 0x30
 2189 0cf2 74717000 		.ascii	"tqp\000"
 2190 0cf6 05       		.byte	0x5
 2191 0cf7 5E02     		.2byte	0x25e
 2192 0cf9 3C       		.byte	0x3c
 2193 0cfa 0B0D0000 		.4byte	0xd0b
 2194 0cfe 31       		.uleb128 0x31
 2195 0cff 747000   		.ascii	"tp\000"
 2196 0d02 05       		.byte	0x5
 2197 0d03 5F02     		.2byte	0x25f
 2198 0d05 0D       		.byte	0xd
 2199 0d06 60020000 		.4byte	0x260
 2200 0d0a 00       		.byte	0
 2201 0d0b 0A       		.uleb128 0xa
 2202 0d0c 04       		.byte	0x4
 2203 0d0d 8D020000 		.4byte	0x28d
 2204 0d11 2D       		.uleb128 0x2d
 2205 0d12 0D000000 		.4byte	.LASF112
 2206 0d16 05       		.byte	0x5
 2207 0d17 5602     		.2byte	0x256
 2208 0d19 14       		.byte	0x14
 2209 0d1a 03       		.byte	0x3
 2210 0d1b 390D0000 		.4byte	0xd39
 2211 0d1f 30       		.uleb128 0x30
 2212 0d20 747000   		.ascii	"tp\000"
 2213 0d23 05       		.byte	0x5
 2214 0d24 5602     		.2byte	0x256
 2215 0d26 2B       		.byte	0x2b
 2216 0d27 60020000 		.4byte	0x260
 2217 0d2b 30       		.uleb128 0x30
 2218 0d2c 74717000 		.ascii	"tqp\000"
 2219 0d30 05       		.byte	0x5
 2220 0d31 5602     		.2byte	0x256
 2221 0d33 40       		.byte	0x40
 2222 0d34 0B0D0000 		.4byte	0xd0b
 2223 0d38 00       		.byte	0
ARM GAS  /tmp/ccA06uLL.s 			page 40


 2224 0d39 2E       		.uleb128 0x2e
 2225 0d3a 21010000 		.4byte	.LASF114
 2226 0d3e 03       		.byte	0x3
 2227 0d3f 7202     		.2byte	0x272
 2228 0d41 14       		.byte	0x14
 2229 0d42 03       		.byte	0x3
 2230 0d43 2E       		.uleb128 0x2e
 2231 0d44 7E000000 		.4byte	.LASF115
 2232 0d48 03       		.byte	0x3
 2233 0d49 5A02     		.2byte	0x25a
 2234 0d4b 14       		.byte	0x14
 2235 0d4c 03       		.byte	0x3
 2236 0d4d 2D       		.uleb128 0x2d
 2237 0d4e 9D040000 		.4byte	.LASF116
 2238 0d52 04       		.byte	0x4
 2239 0d53 EB01     		.2byte	0x1eb
 2240 0d55 1B       		.byte	0x1b
 2241 0d56 03       		.byte	0x3
 2242 0d57 690D0000 		.4byte	0xd69
 2243 0d5b 32       		.uleb128 0x32
 2244 0d5c 12010000 		.4byte	.LASF117
 2245 0d60 04       		.byte	0x4
 2246 0d61 EB01     		.2byte	0x1eb
 2247 0d63 32       		.byte	0x32
 2248 0d64 BA000000 		.4byte	0xba
 2249 0d68 00       		.byte	0
 2250 0d69 33       		.uleb128 0x33
 2251 0d6a 2A060000 		.4byte	.LASF118
 2252 0d6e 2A060000 		.4byte	.LASF118
 2253 0d72 0E       		.byte	0xe
 2254 0d73 4F       		.byte	0x4f
 2255 0d74 08       		.byte	0x8
 2256 0d75 34       		.uleb128 0x34
 2257 0d76 E4040000 		.4byte	.LASF119
 2258 0d7a E4040000 		.4byte	.LASF119
 2259 0d7e 05       		.byte	0x5
 2260 0d7f D501     		.2byte	0x1d5
 2261 0d81 08       		.byte	0x8
 2262 0d82 33       		.uleb128 0x33
 2263 0d83 8A020000 		.4byte	.LASF120
 2264 0d87 8A020000 		.4byte	.LASF120
 2265 0d8b 0E       		.byte	0xe
 2266 0d8c 50       		.byte	0x50
 2267 0d8d 08       		.byte	0x8
 2268 0d8e 34       		.uleb128 0x34
 2269 0d8f D9030000 		.4byte	.LASF121
 2270 0d93 D9030000 		.4byte	.LASF121
 2271 0d97 05       		.byte	0x5
 2272 0d98 D301     		.2byte	0x1d3
 2273 0d9a 08       		.byte	0x8
 2274 0d9b 34       		.uleb128 0x34
 2275 0d9c F7030000 		.4byte	.LASF122
 2276 0da0 F7030000 		.4byte	.LASF122
 2277 0da4 05       		.byte	0x5
 2278 0da5 D101     		.2byte	0x1d1
 2279 0da7 0D       		.byte	0xd
 2280 0da8 00       		.byte	0
ARM GAS  /tmp/ccA06uLL.s 			page 41


 2281              		.section	.debug_abbrev,"",%progbits
 2282              	.Ldebug_abbrev0:
 2283 0000 01       		.uleb128 0x1
 2284 0001 11       		.uleb128 0x11
 2285 0002 01       		.byte	0x1
 2286 0003 25       		.uleb128 0x25
 2287 0004 0E       		.uleb128 0xe
 2288 0005 13       		.uleb128 0x13
 2289 0006 0B       		.uleb128 0xb
 2290 0007 03       		.uleb128 0x3
 2291 0008 0E       		.uleb128 0xe
 2292 0009 1B       		.uleb128 0x1b
 2293 000a 0E       		.uleb128 0xe
 2294 000b 55       		.uleb128 0x55
 2295 000c 17       		.uleb128 0x17
 2296 000d 11       		.uleb128 0x11
 2297 000e 01       		.uleb128 0x1
 2298 000f 10       		.uleb128 0x10
 2299 0010 17       		.uleb128 0x17
 2300 0011 00       		.byte	0
 2301 0012 00       		.byte	0
 2302 0013 02       		.uleb128 0x2
 2303 0014 24       		.uleb128 0x24
 2304 0015 00       		.byte	0
 2305 0016 0B       		.uleb128 0xb
 2306 0017 0B       		.uleb128 0xb
 2307 0018 3E       		.uleb128 0x3e
 2308 0019 0B       		.uleb128 0xb
 2309 001a 03       		.uleb128 0x3
 2310 001b 08       		.uleb128 0x8
 2311 001c 00       		.byte	0
 2312 001d 00       		.byte	0
 2313 001e 03       		.uleb128 0x3
 2314 001f 24       		.uleb128 0x24
 2315 0020 00       		.byte	0
 2316 0021 0B       		.uleb128 0xb
 2317 0022 0B       		.uleb128 0xb
 2318 0023 3E       		.uleb128 0x3e
 2319 0024 0B       		.uleb128 0xb
 2320 0025 03       		.uleb128 0x3
 2321 0026 0E       		.uleb128 0xe
 2322 0027 00       		.byte	0
 2323 0028 00       		.byte	0
 2324 0029 04       		.uleb128 0x4
 2325 002a 16       		.uleb128 0x16
 2326 002b 00       		.byte	0
 2327 002c 03       		.uleb128 0x3
 2328 002d 0E       		.uleb128 0xe
 2329 002e 3A       		.uleb128 0x3a
 2330 002f 0B       		.uleb128 0xb
 2331 0030 3B       		.uleb128 0x3b
 2332 0031 0B       		.uleb128 0xb
 2333 0032 39       		.uleb128 0x39
 2334 0033 0B       		.uleb128 0xb
 2335 0034 49       		.uleb128 0x49
 2336 0035 13       		.uleb128 0x13
 2337 0036 00       		.byte	0
ARM GAS  /tmp/ccA06uLL.s 			page 42


 2338 0037 00       		.byte	0
 2339 0038 05       		.uleb128 0x5
 2340 0039 13       		.uleb128 0x13
 2341 003a 01       		.byte	0x1
 2342 003b 03       		.uleb128 0x3
 2343 003c 0E       		.uleb128 0xe
 2344 003d 0B       		.uleb128 0xb
 2345 003e 0B       		.uleb128 0xb
 2346 003f 3A       		.uleb128 0x3a
 2347 0040 0B       		.uleb128 0xb
 2348 0041 3B       		.uleb128 0x3b
 2349 0042 0B       		.uleb128 0xb
 2350 0043 39       		.uleb128 0x39
 2351 0044 0B       		.uleb128 0xb
 2352 0045 01       		.uleb128 0x1
 2353 0046 13       		.uleb128 0x13
 2354 0047 00       		.byte	0
 2355 0048 00       		.byte	0
 2356 0049 06       		.uleb128 0x6
 2357 004a 0D       		.uleb128 0xd
 2358 004b 00       		.byte	0
 2359 004c 03       		.uleb128 0x3
 2360 004d 0E       		.uleb128 0xe
 2361 004e 3A       		.uleb128 0x3a
 2362 004f 0B       		.uleb128 0xb
 2363 0050 3B       		.uleb128 0x3b
 2364 0051 0B       		.uleb128 0xb
 2365 0052 39       		.uleb128 0x39
 2366 0053 0B       		.uleb128 0xb
 2367 0054 49       		.uleb128 0x49
 2368 0055 13       		.uleb128 0x13
 2369 0056 38       		.uleb128 0x38
 2370 0057 0B       		.uleb128 0xb
 2371 0058 00       		.byte	0
 2372 0059 00       		.byte	0
 2373 005a 07       		.uleb128 0x7
 2374 005b 0D       		.uleb128 0xd
 2375 005c 00       		.byte	0
 2376 005d 03       		.uleb128 0x3
 2377 005e 08       		.uleb128 0x8
 2378 005f 3A       		.uleb128 0x3a
 2379 0060 0B       		.uleb128 0xb
 2380 0061 3B       		.uleb128 0x3b
 2381 0062 0B       		.uleb128 0xb
 2382 0063 39       		.uleb128 0x39
 2383 0064 0B       		.uleb128 0xb
 2384 0065 49       		.uleb128 0x49
 2385 0066 13       		.uleb128 0x13
 2386 0067 38       		.uleb128 0x38
 2387 0068 0B       		.uleb128 0xb
 2388 0069 00       		.byte	0
 2389 006a 00       		.byte	0
 2390 006b 08       		.uleb128 0x8
 2391 006c 0D       		.uleb128 0xd
 2392 006d 00       		.byte	0
 2393 006e 03       		.uleb128 0x3
 2394 006f 08       		.uleb128 0x8
ARM GAS  /tmp/ccA06uLL.s 			page 43


 2395 0070 3A       		.uleb128 0x3a
 2396 0071 0B       		.uleb128 0xb
 2397 0072 3B       		.uleb128 0x3b
 2398 0073 05       		.uleb128 0x5
 2399 0074 39       		.uleb128 0x39
 2400 0075 0B       		.uleb128 0xb
 2401 0076 49       		.uleb128 0x49
 2402 0077 13       		.uleb128 0x13
 2403 0078 38       		.uleb128 0x38
 2404 0079 0B       		.uleb128 0xb
 2405 007a 00       		.byte	0
 2406 007b 00       		.byte	0
 2407 007c 09       		.uleb128 0x9
 2408 007d 0D       		.uleb128 0xd
 2409 007e 00       		.byte	0
 2410 007f 03       		.uleb128 0x3
 2411 0080 0E       		.uleb128 0xe
 2412 0081 3A       		.uleb128 0x3a
 2413 0082 0B       		.uleb128 0xb
 2414 0083 3B       		.uleb128 0x3b
 2415 0084 05       		.uleb128 0x5
 2416 0085 39       		.uleb128 0x39
 2417 0086 0B       		.uleb128 0xb
 2418 0087 49       		.uleb128 0x49
 2419 0088 13       		.uleb128 0x13
 2420 0089 38       		.uleb128 0x38
 2421 008a 0B       		.uleb128 0xb
 2422 008b 00       		.byte	0
 2423 008c 00       		.byte	0
 2424 008d 0A       		.uleb128 0xa
 2425 008e 0F       		.uleb128 0xf
 2426 008f 00       		.byte	0
 2427 0090 0B       		.uleb128 0xb
 2428 0091 0B       		.uleb128 0xb
 2429 0092 49       		.uleb128 0x49
 2430 0093 13       		.uleb128 0x13
 2431 0094 00       		.byte	0
 2432 0095 00       		.byte	0
 2433 0096 0B       		.uleb128 0xb
 2434 0097 13       		.uleb128 0x13
 2435 0098 01       		.byte	0x1
 2436 0099 03       		.uleb128 0x3
 2437 009a 0E       		.uleb128 0xe
 2438 009b 0B       		.uleb128 0xb
 2439 009c 0B       		.uleb128 0xb
 2440 009d 3A       		.uleb128 0x3a
 2441 009e 0B       		.uleb128 0xb
 2442 009f 3B       		.uleb128 0x3b
 2443 00a0 05       		.uleb128 0x5
 2444 00a1 39       		.uleb128 0x39
 2445 00a2 0B       		.uleb128 0xb
 2446 00a3 01       		.uleb128 0x1
 2447 00a4 13       		.uleb128 0x13
 2448 00a5 00       		.byte	0
 2449 00a6 00       		.byte	0
 2450 00a7 0C       		.uleb128 0xc
 2451 00a8 15       		.uleb128 0x15
ARM GAS  /tmp/ccA06uLL.s 			page 44


 2452 00a9 01       		.byte	0x1
 2453 00aa 27       		.uleb128 0x27
 2454 00ab 19       		.uleb128 0x19
 2455 00ac 01       		.uleb128 0x1
 2456 00ad 13       		.uleb128 0x13
 2457 00ae 00       		.byte	0
 2458 00af 00       		.byte	0
 2459 00b0 0D       		.uleb128 0xd
 2460 00b1 05       		.uleb128 0x5
 2461 00b2 00       		.byte	0
 2462 00b3 49       		.uleb128 0x49
 2463 00b4 13       		.uleb128 0x13
 2464 00b5 00       		.byte	0
 2465 00b6 00       		.byte	0
 2466 00b7 0E       		.uleb128 0xe
 2467 00b8 0F       		.uleb128 0xf
 2468 00b9 00       		.byte	0
 2469 00ba 0B       		.uleb128 0xb
 2470 00bb 0B       		.uleb128 0xb
 2471 00bc 00       		.byte	0
 2472 00bd 00       		.byte	0
 2473 00be 0F       		.uleb128 0xf
 2474 00bf 13       		.uleb128 0x13
 2475 00c0 01       		.byte	0x1
 2476 00c1 0B       		.uleb128 0xb
 2477 00c2 0B       		.uleb128 0xb
 2478 00c3 3A       		.uleb128 0x3a
 2479 00c4 0B       		.uleb128 0xb
 2480 00c5 3B       		.uleb128 0x3b
 2481 00c6 0B       		.uleb128 0xb
 2482 00c7 39       		.uleb128 0x39
 2483 00c8 0B       		.uleb128 0xb
 2484 00c9 01       		.uleb128 0x1
 2485 00ca 13       		.uleb128 0x13
 2486 00cb 00       		.byte	0
 2487 00cc 00       		.byte	0
 2488 00cd 10       		.uleb128 0x10
 2489 00ce 17       		.uleb128 0x17
 2490 00cf 01       		.byte	0x1
 2491 00d0 0B       		.uleb128 0xb
 2492 00d1 0B       		.uleb128 0xb
 2493 00d2 3A       		.uleb128 0x3a
 2494 00d3 0B       		.uleb128 0xb
 2495 00d4 3B       		.uleb128 0x3b
 2496 00d5 0B       		.uleb128 0xb
 2497 00d6 39       		.uleb128 0x39
 2498 00d7 0B       		.uleb128 0xb
 2499 00d8 01       		.uleb128 0x1
 2500 00d9 13       		.uleb128 0x13
 2501 00da 00       		.byte	0
 2502 00db 00       		.byte	0
 2503 00dc 11       		.uleb128 0x11
 2504 00dd 0D       		.uleb128 0xd
 2505 00de 00       		.byte	0
 2506 00df 03       		.uleb128 0x3
 2507 00e0 0E       		.uleb128 0xe
 2508 00e1 3A       		.uleb128 0x3a
ARM GAS  /tmp/ccA06uLL.s 			page 45


 2509 00e2 0B       		.uleb128 0xb
 2510 00e3 3B       		.uleb128 0x3b
 2511 00e4 0B       		.uleb128 0xb
 2512 00e5 39       		.uleb128 0x39
 2513 00e6 0B       		.uleb128 0xb
 2514 00e7 49       		.uleb128 0x49
 2515 00e8 13       		.uleb128 0x13
 2516 00e9 00       		.byte	0
 2517 00ea 00       		.byte	0
 2518 00eb 12       		.uleb128 0x12
 2519 00ec 0D       		.uleb128 0xd
 2520 00ed 00       		.byte	0
 2521 00ee 03       		.uleb128 0x3
 2522 00ef 0E       		.uleb128 0xe
 2523 00f0 3A       		.uleb128 0x3a
 2524 00f1 0B       		.uleb128 0xb
 2525 00f2 3B       		.uleb128 0x3b
 2526 00f3 05       		.uleb128 0x5
 2527 00f4 39       		.uleb128 0x39
 2528 00f5 0B       		.uleb128 0xb
 2529 00f6 49       		.uleb128 0x49
 2530 00f7 13       		.uleb128 0x13
 2531 00f8 00       		.byte	0
 2532 00f9 00       		.byte	0
 2533 00fa 13       		.uleb128 0x13
 2534 00fb 35       		.uleb128 0x35
 2535 00fc 00       		.byte	0
 2536 00fd 49       		.uleb128 0x49
 2537 00fe 13       		.uleb128 0x13
 2538 00ff 00       		.byte	0
 2539 0100 00       		.byte	0
 2540 0101 14       		.uleb128 0x14
 2541 0102 26       		.uleb128 0x26
 2542 0103 00       		.byte	0
 2543 0104 49       		.uleb128 0x49
 2544 0105 13       		.uleb128 0x13
 2545 0106 00       		.byte	0
 2546 0107 00       		.byte	0
 2547 0108 15       		.uleb128 0x15
 2548 0109 34       		.uleb128 0x34
 2549 010a 00       		.byte	0
 2550 010b 03       		.uleb128 0x3
 2551 010c 08       		.uleb128 0x8
 2552 010d 3A       		.uleb128 0x3a
 2553 010e 0B       		.uleb128 0xb
 2554 010f 3B       		.uleb128 0x3b
 2555 0110 05       		.uleb128 0x5
 2556 0111 39       		.uleb128 0x39
 2557 0112 0B       		.uleb128 0xb
 2558 0113 49       		.uleb128 0x49
 2559 0114 13       		.uleb128 0x13
 2560 0115 3F       		.uleb128 0x3f
 2561 0116 19       		.uleb128 0x19
 2562 0117 3C       		.uleb128 0x3c
 2563 0118 19       		.uleb128 0x19
 2564 0119 00       		.byte	0
 2565 011a 00       		.byte	0
ARM GAS  /tmp/ccA06uLL.s 			page 46


 2566 011b 16       		.uleb128 0x16
 2567 011c 2E       		.uleb128 0x2e
 2568 011d 01       		.byte	0x1
 2569 011e 3F       		.uleb128 0x3f
 2570 011f 19       		.uleb128 0x19
 2571 0120 03       		.uleb128 0x3
 2572 0121 0E       		.uleb128 0xe
 2573 0122 3A       		.uleb128 0x3a
 2574 0123 0B       		.uleb128 0xb
 2575 0124 3B       		.uleb128 0x3b
 2576 0125 0B       		.uleb128 0xb
 2577 0126 39       		.uleb128 0x39
 2578 0127 0B       		.uleb128 0xb
 2579 0128 27       		.uleb128 0x27
 2580 0129 19       		.uleb128 0x19
 2581 012a 11       		.uleb128 0x11
 2582 012b 01       		.uleb128 0x1
 2583 012c 12       		.uleb128 0x12
 2584 012d 06       		.uleb128 0x6
 2585 012e 40       		.uleb128 0x40
 2586 012f 18       		.uleb128 0x18
 2587 0130 9742     		.uleb128 0x2117
 2588 0132 19       		.uleb128 0x19
 2589 0133 01       		.uleb128 0x1
 2590 0134 13       		.uleb128 0x13
 2591 0135 00       		.byte	0
 2592 0136 00       		.byte	0
 2593 0137 17       		.uleb128 0x17
 2594 0138 05       		.uleb128 0x5
 2595 0139 00       		.byte	0
 2596 013a 03       		.uleb128 0x3
 2597 013b 08       		.uleb128 0x8
 2598 013c 3A       		.uleb128 0x3a
 2599 013d 0B       		.uleb128 0xb
 2600 013e 3B       		.uleb128 0x3b
 2601 013f 0B       		.uleb128 0xb
 2602 0140 39       		.uleb128 0x39
 2603 0141 0B       		.uleb128 0xb
 2604 0142 49       		.uleb128 0x49
 2605 0143 13       		.uleb128 0x13
 2606 0144 02       		.uleb128 0x2
 2607 0145 17       		.uleb128 0x17
 2608 0146 B742     		.uleb128 0x2137
 2609 0148 17       		.uleb128 0x17
 2610 0149 00       		.byte	0
 2611 014a 00       		.byte	0
 2612 014b 18       		.uleb128 0x18
 2613 014c 34       		.uleb128 0x34
 2614 014d 00       		.byte	0
 2615 014e 03       		.uleb128 0x3
 2616 014f 0E       		.uleb128 0xe
 2617 0150 49       		.uleb128 0x49
 2618 0151 13       		.uleb128 0x13
 2619 0152 34       		.uleb128 0x34
 2620 0153 19       		.uleb128 0x19
 2621 0154 00       		.byte	0
 2622 0155 00       		.byte	0
ARM GAS  /tmp/ccA06uLL.s 			page 47


 2623 0156 19       		.uleb128 0x19
 2624 0157 1D       		.uleb128 0x1d
 2625 0158 01       		.byte	0x1
 2626 0159 31       		.uleb128 0x31
 2627 015a 13       		.uleb128 0x13
 2628 015b 52       		.uleb128 0x52
 2629 015c 01       		.uleb128 0x1
 2630 015d B842     		.uleb128 0x2138
 2631 015f 0B       		.uleb128 0xb
 2632 0160 55       		.uleb128 0x55
 2633 0161 17       		.uleb128 0x17
 2634 0162 58       		.uleb128 0x58
 2635 0163 0B       		.uleb128 0xb
 2636 0164 59       		.uleb128 0x59
 2637 0165 0B       		.uleb128 0xb
 2638 0166 57       		.uleb128 0x57
 2639 0167 0B       		.uleb128 0xb
 2640 0168 01       		.uleb128 0x1
 2641 0169 13       		.uleb128 0x13
 2642 016a 00       		.byte	0
 2643 016b 00       		.byte	0
 2644 016c 1A       		.uleb128 0x1a
 2645 016d 1D       		.uleb128 0x1d
 2646 016e 01       		.byte	0x1
 2647 016f 31       		.uleb128 0x31
 2648 0170 13       		.uleb128 0x13
 2649 0171 52       		.uleb128 0x52
 2650 0172 01       		.uleb128 0x1
 2651 0173 B842     		.uleb128 0x2138
 2652 0175 0B       		.uleb128 0xb
 2653 0176 55       		.uleb128 0x55
 2654 0177 17       		.uleb128 0x17
 2655 0178 58       		.uleb128 0x58
 2656 0179 0B       		.uleb128 0xb
 2657 017a 59       		.uleb128 0x59
 2658 017b 05       		.uleb128 0x5
 2659 017c 57       		.uleb128 0x57
 2660 017d 0B       		.uleb128 0xb
 2661 017e 01       		.uleb128 0x1
 2662 017f 13       		.uleb128 0x13
 2663 0180 00       		.byte	0
 2664 0181 00       		.byte	0
 2665 0182 1B       		.uleb128 0x1b
 2666 0183 1D       		.uleb128 0x1d
 2667 0184 01       		.byte	0x1
 2668 0185 31       		.uleb128 0x31
 2669 0186 13       		.uleb128 0x13
 2670 0187 52       		.uleb128 0x52
 2671 0188 01       		.uleb128 0x1
 2672 0189 B842     		.uleb128 0x2138
 2673 018b 0B       		.uleb128 0xb
 2674 018c 55       		.uleb128 0x55
 2675 018d 17       		.uleb128 0x17
 2676 018e 58       		.uleb128 0x58
 2677 018f 0B       		.uleb128 0xb
 2678 0190 59       		.uleb128 0x59
 2679 0191 05       		.uleb128 0x5
ARM GAS  /tmp/ccA06uLL.s 			page 48


 2680 0192 57       		.uleb128 0x57
 2681 0193 0B       		.uleb128 0xb
 2682 0194 00       		.byte	0
 2683 0195 00       		.byte	0
 2684 0196 1C       		.uleb128 0x1c
 2685 0197 05       		.uleb128 0x5
 2686 0198 00       		.byte	0
 2687 0199 31       		.uleb128 0x31
 2688 019a 13       		.uleb128 0x13
 2689 019b 02       		.uleb128 0x2
 2690 019c 17       		.uleb128 0x17
 2691 019d B742     		.uleb128 0x2137
 2692 019f 17       		.uleb128 0x17
 2693 01a0 00       		.byte	0
 2694 01a1 00       		.byte	0
 2695 01a2 1D       		.uleb128 0x1d
 2696 01a3 898201   		.uleb128 0x4109
 2697 01a6 00       		.byte	0
 2698 01a7 11       		.uleb128 0x11
 2699 01a8 01       		.uleb128 0x1
 2700 01a9 31       		.uleb128 0x31
 2701 01aa 13       		.uleb128 0x13
 2702 01ab 00       		.byte	0
 2703 01ac 00       		.byte	0
 2704 01ad 1E       		.uleb128 0x1e
 2705 01ae 1D       		.uleb128 0x1d
 2706 01af 01       		.byte	0x1
 2707 01b0 31       		.uleb128 0x31
 2708 01b1 13       		.uleb128 0x13
 2709 01b2 52       		.uleb128 0x52
 2710 01b3 01       		.uleb128 0x1
 2711 01b4 B842     		.uleb128 0x2138
 2712 01b6 0B       		.uleb128 0xb
 2713 01b7 11       		.uleb128 0x11
 2714 01b8 01       		.uleb128 0x1
 2715 01b9 12       		.uleb128 0x12
 2716 01ba 06       		.uleb128 0x6
 2717 01bb 58       		.uleb128 0x58
 2718 01bc 0B       		.uleb128 0xb
 2719 01bd 59       		.uleb128 0x59
 2720 01be 0B       		.uleb128 0xb
 2721 01bf 57       		.uleb128 0x57
 2722 01c0 0B       		.uleb128 0xb
 2723 01c1 01       		.uleb128 0x1
 2724 01c2 13       		.uleb128 0x13
 2725 01c3 00       		.byte	0
 2726 01c4 00       		.byte	0
 2727 01c5 1F       		.uleb128 0x1f
 2728 01c6 898201   		.uleb128 0x4109
 2729 01c9 01       		.byte	0x1
 2730 01ca 11       		.uleb128 0x11
 2731 01cb 01       		.uleb128 0x1
 2732 01cc 31       		.uleb128 0x31
 2733 01cd 13       		.uleb128 0x13
 2734 01ce 00       		.byte	0
 2735 01cf 00       		.byte	0
 2736 01d0 20       		.uleb128 0x20
ARM GAS  /tmp/ccA06uLL.s 			page 49


 2737 01d1 8A8201   		.uleb128 0x410a
 2738 01d4 00       		.byte	0
 2739 01d5 02       		.uleb128 0x2
 2740 01d6 18       		.uleb128 0x18
 2741 01d7 9142     		.uleb128 0x2111
 2742 01d9 18       		.uleb128 0x18
 2743 01da 00       		.byte	0
 2744 01db 00       		.byte	0
 2745 01dc 21       		.uleb128 0x21
 2746 01dd 1D       		.uleb128 0x1d
 2747 01de 01       		.byte	0x1
 2748 01df 31       		.uleb128 0x31
 2749 01e0 13       		.uleb128 0x13
 2750 01e1 52       		.uleb128 0x52
 2751 01e2 01       		.uleb128 0x1
 2752 01e3 B842     		.uleb128 0x2138
 2753 01e5 0B       		.uleb128 0xb
 2754 01e6 55       		.uleb128 0x55
 2755 01e7 17       		.uleb128 0x17
 2756 01e8 58       		.uleb128 0x58
 2757 01e9 0B       		.uleb128 0xb
 2758 01ea 59       		.uleb128 0x59
 2759 01eb 0B       		.uleb128 0xb
 2760 01ec 57       		.uleb128 0x57
 2761 01ed 0B       		.uleb128 0xb
 2762 01ee 00       		.byte	0
 2763 01ef 00       		.byte	0
 2764 01f0 22       		.uleb128 0x22
 2765 01f1 0B       		.uleb128 0xb
 2766 01f2 01       		.byte	0x1
 2767 01f3 55       		.uleb128 0x55
 2768 01f4 17       		.uleb128 0x17
 2769 01f5 00       		.byte	0
 2770 01f6 00       		.byte	0
 2771 01f7 23       		.uleb128 0x23
 2772 01f8 1D       		.uleb128 0x1d
 2773 01f9 01       		.byte	0x1
 2774 01fa 31       		.uleb128 0x31
 2775 01fb 13       		.uleb128 0x13
 2776 01fc 52       		.uleb128 0x52
 2777 01fd 01       		.uleb128 0x1
 2778 01fe B842     		.uleb128 0x2138
 2779 0200 0B       		.uleb128 0xb
 2780 0201 11       		.uleb128 0x11
 2781 0202 01       		.uleb128 0x1
 2782 0203 12       		.uleb128 0x12
 2783 0204 06       		.uleb128 0x6
 2784 0205 58       		.uleb128 0x58
 2785 0206 0B       		.uleb128 0xb
 2786 0207 59       		.uleb128 0x59
 2787 0208 05       		.uleb128 0x5
 2788 0209 57       		.uleb128 0x57
 2789 020a 0B       		.uleb128 0xb
 2790 020b 00       		.byte	0
 2791 020c 00       		.byte	0
 2792 020d 24       		.uleb128 0x24
 2793 020e 01       		.uleb128 0x1
ARM GAS  /tmp/ccA06uLL.s 			page 50


 2794 020f 01       		.byte	0x1
 2795 0210 49       		.uleb128 0x49
 2796 0211 13       		.uleb128 0x13
 2797 0212 01       		.uleb128 0x1
 2798 0213 13       		.uleb128 0x13
 2799 0214 00       		.byte	0
 2800 0215 00       		.byte	0
 2801 0216 25       		.uleb128 0x25
 2802 0217 21       		.uleb128 0x21
 2803 0218 00       		.byte	0
 2804 0219 49       		.uleb128 0x49
 2805 021a 13       		.uleb128 0x13
 2806 021b 2F       		.uleb128 0x2f
 2807 021c 0B       		.uleb128 0xb
 2808 021d 00       		.byte	0
 2809 021e 00       		.byte	0
 2810 021f 26       		.uleb128 0x26
 2811 0220 2E       		.uleb128 0x2e
 2812 0221 01       		.byte	0x1
 2813 0222 3F       		.uleb128 0x3f
 2814 0223 19       		.uleb128 0x19
 2815 0224 03       		.uleb128 0x3
 2816 0225 0E       		.uleb128 0xe
 2817 0226 3A       		.uleb128 0x3a
 2818 0227 0B       		.uleb128 0xb
 2819 0228 3B       		.uleb128 0x3b
 2820 0229 0B       		.uleb128 0xb
 2821 022a 39       		.uleb128 0x39
 2822 022b 0B       		.uleb128 0xb
 2823 022c 27       		.uleb128 0x27
 2824 022d 19       		.uleb128 0x19
 2825 022e 49       		.uleb128 0x49
 2826 022f 13       		.uleb128 0x13
 2827 0230 11       		.uleb128 0x11
 2828 0231 01       		.uleb128 0x1
 2829 0232 12       		.uleb128 0x12
 2830 0233 06       		.uleb128 0x6
 2831 0234 40       		.uleb128 0x40
 2832 0235 18       		.uleb128 0x18
 2833 0236 9742     		.uleb128 0x2117
 2834 0238 19       		.uleb128 0x19
 2835 0239 01       		.uleb128 0x1
 2836 023a 13       		.uleb128 0x13
 2837 023b 00       		.byte	0
 2838 023c 00       		.byte	0
 2839 023d 27       		.uleb128 0x27
 2840 023e 34       		.uleb128 0x34
 2841 023f 00       		.byte	0
 2842 0240 03       		.uleb128 0x3
 2843 0241 08       		.uleb128 0x8
 2844 0242 3A       		.uleb128 0x3a
 2845 0243 0B       		.uleb128 0xb
 2846 0244 3B       		.uleb128 0x3b
 2847 0245 0B       		.uleb128 0xb
 2848 0246 39       		.uleb128 0x39
 2849 0247 0B       		.uleb128 0xb
 2850 0248 49       		.uleb128 0x49
ARM GAS  /tmp/ccA06uLL.s 			page 51


 2851 0249 13       		.uleb128 0x13
 2852 024a 02       		.uleb128 0x2
 2853 024b 17       		.uleb128 0x17
 2854 024c B742     		.uleb128 0x2137
 2855 024e 17       		.uleb128 0x17
 2856 024f 00       		.byte	0
 2857 0250 00       		.byte	0
 2858 0251 28       		.uleb128 0x28
 2859 0252 34       		.uleb128 0x34
 2860 0253 00       		.byte	0
 2861 0254 31       		.uleb128 0x31
 2862 0255 13       		.uleb128 0x13
 2863 0256 02       		.uleb128 0x2
 2864 0257 17       		.uleb128 0x17
 2865 0258 B742     		.uleb128 0x2137
 2866 025a 17       		.uleb128 0x17
 2867 025b 00       		.byte	0
 2868 025c 00       		.byte	0
 2869 025d 29       		.uleb128 0x29
 2870 025e 898201   		.uleb128 0x4109
 2871 0261 01       		.byte	0x1
 2872 0262 11       		.uleb128 0x11
 2873 0263 01       		.uleb128 0x1
 2874 0264 31       		.uleb128 0x31
 2875 0265 13       		.uleb128 0x13
 2876 0266 01       		.uleb128 0x1
 2877 0267 13       		.uleb128 0x13
 2878 0268 00       		.byte	0
 2879 0269 00       		.byte	0
 2880 026a 2A       		.uleb128 0x2a
 2881 026b 2E       		.uleb128 0x2e
 2882 026c 01       		.byte	0x1
 2883 026d 03       		.uleb128 0x3
 2884 026e 0E       		.uleb128 0xe
 2885 026f 3A       		.uleb128 0x3a
 2886 0270 0B       		.uleb128 0xb
 2887 0271 3B       		.uleb128 0x3b
 2888 0272 0B       		.uleb128 0xb
 2889 0273 39       		.uleb128 0x39
 2890 0274 0B       		.uleb128 0xb
 2891 0275 27       		.uleb128 0x27
 2892 0276 19       		.uleb128 0x19
 2893 0277 20       		.uleb128 0x20
 2894 0278 0B       		.uleb128 0xb
 2895 0279 01       		.uleb128 0x1
 2896 027a 13       		.uleb128 0x13
 2897 027b 00       		.byte	0
 2898 027c 00       		.byte	0
 2899 027d 2B       		.uleb128 0x2b
 2900 027e 05       		.uleb128 0x5
 2901 027f 00       		.byte	0
 2902 0280 03       		.uleb128 0x3
 2903 0281 08       		.uleb128 0x8
 2904 0282 3A       		.uleb128 0x3a
 2905 0283 0B       		.uleb128 0xb
 2906 0284 3B       		.uleb128 0x3b
 2907 0285 0B       		.uleb128 0xb
ARM GAS  /tmp/ccA06uLL.s 			page 52


 2908 0286 39       		.uleb128 0x39
 2909 0287 0B       		.uleb128 0xb
 2910 0288 49       		.uleb128 0x49
 2911 0289 13       		.uleb128 0x13
 2912 028a 00       		.byte	0
 2913 028b 00       		.byte	0
 2914 028c 2C       		.uleb128 0x2c
 2915 028d 2E       		.uleb128 0x2e
 2916 028e 01       		.byte	0x1
 2917 028f 03       		.uleb128 0x3
 2918 0290 0E       		.uleb128 0xe
 2919 0291 3A       		.uleb128 0x3a
 2920 0292 0B       		.uleb128 0xb
 2921 0293 3B       		.uleb128 0x3b
 2922 0294 0B       		.uleb128 0xb
 2923 0295 39       		.uleb128 0x39
 2924 0296 0B       		.uleb128 0xb
 2925 0297 27       		.uleb128 0x27
 2926 0298 19       		.uleb128 0x19
 2927 0299 49       		.uleb128 0x49
 2928 029a 13       		.uleb128 0x13
 2929 029b 20       		.uleb128 0x20
 2930 029c 0B       		.uleb128 0xb
 2931 029d 01       		.uleb128 0x1
 2932 029e 13       		.uleb128 0x13
 2933 029f 00       		.byte	0
 2934 02a0 00       		.byte	0
 2935 02a1 2D       		.uleb128 0x2d
 2936 02a2 2E       		.uleb128 0x2e
 2937 02a3 01       		.byte	0x1
 2938 02a4 03       		.uleb128 0x3
 2939 02a5 0E       		.uleb128 0xe
 2940 02a6 3A       		.uleb128 0x3a
 2941 02a7 0B       		.uleb128 0xb
 2942 02a8 3B       		.uleb128 0x3b
 2943 02a9 05       		.uleb128 0x5
 2944 02aa 39       		.uleb128 0x39
 2945 02ab 0B       		.uleb128 0xb
 2946 02ac 27       		.uleb128 0x27
 2947 02ad 19       		.uleb128 0x19
 2948 02ae 20       		.uleb128 0x20
 2949 02af 0B       		.uleb128 0xb
 2950 02b0 01       		.uleb128 0x1
 2951 02b1 13       		.uleb128 0x13
 2952 02b2 00       		.byte	0
 2953 02b3 00       		.byte	0
 2954 02b4 2E       		.uleb128 0x2e
 2955 02b5 2E       		.uleb128 0x2e
 2956 02b6 00       		.byte	0
 2957 02b7 03       		.uleb128 0x3
 2958 02b8 0E       		.uleb128 0xe
 2959 02b9 3A       		.uleb128 0x3a
 2960 02ba 0B       		.uleb128 0xb
 2961 02bb 3B       		.uleb128 0x3b
 2962 02bc 05       		.uleb128 0x5
 2963 02bd 39       		.uleb128 0x39
 2964 02be 0B       		.uleb128 0xb
ARM GAS  /tmp/ccA06uLL.s 			page 53


 2965 02bf 27       		.uleb128 0x27
 2966 02c0 19       		.uleb128 0x19
 2967 02c1 20       		.uleb128 0x20
 2968 02c2 0B       		.uleb128 0xb
 2969 02c3 00       		.byte	0
 2970 02c4 00       		.byte	0
 2971 02c5 2F       		.uleb128 0x2f
 2972 02c6 2E       		.uleb128 0x2e
 2973 02c7 01       		.byte	0x1
 2974 02c8 03       		.uleb128 0x3
 2975 02c9 0E       		.uleb128 0xe
 2976 02ca 3A       		.uleb128 0x3a
 2977 02cb 0B       		.uleb128 0xb
 2978 02cc 3B       		.uleb128 0x3b
 2979 02cd 05       		.uleb128 0x5
 2980 02ce 39       		.uleb128 0x39
 2981 02cf 0B       		.uleb128 0xb
 2982 02d0 27       		.uleb128 0x27
 2983 02d1 19       		.uleb128 0x19
 2984 02d2 49       		.uleb128 0x49
 2985 02d3 13       		.uleb128 0x13
 2986 02d4 20       		.uleb128 0x20
 2987 02d5 0B       		.uleb128 0xb
 2988 02d6 01       		.uleb128 0x1
 2989 02d7 13       		.uleb128 0x13
 2990 02d8 00       		.byte	0
 2991 02d9 00       		.byte	0
 2992 02da 30       		.uleb128 0x30
 2993 02db 05       		.uleb128 0x5
 2994 02dc 00       		.byte	0
 2995 02dd 03       		.uleb128 0x3
 2996 02de 08       		.uleb128 0x8
 2997 02df 3A       		.uleb128 0x3a
 2998 02e0 0B       		.uleb128 0xb
 2999 02e1 3B       		.uleb128 0x3b
 3000 02e2 05       		.uleb128 0x5
 3001 02e3 39       		.uleb128 0x39
 3002 02e4 0B       		.uleb128 0xb
 3003 02e5 49       		.uleb128 0x49
 3004 02e6 13       		.uleb128 0x13
 3005 02e7 00       		.byte	0
 3006 02e8 00       		.byte	0
 3007 02e9 31       		.uleb128 0x31
 3008 02ea 34       		.uleb128 0x34
 3009 02eb 00       		.byte	0
 3010 02ec 03       		.uleb128 0x3
 3011 02ed 08       		.uleb128 0x8
 3012 02ee 3A       		.uleb128 0x3a
 3013 02ef 0B       		.uleb128 0xb
 3014 02f0 3B       		.uleb128 0x3b
 3015 02f1 05       		.uleb128 0x5
 3016 02f2 39       		.uleb128 0x39
 3017 02f3 0B       		.uleb128 0xb
 3018 02f4 49       		.uleb128 0x49
 3019 02f5 13       		.uleb128 0x13
 3020 02f6 00       		.byte	0
 3021 02f7 00       		.byte	0
ARM GAS  /tmp/ccA06uLL.s 			page 54


 3022 02f8 32       		.uleb128 0x32
 3023 02f9 05       		.uleb128 0x5
 3024 02fa 00       		.byte	0
 3025 02fb 03       		.uleb128 0x3
 3026 02fc 0E       		.uleb128 0xe
 3027 02fd 3A       		.uleb128 0x3a
 3028 02fe 0B       		.uleb128 0xb
 3029 02ff 3B       		.uleb128 0x3b
 3030 0300 05       		.uleb128 0x5
 3031 0301 39       		.uleb128 0x39
 3032 0302 0B       		.uleb128 0xb
 3033 0303 49       		.uleb128 0x49
 3034 0304 13       		.uleb128 0x13
 3035 0305 00       		.byte	0
 3036 0306 00       		.byte	0
 3037 0307 33       		.uleb128 0x33
 3038 0308 2E       		.uleb128 0x2e
 3039 0309 00       		.byte	0
 3040 030a 3F       		.uleb128 0x3f
 3041 030b 19       		.uleb128 0x19
 3042 030c 3C       		.uleb128 0x3c
 3043 030d 19       		.uleb128 0x19
 3044 030e 6E       		.uleb128 0x6e
 3045 030f 0E       		.uleb128 0xe
 3046 0310 03       		.uleb128 0x3
 3047 0311 0E       		.uleb128 0xe
 3048 0312 3A       		.uleb128 0x3a
 3049 0313 0B       		.uleb128 0xb
 3050 0314 3B       		.uleb128 0x3b
 3051 0315 0B       		.uleb128 0xb
 3052 0316 39       		.uleb128 0x39
 3053 0317 0B       		.uleb128 0xb
 3054 0318 00       		.byte	0
 3055 0319 00       		.byte	0
 3056 031a 34       		.uleb128 0x34
 3057 031b 2E       		.uleb128 0x2e
 3058 031c 00       		.byte	0
 3059 031d 3F       		.uleb128 0x3f
 3060 031e 19       		.uleb128 0x19
 3061 031f 3C       		.uleb128 0x3c
 3062 0320 19       		.uleb128 0x19
 3063 0321 6E       		.uleb128 0x6e
 3064 0322 0E       		.uleb128 0xe
 3065 0323 03       		.uleb128 0x3
 3066 0324 0E       		.uleb128 0xe
 3067 0325 3A       		.uleb128 0x3a
 3068 0326 0B       		.uleb128 0xb
 3069 0327 3B       		.uleb128 0x3b
 3070 0328 05       		.uleb128 0x5
 3071 0329 39       		.uleb128 0x39
 3072 032a 0B       		.uleb128 0xb
 3073 032b 00       		.byte	0
 3074 032c 00       		.byte	0
 3075 032d 00       		.byte	0
 3076              		.section	.debug_loc,"",%progbits
 3077              	.Ldebug_loc0:
 3078              	.LVUS13:
ARM GAS  /tmp/ccA06uLL.s 			page 55


 3079 0000 00       		.uleb128 0
 3080 0001 00       		.uleb128 .LVU127
 3081 0002 00       		.uleb128 .LVU127
 3082 0003 00       		.uleb128 0
 3083              	.LLST13:
 3084 0004 00000000 		.4byte	.LVL26
 3085 0008 0F000000 		.4byte	.LVL28-1
 3086 000c 0100     		.2byte	0x1
 3087 000e 50       		.byte	0x50
 3088 000f 0F000000 		.4byte	.LVL28-1
 3089 0013 28000000 		.4byte	.LFE303
 3090 0017 0200     		.2byte	0x2
 3091 0019 91       		.byte	0x91
 3092 001a 74       		.sleb128 -12
 3093 001b 00000000 		.4byte	0
 3094 001f 00000000 		.4byte	0
 3095              	.LVUS14:
 3096 0023 00       		.uleb128 0
 3097 0024 00       		.uleb128 .LVU127
 3098 0025 00       		.uleb128 .LVU127
 3099 0026 00       		.uleb128 .LVU150
 3100 0027 00       		.uleb128 .LVU150
 3101 0028 00       		.uleb128 0
 3102              	.LLST14:
 3103 0029 00000000 		.4byte	.LVL26
 3104 002d 0F000000 		.4byte	.LVL28-1
 3105 0031 0100     		.2byte	0x1
 3106 0033 51       		.byte	0x51
 3107 0034 0F000000 		.4byte	.LVL28-1
 3108 0038 24000000 		.4byte	.LVL32
 3109 003c 0200     		.2byte	0x2
 3110 003e 7D       		.byte	0x7d
 3111 003f 00       		.sleb128 0
 3112 0040 24000000 		.4byte	.LVL32
 3113 0044 28000000 		.4byte	.LFE303
 3114 0048 0200     		.2byte	0x2
 3115 004a 91       		.byte	0x91
 3116 004b 70       		.sleb128 -16
 3117 004c 00000000 		.4byte	0
 3118 0050 00000000 		.4byte	0
 3119              	.LVUS15:
 3120 0054 06       		.uleb128 .LVU119
 3121 0055 00       		.uleb128 .LVU125
 3122              	.LLST15:
 3123 0056 00000000 		.4byte	.LVL26
 3124 005a 0C000000 		.4byte	.LVL27
 3125 005e 0300     		.2byte	0x3
 3126 0060 08       		.byte	0x8
 3127 0061 20       		.byte	0x20
 3128 0062 9F       		.byte	0x9f
 3129 0063 00000000 		.4byte	0
 3130 0067 00000000 		.4byte	0
 3131              	.LVUS16:
 3132 006b 05       		.uleb128 .LVU132
 3133 006c 00       		.uleb128 .LVU135
 3134              	.LLST16:
 3135 006d 10000000 		.4byte	.LVL28
ARM GAS  /tmp/ccA06uLL.s 			page 56


 3136 0071 18000000 		.4byte	.LVL29
 3137 0075 0200     		.2byte	0x2
 3138 0077 7D       		.byte	0x7d
 3139 0078 00       		.sleb128 0
 3140 0079 00000000 		.4byte	0
 3141 007d 00000000 		.4byte	0
 3142              	.LVUS17:
 3143 0081 05       		.uleb128 .LVU132
 3144 0082 00       		.uleb128 .LVU135
 3145              	.LLST17:
 3146 0083 10000000 		.4byte	.LVL28
 3147 0087 18000000 		.4byte	.LVL29
 3148 008b 0200     		.2byte	0x2
 3149 008d 91       		.byte	0x91
 3150 008e 74       		.sleb128 -12
 3151 008f 00000000 		.4byte	0
 3152 0093 00000000 		.4byte	0
 3153              	.LVUS18:
 3154 0097 06       		.uleb128 .LVU146
 3155 0098 00       		.uleb128 .LVU148
 3156              	.LLST18:
 3157 0099 1C000000 		.4byte	.LVL30
 3158 009d 22000000 		.4byte	.LVL31
 3159 00a1 0200     		.2byte	0x2
 3160 00a3 30       		.byte	0x30
 3161 00a4 9F       		.byte	0x9f
 3162 00a5 00000000 		.4byte	0
 3163 00a9 00000000 		.4byte	0
 3164              	.LVUS7:
 3165 00ad 01       		.uleb128 .LVU94
 3166 00ae 00       		.uleb128 .LVU112
 3167 00af 00       		.uleb128 .LVU112
 3168 00b0 00       		.uleb128 0
 3169              	.LLST7:
 3170 00b1 2C000000 		.4byte	.LVL22
 3171 00b5 40000000 		.4byte	.LVL25
 3172 00b9 0100     		.2byte	0x1
 3173 00bb 54       		.byte	0x54
 3174 00bc 40000000 		.4byte	.LVL25
 3175 00c0 44000000 		.4byte	.LFE302
 3176 00c4 0100     		.2byte	0x1
 3177 00c6 50       		.byte	0x50
 3178 00c7 00000000 		.4byte	0
 3179 00cb 00000000 		.4byte	0
 3180              	.LVUS8:
 3181 00cf 07       		.uleb128 .LVU66
 3182 00d0 00       		.uleb128 .LVU70
 3183              	.LLST8:
 3184 00d1 00000000 		.4byte	.LVL14
 3185 00d5 08000000 		.4byte	.LVL15
 3186 00d9 0300     		.2byte	0x3
 3187 00db 08       		.byte	0x8
 3188 00dc 20       		.byte	0x20
 3189 00dd 9F       		.byte	0x9f
 3190 00de 00000000 		.4byte	0
 3191 00e2 00000000 		.4byte	0
 3192              	.LVUS9:
ARM GAS  /tmp/ccA06uLL.s 			page 57


 3193 00e6 00       		.uleb128 .LVU77
 3194 00e7 03       		.uleb128 .LVU80
 3195              	.LLST9:
 3196 00e8 10000000 		.4byte	.LVL17
 3197 00ec 10000000 		.4byte	.LVL17
 3198 00f0 0100     		.2byte	0x1
 3199 00f2 53       		.byte	0x53
 3200 00f3 00000000 		.4byte	0
 3201 00f7 00000000 		.4byte	0
 3202              	.LVUS10:
 3203 00fb 00       		.uleb128 .LVU85
 3204 00fc 00       		.uleb128 .LVU91
 3205 00fd 00       		.uleb128 .LVU91
 3206 00fe 01       		.uleb128 .LVU94
 3207              	.LLST10:
 3208 00ff 22000000 		.4byte	.LVL19
 3209 0103 2A000000 		.4byte	.LVL21
 3210 0107 0300     		.2byte	0x3
 3211 0109 73       		.byte	0x73
 3212 010a 2C       		.sleb128 44
 3213 010b 9F       		.byte	0x9f
 3214 010c 2A000000 		.4byte	.LVL21
 3215 0110 2C000000 		.4byte	.LVL22
 3216 0114 0100     		.2byte	0x1
 3217 0116 53       		.byte	0x53
 3218 0117 00000000 		.4byte	0
 3219 011b 00000000 		.4byte	0
 3220              	.LVUS11:
 3221 011f 00       		.uleb128 .LVU88
 3222 0120 01       		.uleb128 .LVU94
 3223              	.LLST11:
 3224 0121 24000000 		.4byte	.LVL20
 3225 0125 2C000000 		.4byte	.LVL22
 3226 0129 0100     		.2byte	0x1
 3227 012b 54       		.byte	0x54
 3228 012c 00000000 		.4byte	0
 3229 0130 00000000 		.4byte	0
 3230              	.LVUS12:
 3231 0134 06       		.uleb128 .LVU107
 3232 0135 00       		.uleb128 .LVU109
 3233              	.LLST12:
 3234 0136 36000000 		.4byte	.LVL23
 3235 013a 3C000000 		.4byte	.LVL24
 3236 013e 0200     		.2byte	0x2
 3237 0140 30       		.byte	0x30
 3238 0141 9F       		.byte	0x9f
 3239 0142 00000000 		.4byte	0
 3240 0146 00000000 		.4byte	0
 3241              	.LVUS0:
 3242 014a 00       		.uleb128 0
 3243 014b 00       		.uleb128 .LVU19
 3244 014c 00       		.uleb128 .LVU19
 3245 014d 00       		.uleb128 .LVU58
 3246 014e 00       		.uleb128 .LVU58
 3247 014f 00       		.uleb128 0
 3248              	.LLST0:
 3249 0150 00000000 		.4byte	.LVL0
ARM GAS  /tmp/ccA06uLL.s 			page 58


 3250 0154 13000000 		.4byte	.LVL3-1
 3251 0158 0100     		.2byte	0x1
 3252 015a 50       		.byte	0x50
 3253 015b 13000000 		.4byte	.LVL3-1
 3254 015f 4C000000 		.4byte	.LVL13
 3255 0163 0100     		.2byte	0x1
 3256 0165 54       		.byte	0x54
 3257 0166 4C000000 		.4byte	.LVL13
 3258 016a 50000000 		.4byte	.LFE301
 3259 016e 0400     		.2byte	0x4
 3260 0170 F3       		.byte	0xf3
 3261 0171 01       		.uleb128 0x1
 3262 0172 50       		.byte	0x50
 3263 0173 9F       		.byte	0x9f
 3264 0174 00000000 		.4byte	0
 3265 0178 00000000 		.4byte	0
 3266              	.LVUS1:
 3267 017c 00       		.uleb128 0
 3268 017d 00       		.uleb128 .LVU19
 3269 017e 00       		.uleb128 .LVU19
 3270 017f 00       		.uleb128 .LVU43
 3271 0180 00       		.uleb128 .LVU43
 3272 0181 00       		.uleb128 .LVU47
 3273 0182 00       		.uleb128 .LVU47
 3274 0183 00       		.uleb128 .LVU58
 3275 0184 00       		.uleb128 .LVU58
 3276 0185 00       		.uleb128 0
 3277              	.LLST1:
 3278 0186 00000000 		.4byte	.LVL0
 3279 018a 13000000 		.4byte	.LVL3-1
 3280 018e 0100     		.2byte	0x1
 3281 0190 51       		.byte	0x51
 3282 0191 13000000 		.4byte	.LVL3-1
 3283 0195 3C000000 		.4byte	.LVL10
 3284 0199 0100     		.2byte	0x1
 3285 019b 56       		.byte	0x56
 3286 019c 3C000000 		.4byte	.LVL10
 3287 01a0 3F000000 		.4byte	.LVL11-1
 3288 01a4 0100     		.2byte	0x1
 3289 01a6 50       		.byte	0x50
 3290 01a7 3F000000 		.4byte	.LVL11-1
 3291 01ab 4C000000 		.4byte	.LVL13
 3292 01af 0200     		.2byte	0x2
 3293 01b1 91       		.byte	0x91
 3294 01b2 6C       		.sleb128 -20
 3295 01b3 4C000000 		.4byte	.LVL13
 3296 01b7 50000000 		.4byte	.LFE301
 3297 01bb 0200     		.2byte	0x2
 3298 01bd 7D       		.byte	0x7d
 3299 01be 6C       		.sleb128 -20
 3300 01bf 00000000 		.4byte	0
 3301 01c3 00000000 		.4byte	0
 3302              	.LVUS2:
 3303 01c7 00       		.uleb128 .LVU5
 3304 01c8 00       		.uleb128 .LVU58
 3305              	.LLST2:
 3306 01c9 06000000 		.4byte	.LVL1
ARM GAS  /tmp/ccA06uLL.s 			page 59


 3307 01cd 4C000000 		.4byte	.LVL13
 3308 01d1 0100     		.2byte	0x1
 3309 01d3 55       		.byte	0x55
 3310 01d4 00000000 		.4byte	0
 3311 01d8 00000000 		.4byte	0
 3312              	.LVUS3:
 3313 01dc 08       		.uleb128 .LVU13
 3314 01dd 00       		.uleb128 .LVU17
 3315              	.LLST3:
 3316 01de 06000000 		.4byte	.LVL1
 3317 01e2 10000000 		.4byte	.LVL2
 3318 01e6 0300     		.2byte	0x3
 3319 01e8 08       		.byte	0x8
 3320 01e9 20       		.byte	0x20
 3321 01ea 9F       		.byte	0x9f
 3322 01eb 00000000 		.4byte	0
 3323 01ef 00000000 		.4byte	0
 3324              	.LVUS4:
 3325 01f3 01       		.uleb128 .LVU24
 3326 01f4 00       		.uleb128 .LVU29
 3327 01f5 00       		.uleb128 .LVU29
 3328 01f6 00       		.uleb128 .LVU32
 3329 01f7 00       		.uleb128 .LVU32
 3330 01f8 00       		.uleb128 .LVU35
 3331              	.LLST4:
 3332 01f9 1A000000 		.4byte	.LVL4
 3333 01fd 1E000000 		.4byte	.LVL5
 3334 0201 0100     		.2byte	0x1
 3335 0203 53       		.byte	0x53
 3336 0204 1E000000 		.4byte	.LVL5
 3337 0208 22000000 		.4byte	.LVL6
 3338 020c 0200     		.2byte	0x2
 3339 020e 75       		.byte	0x75
 3340 020f 00       		.sleb128 0
 3341 0210 22000000 		.4byte	.LVL6
 3342 0214 28000000 		.4byte	.LVL7
 3343 0218 0300     		.2byte	0x3
 3344 021a 74       		.byte	0x74
 3345 021b 2C       		.sleb128 44
 3346 021c 9F       		.byte	0x9f
 3347 021d 00000000 		.4byte	0
 3348 0221 00000000 		.4byte	0
 3349              	.LVUS5:
 3350 0225 01       		.uleb128 .LVU24
 3351 0226 00       		.uleb128 .LVU35
 3352              	.LLST5:
 3353 0227 1A000000 		.4byte	.LVL4
 3354 022b 28000000 		.4byte	.LVL7
 3355 022f 0100     		.2byte	0x1
 3356 0231 55       		.byte	0x55
 3357 0232 00000000 		.4byte	0
 3358 0236 00000000 		.4byte	0
 3359              	.LVUS6:
 3360 023a 06       		.uleb128 .LVU53
 3361 023b 00       		.uleb128 .LVU55
 3362              	.LLST6:
 3363 023c 40000000 		.4byte	.LVL11
ARM GAS  /tmp/ccA06uLL.s 			page 60


 3364 0240 46000000 		.4byte	.LVL12
 3365 0244 0200     		.2byte	0x2
 3366 0246 30       		.byte	0x30
 3367 0247 9F       		.byte	0x9f
 3368 0248 00000000 		.4byte	0
 3369 024c 00000000 		.4byte	0
 3370              		.section	.debug_aranges,"",%progbits
 3371 0000 2C000000 		.4byte	0x2c
 3372 0004 0200     		.2byte	0x2
 3373 0006 00000000 		.4byte	.Ldebug_info0
 3374 000a 04       		.byte	0x4
 3375 000b 00       		.byte	0
 3376 000c 0000     		.2byte	0
 3377 000e 0000     		.2byte	0
 3378 0010 00000000 		.4byte	.LFB301
 3379 0014 50000000 		.4byte	.LFE301-.LFB301
 3380 0018 00000000 		.4byte	.LFB302
 3381 001c 44000000 		.4byte	.LFE302-.LFB302
 3382 0020 00000000 		.4byte	.LFB303
 3383 0024 28000000 		.4byte	.LFE303-.LFB303
 3384 0028 00000000 		.4byte	0
 3385 002c 00000000 		.4byte	0
 3386              		.section	.debug_ranges,"",%progbits
 3387              	.Ldebug_ranges0:
 3388 0000 06000000 		.4byte	.LBB34
 3389 0004 06000000 		.4byte	.LBE34
 3390 0008 06000000 		.4byte	.LBB45
 3391 000c 06000000 		.4byte	.LBE45
 3392 0010 0A000000 		.4byte	.LBB46
 3393 0014 14000000 		.4byte	.LBE46
 3394 0018 00000000 		.4byte	0
 3395 001c 00000000 		.4byte	0
 3396 0020 06000000 		.4byte	.LBB36
 3397 0024 06000000 		.4byte	.LBE36
 3398 0028 06000000 		.4byte	.LBB41
 3399 002c 06000000 		.4byte	.LBE41
 3400 0030 0A000000 		.4byte	.LBB42
 3401 0034 10000000 		.4byte	.LBE42
 3402 0038 00000000 		.4byte	0
 3403 003c 00000000 		.4byte	0
 3404 0040 1A000000 		.4byte	.LBB47
 3405 0044 22000000 		.4byte	.LBE47
 3406 0048 26000000 		.4byte	.LBB50
 3407 004c 28000000 		.4byte	.LBE50
 3408 0050 00000000 		.4byte	0
 3409 0054 00000000 		.4byte	0
 3410 0058 3C000000 		.4byte	.LBB51
 3411 005c 40000000 		.4byte	.LBE51
 3412 0060 40000000 		.4byte	.LBB58
 3413 0064 46000000 		.4byte	.LBE58
 3414 0068 00000000 		.4byte	0
 3415 006c 00000000 		.4byte	0
 3416 0070 40000000 		.4byte	.LBB53
 3417 0074 40000000 		.4byte	.LBE53
 3418 0078 40000000 		.4byte	.LBB56
 3419 007c 46000000 		.4byte	.LBE56
 3420 0080 00000000 		.4byte	0
ARM GAS  /tmp/ccA06uLL.s 			page 61


 3421 0084 00000000 		.4byte	0
 3422 0088 00000000 		.4byte	.LBB73
 3423 008c 00000000 		.4byte	.LBE73
 3424 0090 00000000 		.4byte	.LBB85
 3425 0094 02000000 		.4byte	.LBE85
 3426 0098 04000000 		.4byte	.LBB86
 3427 009c 08000000 		.4byte	.LBE86
 3428 00a0 0A000000 		.4byte	.LBB87
 3429 00a4 0E000000 		.4byte	.LBE87
 3430 00a8 00000000 		.4byte	0
 3431 00ac 00000000 		.4byte	0
 3432 00b0 00000000 		.4byte	.LBB75
 3433 00b4 00000000 		.4byte	.LBE75
 3434 00b8 00000000 		.4byte	.LBB80
 3435 00bc 02000000 		.4byte	.LBE80
 3436 00c0 04000000 		.4byte	.LBB81
 3437 00c4 08000000 		.4byte	.LBE81
 3438 00c8 00000000 		.4byte	0
 3439 00cc 00000000 		.4byte	0
 3440 00d0 32000000 		.4byte	.LBB92
 3441 00d4 36000000 		.4byte	.LBE92
 3442 00d8 36000000 		.4byte	.LBB99
 3443 00dc 3C000000 		.4byte	.LBE99
 3444 00e0 00000000 		.4byte	0
 3445 00e4 00000000 		.4byte	0
 3446 00e8 36000000 		.4byte	.LBB94
 3447 00ec 36000000 		.4byte	.LBE94
 3448 00f0 36000000 		.4byte	.LBB97
 3449 00f4 3C000000 		.4byte	.LBE97
 3450 00f8 00000000 		.4byte	0
 3451 00fc 00000000 		.4byte	0
 3452 0100 00000000 		.4byte	.LBB112
 3453 0104 00000000 		.4byte	.LBE112
 3454 0108 00000000 		.4byte	.LBB127
 3455 010c 00000000 		.4byte	.LBE127
 3456 0110 02000000 		.4byte	.LBB128
 3457 0114 04000000 		.4byte	.LBE128
 3458 0118 08000000 		.4byte	.LBB129
 3459 011c 10000000 		.4byte	.LBE129
 3460 0120 00000000 		.4byte	0
 3461 0124 00000000 		.4byte	0
 3462 0128 00000000 		.4byte	.LBB114
 3463 012c 00000000 		.4byte	.LBE114
 3464 0130 00000000 		.4byte	.LBB121
 3465 0134 00000000 		.4byte	.LBE121
 3466 0138 02000000 		.4byte	.LBB122
 3467 013c 04000000 		.4byte	.LBE122
 3468 0140 08000000 		.4byte	.LBB123
 3469 0144 0C000000 		.4byte	.LBE123
 3470 0148 00000000 		.4byte	0
 3471 014c 00000000 		.4byte	0
 3472 0150 18000000 		.4byte	.LBB132
 3473 0154 1C000000 		.4byte	.LBE132
 3474 0158 1C000000 		.4byte	.LBB139
 3475 015c 22000000 		.4byte	.LBE139
 3476 0160 00000000 		.4byte	0
 3477 0164 00000000 		.4byte	0
ARM GAS  /tmp/ccA06uLL.s 			page 62


 3478 0168 1C000000 		.4byte	.LBB134
 3479 016c 1C000000 		.4byte	.LBE134
 3480 0170 1C000000 		.4byte	.LBB137
 3481 0174 22000000 		.4byte	.LBE137
 3482 0178 00000000 		.4byte	0
 3483 017c 00000000 		.4byte	0
 3484 0180 00000000 		.4byte	.LFB301
 3485 0184 50000000 		.4byte	.LFE301
 3486 0188 00000000 		.4byte	.LFB302
 3487 018c 44000000 		.4byte	.LFE302
 3488 0190 00000000 		.4byte	.LFB303
 3489 0194 28000000 		.4byte	.LFE303
 3490 0198 00000000 		.4byte	0
 3491 019c 00000000 		.4byte	0
 3492              		.section	.debug_line,"",%progbits
 3493              	.Ldebug_line0:
 3494 0000 12050000 		.section	.debug_str,"MS",%progbits,1
 3494      03005102 
 3494      00000201 
 3494      FB0E0D00 
 3494      01010101 
 3495              	.LASF53:
 3496 0000 72656164 		.ascii	"ready_list_t\000"
 3496      795F6C69 
 3496      73745F74 
 3496      00
 3497              	.LASF112:
 3498 000d 71756575 		.ascii	"queue_insert\000"
 3498      655F696E 
 3498      73657274 
 3498      00
 3499              	.LASF94:
 3500 001a 77747472 		.ascii	"wttrp\000"
 3500      7000
 3501              	.LASF59:
 3502 0020 64656C74 		.ascii	"delta\000"
 3502      6100
 3503              	.LASF91:
 3504 0026 7264796D 		.ascii	"rdymsg\000"
 3504      736700
 3505              	.LASF17:
 3506 002d 75696E74 		.ascii	"uint64_t\000"
 3506      36345F74 
 3506      00
 3507              	.LASF72:
 3508 0036 6B65726E 		.ascii	"kernel_stats\000"
 3508      656C5F73 
 3508      74617473 
 3508      00
 3509              	.LASF7:
 3510 0043 5F5F7569 		.ascii	"__uint8_t\000"
 3510      6E74385F 
 3510      7400
 3511              	.LASF52:
 3512 004d 70726576 		.ascii	"prev\000"
 3512      00
 3513              	.LASF78:
ARM GAS  /tmp/ccA06uLL.s 			page 63


 3514 0052 706F7274 		.ascii	"port_intctx\000"
 3514      5F696E74 
 3514      63747800 
 3515              	.LASF51:
 3516 005e 63685F74 		.ascii	"ch_threads_queue\000"
 3516      68726561 
 3516      64735F71 
 3516      75657565 
 3516      00
 3517              	.LASF64:
 3518 006f 73797374 		.ascii	"system_debug_t\000"
 3518      656D5F64 
 3518      65627567 
 3518      5F7400
 3519              	.LASF115:
 3520 007e 706F7274 		.ascii	"port_lock\000"
 3520      5F6C6F63 
 3520      6B00
 3521              	.LASF82:
 3522 0088 776F7273 		.ascii	"worst\000"
 3522      7400
 3523              	.LASF85:
 3524 008e 74696D65 		.ascii	"time_measurement_t\000"
 3524      5F6D6561 
 3524      73757265 
 3524      6D656E74 
 3524      5F7400
 3525              	.LASF13:
 3526 00a1 6C6F6E67 		.ascii	"long long unsigned int\000"
 3526      206C6F6E 
 3526      6720756E 
 3526      7369676E 
 3526      65642069 
 3527              	.LASF92:
 3528 00b8 65786974 		.ascii	"exitcode\000"
 3528      636F6465 
 3528      00
 3529              	.LASF71:
 3530 00c1 6D61696E 		.ascii	"mainthread\000"
 3530      74687265 
 3530      616400
 3531              	.LASF95:
 3532 00cc 73656E74 		.ascii	"sentmsg\000"
 3532      6D736700 
 3533              	.LASF61:
 3534 00d4 76697274 		.ascii	"virtual_timers_list_t\000"
 3534      75616C5F 
 3534      74696D65 
 3534      72735F6C 
 3534      6973745F 
 3535              	.LASF49:
 3536 00ea 6E657874 		.ascii	"next\000"
 3536      00
 3537              	.LASF19:
 3538 00ef 72747469 		.ascii	"rttime_t\000"
 3538      6D655F74 
 3538      00
ARM GAS  /tmp/ccA06uLL.s 			page 64


 3539              	.LASF1:
 3540 00f8 6C6F6E67 		.ascii	"long long int\000"
 3540      206C6F6E 
 3540      6720696E 
 3540      7400
 3541              	.LASF3:
 3542 0106 7369676E 		.ascii	"signed char\000"
 3542      65642063 
 3542      68617200 
 3543              	.LASF117:
 3544 0112 62617365 		.ascii	"basePri\000"
 3544      50726900 
 3545              	.LASF70:
 3546 011a 76746C69 		.ascii	"vtlist\000"
 3546      737400
 3547              	.LASF114:
 3548 0121 706F7274 		.ascii	"port_unlock\000"
 3548      5F756E6C 
 3548      6F636B00 
 3549              	.LASF39:
 3550 012d 6D736771 		.ascii	"msgqueue\000"
 3550      75657565 
 3550      00
 3551              	.LASF35:
 3552 0136 73746174 		.ascii	"state\000"
 3552      6500
 3553              	.LASF9:
 3554 013c 6C6F6E67 		.ascii	"long int\000"
 3554      20696E74 
 3554      00
 3555              	.LASF106:
 3556 0145 63684D73 		.ascii	"chMsgSend\000"
 3556      6753656E 
 3556      6400
 3557              	.LASF21:
 3558 014f 74737461 		.ascii	"tstate_t\000"
 3558      74655F74 
 3558      00
 3559              	.LASF60:
 3560 0158 66756E63 		.ascii	"func\000"
 3560      00
 3561              	.LASF44:
 3562 015d 73746174 		.ascii	"stats\000"
 3562      7300
 3563              	.LASF110:
 3564 0163 63684D73 		.ascii	"chMsgIsPendingI\000"
 3564      67497350 
 3564      656E6469 
 3564      6E674900 
 3565              	.LASF10:
 3566 0173 5F5F7569 		.ascii	"__uint32_t\000"
 3566      6E743332 
 3566      5F7400
 3567              	.LASF75:
 3568 017e 72656761 		.ascii	"regarm_t\000"
 3568      726D5F74 
 3568      00
ARM GAS  /tmp/ccA06uLL.s 			page 65


 3569              	.LASF65:
 3570 0187 63685F73 		.ascii	"ch_system_debug\000"
 3570      79737465 
 3570      6D5F6465 
 3570      62756700 
 3571              	.LASF38:
 3572 0197 77616974 		.ascii	"waiting\000"
 3572      696E6700 
 3573              	.LASF103:
 3574 019f 6D757465 		.ascii	"mutex_t\000"
 3574      785F7400 
 3575              	.LASF74:
 3576 01a7 73797369 		.ascii	"sysinterval_t\000"
 3576      6E746572 
 3576      76616C5F 
 3576      7400
 3577              	.LASF26:
 3578 01b5 636E745F 		.ascii	"cnt_t\000"
 3578      7400
 3579              	.LASF0:
 3580 01bb 756E7369 		.ascii	"unsigned int\000"
 3580      676E6564 
 3580      20696E74 
 3580      00
 3581              	.LASF96:
 3582 01c8 77747365 		.ascii	"wtsemp\000"
 3582      6D7000
 3583              	.LASF86:
 3584 01cf 6E5F6972 		.ascii	"n_irq\000"
 3584      7100
 3585              	.LASF29:
 3586 01d5 71756575 		.ascii	"queue\000"
 3586      6500
 3587              	.LASF43:
 3588 01db 6D706F6F 		.ascii	"mpool\000"
 3588      6C00
 3589              	.LASF6:
 3590 01e1 73686F72 		.ascii	"short unsigned int\000"
 3590      7420756E 
 3590      7369676E 
 3590      65642069 
 3590      6E7400
 3591              	.LASF90:
 3592 01f4 6B65726E 		.ascii	"kernel_stats_t\000"
 3592      656C5F73 
 3592      74617473 
 3592      5F7400
 3593              	.LASF47:
 3594 0203 63685F74 		.ascii	"ch_thread\000"
 3594      68726561 
 3594      6400
 3595              	.LASF33:
 3596 020d 6E616D65 		.ascii	"name\000"
 3596      00
 3597              	.LASF24:
 3598 0212 6D73675F 		.ascii	"msg_t\000"
 3598      7400
ARM GAS  /tmp/ccA06uLL.s 			page 66


 3599              	.LASF83:
 3600 0218 6C617374 		.ascii	"last\000"
 3600      00
 3601              	.LASF27:
 3602 021d 75636E74 		.ascii	"ucnt_t\000"
 3602      5F7400
 3603              	.LASF40:
 3604 0224 6570656E 		.ascii	"epending\000"
 3604      64696E67 
 3604      00
 3605              	.LASF67:
 3606 022d 63685F73 		.ascii	"ch_system_t\000"
 3606      79737465 
 3606      6D5F7400 
 3607              	.LASF20:
 3608 0239 746D6F64 		.ascii	"tmode_t\000"
 3608      655F7400 
 3609              	.LASF89:
 3610 0241 6D5F6372 		.ascii	"m_crit_isr\000"
 3610      69745F69 
 3610      737200
 3611              	.LASF54:
 3612 024c 63685F72 		.ascii	"ch_ready_list\000"
 3612      65616479 
 3612      5F6C6973 
 3612      7400
 3613              	.LASF25:
 3614 025a 6576656E 		.ascii	"eventmask_t\000"
 3614      746D6173 
 3614      6B5F7400 
 3615              	.LASF8:
 3616 0266 5F5F696E 		.ascii	"__int32_t\000"
 3616      7433325F 
 3616      7400
 3617              	.LASF76:
 3618 0270 73746B61 		.ascii	"stkalign_t\000"
 3618      6C69676E 
 3618      5F7400
 3619              	.LASF31:
 3620 027b 6E657765 		.ascii	"newer\000"
 3620      7200
 3621              	.LASF42:
 3622 0281 7265616C 		.ascii	"realprio\000"
 3622      7072696F 
 3622      00
 3623              	.LASF120:
 3624 028a 5F737461 		.ascii	"_stats_stop_measure_crit_thd\000"
 3624      74735F73 
 3624      746F705F 
 3624      6D656173 
 3624      7572655F 
 3625              	.LASF18:
 3626 02a7 7274636E 		.ascii	"rtcnt_t\000"
 3626      745F7400 
 3627              	.LASF45:
 3628 02af 74687265 		.ascii	"thread_reference_t\000"
 3628      61645F72 
ARM GAS  /tmp/ccA06uLL.s 			page 67


 3628      65666572 
 3628      656E6365 
 3628      5F7400
 3629              	.LASF62:
 3630 02c2 63685F76 		.ascii	"ch_virtual_timers_list\000"
 3630      69727475 
 3630      616C5F74 
 3630      696D6572 
 3630      735F6C69 
 3631              	.LASF2:
 3632 02d9 6C6F6E67 		.ascii	"long double\000"
 3632      20646F75 
 3632      626C6500 
 3633              	.LASF77:
 3634 02e5 706F7274 		.ascii	"port_context\000"
 3634      5F636F6E 
 3634      74657874 
 3634      00
 3635              	.LASF80:
 3636 02f2 746D5F63 		.ascii	"tm_calibration_t\000"
 3636      616C6962 
 3636      72617469 
 3636      6F6E5F74 
 3636      00
 3637              	.LASF30:
 3638 0303 7072696F 		.ascii	"prio\000"
 3638      00
 3639              	.LASF55:
 3640 0308 63757272 		.ascii	"current\000"
 3640      656E7400 
 3641              	.LASF12:
 3642 0310 5F5F7569 		.ascii	"__uint64_t\000"
 3642      6E743634 
 3642      5F7400
 3643              	.LASF84:
 3644 031b 63756D75 		.ascii	"cumulative\000"
 3644      6C617469 
 3644      766500
 3645              	.LASF22:
 3646 0326 74726566 		.ascii	"trefs_t\000"
 3646      735F7400 
 3647              	.LASF37:
 3648 032e 72656673 		.ascii	"refs\000"
 3648      00
 3649              	.LASF57:
 3650 0333 76697274 		.ascii	"virtual_timer_t\000"
 3650      75616C5F 
 3650      74696D65 
 3650      725F7400 
 3651              	.LASF23:
 3652 0343 74707269 		.ascii	"tprio_t\000"
 3652      6F5F7400 
 3653              	.LASF87:
 3654 034b 6E5F6374 		.ascii	"n_ctxswc\000"
 3654      78737763 
 3654      00
 3655              	.LASF104:
ARM GAS  /tmp/ccA06uLL.s 			page 68


 3656 0354 5F426F6F 		.ascii	"_Bool\000"
 3656      6C00
 3657              	.LASF15:
 3658 035a 696E7433 		.ascii	"int32_t\000"
 3658      325F7400 
 3659              	.LASF4:
 3660 0362 756E7369 		.ascii	"unsigned char\000"
 3660      676E6564 
 3660      20636861 
 3660      7200
 3661              	.LASF5:
 3662 0370 73686F72 		.ascii	"short int\000"
 3662      7420696E 
 3662      7400
 3663              	.LASF63:
 3664 037a 6C617374 		.ascii	"lasttime\000"
 3664      74696D65 
 3664      00
 3665              	.LASF98:
 3666 0383 65776D61 		.ascii	"ewmask\000"
 3666      736B00
 3667              	.LASF68:
 3668 038a 63685F73 		.ascii	"ch_system\000"
 3668      79737465 
 3668      6D00
 3669              	.LASF107:
 3670 0394 5F5F6675 		.ascii	"__func__\000"
 3670      6E635F5F 
 3670      00
 3671              	.LASF113:
 3672 039d 63685379 		.ascii	"chSysLock\000"
 3672      734C6F63 
 3672      6B00
 3673              	.LASF34:
 3674 03a7 77616261 		.ascii	"wabase\000"
 3674      736500
 3675              	.LASF58:
 3676 03ae 63685F76 		.ascii	"ch_virtual_timer\000"
 3676      69727475 
 3676      616C5F74 
 3676      696D6572 
 3676      00
 3677              	.LASF126:
 3678 03bf 63684D73 		.ascii	"chMsgRelease\000"
 3678      6752656C 
 3678      65617365 
 3678      00
 3679              	.LASF99:
 3680 03cc 63685F73 		.ascii	"ch_semaphore\000"
 3680      656D6170 
 3680      686F7265 
 3680      00
 3681              	.LASF121:
 3682 03d9 63685363 		.ascii	"chSchGoSleepS\000"
 3682      68476F53 
 3682      6C656570 
 3682      5300
ARM GAS  /tmp/ccA06uLL.s 			page 69


 3683              	.LASF16:
 3684 03e7 75696E74 		.ascii	"uint32_t\000"
 3684      33325F74 
 3684      00
 3685              	.LASF97:
 3686 03f0 77746D74 		.ascii	"wtmtxp\000"
 3686      787000
 3687              	.LASF122:
 3688 03f7 63685363 		.ascii	"chSchReadyI\000"
 3688      68526561 
 3688      64794900 
 3689              	.LASF48:
 3690 0403 63685F74 		.ascii	"ch_threads_list\000"
 3690      68726561 
 3690      64735F6C 
 3690      69737400 
 3691              	.LASF101:
 3692 0413 6F776E65 		.ascii	"owner\000"
 3692      7200
 3693              	.LASF11:
 3694 0419 6C6F6E67 		.ascii	"long unsigned int\000"
 3694      20756E73 
 3694      69676E65 
 3694      6420696E 
 3694      7400
 3695              	.LASF125:
 3696 042b 2F686F6D 		.ascii	"/home/mahathi/mathur407_payload2/4.0.7/build/CUAVv5"
 3696      652F6D61 
 3696      68617468 
 3696      692F6D61 
 3696      74687572 
 3697 045e 00       		.ascii	"\000"
 3698              	.LASF102:
 3699 045f 63686172 		.ascii	"char\000"
 3699      00
 3700              	.LASF32:
 3701 0464 6F6C6465 		.ascii	"older\000"
 3701      7200
 3702              	.LASF28:
 3703 046a 74687265 		.ascii	"thread_t\000"
 3703      61645F74 
 3703      00
 3704              	.LASF81:
 3705 0473 62657374 		.ascii	"best\000"
 3705      00
 3706              	.LASF111:
 3707 0478 71756575 		.ascii	"queue_fifo_remove\000"
 3707      655F6669 
 3707      666F5F72 
 3707      656D6F76 
 3707      6500
 3708              	.LASF73:
 3709 048a 73797374 		.ascii	"systime_t\000"
 3709      696D655F 
 3709      7400
 3710              	.LASF56:
 3711 0494 76746675 		.ascii	"vtfunc_t\000"
ARM GAS  /tmp/ccA06uLL.s 			page 70


 3711      6E635F74 
 3711      00
 3712              	.LASF116:
 3713 049d 5F5F7365 		.ascii	"__set_BASEPRI\000"
 3713      745F4241 
 3713      53455052 
 3713      4900
 3714              	.LASF66:
 3715 04ab 70616E69 		.ascii	"panic_msg\000"
 3715      635F6D73 
 3715      6700
 3716              	.LASF79:
 3717 04b5 6F666673 		.ascii	"offset\000"
 3717      657400
 3718              	.LASF124:
 3719 04bc 2E2E2F2E 		.ascii	"../../modules/ChibiOS/os/rt/src/chmsg.c\000"
 3719      2E2F6D6F 
 3719      64756C65 
 3719      732F4368 
 3719      6962694F 
 3720              	.LASF119:
 3721 04e4 63685363 		.ascii	"chSchWakeupS\000"
 3721      6857616B 
 3721      65757053 
 3721      00
 3722              	.LASF105:
 3723 04f1 63684D73 		.ascii	"chMsgWait\000"
 3723      67576169 
 3723      7400
 3724              	.LASF50:
 3725 04fb 74687265 		.ascii	"threads_queue_t\000"
 3725      6164735F 
 3725      71756575 
 3725      655F7400 
 3726              	.LASF100:
 3727 050b 63685F6D 		.ascii	"ch_mutex\000"
 3727      75746578 
 3727      00
 3728              	.LASF69:
 3729 0514 726C6973 		.ascii	"rlist\000"
 3729      7400
 3730              	.LASF123:
 3731 051a 474E5520 		.ascii	"GNU C17 10.2.1 20201103 (release) -mcpu=cortex-m7 -"
 3731      43313720 
 3731      31302E32 
 3731      2E312032 
 3731      30323031 
 3732 054d 6D666C6F 		.ascii	"mfloat-abi=hard -mfpu=fpv4-sp-d16 -mno-thumb-interw"
 3732      61742D61 
 3732      62693D68 
 3732      61726420 
 3732      2D6D6670 
 3733 0580 6F726B20 		.ascii	"ork -mthumb -march=armv7e-m+fp -g -Os -fomit-frame-"
 3733      2D6D7468 
 3733      756D6220 
 3733      2D6D6172 
 3733      63683D61 
ARM GAS  /tmp/ccA06uLL.s 			page 71


 3734 05b3 706F696E 		.ascii	"pointer -falign-functions=16 -ffunction-sections -f"
 3734      74657220 
 3734      2D66616C 
 3734      69676E2D 
 3734      66756E63 
 3735 05e6 64617461 		.ascii	"data-sections -fno-common -fsingle-precision-consta"
 3735      2D736563 
 3735      74696F6E 
 3735      73202D66 
 3735      6E6F2D63 
 3736 0619 6E7400   		.ascii	"nt\000"
 3737              	.LASF14:
 3738 061c 75696E74 		.ascii	"uint8_t\000"
 3738      385F7400 
 3739              	.LASF36:
 3740 0624 666C6167 		.ascii	"flags\000"
 3740      7300
 3741              	.LASF118:
 3742 062a 5F737461 		.ascii	"_stats_start_measure_crit_thd\000"
 3742      74735F73 
 3742      74617274 
 3742      5F6D6561 
 3742      73757265 
 3743              	.LASF93:
 3744 0648 77746F62 		.ascii	"wtobjp\000"
 3744      6A7000
 3745              	.LASF46:
 3746 064f 74687265 		.ascii	"threads_list_t\000"
 3746      6164735F 
 3746      6C697374 
 3746      5F7400
 3747              	.LASF109:
 3748 065e 63685379 		.ascii	"chSysUnlock\000"
 3748      73556E6C 
 3748      6F636B00 
 3749              	.LASF108:
 3750 066a 63684D73 		.ascii	"chMsgReleaseS\000"
 3750      6752656C 
 3750      65617365 
 3750      5300
 3751              	.LASF41:
 3752 0678 6D74786C 		.ascii	"mtxlist\000"
 3752      69737400 
 3753              	.LASF88:
 3754 0680 6D5F6372 		.ascii	"m_crit_thd\000"
 3754      69745F74 
 3754      686400
 3755              		.ident	"GCC: (GNU Arm Embedded Toolchain 10-2020-q4-major) 10.2.1 20201103 (release)"
ARM GAS  /tmp/ccA06uLL.s 			page 72


DEFINED SYMBOLS
                            *ABS*:0000000000000000 chmsg.c
     /tmp/ccA06uLL.s:18     .text.chMsgSend:0000000000000000 $t
     /tmp/ccA06uLL.s:26     .text.chMsgSend:0000000000000000 chMsgSend
     /tmp/ccA06uLL.s:217    .text.chMsgSend:000000000000004c $d
     /tmp/ccA06uLL.s:222    .text.chMsgWait:0000000000000000 $t
     /tmp/ccA06uLL.s:229    .text.chMsgWait:0000000000000000 chMsgWait
     /tmp/ccA06uLL.s:404    .text.chMsgWait:0000000000000040 $d
     /tmp/ccA06uLL.s:409    .text.chMsgRelease:0000000000000000 $t
     /tmp/ccA06uLL.s:416    .text.chMsgRelease:0000000000000000 chMsgRelease

UNDEFINED SYMBOLS
_stats_start_measure_crit_thd
chSchReadyI
chSchGoSleepS
_stats_stop_measure_crit_thd
ch
chSchWakeupS
