ARM GAS  /tmp/ccfazetK.s 			page 1


   1              		.cpu cortex-m7
   2              		.eabi_attribute 27, 1
   3              		.eabi_attribute 28, 1
   4              		.eabi_attribute 20, 1
   5              		.eabi_attribute 21, 1
   6              		.eabi_attribute 23, 3
   7              		.eabi_attribute 24, 1
   8              		.eabi_attribute 25, 1
   9              		.eabi_attribute 26, 1
  10              		.eabi_attribute 30, 4
  11              		.eabi_attribute 34, 1
  12              		.eabi_attribute 18, 4
  13              		.file	"chmtx.c"
  14              		.text
  15              	.Ltext0:
  16              		.cfi_sections	.debug_frame
  17              		.section	.text.queue_prio_insert,"ax",%progbits
  18              		.align	1
  19              		.arch armv7e-m
  20              		.syntax unified
  21              		.thumb
  22              		.thumb_func
  23              		.fpu fpv4-sp-d16
  24              		.type	queue_prio_insert, %function
  25              	queue_prio_insert:
  26              	.LVL0:
  27              	.LFB183:
  28              		.file 1 "../../modules/ChibiOS/os/rt/include/chschd.h"
  29              		.loc 1 586 74 view -0
  30              		.cfi_startproc
  31              		@ args = 0, pretend = 0, frame = 0
  32              		@ frame_needed = 0, uses_anonymous_args = 0
  33              		.loc 1 588 3 view .LVU1
  34              		.loc 1 588 13 is_stmt 0 view .LVU2
  35 0000 0B46     		mov	r3, r1
  36              		.loc 1 586 74 view .LVU3
  37 0002 10B5     		push	{r4, lr}
  38              		.cfi_def_cfa_offset 8
  39              		.cfi_offset 4, -8
  40              		.cfi_offset 14, -4
  41              	.LVL1:
  42              	.L3:
  43              		.loc 1 589 3 is_stmt 1 discriminator 2 view .LVU4
  44              		.loc 1 590 5 discriminator 2 view .LVU5
  45              		.loc 1 590 8 is_stmt 0 discriminator 2 view .LVU6
  46 0004 1B68     		ldr	r3, [r3]
  47              	.LVL2:
  48              		.loc 1 591 11 is_stmt 1 discriminator 2 view .LVU7
  49              		.loc 1 591 3 is_stmt 0 discriminator 2 view .LVU8
  50 0006 9942     		cmp	r1, r3
  51 0008 03D0     		beq	.L2
  52              		.loc 1 591 36 discriminator 1 view .LVU9
  53 000a 9C68     		ldr	r4, [r3, #8]
  54 000c 8268     		ldr	r2, [r0, #8]
  55 000e 9442     		cmp	r4, r2
  56 0010 F8D2     		bcs	.L3
  57              	.L2:
ARM GAS  /tmp/ccfazetK.s 			page 2


  58              		.loc 1 592 3 is_stmt 1 view .LVU10
  59              		.loc 1 593 41 is_stmt 0 view .LVU11
  60 0012 5A68     		ldr	r2, [r3, #4]
  61              		.loc 1 592 30 view .LVU12
  62 0014 0360     		str	r3, [r0]
  63              		.loc 1 593 3 is_stmt 1 view .LVU13
  64              		.loc 1 593 30 is_stmt 0 view .LVU14
  65 0016 4260     		str	r2, [r0, #4]
  66              		.loc 1 594 3 is_stmt 1 view .LVU15
  67              		.loc 1 594 30 is_stmt 0 view .LVU16
  68 0018 1060     		str	r0, [r2]
  69              		.loc 1 595 3 is_stmt 1 view .LVU17
  70              		.loc 1 595 30 is_stmt 0 view .LVU18
  71 001a 5860     		str	r0, [r3, #4]
  72              		.loc 1 596 1 view .LVU19
  73 001c 10BD     		pop	{r4, pc}
  74              		.cfi_endproc
  75              	.LFE183:
  76              		.size	queue_prio_insert, .-queue_prio_insert
  77              		.section	.text.chMtxObjectInit,"ax",%progbits
  78              		.align	1
  79              		.global	chMtxObjectInit
  80              		.syntax unified
  81              		.thumb
  82              		.thumb_func
  83              		.fpu fpv4-sp-d16
  84              		.type	chMtxObjectInit, %function
  85              	chMtxObjectInit:
  86              	.LVL3:
  87              	.LFB301:
  88              		.file 2 "../../modules/ChibiOS/os/rt/src/chmtx.c"
  89              		.loc 2 103 35 is_stmt 1 view -0
  90              		.cfi_startproc
  91              		@ args = 0, pretend = 0, frame = 0
  92              		@ frame_needed = 0, uses_anonymous_args = 0
  93              		@ link register save eliminated.
  94              		.loc 2 105 3 view .LVU21
  95              		.loc 2 105 3 view .LVU22
  96              		.loc 2 105 3 view .LVU23
  97              		.loc 2 107 3 view .LVU24
  98              	.LBB63:
  99              	.LBI63:
 100              		.loc 1 537 20 view .LVU25
 101              	.LBB64:
 102              		.loc 1 539 3 view .LVU26
 103              	.LBE64:
 104              	.LBE63:
 105              		.loc 2 108 13 is_stmt 0 view .LVU27
 106 0000 0023     		movs	r3, #0
 107              	.LBB66:
 108              	.LBB65:
 109              		.loc 1 540 13 view .LVU28
 110 0002 C0E90000 		strd	r0, r0, [r0]
 111              	.LVL4:
 112              		.loc 1 540 13 view .LVU29
 113              	.LBE65:
 114              	.LBE66:
ARM GAS  /tmp/ccfazetK.s 			page 3


 115              		.loc 2 108 3 is_stmt 1 view .LVU30
 116              		.loc 2 108 13 is_stmt 0 view .LVU31
 117 0006 8360     		str	r3, [r0, #8]
 118              		.loc 2 110 3 is_stmt 1 view .LVU32
 119              		.loc 2 110 11 is_stmt 0 view .LVU33
 120 0008 0361     		str	r3, [r0, #16]
 121              		.loc 2 112 1 view .LVU34
 122 000a 7047     		bx	lr
 123              		.cfi_endproc
 124              	.LFE301:
 125              		.size	chMtxObjectInit, .-chMtxObjectInit
 126              		.section	.text.chMtxLockS,"ax",%progbits
 127              		.align	1
 128              		.global	chMtxLockS
 129              		.syntax unified
 130              		.thumb
 131              		.thumb_func
 132              		.fpu fpv4-sp-d16
 133              		.type	chMtxLockS, %function
 134              	chMtxLockS:
 135              	.LVL5:
 136              	.LFB303:
 137              		.loc 2 139 30 is_stmt 1 view -0
 138              		.cfi_startproc
 139              		@ args = 0, pretend = 0, frame = 0
 140              		@ frame_needed = 0, uses_anonymous_args = 0
 141              		.loc 2 140 3 view .LVU36
 142              		.loc 2 139 30 is_stmt 0 view .LVU37
 143 0000 38B5     		push	{r3, r4, r5, lr}
 144              		.cfi_def_cfa_offset 16
 145              		.cfi_offset 3, -16
 146              		.cfi_offset 4, -12
 147              		.cfi_offset 5, -8
 148              		.cfi_offset 14, -4
 149              		.loc 2 139 30 view .LVU38
 150 0002 0446     		mov	r4, r0
 151              		.loc 2 140 13 view .LVU39
 152 0004 1F4B     		ldr	r3, .L16
 153              		.loc 2 146 9 view .LVU40
 154 0006 8068     		ldr	r0, [r0, #8]
 155              	.LVL6:
 156              		.loc 2 140 13 view .LVU41
 157 0008 9D69     		ldr	r5, [r3, #24]
 158              	.LVL7:
 159              		.loc 2 142 21 is_stmt 1 view .LVU42
 160              		.loc 2 143 3 view .LVU43
 161              		.loc 2 143 3 view .LVU44
 162              		.loc 2 143 3 view .LVU45
 163              		.loc 2 146 3 view .LVU46
 164              		.loc 2 146 6 is_stmt 0 view .LVU47
 165 000a 0028     		cmp	r0, #0
 166 000c 32D0     		beq	.L7
 167              		.loc 2 149 5 is_stmt 1 discriminator 5 view .LVU48
 168              		.loc 2 149 5 discriminator 5 view .LVU49
 169              		.loc 2 149 5 discriminator 5 view .LVU50
 170              		.loc 2 153 5 discriminator 5 view .LVU51
 171              		.loc 2 153 8 is_stmt 0 discriminator 5 view .LVU52
ARM GAS  /tmp/ccfazetK.s 			page 4


 172 000e A842     		cmp	r0, r5
 173 0010 0CD1     		bne	.L8
 174              		.loc 2 154 7 is_stmt 1 view .LVU53
 175              		.loc 2 154 14 is_stmt 0 view .LVU54
 176 0012 2369     		ldr	r3, [r4, #16]
 177 0014 0133     		adds	r3, r3, #1
 178 0016 2361     		str	r3, [r4, #16]
 179              	.L6:
 180              		.loc 2 236 1 view .LVU55
 181 0018 38BD     		pop	{r3, r4, r5, pc}
 182              	.LVL8:
 183              	.L10:
 184              	.LBB67:
 185              		.loc 2 173 11 is_stmt 1 view .LVU56
 186              	.LBB68:
 187              	.LBI68:
 188              		.loc 1 624 25 view .LVU57
 189              	.LBB69:
 190              		.loc 1 626 3 view .LVU58
 191              		.loc 1 626 41 is_stmt 0 view .LVU59
 192 001a D0E90032 		ldrd	r3, r2, [r0]
 193              	.LBE69:
 194              	.LBE68:
 195              		.loc 2 173 11 view .LVU60
 196 001e 416A     		ldr	r1, [r0, #36]
 197              	.LBB71:
 198              	.LBB70:
 199              		.loc 1 626 30 view .LVU61
 200 0020 1360     		str	r3, [r2]
 201              		.loc 1 627 3 is_stmt 1 view .LVU62
 202              		.loc 1 627 30 is_stmt 0 view .LVU63
 203 0022 5A60     		str	r2, [r3, #4]
 204              		.loc 1 629 3 is_stmt 1 view .LVU64
 205              	.LVL9:
 206              		.loc 1 629 3 is_stmt 0 view .LVU65
 207              	.LBE70:
 208              	.LBE71:
 209              		.loc 2 173 11 view .LVU66
 210 0024 FFF7FEFF 		bl	queue_prio_insert
 211              	.LVL10:
 212              		.loc 2 174 11 is_stmt 1 view .LVU67
 213              		.loc 2 174 21 is_stmt 0 view .LVU68
 214 0028 436A     		ldr	r3, [r0, #36]
 215              		.loc 2 174 14 view .LVU69
 216 002a 9868     		ldr	r0, [r3, #8]
 217              	.LVL11:
 218              		.loc 2 176 11 is_stmt 1 view .LVU70
 219              	.L8:
 220              		.loc 2 165 13 view .LVU71
 221              		.loc 2 165 28 is_stmt 0 view .LVU72
 222 002c AB68     		ldr	r3, [r5, #8]
 223              		.loc 2 165 13 view .LVU73
 224 002e 8268     		ldr	r2, [r0, #8]
 225 0030 9A42     		cmp	r2, r3
 226 0032 15D2     		bcs	.L13
 227              		.loc 2 167 9 is_stmt 1 view .LVU74
 228              		.loc 2 167 18 is_stmt 0 view .LVU75
ARM GAS  /tmp/ccfazetK.s 			page 5


 229 0034 8360     		str	r3, [r0, #8]
 230              		.loc 2 170 9 is_stmt 1 view .LVU76
 231              		.loc 2 170 19 is_stmt 0 view .LVU77
 232 0036 90F82030 		ldrb	r3, [r0, #32]	@ zero_extendqisi2
 233              		.loc 2 170 9 view .LVU78
 234 003a 062B     		cmp	r3, #6
 235 003c EDD0     		beq	.L10
 236 003e 072B     		cmp	r3, #7
 237 0040 07D0     		beq	.L11
 238 0042 6BB9     		cbnz	r3, .L13
 239              		.loc 2 202 11 is_stmt 1 view .LVU79
 240              	.LVL12:
 241              	.LBB72:
 242              	.LBI72:
 243              		.loc 1 624 25 view .LVU80
 244              	.LBB73:
 245              		.loc 1 626 3 view .LVU81
 246              		.loc 1 626 41 is_stmt 0 view .LVU82
 247 0044 D0E90032 		ldrd	r3, r2, [r0]
 248              		.loc 1 626 30 view .LVU83
 249 0048 1360     		str	r3, [r2]
 250              		.loc 1 627 3 is_stmt 1 view .LVU84
 251              		.loc 1 627 30 is_stmt 0 view .LVU85
 252 004a 5A60     		str	r2, [r3, #4]
 253              		.loc 1 629 3 is_stmt 1 view .LVU86
 254              	.LVL13:
 255              		.loc 1 629 3 is_stmt 0 view .LVU87
 256              	.LBE73:
 257              	.LBE72:
 258              		.loc 2 202 18 view .LVU88
 259 004c FFF7FEFF 		bl	chSchReadyI
 260              	.LVL14:
 261              		.loc 2 203 11 is_stmt 1 view .LVU89
 262 0050 06E0     		b	.L13
 263              	.LVL15:
 264              	.L11:
 265              		.loc 2 193 11 view .LVU90
 266              	.LBB74:
 267              	.LBI74:
 268              		.loc 1 624 25 view .LVU91
 269              	.LBB75:
 270              		.loc 1 626 3 view .LVU92
 271              		.loc 1 626 41 is_stmt 0 view .LVU93
 272 0052 D0E90032 		ldrd	r3, r2, [r0]
 273              	.LBE75:
 274              	.LBE74:
 275              		.loc 2 193 11 view .LVU94
 276 0056 416A     		ldr	r1, [r0, #36]
 277              	.LBB77:
 278              	.LBB76:
 279              		.loc 1 626 30 view .LVU95
 280 0058 1360     		str	r3, [r2]
 281              		.loc 1 627 3 is_stmt 1 view .LVU96
 282              		.loc 1 627 30 is_stmt 0 view .LVU97
 283 005a 5A60     		str	r2, [r3, #4]
 284              		.loc 1 629 3 is_stmt 1 view .LVU98
 285              	.LVL16:
ARM GAS  /tmp/ccfazetK.s 			page 6


 286              		.loc 1 629 3 is_stmt 0 view .LVU99
 287              	.LBE76:
 288              	.LBE77:
 289              		.loc 2 193 11 view .LVU100
 290 005c FFF7FEFF 		bl	queue_prio_insert
 291              	.LVL17:
 292              		.loc 2 194 11 is_stmt 1 view .LVU101
 293              	.L13:
 294              		.loc 2 212 7 view .LVU102
 295 0060 2846     		mov	r0, r5
 296 0062 2146     		mov	r1, r4
 297 0064 FFF7FEFF 		bl	queue_prio_insert
 298              	.LVL18:
 299              		.loc 2 213 7 view .LVU103
 300              		.loc 2 213 21 is_stmt 0 view .LVU104
 301 0068 6C62     		str	r4, [r5, #36]
 302              		.loc 2 214 7 is_stmt 1 view .LVU105
 303 006a 0620     		movs	r0, #6
 304              	.LBE67:
 305              		.loc 2 236 1 is_stmt 0 view .LVU106
 306 006c BDE83840 		pop	{r3, r4, r5, lr}
 307              		.cfi_remember_state
 308              		.cfi_restore 14
 309              		.cfi_restore 5
 310              		.cfi_restore 4
 311              		.cfi_restore 3
 312              		.cfi_def_cfa_offset 0
 313              	.LVL19:
 314              	.LBB78:
 315              		.loc 2 214 7 view .LVU107
 316 0070 FFF7FEBF 		b	chSchGoSleepS
 317              	.LVL20:
 318              	.L7:
 319              		.cfi_restore_state
 320              		.loc 2 214 7 view .LVU108
 321              	.LBE78:
 322              		.loc 2 227 5 is_stmt 1 discriminator 5 view .LVU109
 323              		.loc 2 227 5 discriminator 5 view .LVU110
 324              		.loc 2 227 5 discriminator 5 view .LVU111
 325              		.loc 2 229 5 discriminator 5 view .LVU112
 326              		.loc 2 229 12 is_stmt 0 discriminator 5 view .LVU113
 327 0074 2369     		ldr	r3, [r4, #16]
 328              		.loc 2 232 15 discriminator 5 view .LVU114
 329 0076 A560     		str	r5, [r4, #8]
 330              		.loc 2 229 12 discriminator 5 view .LVU115
 331 0078 0133     		adds	r3, r3, #1
 332 007a 2361     		str	r3, [r4, #16]
 333              		.loc 2 232 5 is_stmt 1 discriminator 5 view .LVU116
 334              		.loc 2 233 5 discriminator 5 view .LVU117
 335              		.loc 2 233 14 is_stmt 0 discriminator 5 view .LVU118
 336 007c AB6B     		ldr	r3, [r5, #56]
 337 007e E360     		str	r3, [r4, #12]
 338              		.loc 2 234 5 is_stmt 1 discriminator 5 view .LVU119
 339              		.loc 2 234 18 is_stmt 0 discriminator 5 view .LVU120
 340 0080 AC63     		str	r4, [r5, #56]
 341              		.loc 2 236 1 discriminator 5 view .LVU121
 342 0082 C9E7     		b	.L6
ARM GAS  /tmp/ccfazetK.s 			page 7


 343              	.L17:
 344              		.align	2
 345              	.L16:
 346 0084 00000000 		.word	ch
 347              		.cfi_endproc
 348              	.LFE303:
 349              		.size	chMtxLockS, .-chMtxLockS
 350              		.section	.text.chMtxLock,"ax",%progbits
 351              		.align	1
 352              		.global	chMtxLock
 353              		.syntax unified
 354              		.thumb
 355              		.thumb_func
 356              		.fpu fpv4-sp-d16
 357              		.type	chMtxLock, %function
 358              	chMtxLock:
 359              	.LVL21:
 360              	.LFB302:
 361              		.loc 2 123 29 is_stmt 1 view -0
 362              		.cfi_startproc
 363              		@ args = 0, pretend = 0, frame = 8
 364              		@ frame_needed = 0, uses_anonymous_args = 0
 365              		.loc 2 125 3 view .LVU123
 366              	.LBB89:
 367              	.LBI89:
 368              		.file 3 "../../modules/ChibiOS/os/rt/include/chsys.h"
 369              		.loc 3 353 20 view .LVU124
 370              	.LBB90:
 371              		.loc 3 355 3 view .LVU125
 372              	.LBB91:
 373              	.LBI91:
 374              		.file 4 "../../modules/ChibiOS/os/common/ports/ARMCMx/chcore_v7m.h"
 375              		.loc 4 602 20 view .LVU126
 376              	.LBE91:
 377              	.LBE90:
 378              	.LBE89:
 379              		.loc 4 610 3 view .LVU127
 380              	.LBB104:
 381              	.LBB101:
 382              	.LBB98:
 383              	.LBB92:
 384              	.LBI92:
 385              		.file 5 "../../modules/ChibiOS/os/common/ext/ARM/CMSIS/Core/Include/cmsis_gcc.h"
 386              		.loc 5 491 27 view .LVU128
 387              	.LBB93:
 388              		.loc 5 493 3 view .LVU129
 389              	.LBE93:
 390              	.LBE92:
 391              	.LBE98:
 392              	.LBE101:
 393              	.LBE104:
 394              		.loc 2 123 29 is_stmt 0 view .LVU130
 395 0000 07B5     		push	{r0, r1, r2, lr}
 396              		.cfi_def_cfa_offset 16
 397              		.cfi_offset 14, -4
 398              	.LBB105:
 399              	.LBB102:
ARM GAS  /tmp/ccfazetK.s 			page 8


 400              	.LBB99:
 401              	.LBB96:
 402              	.LBB94:
 403              		.loc 5 493 3 view .LVU131
 404 0002 2023     		movs	r3, #32
 405              	.LBE94:
 406              	.LBE96:
 407              	.LBE99:
 408              	.LBE102:
 409              	.LBE105:
 410              		.loc 2 123 29 view .LVU132
 411 0004 0190     		str	r0, [sp, #4]
 412              	.LBB106:
 413              	.LBB103:
 414              	.LBB100:
 415              	.LBB97:
 416              	.LBB95:
 417              		.loc 5 493 3 view .LVU133
 418              		.syntax unified
 419              	@ 493 "../../modules/ChibiOS/os/common/ext/ARM/CMSIS/Core/Include/cmsis_gcc.h" 1
 420 0006 83F31188 		MSR basepri, r3
 421              	@ 0 "" 2
 422              	.LVL22:
 423              		.loc 5 493 3 view .LVU134
 424              		.thumb
 425              		.syntax unified
 426              	.LBE95:
 427              	.LBE97:
 428              	.LBE100:
 429              		.loc 3 356 3 is_stmt 1 view .LVU135
 430 000a FFF7FEFF 		bl	_stats_start_measure_crit_thd
 431              	.LVL23:
 432              		.loc 3 357 20 view .LVU136
 433              	.LBE103:
 434              	.LBE106:
 435              		.loc 2 126 3 view .LVU137
 436 000e 0198     		ldr	r0, [sp, #4]
 437 0010 FFF7FEFF 		bl	chMtxLockS
 438              	.LVL24:
 439              		.loc 2 127 3 view .LVU138
 440              	.LBB107:
 441              	.LBI107:
 442              		.loc 3 365 20 view .LVU139
 443              	.LBB108:
 444              		.loc 3 367 22 view .LVU140
 445              		.loc 3 368 3 view .LVU141
 446 0014 FFF7FEFF 		bl	_stats_stop_measure_crit_thd
 447              	.LVL25:
 448              		.loc 3 374 3 view .LVU142
 449              		.loc 3 374 3 view .LVU143
 450              		.loc 3 374 3 view .LVU144
 451              		.loc 3 378 3 view .LVU145
 452              	.LBB109:
 453              	.LBI109:
 454              		.loc 4 626 20 view .LVU146
 455              	.LBE109:
 456              	.LBE108:
ARM GAS  /tmp/ccfazetK.s 			page 9


 457              	.LBE107:
 458              		.loc 4 629 3 view .LVU147
 459              	.LBB114:
 460              	.LBB113:
 461              	.LBB112:
 462              	.LBB110:
 463              	.LBI110:
 464              		.loc 5 491 27 view .LVU148
 465              	.LBB111:
 466              		.loc 5 493 3 view .LVU149
 467 0018 0023     		movs	r3, #0
 468              		.syntax unified
 469              	@ 493 "../../modules/ChibiOS/os/common/ext/ARM/CMSIS/Core/Include/cmsis_gcc.h" 1
 470 001a 83F31188 		MSR basepri, r3
 471              	@ 0 "" 2
 472              	.LVL26:
 473              		.loc 5 493 3 is_stmt 0 view .LVU150
 474              		.thumb
 475              		.syntax unified
 476              	.LBE111:
 477              	.LBE110:
 478              	.LBE112:
 479              	.LBE113:
 480              	.LBE114:
 481              		.loc 2 128 1 view .LVU151
 482 001e 03B0     		add	sp, sp, #12
 483              		.cfi_def_cfa_offset 4
 484              		@ sp needed
 485 0020 5DF804FB 		ldr	pc, [sp], #4
 486              		.loc 2 128 1 view .LVU152
 487              		.cfi_endproc
 488              	.LFE302:
 489              		.size	chMtxLock, .-chMtxLock
 490              		.section	.text.chMtxTryLockS,"ax",%progbits
 491              		.align	1
 492              		.global	chMtxTryLockS
 493              		.syntax unified
 494              		.thumb
 495              		.thumb_func
 496              		.fpu fpv4-sp-d16
 497              		.type	chMtxTryLockS, %function
 498              	chMtxTryLockS:
 499              	.LVL27:
 500              	.LFB305:
 501              		.loc 2 282 33 is_stmt 1 view -0
 502              		.cfi_startproc
 503              		@ args = 0, pretend = 0, frame = 0
 504              		@ frame_needed = 0, uses_anonymous_args = 0
 505              		@ link register save eliminated.
 506              		.loc 2 284 21 view .LVU154
 507              		.loc 2 285 3 view .LVU155
 508              		.loc 2 285 3 view .LVU156
 509              		.loc 2 285 3 view .LVU157
 510              		.loc 2 287 3 view .LVU158
 511              		.loc 2 292 22 is_stmt 0 view .LVU159
 512 0000 0A4B     		ldr	r3, .L24
 513              		.loc 2 287 9 view .LVU160
ARM GAS  /tmp/ccfazetK.s 			page 10


 514 0002 8268     		ldr	r2, [r0, #8]
 515              		.loc 2 292 22 view .LVU161
 516 0004 9B69     		ldr	r3, [r3, #24]
 517              		.loc 2 287 6 view .LVU162
 518 0006 32B1     		cbz	r2, .L20
 519              		.loc 2 290 5 is_stmt 1 discriminator 5 view .LVU163
 520              		.loc 2 290 5 discriminator 5 view .LVU164
 521              		.loc 2 290 5 discriminator 5 view .LVU165
 522              		.loc 2 292 5 discriminator 5 view .LVU166
 523              		.loc 2 292 8 is_stmt 0 discriminator 5 view .LVU167
 524 0008 9A42     		cmp	r2, r3
 525 000a 0CD1     		bne	.L22
 526              		.loc 2 293 7 is_stmt 1 view .LVU168
 527              		.loc 2 293 14 is_stmt 0 view .LVU169
 528 000c 0369     		ldr	r3, [r0, #16]
 529 000e 0133     		adds	r3, r3, #1
 530 0010 0361     		str	r3, [r0, #16]
 531              		.loc 2 294 7 is_stmt 1 view .LVU170
 532              	.L23:
 533              	.LBB117:
 534              	.LBB118:
 535              		.loc 2 308 3 view .LVU171
 536              		.loc 2 307 18 is_stmt 0 view .LVU172
 537 0012 0120     		movs	r0, #1
 538              	.LVL28:
 539              		.loc 2 307 18 view .LVU173
 540 0014 7047     		bx	lr
 541              	.LVL29:
 542              	.L20:
 543              		.loc 2 307 18 view .LVU174
 544              	.LBE118:
 545              	.LBI117:
 546              		.loc 2 282 6 is_stmt 1 view .LVU175
 547              	.LBB119:
 548              		.loc 2 301 3 view .LVU176
 549              		.loc 2 301 3 view .LVU177
 550              		.loc 2 301 3 view .LVU178
 551              		.loc 2 303 3 view .LVU179
 552              		.loc 2 303 10 is_stmt 0 view .LVU180
 553 0016 0269     		ldr	r2, [r0, #16]
 554              		.loc 2 305 13 view .LVU181
 555 0018 8360     		str	r3, [r0, #8]
 556              		.loc 2 303 10 view .LVU182
 557 001a 0132     		adds	r2, r2, #1
 558 001c 0261     		str	r2, [r0, #16]
 559              		.loc 2 305 3 is_stmt 1 view .LVU183
 560              		.loc 2 306 3 view .LVU184
 561              		.loc 2 306 12 is_stmt 0 view .LVU185
 562 001e 9A6B     		ldr	r2, [r3, #56]
 563 0020 C260     		str	r2, [r0, #12]
 564              		.loc 2 307 3 is_stmt 1 view .LVU186
 565              		.loc 2 307 18 is_stmt 0 view .LVU187
 566 0022 9863     		str	r0, [r3, #56]
 567 0024 F5E7     		b	.L23
 568              	.LVL30:
 569              	.L22:
 570              		.loc 2 307 18 view .LVU188
ARM GAS  /tmp/ccfazetK.s 			page 11


 571              	.LBE119:
 572              	.LBE117:
 573              		.loc 2 297 12 view .LVU189
 574 0026 0020     		movs	r0, #0
 575              	.LVL31:
 576              		.loc 2 309 1 view .LVU190
 577 0028 7047     		bx	lr
 578              	.L25:
 579 002a 00BF     		.align	2
 580              	.L24:
 581 002c 00000000 		.word	ch
 582              		.cfi_endproc
 583              	.LFE305:
 584              		.size	chMtxTryLockS, .-chMtxTryLockS
 585              		.section	.text.chMtxTryLock,"ax",%progbits
 586              		.align	1
 587              		.global	chMtxTryLock
 588              		.syntax unified
 589              		.thumb
 590              		.thumb_func
 591              		.fpu fpv4-sp-d16
 592              		.type	chMtxTryLock, %function
 593              	chMtxTryLock:
 594              	.LVL32:
 595              	.LFB304:
 596              		.loc 2 255 32 is_stmt 1 view -0
 597              		.cfi_startproc
 598              		@ args = 0, pretend = 0, frame = 8
 599              		@ frame_needed = 0, uses_anonymous_args = 0
 600              		.loc 2 256 3 view .LVU192
 601              		.loc 2 258 3 view .LVU193
 602              	.LBB130:
 603              	.LBI130:
 604              		.loc 3 353 20 view .LVU194
 605              	.LBB131:
 606              		.loc 3 355 3 view .LVU195
 607              	.LBB132:
 608              	.LBI132:
 609              		.loc 4 602 20 view .LVU196
 610              	.LBE132:
 611              	.LBE131:
 612              	.LBE130:
 613              		.loc 4 610 3 view .LVU197
 614              	.LBB145:
 615              	.LBB142:
 616              	.LBB139:
 617              	.LBB133:
 618              	.LBI133:
 619              		.loc 5 491 27 view .LVU198
 620              	.LBB134:
 621              		.loc 5 493 3 view .LVU199
 622              	.LBE134:
 623              	.LBE133:
 624              	.LBE139:
 625              	.LBE142:
 626              	.LBE145:
 627              		.loc 2 255 32 is_stmt 0 view .LVU200
ARM GAS  /tmp/ccfazetK.s 			page 12


 628 0000 07B5     		push	{r0, r1, r2, lr}
 629              		.cfi_def_cfa_offset 16
 630              		.cfi_offset 14, -4
 631              	.LBB146:
 632              	.LBB143:
 633              	.LBB140:
 634              	.LBB137:
 635              	.LBB135:
 636              		.loc 5 493 3 view .LVU201
 637 0002 2023     		movs	r3, #32
 638              	.LBE135:
 639              	.LBE137:
 640              	.LBE140:
 641              	.LBE143:
 642              	.LBE146:
 643              		.loc 2 255 32 view .LVU202
 644 0004 0190     		str	r0, [sp, #4]
 645              	.LBB147:
 646              	.LBB144:
 647              	.LBB141:
 648              	.LBB138:
 649              	.LBB136:
 650              		.loc 5 493 3 view .LVU203
 651              		.syntax unified
 652              	@ 493 "../../modules/ChibiOS/os/common/ext/ARM/CMSIS/Core/Include/cmsis_gcc.h" 1
 653 0006 83F31188 		MSR basepri, r3
 654              	@ 0 "" 2
 655              	.LVL33:
 656              		.loc 5 493 3 view .LVU204
 657              		.thumb
 658              		.syntax unified
 659              	.LBE136:
 660              	.LBE138:
 661              	.LBE141:
 662              		.loc 3 356 3 is_stmt 1 view .LVU205
 663 000a FFF7FEFF 		bl	_stats_start_measure_crit_thd
 664              	.LVL34:
 665              		.loc 3 357 20 view .LVU206
 666              	.LBE144:
 667              	.LBE147:
 668              		.loc 2 259 3 view .LVU207
 669              		.loc 2 259 7 is_stmt 0 view .LVU208
 670 000e 0198     		ldr	r0, [sp, #4]
 671 0010 FFF7FEFF 		bl	chMtxTryLockS
 672              	.LVL35:
 673 0014 0190     		str	r0, [sp, #4]
 674              	.LVL36:
 675              		.loc 2 260 3 is_stmt 1 view .LVU209
 676              	.LBB148:
 677              	.LBI148:
 678              		.loc 3 365 20 view .LVU210
 679              	.LBB149:
 680              		.loc 3 367 22 view .LVU211
 681              		.loc 3 368 3 view .LVU212
 682 0016 FFF7FEFF 		bl	_stats_stop_measure_crit_thd
 683              	.LVL37:
 684              		.loc 3 374 3 view .LVU213
ARM GAS  /tmp/ccfazetK.s 			page 13


 685              		.loc 3 374 3 view .LVU214
 686              		.loc 3 374 3 view .LVU215
 687              		.loc 3 378 3 view .LVU216
 688              	.LBB150:
 689              	.LBI150:
 690              		.loc 4 626 20 view .LVU217
 691              	.LBE150:
 692              	.LBE149:
 693              	.LBE148:
 694              		.loc 4 629 3 view .LVU218
 695              	.LBB155:
 696              	.LBB154:
 697              	.LBB153:
 698              	.LBB151:
 699              	.LBI151:
 700              		.loc 5 491 27 view .LVU219
 701              	.LBB152:
 702              		.loc 5 493 3 view .LVU220
 703 001a 0023     		movs	r3, #0
 704              		.syntax unified
 705              	@ 493 "../../modules/ChibiOS/os/common/ext/ARM/CMSIS/Core/Include/cmsis_gcc.h" 1
 706 001c 83F31188 		MSR basepri, r3
 707              	@ 0 "" 2
 708              	.LVL38:
 709              		.loc 5 493 3 is_stmt 0 view .LVU221
 710              		.thumb
 711              		.syntax unified
 712              	.LBE152:
 713              	.LBE151:
 714              	.LBE153:
 715              	.LBE154:
 716              	.LBE155:
 717              		.loc 2 262 3 is_stmt 1 view .LVU222
 718              		.loc 2 263 1 is_stmt 0 view .LVU223
 719 0020 0198     		ldr	r0, [sp, #4]
 720 0022 03B0     		add	sp, sp, #12
 721              		.cfi_def_cfa_offset 4
 722              		@ sp needed
 723 0024 5DF804FB 		ldr	pc, [sp], #4
 724              		.loc 2 263 1 view .LVU224
 725              		.cfi_endproc
 726              	.LFE304:
 727              		.size	chMtxTryLock, .-chMtxTryLock
 728              		.section	.text.chMtxUnlock,"ax",%progbits
 729              		.align	1
 730              		.global	chMtxUnlock
 731              		.syntax unified
 732              		.thumb
 733              		.thumb_func
 734              		.fpu fpv4-sp-d16
 735              		.type	chMtxUnlock, %function
 736              	chMtxUnlock:
 737              	.LVL39:
 738              	.LFB306:
 739              		.loc 2 323 31 is_stmt 1 view -0
 740              		.cfi_startproc
 741              		@ args = 0, pretend = 0, frame = 0
ARM GAS  /tmp/ccfazetK.s 			page 14


 742              		@ frame_needed = 0, uses_anonymous_args = 0
 743              		.loc 2 324 3 view .LVU226
 744              		.loc 2 323 31 is_stmt 0 view .LVU227
 745 0000 38B5     		push	{r3, r4, r5, lr}
 746              		.cfi_def_cfa_offset 16
 747              		.cfi_offset 3, -16
 748              		.cfi_offset 4, -12
 749              		.cfi_offset 5, -8
 750              		.cfi_offset 14, -4
 751              		.loc 2 324 13 view .LVU228
 752 0002 194B     		ldr	r3, .L33
 753              		.loc 2 323 31 view .LVU229
 754 0004 0446     		mov	r4, r0
 755              		.loc 2 324 13 view .LVU230
 756 0006 9D69     		ldr	r5, [r3, #24]
 757              	.LVL40:
 758              		.loc 2 325 3 is_stmt 1 view .LVU231
 759              		.loc 2 327 3 view .LVU232
 760              		.loc 2 327 3 view .LVU233
 761              		.loc 2 327 3 view .LVU234
 762              		.loc 2 329 3 view .LVU235
 763              	.LBB177:
 764              	.LBI177:
 765              		.loc 3 353 20 view .LVU236
 766              	.LBB178:
 767              		.loc 3 355 3 view .LVU237
 768              	.LBB179:
 769              	.LBI179:
 770              		.loc 4 602 20 view .LVU238
 771              	.LBE179:
 772              	.LBE178:
 773              	.LBE177:
 774              		.loc 4 610 3 view .LVU239
 775              	.LBB184:
 776              	.LBB183:
 777              	.LBB182:
 778              	.LBB180:
 779              	.LBI180:
 780              		.loc 5 491 27 view .LVU240
 781              	.LBB181:
 782              		.loc 5 493 3 view .LVU241
 783 0008 2023     		movs	r3, #32
 784              		.syntax unified
 785              	@ 493 "../../modules/ChibiOS/os/common/ext/ARM/CMSIS/Core/Include/cmsis_gcc.h" 1
 786 000a 83F31188 		MSR basepri, r3
 787              	@ 0 "" 2
 788              	.LVL41:
 789              		.loc 5 493 3 is_stmt 0 view .LVU242
 790              		.thumb
 791              		.syntax unified
 792              	.LBE181:
 793              	.LBE180:
 794              	.LBE182:
 795              		.loc 3 356 3 is_stmt 1 view .LVU243
 796 000e FFF7FEFF 		bl	_stats_start_measure_crit_thd
 797              	.LVL42:
 798              		.loc 3 357 20 view .LVU244
ARM GAS  /tmp/ccfazetK.s 			page 15


 799              	.LBE183:
 800              	.LBE184:
 801              		.loc 2 331 3 view .LVU245
 802              		.loc 2 331 3 view .LVU246
 803              		.loc 2 331 3 view .LVU247
 804              		.loc 2 332 3 view .LVU248
 805              		.loc 2 332 3 view .LVU249
 806              		.loc 2 332 3 view .LVU250
 807              		.loc 2 334 3 view .LVU251
 808              		.loc 2 334 3 view .LVU252
 809              		.loc 2 334 3 view .LVU253
 810              		.loc 2 336 3 view .LVU254
 811              		.loc 2 336 7 is_stmt 0 view .LVU255
 812 0012 2269     		ldr	r2, [r4, #16]
 813 0014 013A     		subs	r2, r2, #1
 814              		.loc 2 336 6 view .LVU256
 815 0016 2261     		str	r2, [r4, #16]
 816 0018 A2B9     		cbnz	r2, .L28
 817              		.loc 2 339 5 is_stmt 1 discriminator 5 view .LVU257
 818              		.loc 2 339 5 discriminator 5 view .LVU258
 819              		.loc 2 339 5 discriminator 5 view .LVU259
 820              		.loc 2 344 5 discriminator 5 view .LVU260
 821              	.LBB185:
 822              	.LBB186:
 823              	.LBB187:
 824              	.LBB188:
 825              		.loc 1 566 20 is_stmt 0 discriminator 5 view .LVU261
 826 001a 2068     		ldr	r0, [r4]
 827              	.LBE188:
 828              	.LBE187:
 829              	.LBE186:
 830              	.LBE185:
 831              		.loc 2 344 22 discriminator 5 view .LVU262
 832 001c E368     		ldr	r3, [r4, #12]
 833              		.loc 2 347 8 discriminator 5 view .LVU263
 834 001e A042     		cmp	r0, r4
 835              		.loc 2 344 18 discriminator 5 view .LVU264
 836 0020 AB63     		str	r3, [r5, #56]
 837              		.loc 2 347 5 is_stmt 1 discriminator 5 view .LVU265
 838              	.LVL43:
 839              	.LBB192:
 840              	.LBI185:
 841              		.file 6 "../../modules/ChibiOS/os/rt/include/chmtx.h"
 842              		.loc 6 128 20 discriminator 5 view .LVU266
 843              	.LBB191:
 844              		.loc 6 130 21 discriminator 5 view .LVU267
 845              		.loc 6 132 3 discriminator 5 view .LVU268
 846              	.LBB190:
 847              	.LBI187:
 848              		.loc 1 564 20 discriminator 5 view .LVU269
 849              	.LBB189:
 850              		.loc 1 566 3 discriminator 5 view .LVU270
 851              		.loc 1 566 3 is_stmt 0 discriminator 5 view .LVU271
 852              	.LBE189:
 853              	.LBE190:
 854              	.LBE191:
 855              	.LBE192:
ARM GAS  /tmp/ccfazetK.s 			page 16


 856              		.loc 2 347 8 discriminator 5 view .LVU272
 857 0022 1ED0     		beq	.L29
 858              	.LBB193:
 859              		.loc 2 348 7 is_stmt 1 view .LVU273
 860              		.loc 2 352 7 view .LVU274
 861              		.loc 2 352 15 is_stmt 0 view .LVU275
 862 0024 EA6B     		ldr	r2, [r5, #60]
 863              	.LVL44:
 864              		.loc 2 353 7 is_stmt 1 view .LVU276
 865              		.loc 2 354 7 view .LVU277
 866              	.L30:
 867              		.loc 2 354 13 view .LVU278
 868 0026 9BB9     		cbnz	r3, .L32
 869              		.loc 2 367 7 view .LVU279
 870              		.loc 2 372 15 is_stmt 0 view .LVU280
 871 0028 0123     		movs	r3, #1
 872              	.LVL45:
 873              		.loc 2 367 17 view .LVU281
 874 002a AA60     		str	r2, [r5, #8]
 875              		.loc 2 372 7 is_stmt 1 view .LVU282
 876              		.loc 2 372 15 is_stmt 0 view .LVU283
 877 002c 2361     		str	r3, [r4, #16]
 878              		.loc 2 374 7 is_stmt 1 view .LVU284
 879              	.LVL46:
 880              	.LBB194:
 881              	.LBI194:
 882              		.loc 1 606 25 view .LVU285
 883              	.LBB195:
 884              		.loc 1 607 3 view .LVU286
 885              		.loc 1 609 3 view .LVU287
 886              		.loc 1 609 36 is_stmt 0 view .LVU288
 887 002e 0368     		ldr	r3, [r0]
 888              		.loc 1 609 25 view .LVU289
 889 0030 2360     		str	r3, [r4]
 890              		.loc 1 610 3 is_stmt 1 view .LVU290
 891              		.loc 1 610 25 is_stmt 0 view .LVU291
 892 0032 5C60     		str	r4, [r3, #4]
 893              		.loc 1 612 3 is_stmt 1 view .LVU292
 894              	.LVL47:
 895              		.loc 1 612 3 is_stmt 0 view .LVU293
 896              	.LBE195:
 897              	.LBE194:
 898              		.loc 2 375 7 is_stmt 1 view .LVU294
 899              		.loc 2 376 16 is_stmt 0 view .LVU295
 900 0034 836B     		ldr	r3, [r0, #56]
 901              		.loc 2 375 17 view .LVU296
 902 0036 A060     		str	r0, [r4, #8]
 903              		.loc 2 376 7 is_stmt 1 view .LVU297
 904              		.loc 2 376 16 is_stmt 0 view .LVU298
 905 0038 E360     		str	r3, [r4, #12]
 906              		.loc 2 377 7 is_stmt 1 view .LVU299
 907              		.loc 2 377 19 is_stmt 0 view .LVU300
 908 003a 8463     		str	r4, [r0, #56]
 909              		.loc 2 383 7 is_stmt 1 view .LVU301
 910              		.loc 2 383 14 is_stmt 0 view .LVU302
 911 003c FFF7FEFF 		bl	chSchReadyI
 912              	.LVL48:
ARM GAS  /tmp/ccfazetK.s 			page 17


 913              		.loc 2 384 7 is_stmt 1 view .LVU303
 914 0040 FFF7FEFF 		bl	chSchRescheduleS
 915              	.LVL49:
 916              	.L28:
 917              		.loc 2 384 7 is_stmt 0 view .LVU304
 918              	.LBE193:
 919              		.loc 2 393 3 is_stmt 1 view .LVU305
 920              	.LBB200:
 921              	.LBI200:
 922              		.loc 3 365 20 view .LVU306
 923              	.LBB201:
 924              		.loc 3 367 22 view .LVU307
 925              		.loc 3 368 3 view .LVU308
 926 0044 FFF7FEFF 		bl	_stats_stop_measure_crit_thd
 927              	.LVL50:
 928              		.loc 3 374 3 view .LVU309
 929              		.loc 3 374 3 view .LVU310
 930              		.loc 3 374 3 view .LVU311
 931              		.loc 3 378 3 view .LVU312
 932              	.LBB202:
 933              	.LBI202:
 934              		.loc 4 626 20 view .LVU313
 935              	.LBE202:
 936              	.LBE201:
 937              	.LBE200:
 938              		.loc 4 629 3 view .LVU314
 939              	.LBB207:
 940              	.LBB206:
 941              	.LBB205:
 942              	.LBB203:
 943              	.LBI203:
 944              		.loc 5 491 27 view .LVU315
 945              	.LBB204:
 946              		.loc 5 493 3 view .LVU316
 947 0048 0023     		movs	r3, #0
 948              		.syntax unified
 949              	@ 493 "../../modules/ChibiOS/os/common/ext/ARM/CMSIS/Core/Include/cmsis_gcc.h" 1
 950 004a 83F31188 		MSR basepri, r3
 951              	@ 0 "" 2
 952              	.LVL51:
 953              		.loc 5 493 3 is_stmt 0 view .LVU317
 954              		.thumb
 955              		.syntax unified
 956              	.LBE204:
 957              	.LBE203:
 958              	.LBE205:
 959              	.LBE206:
 960              	.LBE207:
 961              		.loc 2 394 1 view .LVU318
 962 004e 38BD     		pop	{r3, r4, r5, pc}
 963              	.LVL52:
 964              	.L32:
 965              	.LBB208:
 966              		.loc 2 358 9 is_stmt 1 view .LVU319
 967              	.LBB196:
 968              	.LBI196:
 969              		.loc 6 128 20 view .LVU320
ARM GAS  /tmp/ccfazetK.s 			page 18


 970              	.LBB197:
 971              		.loc 6 130 21 view .LVU321
 972              		.loc 6 132 3 view .LVU322
 973              	.LBB198:
 974              	.LBI198:
 975              		.loc 1 564 20 view .LVU323
 976              	.LBB199:
 977              		.loc 1 566 3 view .LVU324
 978              		.loc 1 566 20 is_stmt 0 view .LVU325
 979 0050 1968     		ldr	r1, [r3]
 980              	.LVL53:
 981              		.loc 1 566 20 view .LVU326
 982              	.LBE199:
 983              	.LBE198:
 984              	.LBE197:
 985              	.LBE196:
 986              		.loc 2 358 12 view .LVU327
 987 0052 8B42     		cmp	r3, r1
 988 0054 03D0     		beq	.L31
 989 0056 8968     		ldr	r1, [r1, #8]
 990 0058 8A42     		cmp	r2, r1
 991 005a 38BF     		it	cc
 992 005c 0A46     		movcc	r2, r1
 993              	.LVL54:
 994              	.L31:
 995              		.loc 2 362 9 is_stmt 1 view .LVU328
 996              		.loc 2 362 13 is_stmt 0 view .LVU329
 997 005e DB68     		ldr	r3, [r3, #12]
 998              	.LVL55:
 999              		.loc 2 362 13 view .LVU330
 1000 0060 E1E7     		b	.L30
 1001              	.LVL56:
 1002              	.L29:
 1003              		.loc 2 362 13 view .LVU331
 1004              	.LBE208:
 1005              		.loc 2 387 7 is_stmt 1 view .LVU332
 1006              		.loc 2 387 17 is_stmt 0 view .LVU333
 1007 0062 8260     		str	r2, [r0, #8]
 1008 0064 EEE7     		b	.L28
 1009              	.L34:
 1010 0066 00BF     		.align	2
 1011              	.L33:
 1012 0068 00000000 		.word	ch
 1013              		.cfi_endproc
 1014              	.LFE306:
 1015              		.size	chMtxUnlock, .-chMtxUnlock
 1016              		.section	.text.chMtxUnlockS,"ax",%progbits
 1017              		.align	1
 1018              		.global	chMtxUnlockS
 1019              		.syntax unified
 1020              		.thumb
 1021              		.thumb_func
 1022              		.fpu fpv4-sp-d16
 1023              		.type	chMtxUnlockS, %function
 1024              	chMtxUnlockS:
 1025              	.LVL57:
 1026              	.LFB307:
ARM GAS  /tmp/ccfazetK.s 			page 19


 1027              		.loc 2 410 32 is_stmt 1 view -0
 1028              		.cfi_startproc
 1029              		@ args = 0, pretend = 0, frame = 0
 1030              		@ frame_needed = 0, uses_anonymous_args = 0
 1031              		@ link register save eliminated.
 1032              		.loc 2 411 3 view .LVU335
 1033              		.loc 2 422 7 is_stmt 0 view .LVU336
 1034 0000 0169     		ldr	r1, [r0, #16]
 1035              		.loc 2 411 13 view .LVU337
 1036 0002 134B     		ldr	r3, .L41
 1037              		.loc 2 422 7 view .LVU338
 1038 0004 0139     		subs	r1, r1, #1
 1039              		.loc 2 410 32 view .LVU339
 1040 0006 30B4     		push	{r4, r5}
 1041              		.cfi_def_cfa_offset 8
 1042              		.cfi_offset 4, -8
 1043              		.cfi_offset 5, -4
 1044              		.loc 2 411 13 view .LVU340
 1045 0008 9C69     		ldr	r4, [r3, #24]
 1046              	.LVL58:
 1047              		.loc 2 412 3 is_stmt 1 view .LVU341
 1048              		.loc 2 414 21 view .LVU342
 1049              		.loc 2 415 3 view .LVU343
 1050              		.loc 2 415 3 view .LVU344
 1051              		.loc 2 415 3 view .LVU345
 1052              		.loc 2 417 3 view .LVU346
 1053              		.loc 2 417 3 view .LVU347
 1054              		.loc 2 417 3 view .LVU348
 1055              		.loc 2 418 3 view .LVU349
 1056              		.loc 2 418 3 view .LVU350
 1057              		.loc 2 418 3 view .LVU351
 1058              		.loc 2 420 3 view .LVU352
 1059              		.loc 2 420 3 view .LVU353
 1060              		.loc 2 420 3 view .LVU354
 1061              		.loc 2 422 3 view .LVU355
 1062              		.loc 2 422 6 is_stmt 0 view .LVU356
 1063 000a 0161     		str	r1, [r0, #16]
 1064 000c F1B9     		cbnz	r1, .L35
 1065              		.loc 2 425 5 is_stmt 1 discriminator 5 view .LVU357
 1066              		.loc 2 425 5 discriminator 5 view .LVU358
 1067              		.loc 2 425 5 discriminator 5 view .LVU359
 1068              		.loc 2 430 5 discriminator 5 view .LVU360
 1069              	.LBB209:
 1070              	.LBB210:
 1071              	.LBB211:
 1072              	.LBB212:
 1073              		.loc 1 566 20 is_stmt 0 discriminator 5 view .LVU361
 1074 000e 0368     		ldr	r3, [r0]
 1075              	.LBE212:
 1076              	.LBE211:
 1077              	.LBE210:
 1078              	.LBE209:
 1079              		.loc 2 430 22 discriminator 5 view .LVU362
 1080 0010 C268     		ldr	r2, [r0, #12]
 1081              		.loc 2 433 8 discriminator 5 view .LVU363
 1082 0012 8342     		cmp	r3, r0
 1083              		.loc 2 430 18 discriminator 5 view .LVU364
ARM GAS  /tmp/ccfazetK.s 			page 20


 1084 0014 A263     		str	r2, [r4, #56]
 1085              		.loc 2 433 5 is_stmt 1 discriminator 5 view .LVU365
 1086              	.LVL59:
 1087              	.LBB216:
 1088              	.LBI209:
 1089              		.loc 6 128 20 discriminator 5 view .LVU366
 1090              	.LBB215:
 1091              		.loc 6 130 21 discriminator 5 view .LVU367
 1092              		.loc 6 132 3 discriminator 5 view .LVU368
 1093              	.LBB214:
 1094              	.LBI211:
 1095              		.loc 1 564 20 discriminator 5 view .LVU369
 1096              	.LBB213:
 1097              		.loc 1 566 3 discriminator 5 view .LVU370
 1098              		.loc 1 566 3 is_stmt 0 discriminator 5 view .LVU371
 1099              	.LBE213:
 1100              	.LBE214:
 1101              	.LBE215:
 1102              	.LBE216:
 1103              		.loc 2 433 8 discriminator 5 view .LVU372
 1104 0016 18D0     		beq	.L37
 1105              	.LBB217:
 1106              		.loc 2 434 7 is_stmt 1 view .LVU373
 1107              		.loc 2 438 7 view .LVU374
 1108              		.loc 2 438 15 is_stmt 0 view .LVU375
 1109 0018 E16B     		ldr	r1, [r4, #60]
 1110              	.LVL60:
 1111              		.loc 2 439 7 is_stmt 1 view .LVU376
 1112              		.loc 2 440 7 view .LVU377
 1113              	.L38:
 1114              		.loc 2 440 13 view .LVU378
 1115 001a 6AB9     		cbnz	r2, .L40
 1116              		.loc 2 453 7 view .LVU379
 1117              		.loc 2 458 15 is_stmt 0 view .LVU380
 1118 001c 0122     		movs	r2, #1
 1119              	.LVL61:
 1120              		.loc 2 453 17 view .LVU381
 1121 001e A160     		str	r1, [r4, #8]
 1122              		.loc 2 458 7 is_stmt 1 view .LVU382
 1123              		.loc 2 458 15 is_stmt 0 view .LVU383
 1124 0020 0261     		str	r2, [r0, #16]
 1125              		.loc 2 460 7 is_stmt 1 view .LVU384
 1126              	.LVL62:
 1127              	.LBB218:
 1128              	.LBI218:
 1129              		.loc 1 606 25 view .LVU385
 1130              	.LBB219:
 1131              		.loc 1 607 3 view .LVU386
 1132              		.loc 1 609 3 view .LVU387
 1133              		.loc 1 609 36 is_stmt 0 view .LVU388
 1134 0022 1A68     		ldr	r2, [r3]
 1135              		.loc 1 609 25 view .LVU389
 1136 0024 0260     		str	r2, [r0]
 1137              		.loc 1 610 3 is_stmt 1 view .LVU390
 1138              		.loc 1 610 25 is_stmt 0 view .LVU391
 1139 0026 5060     		str	r0, [r2, #4]
 1140              		.loc 1 612 3 is_stmt 1 view .LVU392
ARM GAS  /tmp/ccfazetK.s 			page 21


 1141              	.LVL63:
 1142              		.loc 1 612 3 is_stmt 0 view .LVU393
 1143              	.LBE219:
 1144              	.LBE218:
 1145              		.loc 2 461 7 is_stmt 1 view .LVU394
 1146              		.loc 2 462 16 is_stmt 0 view .LVU395
 1147 0028 9A6B     		ldr	r2, [r3, #56]
 1148              		.loc 2 461 17 view .LVU396
 1149 002a 8360     		str	r3, [r0, #8]
 1150              		.loc 2 462 7 is_stmt 1 view .LVU397
 1151              		.loc 2 462 16 is_stmt 0 view .LVU398
 1152 002c C260     		str	r2, [r0, #12]
 1153              		.loc 2 463 7 is_stmt 1 view .LVU399
 1154              		.loc 2 463 19 is_stmt 0 view .LVU400
 1155 002e 9863     		str	r0, [r3, #56]
 1156              		.loc 2 464 7 is_stmt 1 view .LVU401
 1157              		.loc 2 464 14 is_stmt 0 view .LVU402
 1158 0030 1846     		mov	r0, r3
 1159              	.LVL64:
 1160              		.loc 2 464 14 view .LVU403
 1161              	.LBE217:
 1162              		.loc 2 472 1 view .LVU404
 1163 0032 30BC     		pop	{r4, r5}
 1164              		.cfi_remember_state
 1165              		.cfi_restore 5
 1166              		.cfi_restore 4
 1167              		.cfi_def_cfa_offset 0
 1168              	.LVL65:
 1169              	.LBB224:
 1170              		.loc 2 464 14 view .LVU405
 1171 0034 FFF7FEBF 		b	chSchReadyI
 1172              	.LVL66:
 1173              	.L40:
 1174              		.cfi_restore_state
 1175              		.loc 2 444 9 is_stmt 1 view .LVU406
 1176              	.LBB220:
 1177              	.LBI220:
 1178              		.loc 6 128 20 view .LVU407
 1179              	.LBB221:
 1180              		.loc 6 130 21 view .LVU408
 1181              		.loc 6 132 3 view .LVU409
 1182              	.LBB222:
 1183              	.LBI222:
 1184              		.loc 1 564 20 view .LVU410
 1185              	.LBB223:
 1186              		.loc 1 566 3 view .LVU411
 1187              		.loc 1 566 20 is_stmt 0 view .LVU412
 1188 0038 1568     		ldr	r5, [r2]
 1189              	.LVL67:
 1190              		.loc 1 566 20 view .LVU413
 1191              	.LBE223:
 1192              	.LBE222:
 1193              	.LBE221:
 1194              	.LBE220:
 1195              		.loc 2 444 12 view .LVU414
 1196 003a AA42     		cmp	r2, r5
 1197 003c 03D0     		beq	.L39
ARM GAS  /tmp/ccfazetK.s 			page 22


 1198 003e AD68     		ldr	r5, [r5, #8]
 1199 0040 A942     		cmp	r1, r5
 1200 0042 38BF     		it	cc
 1201 0044 2946     		movcc	r1, r5
 1202              	.LVL68:
 1203              	.L39:
 1204              		.loc 2 448 9 is_stmt 1 view .LVU415
 1205              		.loc 2 448 13 is_stmt 0 view .LVU416
 1206 0046 D268     		ldr	r2, [r2, #12]
 1207              	.LVL69:
 1208              		.loc 2 448 13 view .LVU417
 1209 0048 E7E7     		b	.L38
 1210              	.LVL70:
 1211              	.L37:
 1212              		.loc 2 448 13 view .LVU418
 1213              	.LBE224:
 1214              		.loc 2 467 7 is_stmt 1 view .LVU419
 1215              		.loc 2 467 17 is_stmt 0 view .LVU420
 1216 004a 9960     		str	r1, [r3, #8]
 1217              	.L35:
 1218              		.loc 2 472 1 view .LVU421
 1219 004c 30BC     		pop	{r4, r5}
 1220              		.cfi_restore 5
 1221              		.cfi_restore 4
 1222              		.cfi_def_cfa_offset 0
 1223              	.LVL71:
 1224              		.loc 2 472 1 view .LVU422
 1225 004e 7047     		bx	lr
 1226              	.L42:
 1227              		.align	2
 1228              	.L41:
 1229 0050 00000000 		.word	ch
 1230              		.cfi_endproc
 1231              	.LFE307:
 1232              		.size	chMtxUnlockS, .-chMtxUnlockS
 1233              		.section	.text.chMtxUnlockAllS,"ax",%progbits
 1234              		.align	1
 1235              		.global	chMtxUnlockAllS
 1236              		.syntax unified
 1237              		.thumb
 1238              		.thumb_func
 1239              		.fpu fpv4-sp-d16
 1240              		.type	chMtxUnlockAllS, %function
 1241              	chMtxUnlockAllS:
 1242              	.LFB308:
 1243              		.loc 2 487 28 is_stmt 1 view -0
 1244              		.cfi_startproc
 1245              		@ args = 0, pretend = 0, frame = 0
 1246              		@ frame_needed = 0, uses_anonymous_args = 0
 1247              		.loc 2 488 3 view .LVU424
 1248              		.loc 2 488 13 is_stmt 0 view .LVU425
 1249 0000 0E4B     		ldr	r3, .L48
 1250              		.loc 2 487 28 view .LVU426
 1251 0002 70B5     		push	{r4, r5, r6, lr}
 1252              		.cfi_def_cfa_offset 16
 1253              		.cfi_offset 4, -16
 1254              		.cfi_offset 5, -12
ARM GAS  /tmp/ccfazetK.s 			page 23


 1255              		.cfi_offset 6, -8
 1256              		.cfi_offset 14, -4
 1257              		.loc 2 488 13 view .LVU427
 1258 0004 9C69     		ldr	r4, [r3, #24]
 1259              	.LVL72:
 1260              		.loc 2 490 3 is_stmt 1 view .LVU428
 1261              	.LBB225:
 1262              		.loc 2 505 15 is_stmt 0 view .LVU429
 1263 0006 0025     		movs	r5, #0
 1264              	.LBB226:
 1265              		.loc 2 495 15 view .LVU430
 1266 0008 0126     		movs	r6, #1
 1267              	.L44:
 1268              		.loc 2 495 15 view .LVU431
 1269              	.LBE226:
 1270              	.LBE225:
 1271              		.loc 2 490 9 is_stmt 1 view .LVU432
 1272              		.loc 2 490 13 is_stmt 0 view .LVU433
 1273 000a A36B     		ldr	r3, [r4, #56]
 1274              		.loc 2 490 9 view .LVU434
 1275 000c 13B9     		cbnz	r3, .L47
 1276              		.loc 2 510 3 is_stmt 1 view .LVU435
 1277              		.loc 2 510 13 is_stmt 0 view .LVU436
 1278 000e E36B     		ldr	r3, [r4, #60]
 1279 0010 A360     		str	r3, [r4, #8]
 1280              		.loc 2 511 1 view .LVU437
 1281 0012 70BD     		pop	{r4, r5, r6, pc}
 1282              	.LVL73:
 1283              	.L47:
 1284              	.LBB240:
 1285              		.loc 2 491 5 is_stmt 1 view .LVU438
 1286              		.loc 2 492 5 view .LVU439
 1287              	.LBB231:
 1288              	.LBB232:
 1289              	.LBB233:
 1290              	.LBB234:
 1291              		.loc 1 566 20 is_stmt 0 view .LVU440
 1292 0014 1868     		ldr	r0, [r3]
 1293              	.LBE234:
 1294              	.LBE233:
 1295              	.LBE232:
 1296              	.LBE231:
 1297              		.loc 2 492 18 view .LVU441
 1298 0016 DA68     		ldr	r2, [r3, #12]
 1299              		.loc 2 493 8 view .LVU442
 1300 0018 8342     		cmp	r3, r0
 1301              		.loc 2 492 18 view .LVU443
 1302 001a A263     		str	r2, [r4, #56]
 1303              		.loc 2 493 5 is_stmt 1 view .LVU444
 1304              	.LVL74:
 1305              	.LBB238:
 1306              	.LBI231:
 1307              		.loc 6 128 20 view .LVU445
 1308              	.LBB237:
 1309              		.loc 6 130 21 view .LVU446
 1310              		.loc 6 132 3 view .LVU447
 1311              	.LBB236:
ARM GAS  /tmp/ccfazetK.s 			page 24


 1312              	.LBI233:
 1313              		.loc 1 564 20 view .LVU448
 1314              	.LBB235:
 1315              		.loc 1 566 3 view .LVU449
 1316              		.loc 1 566 3 is_stmt 0 view .LVU450
 1317              	.LBE235:
 1318              	.LBE236:
 1319              	.LBE237:
 1320              	.LBE238:
 1321              		.loc 2 493 8 view .LVU451
 1322 001c 0AD0     		beq	.L45
 1323              	.LBB239:
 1324              		.loc 2 495 7 is_stmt 1 view .LVU452
 1325              	.LBB227:
 1326              	.LBB228:
 1327              		.loc 1 609 36 is_stmt 0 view .LVU453
 1328 001e 0268     		ldr	r2, [r0]
 1329              	.LBE228:
 1330              	.LBE227:
 1331              		.loc 2 495 15 view .LVU454
 1332 0020 1E61     		str	r6, [r3, #16]
 1333              		.loc 2 497 7 is_stmt 1 view .LVU455
 1334              	.LVL75:
 1335              	.LBB230:
 1336              	.LBI227:
 1337              		.loc 1 606 25 view .LVU456
 1338              	.LBB229:
 1339              		.loc 1 607 3 view .LVU457
 1340              		.loc 1 609 3 view .LVU458
 1341              		.loc 1 609 25 is_stmt 0 view .LVU459
 1342 0022 1A60     		str	r2, [r3]
 1343              		.loc 1 610 3 is_stmt 1 view .LVU460
 1344              		.loc 1 610 25 is_stmt 0 view .LVU461
 1345 0024 5360     		str	r3, [r2, #4]
 1346              		.loc 1 612 3 is_stmt 1 view .LVU462
 1347              	.LVL76:
 1348              		.loc 1 612 3 is_stmt 0 view .LVU463
 1349              	.LBE229:
 1350              	.LBE230:
 1351              		.loc 2 498 7 is_stmt 1 view .LVU464
 1352              		.loc 2 499 16 is_stmt 0 view .LVU465
 1353 0026 826B     		ldr	r2, [r0, #56]
 1354              		.loc 2 498 17 view .LVU466
 1355 0028 9860     		str	r0, [r3, #8]
 1356              		.loc 2 499 7 is_stmt 1 view .LVU467
 1357              		.loc 2 499 16 is_stmt 0 view .LVU468
 1358 002a DA60     		str	r2, [r3, #12]
 1359              		.loc 2 500 7 is_stmt 1 view .LVU469
 1360              		.loc 2 500 19 is_stmt 0 view .LVU470
 1361 002c 8363     		str	r3, [r0, #56]
 1362              		.loc 2 501 7 is_stmt 1 view .LVU471
 1363              		.loc 2 501 14 is_stmt 0 view .LVU472
 1364 002e FFF7FEFF 		bl	chSchReadyI
 1365              	.LVL77:
 1366              		.loc 2 501 14 view .LVU473
 1367              	.LBE239:
 1368 0032 EAE7     		b	.L44
ARM GAS  /tmp/ccfazetK.s 			page 25


 1369              	.LVL78:
 1370              	.L45:
 1371              		.loc 2 505 7 is_stmt 1 view .LVU474
 1372              		.loc 2 505 15 is_stmt 0 view .LVU475
 1373 0034 1D61     		str	r5, [r3, #16]
 1374              		.loc 2 507 7 is_stmt 1 view .LVU476
 1375              		.loc 2 507 17 is_stmt 0 view .LVU477
 1376 0036 9D60     		str	r5, [r3, #8]
 1377 0038 E7E7     		b	.L44
 1378              	.L49:
 1379 003a 00BF     		.align	2
 1380              	.L48:
 1381 003c 00000000 		.word	ch
 1382              	.LBE240:
 1383              		.cfi_endproc
 1384              	.LFE308:
 1385              		.size	chMtxUnlockAllS, .-chMtxUnlockAllS
 1386              		.section	.text.chMtxUnlockAll,"ax",%progbits
 1387              		.align	1
 1388              		.global	chMtxUnlockAll
 1389              		.syntax unified
 1390              		.thumb
 1391              		.thumb_func
 1392              		.fpu fpv4-sp-d16
 1393              		.type	chMtxUnlockAll, %function
 1394              	chMtxUnlockAll:
 1395              	.LFB309:
 1396              		.loc 2 524 27 is_stmt 1 view -0
 1397              		.cfi_startproc
 1398              		@ args = 0, pretend = 0, frame = 0
 1399              		@ frame_needed = 0, uses_anonymous_args = 0
 1400              		.loc 2 525 3 view .LVU479
 1401              		.loc 2 525 13 is_stmt 0 view .LVU480
 1402 0000 154B     		ldr	r3, .L59
 1403              		.loc 2 524 27 view .LVU481
 1404 0002 70B5     		push	{r4, r5, r6, lr}
 1405              		.cfi_def_cfa_offset 16
 1406              		.cfi_offset 4, -16
 1407              		.cfi_offset 5, -12
 1408              		.cfi_offset 6, -8
 1409              		.cfi_offset 14, -4
 1410              		.loc 2 525 13 view .LVU482
 1411 0004 9C69     		ldr	r4, [r3, #24]
 1412              	.LVL79:
 1413              		.loc 2 527 3 is_stmt 1 view .LVU483
 1414              	.LBB259:
 1415              	.LBI259:
 1416              		.loc 3 353 20 view .LVU484
 1417              	.LBB260:
 1418              		.loc 3 355 3 view .LVU485
 1419              	.LBB261:
 1420              	.LBI261:
 1421              		.loc 4 602 20 view .LVU486
 1422              	.LBE261:
 1423              	.LBE260:
 1424              	.LBE259:
 1425              		.loc 4 610 3 view .LVU487
ARM GAS  /tmp/ccfazetK.s 			page 26


 1426              	.LBB266:
 1427              	.LBB265:
 1428              	.LBB264:
 1429              	.LBB262:
 1430              	.LBI262:
 1431              		.loc 5 491 27 view .LVU488
 1432              	.LBB263:
 1433              		.loc 5 493 3 view .LVU489
 1434 0006 2023     		movs	r3, #32
 1435              		.syntax unified
 1436              	@ 493 "../../modules/ChibiOS/os/common/ext/ARM/CMSIS/Core/Include/cmsis_gcc.h" 1
 1437 0008 83F31188 		MSR basepri, r3
 1438              	@ 0 "" 2
 1439              	.LVL80:
 1440              		.loc 5 493 3 is_stmt 0 view .LVU490
 1441              		.thumb
 1442              		.syntax unified
 1443              	.LBE263:
 1444              	.LBE262:
 1445              	.LBE264:
 1446              		.loc 3 356 3 is_stmt 1 view .LVU491
 1447 000c FFF7FEFF 		bl	_stats_start_measure_crit_thd
 1448              	.LVL81:
 1449              		.loc 3 357 20 view .LVU492
 1450              	.LBE265:
 1451              	.LBE266:
 1452              		.loc 2 528 3 view .LVU493
 1453              		.loc 2 528 6 is_stmt 0 view .LVU494
 1454 0010 A36B     		ldr	r3, [r4, #56]
 1455 0012 C3B1     		cbz	r3, .L51
 1456              	.LBB267:
 1457              		.loc 2 544 17 view .LVU495
 1458 0014 0025     		movs	r5, #0
 1459              	.LBB268:
 1460              		.loc 2 534 17 view .LVU496
 1461 0016 0126     		movs	r6, #1
 1462              	.L54:
 1463              	.LBE268:
 1464              	.LBE267:
 1465              		.loc 2 529 5 is_stmt 1 view .LVU497
 1466              	.LBB282:
 1467              		.loc 2 530 7 view .LVU498
 1468              		.loc 2 530 16 is_stmt 0 view .LVU499
 1469 0018 A36B     		ldr	r3, [r4, #56]
 1470              	.LVL82:
 1471              		.loc 2 531 7 is_stmt 1 view .LVU500
 1472              	.LBB273:
 1473              	.LBB274:
 1474              	.LBB275:
 1475              	.LBB276:
 1476              		.loc 1 566 20 is_stmt 0 view .LVU501
 1477 001a 1868     		ldr	r0, [r3]
 1478              	.LBE276:
 1479              	.LBE275:
 1480              	.LBE274:
 1481              	.LBE273:
 1482              		.loc 2 531 20 view .LVU502
ARM GAS  /tmp/ccfazetK.s 			page 27


 1483 001c DA68     		ldr	r2, [r3, #12]
 1484              		.loc 2 532 10 view .LVU503
 1485 001e 8342     		cmp	r3, r0
 1486              		.loc 2 531 20 view .LVU504
 1487 0020 A263     		str	r2, [r4, #56]
 1488              		.loc 2 532 7 is_stmt 1 view .LVU505
 1489              	.LVL83:
 1490              	.LBB280:
 1491              	.LBI273:
 1492              		.loc 6 128 20 view .LVU506
 1493              	.LBB279:
 1494              		.loc 6 130 21 view .LVU507
 1495              		.loc 6 132 3 view .LVU508
 1496              	.LBB278:
 1497              	.LBI275:
 1498              		.loc 1 564 20 view .LVU509
 1499              	.LBB277:
 1500              		.loc 1 566 3 view .LVU510
 1501              		.loc 1 566 3 is_stmt 0 view .LVU511
 1502              	.LBE277:
 1503              	.LBE278:
 1504              	.LBE279:
 1505              	.LBE280:
 1506              		.loc 2 532 10 view .LVU512
 1507 0022 16D0     		beq	.L52
 1508              	.LBB281:
 1509              		.loc 2 534 9 is_stmt 1 view .LVU513
 1510              	.LBB269:
 1511              	.LBB270:
 1512              		.loc 1 609 36 is_stmt 0 view .LVU514
 1513 0024 0268     		ldr	r2, [r0]
 1514              	.LBE270:
 1515              	.LBE269:
 1516              		.loc 2 534 17 view .LVU515
 1517 0026 1E61     		str	r6, [r3, #16]
 1518              		.loc 2 536 9 is_stmt 1 view .LVU516
 1519              	.LVL84:
 1520              	.LBB272:
 1521              	.LBI269:
 1522              		.loc 1 606 25 view .LVU517
 1523              	.LBB271:
 1524              		.loc 1 607 3 view .LVU518
 1525              		.loc 1 609 3 view .LVU519
 1526              		.loc 1 609 25 is_stmt 0 view .LVU520
 1527 0028 1A60     		str	r2, [r3]
 1528              		.loc 1 610 3 is_stmt 1 view .LVU521
 1529              		.loc 1 610 25 is_stmt 0 view .LVU522
 1530 002a 5360     		str	r3, [r2, #4]
 1531              		.loc 1 612 3 is_stmt 1 view .LVU523
 1532              	.LVL85:
 1533              		.loc 1 612 3 is_stmt 0 view .LVU524
 1534              	.LBE271:
 1535              	.LBE272:
 1536              		.loc 2 537 9 is_stmt 1 view .LVU525
 1537              		.loc 2 538 18 is_stmt 0 view .LVU526
 1538 002c 826B     		ldr	r2, [r0, #56]
 1539              		.loc 2 537 19 view .LVU527
ARM GAS  /tmp/ccfazetK.s 			page 28


 1540 002e 9860     		str	r0, [r3, #8]
 1541              		.loc 2 538 9 is_stmt 1 view .LVU528
 1542              		.loc 2 538 18 is_stmt 0 view .LVU529
 1543 0030 DA60     		str	r2, [r3, #12]
 1544              		.loc 2 539 9 is_stmt 1 view .LVU530
 1545              		.loc 2 539 21 is_stmt 0 view .LVU531
 1546 0032 8363     		str	r3, [r0, #56]
 1547              		.loc 2 540 9 is_stmt 1 view .LVU532
 1548              		.loc 2 540 16 is_stmt 0 view .LVU533
 1549 0034 FFF7FEFF 		bl	chSchReadyI
 1550              	.LVL86:
 1551              	.L53:
 1552              		.loc 2 540 16 view .LVU534
 1553              	.LBE281:
 1554              	.LBE282:
 1555              		.loc 2 548 13 is_stmt 1 view .LVU535
 1556              		.loc 2 548 5 is_stmt 0 view .LVU536
 1557 0038 A36B     		ldr	r3, [r4, #56]
 1558 003a 002B     		cmp	r3, #0
 1559 003c ECD1     		bne	.L54
 1560              		.loc 2 549 5 is_stmt 1 view .LVU537
 1561              		.loc 2 549 15 is_stmt 0 view .LVU538
 1562 003e E36B     		ldr	r3, [r4, #60]
 1563 0040 A360     		str	r3, [r4, #8]
 1564              		.loc 2 550 5 is_stmt 1 view .LVU539
 1565 0042 FFF7FEFF 		bl	chSchRescheduleS
 1566              	.LVL87:
 1567              	.L51:
 1568              		.loc 2 552 3 view .LVU540
 1569              	.LBB283:
 1570              	.LBI283:
 1571              		.loc 3 365 20 view .LVU541
 1572              	.LBB284:
 1573              		.loc 3 367 22 view .LVU542
 1574              		.loc 3 368 3 view .LVU543
 1575 0046 FFF7FEFF 		bl	_stats_stop_measure_crit_thd
 1576              	.LVL88:
 1577              		.loc 3 374 3 view .LVU544
 1578              		.loc 3 374 3 view .LVU545
 1579              		.loc 3 374 3 view .LVU546
 1580              		.loc 3 378 3 view .LVU547
 1581              	.LBB285:
 1582              	.LBI285:
 1583              		.loc 4 626 20 view .LVU548
 1584              	.LBE285:
 1585              	.LBE284:
 1586              	.LBE283:
 1587              		.loc 4 629 3 view .LVU549
 1588              	.LBB290:
 1589              	.LBB289:
 1590              	.LBB288:
 1591              	.LBB286:
 1592              	.LBI286:
 1593              		.loc 5 491 27 view .LVU550
 1594              	.LBB287:
 1595              		.loc 5 493 3 view .LVU551
 1596 004a 0023     		movs	r3, #0
ARM GAS  /tmp/ccfazetK.s 			page 29


 1597              		.syntax unified
 1598              	@ 493 "../../modules/ChibiOS/os/common/ext/ARM/CMSIS/Core/Include/cmsis_gcc.h" 1
 1599 004c 83F31188 		MSR basepri, r3
 1600              	@ 0 "" 2
 1601              	.LVL89:
 1602              		.loc 5 493 3 is_stmt 0 view .LVU552
 1603              		.thumb
 1604              		.syntax unified
 1605              	.LBE287:
 1606              	.LBE286:
 1607              	.LBE288:
 1608              	.LBE289:
 1609              	.LBE290:
 1610              		.loc 2 553 1 view .LVU553
 1611 0050 70BD     		pop	{r4, r5, r6, pc}
 1612              	.LVL90:
 1613              	.L52:
 1614              	.LBB291:
 1615              		.loc 2 544 9 is_stmt 1 view .LVU554
 1616              		.loc 2 544 17 is_stmt 0 view .LVU555
 1617 0052 1D61     		str	r5, [r3, #16]
 1618              		.loc 2 546 9 is_stmt 1 view .LVU556
 1619              		.loc 2 546 19 is_stmt 0 view .LVU557
 1620 0054 9D60     		str	r5, [r3, #8]
 1621 0056 EFE7     		b	.L53
 1622              	.L60:
 1623              		.align	2
 1624              	.L59:
 1625 0058 00000000 		.word	ch
 1626              	.LBE291:
 1627              		.cfi_endproc
 1628              	.LFE309:
 1629              		.size	chMtxUnlockAll, .-chMtxUnlockAll
 1630              		.text
 1631              	.Letext0:
 1632              		.file 7 "/opt/gcc-arm-none-eabi-10-2020-q4-major/arm-none-eabi/include/machine/_default_types.h"
 1633              		.file 8 "/opt/gcc-arm-none-eabi-10-2020-q4-major/arm-none-eabi/include/sys/_stdint.h"
 1634              		.file 9 "../../modules/ChibiOS/os/common/ports/ARMCMx/compilers/GCC/chtypes.h"
 1635              		.file 10 "../../modules/ChibiOS/os/rt/include/chsystypes.h"
 1636              		.file 11 "../../modules/ChibiOS/os/rt/include/chtime.h"
 1637              		.file 12 "../../modules/ChibiOS/os/common/ports/ARMCMx/chcore.h"
 1638              		.file 13 "../../modules/ChibiOS/os/rt/include/chtm.h"
 1639              		.file 14 "../../modules/ChibiOS/os/rt/include/chstats.h"
 1640              		.file 15 "../../modules/ChibiOS/os/rt/include/chsem.h"