ARM GAS  /tmp/ccBYr15j.s 			page 1


   1              		.cpu cortex-m7
   2              		.eabi_attribute 27, 1
   3              		.eabi_attribute 28, 1
   4              		.eabi_attribute 20, 1
   5              		.eabi_attribute 21, 1
   6              		.eabi_attribute 23, 3
   7              		.eabi_attribute 24, 1
   8              		.eabi_attribute 25, 1
   9              		.eabi_attribute 26, 1
  10              		.eabi_attribute 30, 4
  11              		.eabi_attribute 34, 1
  12              		.eabi_attribute 18, 4
  13              		.file	"chprintf.c"
  14              		.text
  15              	.Ltext0:
  16              		.cfi_sections	.debug_frame
  17              		.section	.text.long_to_string_with_divisor,"ax",%progbits
  18              		.align	1
  19              		.arch armv7e-m
  20              		.syntax unified
  21              		.thumb
  22              		.thumb_func
  23              		.fpu fpv4-sp-d16
  24              		.type	long_to_string_with_divisor, %function
  25              	long_to_string_with_divisor:
  26              	.LVL0:
  27              	.LFB334:
  28              		.file 1 "../../modules/ChibiOS/os/hal/lib/streams/chprintf.c"
  29              		.loc 1 41 56 view -0
  30              		.cfi_startproc
  31              		@ args = 0, pretend = 0, frame = 0
  32              		@ frame_needed = 0, uses_anonymous_args = 0
  33              		.loc 1 42 3 view .LVU1
  34              		.loc 1 43 3 view .LVU2
  35              		.loc 1 44 3 view .LVU3
  36              		.loc 1 46 3 view .LVU4
  37              		.loc 1 47 3 view .LVU5
  38              		.loc 1 41 56 is_stmt 0 view .LVU6
  39 0000 F0B5     		push	{r4, r5, r6, r7, lr}
  40              		.cfi_def_cfa_offset 20
  41              		.cfi_offset 4, -20
  42              		.cfi_offset 5, -16
  43              		.cfi_offset 6, -12
  44              		.cfi_offset 7, -8
  45              		.cfi_offset 14, -4
  46              		.loc 1 53 5 view .LVU7
  47 0002 00F10B04 		add	r4, r0, #11
  48              		.loc 1 48 8 view .LVU8
  49 0006 002B     		cmp	r3, #0
  50 0008 14BF     		ite	ne
  51 000a 1D46     		movne	r5, r3
  52 000c 0D46     		moveq	r5, r1
  53              	.LVL1:
  54              		.loc 1 53 3 is_stmt 1 view .LVU9
  55              		.loc 1 53 5 is_stmt 0 view .LVU10
  56 000e 2346     		mov	r3, r4
  57              	.LVL2:
ARM GAS  /tmp/ccBYr15j.s 			page 2


  58              	.L4:
  59              		.loc 1 54 3 is_stmt 1 view .LVU11
  60              		.loc 1 55 5 view .LVU12
  61              		.loc 1 55 17 is_stmt 0 view .LVU13
  62 0010 B1FBF2F7 		udiv	r7, r1, r2
  63 0014 02FB1711 		mls	r1, r2, r7, r1
  64              	.LVL3:
  65              		.loc 1 56 5 is_stmt 1 view .LVU14
  66              		.loc 1 56 7 is_stmt 0 view .LVU15
  67 0018 01F13006 		add	r6, r1, #48
  68              	.LVL4:
  69              		.loc 1 57 5 is_stmt 1 view .LVU16
  70              		.loc 1 57 8 is_stmt 0 view .LVU17
  71 001c 392E     		cmp	r6, #57
  72              		.loc 1 58 7 is_stmt 1 view .LVU18
  73              		.loc 1 58 9 is_stmt 0 view .LVU19
  74 001e C8BF     		it	gt
  75 0020 01F13706 		addgt	r6, r1, #55
  76              	.LVL5:
  77              		.loc 1 59 5 is_stmt 1 view .LVU20
  78              		.loc 1 60 7 is_stmt 0 view .LVU21
  79 0024 3946     		mov	r1, r7
  80              		.loc 1 59 10 view .LVU22
  81 0026 03F8016D 		strb	r6, [r3, #-1]!
  82              	.LVL6:
  83              		.loc 1 60 5 is_stmt 1 view .LVU23
  84              		.loc 1 61 11 view .LVU24
  85              		.loc 1 61 16 is_stmt 0 view .LVU25
  86 002a 2E46     		mov	r6, r5
  87              	.LVL7:
  88              		.loc 1 61 3 view .LVU26
  89 002c 9642     		cmp	r6, r2
  90              		.loc 1 61 16 view .LVU27
  91 002e B5FBF2F5 		udiv	r5, r5, r2
  92              	.LVL8:
  93              		.loc 1 61 3 view .LVU28
  94 0032 EDD2     		bcs	.L4
  95              		.loc 1 63 3 is_stmt 1 view .LVU29
  96              	.LVL9:
  97              		.loc 1 63 3 is_stmt 0 view .LVU30
  98 0034 421E     		subs	r2, r0, #1
  99              	.LVL10:
 100              		.loc 1 63 5 view .LVU31
 101 0036 E11A     		subs	r1, r4, r3
 102              	.LVL11:
 103              	.L5:
 104              		.loc 1 64 3 is_stmt 1 discriminator 1 view .LVU32
 105              		.loc 1 65 5 discriminator 1 view .LVU33
 106              		.loc 1 65 12 is_stmt 0 discriminator 1 view .LVU34
 107 0038 13F8015B 		ldrb	r5, [r3], #1	@ zero_extendqisi2
 108              	.LVL12:
 109              		.loc 1 66 3 discriminator 1 view .LVU35
 110 003c A342     		cmp	r3, r4
 111              		.loc 1 65 10 discriminator 1 view .LVU36
 112 003e 02F8015F 		strb	r5, [r2, #1]!
 113              		.loc 1 66 9 is_stmt 1 discriminator 1 view .LVU37
 114              		.loc 1 66 3 is_stmt 0 discriminator 1 view .LVU38
ARM GAS  /tmp/ccBYr15j.s 			page 3


 115 0042 F9D1     		bne	.L5
 116              		.loc 1 68 3 is_stmt 1 view .LVU39
 117              		.loc 1 69 1 is_stmt 0 view .LVU40
 118 0044 0844     		add	r0, r0, r1
 119 0046 F0BD     		pop	{r4, r5, r6, r7, pc}
 120              		.loc 1 69 1 view .LVU41
 121              		.cfi_endproc
 122              	.LFE334:
 123              		.size	long_to_string_with_divisor, .-long_to_string_with_divisor
 124              		.section	.rodata.chvprintf.str1.1,"aMS",%progbits,1
 125              	.LC0:
 126 0000 286E756C 		.ascii	"(null)\000"
 126      6C2900
 127              		.global	__aeabi_d2f
 128              		.global	__aeabi_f2d
 129              		.global	__aeabi_i2d
 130              		.global	__aeabi_dsub
 131              		.global	__aeabi_ui2d
 132              		.global	__aeabi_dmul
 133              		.global	__aeabi_d2iz
 134              		.section	.text.chvprintf,"ax",%progbits
 135              		.align	1
 136              		.global	chvprintf
 137              		.syntax unified
 138              		.thumb
 139              		.thumb_func
 140              		.fpu fpv4-sp-d16
 141              		.type	chvprintf, %function
 142              	chvprintf:
 143              	.LVL13:
 144              	.LFB337:
 145              		.loc 1 122 71 is_stmt 1 view -0
 146              		.cfi_startproc
 147              		@ args = 0, pretend = 0, frame = 40
 148              		@ frame_needed = 0, uses_anonymous_args = 0
 149              		.loc 1 122 71 is_stmt 0 view .LVU43
 150 0000 2DE9F04F 		push	{r4, r5, r6, r7, r8, r9, r10, fp, lr}
 151              		.cfi_def_cfa_offset 36
 152              		.cfi_offset 4, -36
 153              		.cfi_offset 5, -32
 154              		.cfi_offset 6, -28
 155              		.cfi_offset 7, -24
 156              		.cfi_offset 8, -20
 157              		.cfi_offset 9, -16
 158              		.cfi_offset 10, -12
 159              		.cfi_offset 11, -8
 160              		.cfi_offset 14, -4
 161 0004 0646     		mov	r6, r0
 162 0006 9046     		mov	r8, r2
 163              	.LVL14:
 164              		.loc 1 123 3 is_stmt 1 view .LVU44
 165              		.loc 1 124 3 view .LVU45
 166              		.loc 1 125 3 view .LVU46
 167              		.loc 1 125 7 is_stmt 0 view .LVU47
 168 0008 0027     		movs	r7, #0
 169              		.loc 1 122 71 view .LVU48
 170 000a 2DED048B 		vpush.64	{d8, d9}
ARM GAS  /tmp/ccBYr15j.s 			page 4


 171              		.cfi_def_cfa_offset 52
 172              		.cfi_offset 80, -52
 173              		.cfi_offset 81, -48
 174              		.cfi_offset 82, -44
 175              		.cfi_offset 83, -40
 176 000e 8BB0     		sub	sp, sp, #44
 177              		.cfi_def_cfa_offset 96
 178              	.LVL15:
 179              	.L10:
 180              		.loc 1 126 3 is_stmt 1 view .LVU49
 181              		.loc 1 127 3 view .LVU50
 182              		.loc 1 129 3 view .LVU51
 183              		.loc 1 130 3 view .LVU52
 184              		.loc 1 135 3 view .LVU53
 185              		.loc 1 136 5 view .LVU54
 186              		.loc 1 136 13 is_stmt 0 view .LVU55
 187 0010 0D46     		mov	r5, r1
 188              	.LVL16:
 189              		.loc 1 136 7 view .LVU56
 190 0012 15F8013B 		ldrb	r3, [r5], #1	@ zero_extendqisi2
 191              	.LVL17:
 192              		.loc 1 137 5 is_stmt 1 view .LVU57
 193              		.loc 1 137 8 is_stmt 0 view .LVU58
 194 0016 002B     		cmp	r3, #0
 195 0018 00F0D981 		beq	.L96
 196              		.loc 1 139 5 is_stmt 1 view .LVU59
 197              		.loc 1 139 8 is_stmt 0 view .LVU60
 198 001c 252B     		cmp	r3, #37
 199 001e 06D0     		beq	.L12
 200              		.loc 1 140 7 is_stmt 1 view .LVU61
 201 0020 3268     		ldr	r2, [r6]
 202              	.LVL18:
 203              		.loc 1 140 7 is_stmt 0 view .LVU62
 204 0022 1946     		mov	r1, r3
 205 0024 3046     		mov	r0, r6
 206              		.loc 1 141 8 view .LVU63
 207 0026 0137     		adds	r7, r7, #1
 208              	.LVL19:
 209              		.loc 1 140 7 view .LVU64
 210 0028 D268     		ldr	r2, [r2, #12]
 211 002a 9047     		blx	r2
 212              	.LVL20:
 213              		.loc 1 141 7 is_stmt 1 view .LVU65
 214              		.loc 1 142 7 view .LVU66
 215 002c 88E1     		b	.L13
 216              	.LVL21:
 217              	.L12:
 218              		.loc 1 144 5 view .LVU67
 219              		.loc 1 145 5 view .LVU68
 220              		.loc 1 146 5 view .LVU69
 221              		.loc 1 147 5 view .LVU70
 222              		.loc 1 147 8 is_stmt 0 view .LVU71
 223 002e 4B78     		ldrb	r3, [r1, #1]	@ zero_extendqisi2
 224              	.LVL22:
 225              		.loc 1 147 8 view .LVU72
 226 0030 2D2B     		cmp	r3, #45
 227              		.loc 1 148 7 is_stmt 1 view .LVU73
ARM GAS  /tmp/ccBYr15j.s 			page 5


 228              		.loc 1 148 10 is_stmt 0 view .LVU74
 229 0032 06BF     		itte	eq
 230 0034 8D1C     		addeq	r5, r1, #2
 231              	.LVL23:
 232              		.loc 1 149 7 is_stmt 1 view .LVU75
 233              		.loc 1 149 18 is_stmt 0 view .LVU76
 234 0036 0123     		moveq	r3, #1
 235              		.loc 1 146 16 view .LVU77
 236 0038 0023     		movne	r3, #0
 237              		.loc 1 152 9 view .LVU78
 238 003a 95F800A0 		ldrb	r10, [r5]	@ zero_extendqisi2
 239              		.loc 1 146 16 view .LVU79
 240 003e 0293     		str	r3, [sp, #8]
 241              	.LVL24:
 242              		.loc 1 151 5 is_stmt 1 view .LVU80
 243              		.loc 1 152 5 view .LVU81
 244              		.loc 1 156 11 is_stmt 0 view .LVU82
 245 0040 0023     		movs	r3, #0
 246              		.loc 1 152 8 view .LVU83
 247 0042 BAF1300F 		cmp	r10, #48
 248              		.loc 1 153 10 view .LVU84
 249 0046 0CBF     		ite	eq
 250 0048 0135     		addeq	r5, r5, #1
 251              	.LVL25:
 252              		.loc 1 151 12 view .LVU85
 253 004a 4FF0200A 		movne	r10, #32
 254              	.LVL26:
 255              		.loc 1 156 5 is_stmt 1 view .LVU86
 256              	.L100:
 257              		.loc 1 156 11 is_stmt 0 view .LVU87
 258 004e 0193     		str	r3, [sp, #4]
 259              	.LVL27:
 260              		.loc 1 157 5 is_stmt 1 view .LVU88
 261              		.loc 1 158 7 view .LVU89
 262              		.loc 1 158 9 is_stmt 0 view .LVU90
 263 0050 15F8013B 		ldrb	r3, [r5], #1	@ zero_extendqisi2
 264              	.LVL28:
 265              		.loc 1 159 7 is_stmt 1 view .LVU91
 266              		.loc 1 159 20 is_stmt 0 view .LVU92
 267 0054 A3F13001 		sub	r1, r3, #48
 268 0058 C9B2     		uxtb	r1, r1
 269              		.loc 1 159 10 view .LVU93
 270 005a 0929     		cmp	r1, #9
 271 005c 04D9     		bls	.L16
 272              		.loc 1 161 12 is_stmt 1 view .LVU94
 273              		.loc 1 161 15 is_stmt 0 view .LVU95
 274 005e 2A2B     		cmp	r3, #42
 275 0060 07D1     		bne	.L17
 276              		.loc 1 162 9 is_stmt 1 view .LVU96
 277              	.LVL29:
 278              		.loc 1 162 11 is_stmt 0 view .LVU97
 279 0062 58F8041B 		ldr	r1, [r8], #4
 280              	.LVL30:
 281              		.loc 1 162 11 view .LVU98
 282 0066 C9B2     		uxtb	r1, r1
 283              	.LVL31:
 284              	.L16:
ARM GAS  /tmp/ccBYr15j.s 			page 6


 285              		.loc 1 165 7 is_stmt 1 view .LVU99
 286              		.loc 1 165 13 is_stmt 0 view .LVU100
 287 0068 019B     		ldr	r3, [sp, #4]
 288 006a 0A22     		movs	r2, #10
 289              	.LVL32:
 290              		.loc 1 165 13 view .LVU101
 291 006c 02FB0313 		mla	r3, r2, r3, r1
 292 0070 EDE7     		b	.L100
 293              	.LVL33:
 294              	.L17:
 295              		.loc 1 167 5 is_stmt 1 view .LVU102
 296              		.loc 1 168 5 view .LVU103
 297              		.loc 1 168 8 is_stmt 0 view .LVU104
 298 0072 2E2B     		cmp	r3, #46
 299              		.loc 1 167 15 view .LVU105
 300 0074 4FF0000B 		mov	fp, #0
 301              		.loc 1 168 8 view .LVU106
 302 0078 0FD1     		bne	.L19
 303              	.LVL34:
 304              	.L21:
 305              		.loc 1 169 7 is_stmt 1 view .LVU107
 306              		.loc 1 170 9 view .LVU108
 307              		.loc 1 170 11 is_stmt 0 view .LVU109
 308 007a 15F8013B 		ldrb	r3, [r5], #1	@ zero_extendqisi2
 309              	.LVL35:
 310              		.loc 1 171 9 is_stmt 1 view .LVU110
 311              		.loc 1 171 22 is_stmt 0 view .LVU111
 312 007e A3F13001 		sub	r1, r3, #48
 313 0082 C9B2     		uxtb	r1, r1
 314              		.loc 1 171 12 view .LVU112
 315 0084 0929     		cmp	r1, #9
 316 0086 04D9     		bls	.L20
 317              		.loc 1 173 14 is_stmt 1 view .LVU113
 318              		.loc 1 173 17 is_stmt 0 view .LVU114
 319 0088 2A2B     		cmp	r3, #42
 320 008a 06D1     		bne	.L19
 321              		.loc 1 174 11 is_stmt 1 view .LVU115
 322              	.LVL36:
 323              		.loc 1 174 13 is_stmt 0 view .LVU116
 324 008c 58F8041B 		ldr	r1, [r8], #4
 325              	.LVL37:
 326              		.loc 1 174 13 view .LVU117
 327 0090 C9B2     		uxtb	r1, r1
 328              	.LVL38:
 329              	.L20:
 330              		.loc 1 177 9 is_stmt 1 view .LVU118
 331              		.loc 1 178 9 view .LVU119
 332              		.loc 1 178 19 is_stmt 0 view .LVU120
 333 0092 0A23     		movs	r3, #10
 334 0094 03FB0B1B 		mla	fp, r3, fp, r1
 335              	.LVL39:
 336              		.loc 1 169 13 is_stmt 1 view .LVU121
 337              		.loc 1 170 11 is_stmt 0 view .LVU122
 338 0098 EFE7     		b	.L21
 339              	.LVL40:
 340              	.L19:
 341              		.loc 1 182 5 is_stmt 1 view .LVU123
ARM GAS  /tmp/ccBYr15j.s 			page 7


 342              		.loc 1 182 18 is_stmt 0 view .LVU124
 343 009a 03F0DF02 		and	r2, r3, #223
 344              	.LVL41:
 345              		.loc 1 182 18 view .LVU125
 346 009e 4C2A     		cmp	r2, #76
 347 00a0 16D1     		bne	.L22
 348              	.LVL42:
 349              		.loc 1 183 7 is_stmt 1 view .LVU126
 350              		.loc 1 184 7 view .LVU127
 351              		.loc 1 184 11 is_stmt 0 view .LVU128
 352 00a2 2A78     		ldrb	r2, [r5]	@ zero_extendqisi2
 353              		.loc 1 184 10 view .LVU129
 354 00a4 22B1     		cbz	r2, .L23
 355              		.loc 1 191 5 view .LVU130
 356 00a6 782A     		cmp	r2, #120
 357              		.loc 1 185 17 view .LVU131
 358 00a8 05F10105 		add	r5, r5, #1
 359              	.LVL43:
 360              		.loc 1 191 5 is_stmt 1 view .LVU132
 361 00ac 1346     		mov	r3, r2
 362 00ae 1ED8     		bhi	.L24
 363              	.LVL44:
 364              	.L23:
 365              		.loc 1 191 5 is_stmt 0 view .LVU133
 366 00b0 622B     		cmp	r3, #98
 367 00b2 00F25381 		bhi	.L58
 368              		.loc 1 191 5 view .LVU134
 369 00b6 552B     		cmp	r3, #85
 370 00b8 00F04E81 		beq	.L77
 371 00bc 00F28281 		bhi	.L59
 372 00c0 492B     		cmp	r3, #73
 373 00c2 7BD0     		beq	.L41
 374 00c4 4F2B     		cmp	r3, #79
 375 00c6 00F02581 		beq	.L76
 376 00ca 442B     		cmp	r3, #68
 377 00cc 76D0     		beq	.L41
 378 00ce 0EE0     		b	.L24
 379              	.LVL45:
 380              	.L22:
 381              		.loc 1 188 7 is_stmt 1 view .LVU135
 382              		.loc 1 188 28 is_stmt 0 view .LVU136
 383 00d0 A3F14100 		sub	r0, r3, #65
 384              		.loc 1 191 5 view .LVU137
 385 00d4 782B     		cmp	r3, #120
 386              		.loc 1 188 28 view .LVU138
 387 00d6 C0B2     		uxtb	r0, r0
 388              	.LVL46:
 389              		.loc 1 191 5 is_stmt 1 view .LVU139
 390 00d8 09D8     		bhi	.L24
 391 00da 622B     		cmp	r3, #98
 392 00dc 0BD8     		bhi	.L25
 393 00de 4F2B     		cmp	r3, #79
 394 00e0 00F00A81 		beq	.L66
 395 00e4 3AD8     		bhi	.L27
 396 00e6 442B     		cmp	r3, #68
 397 00e8 64D0     		beq	.L28
 398 00ea 492B     		cmp	r3, #73
ARM GAS  /tmp/ccBYr15j.s 			page 8


 399 00ec 62D0     		beq	.L28
 400              	.LVL47:
 401              	.L24:
 402              		.loc 1 248 7 view .LVU140
 403              		.loc 1 249 7 is_stmt 0 view .LVU141
 404 00ee 4446     		mov	r4, r8
 405              		.loc 1 248 12 view .LVU142
 406 00f0 8DF81030 		strb	r3, [sp, #16]
 407              		.loc 1 249 7 is_stmt 1 view .LVU143
 408 00f4 40E0     		b	.L102
 409              	.LVL48:
 410              	.L25:
 411              		.loc 1 249 7 is_stmt 0 view .LVU144
 412 00f6 A3F16302 		sub	r2, r3, #99
 413 00fa 152A     		cmp	r2, #21
 414 00fc F7D8     		bhi	.L24
 415 00fe 01A1     		adr	r1, .L29
 416 0100 51F822F0 		ldr	pc, [r1, r2, lsl #2]
 417              		.p2align 2
 418              	.L29:
 419 0104 6B010000 		.word	.L34+1
 420 0108 B5010000 		.word	.L28+1
 421 010c EF000000 		.word	.L24+1
 422 0110 47020000 		.word	.L33+1
 423 0114 EF000000 		.word	.L24+1
 424 0118 EF000000 		.word	.L24+1
 425 011c B5010000 		.word	.L28+1
 426 0120 EF000000 		.word	.L24+1
 427 0124 EF000000 		.word	.L24+1
 428 0128 EF000000 		.word	.L24+1
 429 012c EF000000 		.word	.L24+1
 430 0130 EF000000 		.word	.L24+1
 431 0134 F9020000 		.word	.L66+1
 432 0138 EF000000 		.word	.L24+1
 433 013c EF000000 		.word	.L24+1
 434 0140 EF000000 		.word	.L24+1
 435 0144 83010000 		.word	.L31+1
 436 0148 EF000000 		.word	.L24+1
 437 014c 11030000 		.word	.L68+1
 438 0150 EF000000 		.word	.L24+1
 439 0154 EF000000 		.word	.L24+1
 440 0158 67010000 		.word	.L69+1
 441              		.p2align 1
 442              	.L27:
 443              		.loc 1 191 5 view .LVU145
 444 015c 552B     		cmp	r3, #85
 445 015e 00F0D780 		beq	.L68
 446 0162 582B     		cmp	r3, #88
 447 0164 C3D1     		bne	.L24
 448              	.L69:
 449              		.loc 1 191 5 view .LVU146
 450 0166 1022     		movs	r2, #16
 451 0168 C7E0     		b	.L26
 452              	.LVL49:
 453              	.L34:
 454              		.loc 1 193 7 is_stmt 1 view .LVU147
 455              		.loc 1 194 7 view .LVU148
ARM GAS  /tmp/ccBYr15j.s 			page 9


 456              		.loc 1 194 14 is_stmt 0 view .LVU149
 457 016a 4446     		mov	r4, r8
 458              	.LVL50:
 459              		.loc 1 193 14 view .LVU150
 460 016c 4FF0200A 		mov	r10, #32
 461              		.loc 1 194 12 view .LVU151
 462 0170 54F8043B 		ldr	r3, [r4], #4
 463              	.LVL51:
 464              		.loc 1 194 12 view .LVU152
 465 0174 8DF81030 		strb	r3, [sp, #16]
 466              		.loc 1 195 7 is_stmt 1 view .LVU153
 467              	.LVL52:
 468              	.L102:
 469              		.loc 1 145 7 is_stmt 0 view .LVU154
 470 0178 0DF11009 		add	r9, sp, #16
 471              	.LVL53:
 472              		.loc 1 248 9 view .LVU155
 473 017c 0DF11100 		add	r0, sp, #17
 474              	.LVL54:
 475              		.loc 1 249 7 view .LVU156
 476 0180 30E0     		b	.L35
 477              	.LVL55:
 478              	.L31:
 479              		.loc 1 197 7 is_stmt 1 view .LVU157
 480              		.loc 1 198 7 view .LVU158
 481              		.loc 1 198 14 is_stmt 0 view .LVU159
 482 0182 4446     		mov	r4, r8
 483              	.LVL56:
 484              		.loc 1 199 11 view .LVU160
 485 0184 954B     		ldr	r3, .L103
 486              	.LVL57:
 487              		.loc 1 198 14 view .LVU161
 488 0186 54F8049B 		ldr	r9, [r4], #4
 489              	.LVL58:
 490              		.loc 1 199 11 view .LVU162
 491 018a B9F1000F 		cmp	r9, #0
 492 018e 08BF     		it	eq
 493 0190 9946     		moveq	r9, r3
 494              	.LVL59:
 495              		.loc 1 200 7 is_stmt 1 view .LVU163
 496              		.loc 1 201 19 is_stmt 0 view .LVU164
 497 0192 47F6FF73 		movw	r3, #32767
 498 0196 BBF1000F 		cmp	fp, #0
 499 019a 08BF     		it	eq
 500 019c 9B46     		moveq	fp, r3
 501 019e 4846     		mov	r0, r9
 502 01a0 CB44     		add	fp, fp, r9
 503              	.LVL60:
 504              	.L38:
 505              		.loc 1 202 19 is_stmt 1 discriminator 1 view .LVU165
 506              		.loc 1 202 7 is_stmt 0 discriminator 1 view .LVU166
 507 01a2 0378     		ldrb	r3, [r0]	@ zero_extendqisi2
 508 01a4 0BB1     		cbz	r3, .L70
 509              		.loc 1 202 22 discriminator 3 view .LVU167
 510 01a6 5845     		cmp	r0, fp
 511 01a8 02D1     		bne	.L39
 512              	.L70:
ARM GAS  /tmp/ccBYr15j.s 			page 10


 513              		.loc 1 197 14 view .LVU168
 514 01aa 4FF0200A 		mov	r10, #32
 515 01ae 19E0     		b	.L35
 516              	.L39:
 517              		.loc 1 203 9 is_stmt 1 discriminator 4 view .LVU169
 518              		.loc 1 202 45 discriminator 4 view .LVU170
 519              		.loc 1 202 46 is_stmt 0 discriminator 4 view .LVU171
 520 01b0 0130     		adds	r0, r0, #1
 521              	.LVL61:
 522              		.loc 1 202 46 discriminator 4 view .LVU172
 523 01b2 F6E7     		b	.L38
 524              	.LVL62:
 525              	.L28:
 526              		.loc 1 209 7 is_stmt 1 view .LVU173
 527              		.loc 1 209 10 is_stmt 0 view .LVU174
 528 01b4 1928     		cmp	r0, #25
 529              		.loc 1 212 11 view .LVU175
 530 01b6 08F10404 		add	r4, r8, #4
 531              		.loc 1 209 10 view .LVU176
 532 01ba 41D8     		bhi	.L40
 533              	.LVL63:
 534              	.L41:
 535              		.loc 1 210 9 is_stmt 1 view .LVU177
 536              		.loc 1 210 11 is_stmt 0 view .LVU178
 537 01bc 4446     		mov	r4, r8
 538              	.LVL64:
 539              		.loc 1 210 11 view .LVU179
 540 01be 54F8041B 		ldr	r1, [r4], #4
 541              	.LVL65:
 542              	.L42:
 543              		.loc 1 213 7 is_stmt 1 view .LVU180
 544              		.loc 1 214 9 view .LVU181
 545              		.loc 1 213 10 is_stmt 0 view .LVU182
 546 01c2 0029     		cmp	r1, #0
 547              	.LBB8:
 548              	.LBB9:
 549              		.loc 1 73 10 view .LVU183
 550 01c4 4FF00A02 		mov	r2, #10
 551              	.LBE9:
 552              	.LBE8:
 553              		.loc 1 214 14 view .LVU184
 554 01c8 BDBF     		ittte	lt
 555 01ca 2D23     		movlt	r3, #45
 556              	.LVL66:
 557              		.loc 1 215 11 view .LVU185
 558 01cc 4942     		rsblt	r1, r1, #0
 559              	.LVL67:
 560              		.loc 1 214 11 view .LVU186
 561 01ce 0DF11100 		addlt	r0, sp, #17
 562              		.loc 1 144 7 view .LVU187
 563 01d2 04A8     		addge	r0, sp, #16
 564              		.loc 1 214 14 view .LVU188
 565 01d4 B8BF     		it	lt
 566 01d6 8DF81030 		strblt	r3, [sp, #16]
 567              		.loc 1 215 9 is_stmt 1 view .LVU189
 568              	.LVL68:
 569              		.loc 1 217 7 view .LVU190
ARM GAS  /tmp/ccBYr15j.s 			page 11


 570              	.LBB11:
 571              	.LBI8:
 572              		.loc 1 71 14 view .LVU191
 573              	.LBB10:
 574              		.loc 1 73 3 view .LVU192
 575              		.loc 1 73 10 is_stmt 0 view .LVU193
 576 01da 0023     		movs	r3, #0
 577              	.LVL69:
 578              	.L101:
 579              		.loc 1 73 10 view .LVU194
 580              	.LBE10:
 581              	.LBE11:
 582              		.loc 1 145 7 view .LVU195
 583 01dc 0DF11009 		add	r9, sp, #16
 584              	.LVL70:
 585              	.LBB12:
 586              	.LBB13:
 587              		.loc 1 73 10 view .LVU196
 588 01e0 FFF7FEFF 		bl	long_to_string_with_divisor
 589              	.LVL71:
 590              		.loc 1 73 10 view .LVU197
 591              	.LBE13:
 592              	.LBE12:
 593              		.loc 1 246 7 is_stmt 1 view .LVU198
 594              	.L35:
 595              		.loc 1 251 5 view .LVU199
 596              		.loc 1 252 16 is_stmt 0 view .LVU200
 597 01e4 019B     		ldr	r3, [sp, #4]
 598              		.loc 1 251 7 view .LVU201
 599 01e6 A0EB0908 		sub	r8, r0, r9
 600              	.LVL72:
 601              		.loc 1 252 5 is_stmt 1 view .LVU202
 602              		.loc 1 254 8 is_stmt 0 view .LVU203
 603 01ea 0299     		ldr	r1, [sp, #8]
 604              		.loc 1 252 16 view .LVU204
 605 01ec A3EB0802 		sub	r2, r3, r8
 606              	.LVL73:
 607              		.loc 1 252 16 view .LVU205
 608 01f0 22EAE273 		bic	r3, r2, r2, asr #31
 609              	.LVL74:
 610              		.loc 1 254 5 is_stmt 1 view .LVU206
 611              		.loc 1 254 8 is_stmt 0 view .LVU207
 612 01f4 0029     		cmp	r1, #0
 613 01f6 40F0A580 		bne	.L73
 614              		.loc 1 255 7 is_stmt 1 view .LVU208
 615              		.loc 1 256 8 is_stmt 0 view .LVU209
 616 01fa 002A     		cmp	r2, #0
 617              		.loc 1 255 13 view .LVU210
 618 01fc C3F1000B 		rsb	fp, r3, #0
 619              	.LVL75:
 620              		.loc 1 256 5 is_stmt 1 view .LVU211
 621              		.loc 1 256 8 is_stmt 0 view .LVU212
 622 0200 1CDD     		ble	.L49
 623              		.loc 1 257 7 is_stmt 1 view .LVU213
 624              		.loc 1 257 10 is_stmt 0 view .LVU214
 625 0202 99F80010 		ldrb	r1, [r9]	@ zero_extendqisi2
 626 0206 2D29     		cmp	r1, #45
ARM GAS  /tmp/ccBYr15j.s 			page 12


 627 0208 0DD1     		bne	.L51
 628              		.loc 1 257 21 discriminator 1 view .LVU215
 629 020a BAF1300F 		cmp	r10, #48
 630 020e 0AD1     		bne	.L51
 631              		.loc 1 258 9 view .LVU216
 632 0210 3268     		ldr	r2, [r6]
 633 0212 3046     		mov	r0, r6
 634              	.LVL76:
 635              		.loc 1 258 9 view .LVU217
 636 0214 0193     		str	r3, [sp, #4]
 637              		.loc 1 260 10 view .LVU218
 638 0216 08F1FF38 		add	r8, r8, #-1
 639              	.LVL77:
 640              		.loc 1 258 9 view .LVU219
 641 021a D268     		ldr	r2, [r2, #12]
 642              		.loc 1 141 8 view .LVU220
 643 021c 0137     		adds	r7, r7, #1
 644              	.LVL78:
 645              		.loc 1 258 9 is_stmt 1 view .LVU221
 646 021e 9047     		blx	r2
 647              	.LVL79:
 648 0220 09F10109 		add	r9, r9, #1
 649              	.LVL80:
 650              		.loc 1 258 9 is_stmt 0 view .LVU222
 651 0224 019B     		ldr	r3, [sp, #4]
 652              		.loc 1 259 9 is_stmt 1 view .LVU223
 653              	.LVL81:
 654              		.loc 1 260 9 view .LVU224
 655              	.L51:
 656              		.loc 1 263 9 is_stmt 0 discriminator 1 view .LVU225
 657 0226 3268     		ldr	r2, [r6]
 658 0228 5146     		mov	r1, r10
 659 022a 3046     		mov	r0, r6
 660 022c 0193     		str	r3, [sp, #4]
 661              		.loc 1 262 7 is_stmt 1 discriminator 1 view .LVU226
 662              		.loc 1 263 9 discriminator 1 view .LVU227
 663 022e D268     		ldr	r2, [r2, #12]
 664 0230 9047     		blx	r2
 665              	.LVL82:
 666              		.loc 1 264 9 discriminator 1 view .LVU228
 667              		.loc 1 265 15 discriminator 1 view .LVU229
 668              		.loc 1 265 7 is_stmt 0 discriminator 1 view .LVU230
 669 0232 1BF1010B 		adds	fp, fp, #1
 670              	.LVL83:
 671              		.loc 1 265 7 discriminator 1 view .LVU231
 672 0236 019B     		ldr	r3, [sp, #4]
 673 0238 F5D1     		bne	.L51
 674 023a 1F44     		add	r7, r7, r3
 675              	.L49:
 676              	.LVL84:
 677              		.loc 1 265 7 discriminator 1 view .LVU232
 678 023c 4346     		mov	r3, r8
 679 023e 73E0     		b	.L52
 680              	.LVL85:
 681              	.L40:
 682              		.loc 1 212 9 is_stmt 1 view .LVU233
 683              		.loc 1 212 11 is_stmt 0 view .LVU234
ARM GAS  /tmp/ccBYr15j.s 			page 13


 684 0240 D8F80010 		ldr	r1, [r8]
 685 0244 BDE7     		b	.L42
 686              	.LVL86:
 687              	.L33:
 688              		.loc 1 221 7 is_stmt 1 view .LVU235
 689              		.loc 1 221 19 is_stmt 0 view .LVU236
 690 0246 08F10704 		add	r4, r8, #7
 691 024a 24F00704 		bic	r4, r4, #7
 692              	.LVL87:
 693              		.loc 1 221 9 view .LVU237
 694 024e F4E80201 		ldrd	r0, [r4], #8
 695              	.LVL88:
 696              		.loc 1 221 9 view .LVU238
 697 0252 FFF7FEFF 		bl	__aeabi_d2f
 698              	.LVL89:
 699              		.loc 1 221 9 view .LVU239
 700 0256 08EE100A 		vmov	s16, r0
 701              	.LVL90:
 702              		.loc 1 222 7 is_stmt 1 view .LVU240
 703              		.loc 1 222 10 is_stmt 0 view .LVU241
 704 025a B5EEC08A 		vcmpe.f32	s16, #0
 705 025e F1EE10FA 		vmrs	APSR_nzcv, FPSCR
 706              		.loc 1 223 9 is_stmt 1 view .LVU242
 707              	.LVL91:
 708              		.loc 1 224 11 is_stmt 0 view .LVU243
 709 0262 43BF     		ittte	mi
 710 0264 B1EE488A 		vnegmi.f32	s16, s16
 711              		.loc 1 223 14 view .LVU244
 712 0268 2D23     		movmi	r3, #45
 713              		.loc 1 223 11 view .LVU245
 714 026a 0DF11108 		addmi	r8, sp, #17
 715              		.loc 1 144 7 view .LVU246
 716 026e 0DF11008 		addpl	r8, sp, #16
 717              		.loc 1 223 14 view .LVU247
 718 0272 48BF     		it	mi
 719 0274 8DF81030 		strbmi	r3, [sp, #16]
 720              		.loc 1 224 9 is_stmt 1 view .LVU248
 721              	.LVL92:
 722              		.loc 1 226 7 view .LVU249
 723              		.loc 1 226 11 is_stmt 0 view .LVU250
 724 0278 18EE100A 		vmov	r0, s16
 725 027c FFF7FEFF 		bl	__aeabi_f2d
 726              	.LVL93:
 727              	.LBB15:
 728              	.LBB16:
 729              		.loc 1 84 24 view .LVU251
 730 0280 0BF1FF33 		add	r3, fp, #-1
 731              		.loc 1 88 5 view .LVU252
 732 0284 FDEEC87A 		vcvt.s32.f32	s15, s16
 733              		.loc 1 89 7 view .LVU253
 734 0288 0A22     		movs	r2, #10
 735              		.loc 1 85 15 view .LVU254
 736 028a 092B     		cmp	r3, #9
 737              		.loc 1 86 20 view .LVU255
 738 028c 544B     		ldr	r3, .L103+4
 739              		.loc 1 85 15 view .LVU256
 740 028e 28BF     		it	cs
ARM GAS  /tmp/ccBYr15j.s 			page 14


 741 0290 4FF0090B 		movcs	fp, #9
 742              		.loc 1 86 20 view .LVU257
 743 0294 0BF1FF3B 		add	fp, fp, #-1
 744 0298 53F82B30 		ldr	r3, [r3, fp, lsl #2]
 745              	.LBE16:
 746              	.LBE15:
 747              		.loc 1 226 11 view .LVU258
 748 029c 41EC190B 		vmov	d9, r0, r1
 749              	.LVL94:
 750              	.LBB18:
 751              	.LBI15:
 752              		.loc 1 81 14 is_stmt 1 view .LVU259
 753              	.LBB17:
 754              		.loc 1 82 3 view .LVU260
 755              		.loc 1 84 3 view .LVU261
 756              		.loc 1 86 3 view .LVU262
 757              		.loc 1 86 20 is_stmt 0 view .LVU263
 758 02a0 0393     		str	r3, [sp, #12]
 759              	.LVL95:
 760              		.loc 1 88 3 is_stmt 1 view .LVU264
 761              		.loc 1 89 3 view .LVU265
 762              		.loc 1 89 7 is_stmt 0 view .LVU266
 763 02a2 17EE901A 		vmov	r1, s15	@ int
 764 02a6 0023     		movs	r3, #0
 765              	.LVL96:
 766              		.loc 1 89 7 view .LVU267
 767 02a8 4046     		mov	r0, r8
 768              	.LVL97:
 769              		.loc 1 89 7 view .LVU268
 770 02aa FFF7FEFF 		bl	long_to_string_with_divisor
 771              	.LVL98:
 772              		.loc 1 90 3 is_stmt 1 view .LVU269
 773              		.loc 1 90 8 is_stmt 0 view .LVU270
 774 02ae 2E23     		movs	r3, #46
 775 02b0 8346     		mov	fp, r0
 776              	.LVL99:
 777              		.loc 1 91 19 view .LVU271
 778 02b2 17EE900A 		vmov	r0, s15	@ int
 779              	.LVL100:
 780              		.loc 1 90 8 view .LVU272
 781 02b6 0BF8013B 		strb	r3, [fp], #1
 782              	.LVL101:
 783              		.loc 1 91 3 is_stmt 1 view .LVU273
 784              		.loc 1 91 19 is_stmt 0 view .LVU274
 785 02ba FFF7FEFF 		bl	__aeabi_i2d
 786              	.LVL102:
 787              		.loc 1 91 19 view .LVU275
 788 02be 0246     		mov	r2, r0
 789 02c0 0B46     		mov	r3, r1
 790 02c2 51EC190B 		vmov	r0, r1, d9
 791 02c6 FFF7FEFF 		bl	__aeabi_dsub
 792              	.LVL103:
 793 02ca 8046     		mov	r8, r0
 794              	.LVL104:
 795              		.loc 1 91 19 view .LVU276
 796 02cc 8946     		mov	r9, r1
 797              		.loc 1 91 24 view .LVU277
ARM GAS  /tmp/ccBYr15j.s 			page 15


 798 02ce 0398     		ldr	r0, [sp, #12]
 799 02d0 FFF7FEFF 		bl	__aeabi_ui2d
 800              	.LVL105:
 801 02d4 0246     		mov	r2, r0
 802 02d6 0B46     		mov	r3, r1
 803 02d8 4046     		mov	r0, r8
 804 02da 4946     		mov	r1, r9
 805 02dc FFF7FEFF 		bl	__aeabi_dmul
 806              	.LVL106:
 807              		.loc 1 92 3 is_stmt 1 view .LVU278
 808              		.loc 1 92 58 is_stmt 0 view .LVU279
 809 02e0 0A22     		movs	r2, #10
 810 02e2 039B     		ldr	r3, [sp, #12]
 811 02e4 B3FBF2F3 		udiv	r3, r3, r2
 812 02e8 0393     		str	r3, [sp, #12]
 813              	.LVL107:
 814              		.loc 1 91 5 view .LVU280
 815 02ea FFF7FEFF 		bl	__aeabi_d2iz
 816              	.LVL108:
 817              		.loc 1 92 10 view .LVU281
 818 02ee 039B     		ldr	r3, [sp, #12]
 819              		.loc 1 91 5 view .LVU282
 820 02f0 0146     		mov	r1, r0
 821              		.loc 1 92 10 view .LVU283
 822 02f2 0A22     		movs	r2, #10
 823 02f4 5846     		mov	r0, fp
 824 02f6 71E7     		b	.L101
 825              	.LVL109:
 826              	.L66:
 827              		.loc 1 92 10 view .LVU284
 828              	.LBE17:
 829              	.LBE18:
 830              		.loc 1 239 9 view .LVU285
 831 02f8 0822     		movs	r2, #8
 832              	.L26:
 833              	.LVL110:
 834              		.loc 1 241 7 is_stmt 1 view .LVU286
 835              		.loc 1 244 11 is_stmt 0 view .LVU287
 836 02fa 4446     		mov	r4, r8
 837              		.loc 1 241 10 view .LVU288
 838 02fc 1928     		cmp	r0, #25
 839              		.loc 1 244 11 view .LVU289
 840 02fe 54F8041B 		ldr	r1, [r4], #4
 841              		.loc 1 241 10 view .LVU290
 842 0302 02D8     		bhi	.L47
 843              	.LVL111:
 844              	.L48:
 845              		.loc 1 242 9 is_stmt 1 view .LVU291
 846              		.loc 1 242 13 is_stmt 0 view .LVU292
 847 0304 4446     		mov	r4, r8
 848              	.LVL112:
 849              		.loc 1 242 11 view .LVU293
 850 0306 54F8041B 		ldr	r1, [r4], #4
 851              	.LVL113:
 852              	.L47:
 853              		.loc 1 245 7 is_stmt 1 view .LVU294
 854              	.LBB19:
ARM GAS  /tmp/ccBYr15j.s 			page 16


 855              	.LBI12:
 856              		.loc 1 71 14 view .LVU295
 857              	.LBB14:
 858              		.loc 1 73 3 view .LVU296
 859              		.loc 1 73 10 is_stmt 0 view .LVU297
 860 030a 0023     		movs	r3, #0
 861 030c 04A8     		add	r0, sp, #16
 862              	.LVL114:
 863              		.loc 1 73 10 view .LVU298
 864 030e 65E7     		b	.L101
 865              	.LVL115:
 866              	.L68:
 867              		.loc 1 73 10 view .LVU299
 868              	.LBE14:
 869              	.LBE19:
 870              		.loc 1 235 9 view .LVU300
 871 0310 0A22     		movs	r2, #10
 872 0312 F2E7     		b	.L26
 873              	.LVL116:
 874              	.L76:
 875              		.loc 1 191 5 view .LVU301
 876 0314 0822     		movs	r2, #8
 877 0316 F5E7     		b	.L48
 878              	.LVL117:
 879              	.L53:
 880              		.loc 1 268 7 view .LVU302
 881 0318 3268     		ldr	r2, [r6]
 882 031a 3046     		mov	r0, r6
 883 031c 19F8011B 		ldrb	r1, [r9], #1	@ zero_extendqisi2
 884              	.LVL118:
 885              		.loc 1 268 7 view .LVU303
 886 0320 D268     		ldr	r2, [r2, #12]
 887 0322 0193     		str	r3, [sp, #4]
 888              		.loc 1 268 7 is_stmt 1 view .LVU304
 889              	.LVL119:
 890              		.loc 1 268 7 is_stmt 0 view .LVU305
 891 0324 9047     		blx	r2
 892              	.LVL120:
 893              		.loc 1 269 7 is_stmt 1 view .LVU306
 894 0326 019B     		ldr	r3, [sp, #4]
 895              	.LVL121:
 896              	.L52:
 897              		.loc 1 267 11 view .LVU307
 898              		.loc 1 267 11 is_stmt 0 view .LVU308
 899 0328 013B     		subs	r3, r3, #1
 900              	.LVL122:
 901              		.loc 1 267 11 view .LVU309
 902 032a F5D5     		bpl	.L53
 903 032c B8F1000F 		cmp	r8, #0
 904 0330 A8BF     		it	ge
 905 0332 4744     		addge	r7, r7, r8
 906 0334 D846     		mov	r8, fp
 907              	.LVL123:
 908              	.L54:
 909              		.loc 1 272 11 is_stmt 1 view .LVU310
 910 0336 B8F1000F 		cmp	r8, #0
 911 033a 05D1     		bne	.L55
ARM GAS  /tmp/ccBYr15j.s 			page 17


 912 033c 5F44     		add	r7, r7, fp
 913 033e A046     		mov	r8, r4
 914              	.LVL124:
 915              	.L13:
 916              		.loc 1 272 11 is_stmt 0 view .LVU311
 917 0340 2946     		mov	r1, r5
 918 0342 65E6     		b	.L10
 919              	.LVL125:
 920              	.L73:
 921              		.loc 1 272 11 view .LVU312
 922 0344 9B46     		mov	fp, r3
 923 0346 79E7     		b	.L49
 924              	.LVL126:
 925              	.L55:
 926              		.loc 1 273 7 is_stmt 1 view .LVU313
 927 0348 3368     		ldr	r3, [r6]
 928 034a 5146     		mov	r1, r10
 929 034c 3046     		mov	r0, r6
 930              		.loc 1 275 12 is_stmt 0 view .LVU314
 931 034e 08F1FF38 		add	r8, r8, #-1
 932              	.LVL127:
 933              		.loc 1 273 7 view .LVU315
 934 0352 DB68     		ldr	r3, [r3, #12]
 935 0354 9847     		blx	r3
 936              	.LVL128:
 937              		.loc 1 274 7 is_stmt 1 view .LVU316
 938              		.loc 1 275 7 view .LVU317
 939              		.loc 1 275 7 is_stmt 0 view .LVU318
 940 0356 EEE7     		b	.L54
 941              	.LVL129:
 942              	.L77:
 943              		.loc 1 235 9 view .LVU319
 944 0358 0A22     		movs	r2, #10
 945 035a D3E7     		b	.L48
 946              	.L58:
 947 035c A3F16302 		sub	r2, r3, #99
 948 0360 152A     		cmp	r2, #21
 949 0362 3FF6C4AE 		bhi	.L24
 950 0366 01A1     		adr	r1, .L61
 951 0368 51F822F0 		ldr	pc, [r1, r2, lsl #2]
 952              		.p2align 2
 953              	.L61:
 954 036c 6B010000 		.word	.L34+1
 955 0370 BD010000 		.word	.L41+1
 956 0374 EF000000 		.word	.L24+1
 957 0378 47020000 		.word	.L33+1
 958 037c EF000000 		.word	.L24+1
 959 0380 EF000000 		.word	.L24+1
 960 0384 BD010000 		.word	.L41+1
 961 0388 EF000000 		.word	.L24+1
 962 038c EF000000 		.word	.L24+1
 963 0390 EF000000 		.word	.L24+1
 964 0394 EF000000 		.word	.L24+1
 965 0398 EF000000 		.word	.L24+1
 966 039c 15030000 		.word	.L76+1
 967 03a0 EF000000 		.word	.L24+1
 968 03a4 EF000000 		.word	.L24+1
ARM GAS  /tmp/ccBYr15j.s 			page 18


 969 03a8 EF000000 		.word	.L24+1
 970 03ac 83010000 		.word	.L31+1
 971 03b0 EF000000 		.word	.L24+1
 972 03b4 59030000 		.word	.L77+1
 973 03b8 EF000000 		.word	.L24+1
 974 03bc EF000000 		.word	.L24+1
 975 03c0 CB030000 		.word	.L60+1
 976              		.p2align 1
 977              	.L59:
 978              		.loc 1 191 5 view .LVU320
 979 03c4 582B     		cmp	r3, #88
 980 03c6 7FF492AE 		bne	.L24
 981              	.L60:
 982 03ca 1022     		movs	r2, #16
 983 03cc 9AE7     		b	.L48
 984              	.LVL130:
 985              	.L96:
 986              		.loc 1 278 1 view .LVU321
 987 03ce 3846     		mov	r0, r7
 988 03d0 0BB0     		add	sp, sp, #44
 989              		.cfi_def_cfa_offset 52
 990              		@ sp needed
 991 03d2 BDEC048B 		vldm	sp!, {d8-d9}
 992              		.cfi_restore 82
 993              		.cfi_restore 83
 994              		.cfi_restore 80
 995              		.cfi_restore 81
 996              		.cfi_def_cfa_offset 36
 997 03d6 BDE8F08F 		pop	{r4, r5, r6, r7, r8, r9, r10, fp, pc}
 998              	.LVL131:
 999              	.L104:
 1000              		.loc 1 278 1 view .LVU322
 1001 03da 00BF     		.align	2
 1002              	.L103:
 1003 03dc 00000000 		.word	.LC0
 1004 03e0 00000000 		.word	.LANCHOR0
 1005              		.cfi_endproc
 1006              	.LFE337:
 1007              		.size	chvprintf, .-chvprintf
 1008              		.section	.text.chprintf,"ax",%progbits
 1009              		.align	1
 1010              		.global	chprintf
 1011              		.syntax unified
 1012              		.thumb
 1013              		.thumb_func
 1014              		.fpu fpv4-sp-d16
 1015              		.type	chprintf, %function
 1016              	chprintf:
 1017              	.LVL132:
 1018              	.LFB338:
 1019              		.loc 1 305 63 is_stmt 1 view -0
 1020              		.cfi_startproc
 1021              		@ args = 4, pretend = 12, frame = 8
 1022              		@ frame_needed = 0, uses_anonymous_args = 1
 1023              		.loc 1 306 3 view .LVU324
 1024              		.loc 1 307 3 view .LVU325
 1025              		.loc 1 309 3 view .LVU326
ARM GAS  /tmp/ccBYr15j.s 			page 19


 1026              		.loc 1 305 63 is_stmt 0 view .LVU327
 1027 0000 0EB4     		push	{r1, r2, r3}
 1028              		.cfi_def_cfa_offset 12
 1029              		.cfi_offset 1, -12
 1030              		.cfi_offset 2, -8
 1031              		.cfi_offset 3, -4
 1032 0002 03B5     		push	{r0, r1, lr}
 1033              		.cfi_def_cfa_offset 24
 1034              		.cfi_offset 14, -16
 1035              		.loc 1 305 63 view .LVU328
 1036 0004 03AA     		add	r2, sp, #12
 1037 0006 52F8041B 		ldr	r1, [r2], #4
 1038              		.loc 1 309 3 view .LVU329
 1039 000a 0192     		str	r2, [sp, #4]
 1040              		.loc 1 310 3 is_stmt 1 view .LVU330
 1041              		.loc 1 310 21 is_stmt 0 view .LVU331
 1042 000c FFF7FEFF 		bl	chvprintf
 1043              	.LVL133:
 1044              		.loc 1 311 3 is_stmt 1 view .LVU332
 1045              		.loc 1 313 3 view .LVU333
 1046              		.loc 1 314 1 is_stmt 0 view .LVU334
 1047 0010 02B0     		add	sp, sp, #8
 1048              		.cfi_def_cfa_offset 16
 1049              		@ sp needed
 1050 0012 5DF804EB 		ldr	lr, [sp], #4
 1051              		.cfi_restore 14
 1052              		.cfi_def_cfa_offset 12
 1053 0016 03B0     		add	sp, sp, #12
 1054              		.cfi_restore 3
 1055              		.cfi_restore 2
 1056              		.cfi_restore 1
 1057              		.cfi_def_cfa_offset 0
 1058 0018 7047     		bx	lr
 1059              		.cfi_endproc
 1060              	.LFE338:
 1061              		.size	chprintf, .-chprintf
 1062              		.section	.text.chvsnprintf,"ax",%progbits
 1063              		.align	1
 1064              		.global	chvsnprintf
 1065              		.syntax unified
 1066              		.thumb
 1067              		.thumb_func
 1068              		.fpu fpv4-sp-d16
 1069              		.type	chvsnprintf, %function
 1070              	chvsnprintf:
 1071              	.LVL134:
 1072              	.LFB340:
 1073              		.loc 1 384 70 is_stmt 1 view -0
 1074              		.cfi_startproc
 1075              		@ args = 0, pretend = 0, frame = 24
 1076              		@ frame_needed = 0, uses_anonymous_args = 0
 1077              		.loc 1 385 3 view .LVU336
 1078              		.loc 1 386 3 view .LVU337
 1079              		.loc 1 387 3 view .LVU338
 1080              		.loc 1 388 3 view .LVU339
 1081              		.loc 1 390 3 view .LVU340
 1082              		.loc 1 384 70 is_stmt 0 view .LVU341
ARM GAS  /tmp/ccBYr15j.s 			page 20


 1083 0000 F0B5     		push	{r4, r5, r6, r7, lr}
 1084              		.cfi_def_cfa_offset 20
 1085              		.cfi_offset 4, -20
 1086              		.cfi_offset 5, -16
 1087              		.cfi_offset 6, -12
 1088              		.cfi_offset 7, -8
 1089              		.cfi_offset 14, -4
 1090 0002 0546     		mov	r5, r0
 1091 0004 87B0     		sub	sp, sp, #28
 1092              		.cfi_def_cfa_offset 48
 1093              		.loc 1 384 70 view .LVU342
 1094 0006 1646     		mov	r6, r2
 1095 0008 1F46     		mov	r7, r3
 1096              	.LVL135:
 1097              		.loc 1 390 6 view .LVU343
 1098 000a 0C46     		mov	r4, r1
 1099 000c 89B1     		cbz	r1, .L109
 1100              		.loc 1 391 5 is_stmt 1 view .LVU344
 1101              		.loc 1 391 17 is_stmt 0 view .LVU345
 1102 000e 4A1E     		subs	r2, r1, #1
 1103              	.LVL136:
 1104              	.L107:
 1105              		.loc 1 397 3 is_stmt 1 view .LVU346
 1106 0010 0023     		movs	r3, #0
 1107 0012 2946     		mov	r1, r5
 1108              	.LVL137:
 1109              		.loc 1 397 3 is_stmt 0 view .LVU347
 1110 0014 01A8     		add	r0, sp, #4
 1111              	.LVL138:
 1112              		.loc 1 397 3 view .LVU348
 1113 0016 FFF7FEFF 		bl	msObjectInit
 1114              	.LVL139:
 1115              		.loc 1 400 3 is_stmt 1 view .LVU349
 1116              		.loc 1 401 3 view .LVU350
 1117              		.loc 1 401 12 is_stmt 0 view .LVU351
 1118 001a 3A46     		mov	r2, r7
 1119 001c 3146     		mov	r1, r6
 1120 001e 01A8     		add	r0, sp, #4
 1121              	.LVL140:
 1122              		.loc 1 401 12 view .LVU352
 1123 0020 FFF7FEFF 		bl	chvprintf
 1124              	.LVL141:
 1125              		.loc 1 404 3 is_stmt 1 view .LVU353
 1126              		.loc 1 404 9 is_stmt 0 view .LVU354
 1127 0024 049B     		ldr	r3, [sp, #16]
 1128              		.loc 1 404 6 view .LVU355
 1129 0026 A342     		cmp	r3, r4
 1130              		.loc 1 405 5 is_stmt 1 view .LVU356
 1131              		.loc 1 405 17 is_stmt 0 view .LVU357
 1132 0028 3CBF     		itt	cc
 1133 002a 0022     		movcc	r2, #0
 1134 002c EA54     		strbcc	r2, [r5, r3]
 1135              		.loc 1 409 3 is_stmt 1 view .LVU358
 1136              		.loc 1 410 1 is_stmt 0 view .LVU359
 1137 002e 07B0     		add	sp, sp, #28
 1138              		.cfi_remember_state
 1139              		.cfi_def_cfa_offset 20
ARM GAS  /tmp/ccBYr15j.s 			page 21


 1140              		@ sp needed
 1141 0030 F0BD     		pop	{r4, r5, r6, r7, pc}
 1142              	.LVL142:
 1143              	.L109:
 1144              		.cfi_restore_state
 1145              		.loc 1 393 17 view .LVU360
 1146 0032 0A46     		mov	r2, r1
 1147              	.LVL143:
 1148              		.loc 1 393 17 view .LVU361
 1149 0034 ECE7     		b	.L107
 1150              		.cfi_endproc
 1151              	.LFE340:
 1152              		.size	chvsnprintf, .-chvsnprintf
 1153              		.section	.text.chsnprintf,"ax",%progbits
 1154              		.align	1
 1155              		.global	chsnprintf
 1156              		.syntax unified
 1157              		.thumb
 1158              		.thumb_func
 1159              		.fpu fpv4-sp-d16
 1160              		.type	chsnprintf, %function
 1161              	chsnprintf:
 1162              	.LVL144:
 1163              	.LFB339:
 1164              		.loc 1 343 62 is_stmt 1 view -0
 1165              		.cfi_startproc
 1166              		@ args = 4, pretend = 8, frame = 8
 1167              		@ frame_needed = 0, uses_anonymous_args = 1
 1168              		.loc 1 344 3 view .LVU363
 1169              		.loc 1 345 3 view .LVU364
 1170              		.loc 1 348 3 view .LVU365
 1171              		.loc 1 343 62 is_stmt 0 view .LVU366
 1172 0000 0CB4     		push	{r2, r3}
 1173              		.cfi_def_cfa_offset 8
 1174              		.cfi_offset 2, -8
 1175              		.cfi_offset 3, -4
 1176 0002 07B5     		push	{r0, r1, r2, lr}
 1177              		.cfi_def_cfa_offset 24
 1178              		.cfi_offset 14, -12
 1179              		.loc 1 343 62 view .LVU367
 1180 0004 04AB     		add	r3, sp, #16
 1181 0006 53F8042B 		ldr	r2, [r3], #4
 1182              		.loc 1 348 3 view .LVU368
 1183 000a 0193     		str	r3, [sp, #4]
 1184              		.loc 1 349 3 is_stmt 1 view .LVU369
 1185              		.loc 1 349 12 is_stmt 0 view .LVU370
 1186 000c FFF7FEFF 		bl	chvsnprintf
 1187              	.LVL145:
 1188              		.loc 1 350 3 is_stmt 1 view .LVU371
 1189              		.loc 1 353 3 view .LVU372
 1190              		.loc 1 354 1 is_stmt 0 view .LVU373
 1191 0010 03B0     		add	sp, sp, #12
 1192              		.cfi_def_cfa_offset 12
 1193              		@ sp needed
 1194 0012 5DF804EB 		ldr	lr, [sp], #4
 1195              		.cfi_restore 14
 1196              		.cfi_def_cfa_offset 8
ARM GAS  /tmp/ccBYr15j.s 			page 22


 1197 0016 02B0     		add	sp, sp, #8
 1198              		.cfi_restore 3
 1199              		.cfi_restore 2
 1200              		.cfi_def_cfa_offset 0
 1201 0018 7047     		bx	lr
 1202              		.cfi_endproc
 1203              	.LFE339:
 1204              		.size	chsnprintf, .-chsnprintf
 1205              		.section	.rodata.pow10,"a"
 1206              		.align	2
 1207              		.set	.LANCHOR0,. + 0
 1208              		.type	pow10, %object
 1209              		.size	pow10, 36
 1210              	pow10:
 1211 0000 0A000000 		.word	10
 1212 0004 64000000 		.word	100
 1213 0008 E8030000 		.word	1000
 1214 000c 10270000 		.word	10000
 1215 0010 A0860100 		.word	100000
 1216 0014 40420F00 		.word	1000000
 1217 0018 80969800 		.word	10000000
 1218 001c 00E1F505 		.word	100000000
 1219 0020 00CA9A3B 		.word	1000000000
 1220              		.text
 1221              	.Letext0:
 1222              		.file 2 "/opt/gcc-arm-none-eabi-10-2020-q4-major/lib/gcc/arm-none-eabi/10.2.1/include/stddef.h"
 1223              		.file 3 "/opt/gcc-arm-none-eabi-10-2020-q4-major/arm-none-eabi/include/machine/_default_types.h"
 1224              		.file 4 "/opt/gcc-arm-none-eabi-10-2020-q4-major/arm-none-eabi/include/sys/_stdint.h"
 1225              		.file 5 "../../modules/ChibiOS/os/common/ports/ARMCMx/compilers/GCC/chtypes.h"
 1226              		.file 6 "../../modules/ChibiOS/os/hal/include/hal_streams.h"
 1227              		.file 7 "/opt/gcc-arm-none-eabi-10-2020-q4-major/lib/gcc/arm-none-eabi/10.2.1/include/stdarg.h"
 1228              		.file 8 "../../modules/ChibiOS/os/hal/lib/streams/memstreams.h"
 1229              		.file 9 "<built-in>"