ARM GAS  /tmp/ccBYr15j.s 			page 1


   1              		.cpu cortex-m7
   2              		.eabi_attribute 27, 1
   3              		.eabi_attribute 28, 1
   4              		.eabi_attribute 20, 1
   5              		.eabi_attribute 21, 1
   6              		.eabi_attribute 23, 3
   7              		.eabi_attribute 24, 1
   8              		.eabi_attribute 25, 1
   9              		.eabi_attribute 26, 1
  10              		.eabi_attribute 30, 4
  11              		.eabi_attribute 34, 1
  12              		.eabi_attribute 18, 4
  13              		.file	"chprintf.c"
  14              		.text
  15              	.Ltext0:
  16              		.cfi_sections	.debug_frame
  17              		.section	.text.long_to_string_with_divisor,"ax",%progbits
  18              		.align	1
  19              		.arch armv7e-m
  20              		.syntax unified
  21              		.thumb
  22              		.thumb_func
  23              		.fpu fpv4-sp-d16
  24              		.type	long_to_string_with_divisor, %function
  25              	long_to_string_with_divisor:
  26              	.LVL0:
  27              	.LFB334:
  28              		.file 1 "../../modules/ChibiOS/os/hal/lib/streams/chprintf.c"
  29              		.loc 1 41 56 view -0
  30              		.cfi_startproc
  31              		@ args = 0, pretend = 0, frame = 0
  32              		@ frame_needed = 0, uses_anonymous_args = 0
  33              		.loc 1 42 3 view .LVU1
  34              		.loc 1 43 3 view .LVU2
  35              		.loc 1 44 3 view .LVU3
  36              		.loc 1 46 3 view .LVU4
  37              		.loc 1 47 3 view .LVU5
  38              		.loc 1 41 56 is_stmt 0 view .LVU6
  39 0000 F0B5     		push	{r4, r5, r6, r7, lr}
  40              		.cfi_def_cfa_offset 20
  41              		.cfi_offset 4, -20
  42              		.cfi_offset 5, -16
  43              		.cfi_offset 6, -12
  44              		.cfi_offset 7, -8
  45              		.cfi_offset 14, -4
  46              		.loc 1 53 5 view .LVU7
  47 0002 00F10B04 		add	r4, r0, #11
  48              		.loc 1 48 8 view .LVU8
  49 0006 002B     		cmp	r3, #0
  50 0008 14BF     		ite	ne
  51 000a 1D46     		movne	r5, r3
  52 000c 0D46     		moveq	r5, r1
  53              	.LVL1:
  54              		.loc 1 53 3 is_stmt 1 view .LVU9
  55              		.loc 1 53 5 is_stmt 0 view .LVU10
  56 000e 2346     		mov	r3, r4
  57              	.LVL2:
ARM GAS  /tmp/ccBYr15j.s 			page 2


  58              	.L4:
  59              		.loc 1 54 3 is_stmt 1 view .LVU11
  60              		.loc 1 55 5 view .LVU12
  61              		.loc 1 55 17 is_stmt 0 view .LVU13
  62 0010 B1FBF2F7 		udiv	r7, r1, r2
  63 0014 02FB1711 		mls	r1, r2, r7, r1
  64              	.LVL3:
  65              		.loc 1 56 5 is_stmt 1 view .LVU14
  66              		.loc 1 56 7 is_stmt 0 view .LVU15
  67 0018 01F13006 		add	r6, r1, #48
  68              	.LVL4:
  69              		.loc 1 57 5 is_stmt 1 view .LVU16
  70              		.loc 1 57 8 is_stmt 0 view .LVU17
  71 001c 392E     		cmp	r6, #57
  72              		.loc 1 58 7 is_stmt 1 view .LVU18
  73              		.loc 1 58 9 is_stmt 0 view .LVU19
  74 001e C8BF     		it	gt
  75 0020 01F13706 		addgt	r6, r1, #55
  76              	.LVL5:
  77              		.loc 1 59 5 is_stmt 1 view .LVU20
  78              		.loc 1 60 7 is_stmt 0 view .LVU21
  79 0024 3946     		mov	r1, r7
  80              		.loc 1 59 10 view .LVU22
  81 0026 03F8016D 		strb	r6, [r3, #-1]!
  82              	.LVL6:
  83              		.loc 1 60 5 is_stmt 1 view .LVU23
  84              		.loc 1 61 11 view .LVU24
  85              		.loc 1 61 16 is_stmt 0 view .LVU25
  86 002a 2E46     		mov	r6, r5
  87              	.LVL7:
  88              		.loc 1 61 3 view .LVU26
  89 002c 9642     		cmp	r6, r2
  90              		.loc 1 61 16 view .LVU27
  91 002e B5FBF2F5 		udiv	r5, r5, r2
  92              	.LVL8:
  93              		.loc 1 61 3 view .LVU28
  94 0032 EDD2     		bcs	.L4
  95              		.loc 1 63 3 is_stmt 1 view .LVU29
  96              	.LVL9:
  97              		.loc 1 63 3 is_stmt 0 view .LVU30
  98 0034 421E     		subs	r2, r0, #1
  99              	.LVL10:
 100              		.loc 1 63 5 view .LVU31
 101 0036 E11A     		subs	r1, r4, r3
 102              	.LVL11:
 103              	.L5:
 104              		.loc 1 64 3 is_stmt 1 discriminator 1 view .LVU32
 105              		.loc 1 65 5 discriminator 1 view .LVU33
 106              		.loc 1 65 12 is_stmt 0 discriminator 1 view .LVU34
 107 0038 13F8015B 		ldrb	r5, [r3], #1	@ zero_extendqisi2
 108              	.LVL12:
 109              		.loc 1 66 3 discriminator 1 view .LVU35
 110 003c A342     		cmp	r3, r4
 111              		.loc 1 65 10 discriminator 1 view .LVU36
 112 003e 02F8015F 		strb	r5, [r2, #1]!
 113              		.loc 1 66 9 is_stmt 1 discriminator 1 view .LVU37
 114              		.loc 1 66 3 is_stmt 0 discriminator 1 view .LVU38
ARM GAS  /tmp/ccBYr15j.s 			page 3


 115 0042 F9D1     		bne	.L5
 116              		.loc 1 68 3 is_stmt 1 view .LVU39
 117              		.loc 1 69 1 is_stmt 0 view .LVU40
 118 0044 0844     		add	r0, r0, r1
 119 0046 F0BD     		pop	{r4, r5, r6, r7, pc}
 120              		.loc 1 69 1 view .LVU41
 121              		.cfi_endproc
 122              	.LFE334:
 123              		.size	long_to_string_with_divisor, .-long_to_string_with_divisor
 124              		.section	.rodata.chvprintf.str1.1,"aMS",%progbits,1
 125              	.LC0:
 126 0000 286E756C 		.ascii	"(null)\000"
 126      6C2900
 127              		.global	__aeabi_d2f
 128              		.global	__aeabi_f2d
 129              		.global	__aeabi_i2d
 130              		.global	__aeabi_dsub
 131              		.global	__aeabi_ui2d
 132              		.global	__aeabi_dmul
 133              		.global	__aeabi_d2iz
 134              		.section	.text.chvprintf,"ax",%progbits
 135              		.align	1
 136              		.global	chvprintf
 137              		.syntax unified
 138              		.thumb
 139              		.thumb_func
 140              		.fpu fpv4-sp-d16
 141              		.type	chvprintf, %function
 142              	chvprintf:
 143              	.LVL13:
 144              	.LFB337:
 145              		.loc 1 122 71 is_stmt 1 view -0
 146              		.cfi_startproc
 147              		@ args = 0, pretend = 0, frame = 40
 148              		@ frame_needed = 0, uses_anonymous_args = 0
 149              		.loc 1 122 71 is_stmt 0 view .LVU43
 150 0000 2DE9F04F 		push	{r4, r5, r6, r7, r8, r9, r10, fp, lr}
 151              		.cfi_def_cfa_offset 36
 152              		.cfi_offset 4, -36
 153              		.cfi_offset 5, -32
 154              		.cfi_offset 6, -28
 155              		.cfi_offset 7, -24
 156              		.cfi_offset 8, -20
 157              		.cfi_offset 9, -16
 158              		.cfi_offset 10, -12
 159              		.cfi_offset 11, -8
 160              		.cfi_offset 14, -4
 161 0004 0646     		mov	r6, r0
 162 0006 9046     		mov	r8, r2
 163              	.LVL14:
 164              		.loc 1 123 3 is_stmt 1 view .LVU44
 165              		.loc 1 124 3 view .LVU45
 166              		.loc 1 125 3 view .LVU46
 167              		.loc 1 125 7 is_stmt 0 view .LVU47
 168 0008 0027     		movs	r7, #0
 169              		.loc 1 122 71 view .LVU48
 170 000a 2DED048B 		vpush.64	{d8, d9}
ARM GAS  /tmp/ccBYr15j.s 			page 4


 171              		.cfi_def_cfa_offset 52
 172              		.cfi_offset 80, -52
 173              		.cfi_offset 81, -48
 174              		.cfi_offset 82, -44
 175              		.cfi_offset 83, -40
 176 000e 8BB0     		sub	sp, sp, #44
 177              		.cfi_def_cfa_offset 96
 178              	.LVL15:
 179              	.L10:
 180              		.loc 1 126 3 is_stmt 1 view .LVU49
 181              		.loc 1 127 3 view .LVU50
 182              		.loc 1 129 3 view .LVU51
 183              		.loc 1 130 3 view .LVU52
 184              		.loc 1 135 3 view .LVU53
 185              		.loc 1 136 5 view .LVU54
 186              		.loc 1 136 13 is_stmt 0 view .LVU55
 187 0010 0D46     		mov	r5, r1
 188              	.LVL16:
 189              		.loc 1 136 7 view .LVU56
 190 0012 15F8013B 		ldrb	r3, [r5], #1	@ zero_extendqisi2
 191              	.LVL17:
 192              		.loc 1 137 5 is_stmt 1 view .LVU57
 193              		.loc 1 137 8 is_stmt 0 view .LVU58
 194 0016 002B     		cmp	r3, #0
 195 0018 00F0D981 		beq	.L96
 196              		.loc 1 139 5 is_stmt 1 view .LVU59
 197              		.loc 1 139 8 is_stmt 0 view .LVU60
 198 001c 252B     		cmp	r3, #37
 199 001e 06D0     		beq	.L12
 200              		.loc 1 140 7 is_stmt 1 view .LVU61
 201 0020 3268     		ldr	r2, [r6]
 202              	.LVL18:
 203              		.loc 1 140 7 is_stmt 0 view .LVU62
 204 0022 1946     		mov	r1, r3
 205 0024 3046     		mov	r0, r6
 206              		.loc 1 141 8 view .LVU63
 207 0026 0137     		adds	r7, r7, #1
 208              	.LVL19:
 209              		.loc 1 140 7 view .LVU64
 210 0028 D268     		ldr	r2, [r2, #12]
 211 002a 9047     		blx	r2
 212              	.LVL20:
 213              		.loc 1 141 7 is_stmt 1 view .LVU65
 214              		.loc 1 142 7 view .LVU66
 215 002c 88E1     		b	.L13
 216              	.LVL21:
 217              	.L12:
 218              		.loc 1 144 5 view .LVU67
 219              		.loc 1 145 5 view .LVU68
 220              		.loc 1 146 5 view .LVU69
 221              		.loc 1 147 5 view .LVU70
 222              		.loc 1 147 8 is_stmt 0 view .LVU71
 223 002e 4B78     		ldrb	r3, [r1, #1]	@ zero_extendqisi2
 224              	.LVL22:
 225              		.loc 1 147 8 view .LVU72
 226 0030 2D2B     		cmp	r3, #45
 227              		.loc 1 148 7 is_stmt 1 view .LVU73
ARM GAS  /tmp/ccBYr15j.s 			page 5


 228              		.loc 1 148 10 is_stmt 0 view .LVU74
 229 0032 06BF     		itte	eq
 230 0034 8D1C     		addeq	r5, r1, #2
 231              	.LVL23:
 232              		.loc 1 149 7 is_stmt 1 view .LVU75
 233              		.loc 1 149 18 is_stmt 0 view .LVU76
 234 0036 0123     		moveq	r3, #1
 235              		.loc 1 146 16 view .LVU77
 236 0038 0023     		movne	r3, #0
 237              		.loc 1 152 9 view .LVU78
 238 003a 95F800A0 		ldrb	r10, [r5]	@ zero_extendqisi2
 239              		.loc 1 146 16 view .LVU79
 240 003e 0293     		str	r3, [sp, #8]
 241              	.LVL24:
 242              		.loc 1 151 5 is_stmt 1 view .LVU80
 243              		.loc 1 152 5 view .LVU81
 244              		.loc 1 156 11 is_stmt 0 view .LVU82
 245 0040 0023     		movs	r3, #0
 246              		.loc 1 152 8 view .LVU83
 247 0042 BAF1300F 		cmp	r10, #48
 248              		.loc 1 153 10 view .LVU84
 249 0046 0CBF     		ite	eq
 250 0048 0135     		addeq	r5, r5, #1
 251              	.LVL25:
 252              		.loc 1 151 12 view .LVU85
 253 004a 4FF0200A 		movne	r10, #32
 254              	.LVL26:
 255              		.loc 1 156 5 is_stmt 1 view .LVU86
 256              	.L100:
 257              		.loc 1 156 11 is_stmt 0 view .LVU87
 258 004e 0193     		str	r3, [sp, #4]
 259              	.LVL27:
 260              		.loc 1 157 5 is_stmt 1 view .LVU88
 261              		.loc 1 158 7 view .LVU89
 262              		.loc 1 158 9 is_stmt 0 view .LVU90
 263 0050 15F8013B 		ldrb	r3, [r5], #1	@ zero_extendqisi2
 264              	.LVL28:
 265              		.loc 1 159 7 is_stmt 1 view .LVU91
 266              		.loc 1 159 20 is_stmt 0 view .LVU92
 267 0054 A3F13001 		sub	r1, r3, #48
 268 0058 C9B2     		uxtb	r1, r1
 269              		.loc 1 159 10 view .LVU93
 270 005a 0929     		cmp	r1, #9
 271 005c 04D9     		bls	.L16
 272              		.loc 1 161 12 is_stmt 1 view .LVU94
 273              		.loc 1 161 15 is_stmt 0 view .LVU95
 274 005e 2A2B     		cmp	r3, #42
 275 0060 07D1     		bne	.L17
 276              		.loc 1 162 9 is_stmt 1 view .LVU96
 277              	.LVL29:
 278              		.loc 1 162 11 is_stmt 0 view .LVU97
 279 0062 58F8041B 		ldr	r1, [r8], #4
 280              	.LVL30:
 281              		.loc 1 162 11 view .LVU98
 282 0066 C9B2     		uxtb	r1, r1
 283              	.LVL31:
 284              	.L16:
ARM GAS  /tmp/ccBYr15j.s 			page 6


 285              		.loc 1 165 7 is_stmt 1 view .LVU99
 286              		.loc 1 165 13 is_stmt 0 view .LVU100
 287 0068 019B     		ldr	r3, [sp, #4]
 288 006a 0A22     		movs	r2, #10
 289              	.LVL32:
 290              		.loc 1 165 13 view .LVU101
 291 006c 02FB0313 		mla	r3, r2, r3, r1
 292 0070 EDE7     		b	.L100
 293              	.LVL33:
 294              	.L17:
 295              		.loc 1 167 5 is_stmt 1 view .LVU102
 296              		.loc 1 168 5 view .LVU103
 297              		.loc 1 168 8 is_stmt 0 view .LVU104
 298 0072 2E2B     		cmp	r3, #46
 299              		.loc 1 167 15 view .LVU105
 300 0074 4FF0000B 		mov	fp, #0
 301              		.loc 1 168 8 view .LVU106
 302 0078 0FD1     		bne	.L19
 303              	.LVL34:
 304              	.L21:
 305              		.loc 1 169 7 is_stmt 1 view .LVU107
 306              		.loc 1 170 9 view .LVU108
 307              		.loc 1 170 11 is_stmt 0 view .LVU109
 308 007a 15F8013B 		ldrb	r3, [r5], #1	@ zero_extendqisi2
 309              	.LVL35:
 310              		.loc 1 171 9 is_stmt 1 view .LVU110
 311              		.loc 1 171 22 is_stmt 0 view .LVU111
 312 007e A3F13001 		sub	r1, r3, #48
 313 0082 C9B2     		uxtb	r1, r1
 314              		.loc 1 171 12 view .LVU112
 315 0084 0929     		cmp	r1, #9
 316 0086 04D9     		bls	.L20
 317              		.loc 1 173 14 is_stmt 1 view .LVU113
 318              		.loc 1 173 17 is_stmt 0 view .LVU114
 319 0088 2A2B     		cmp	r3, #42
 320 008a 06D1     		bne	.L19
 321              		.loc 1 174 11 is_stmt 1 view .LVU115
 322              	.LVL36:
 323              		.loc 1 174 13 is_stmt 0 view .LVU116
 324 008c 58F8041B 		ldr	r1, [r8], #4
 325              	.LVL37:
 326              		.loc 1 174 13 view .LVU117
 327 0090 C9B2     		uxtb	r1, r1
 328              	.LVL38:
 329              	.L20:
 330              		.loc 1 177 9 is_stmt 1 view .LVU118
 331              		.loc 1 178 9 view .LVU119
 332              		.loc 1 178 19 is_stmt 0 view .LVU120
 333 0092 0A23     		movs	r3, #10
 334 0094 03FB0B1B 		mla	fp, r3, fp, r1
 335              	.LVL39:
 336              		.loc 1 169 13 is_stmt 1 view .LVU121
 337              		.loc 1 170 11 is_stmt 0 view .LVU122
 338 0098 EFE7     		b	.L21
 339              	.LVL40:
 340              	.L19:
 341              		.loc 1 182 5 is_stmt 1 view .LVU123
ARM GAS  /tmp/ccBYr15j.s 			page 7


 342              		.loc 1 182 18 is_stmt 0 view .LVU124
 343 009a 03F0DF02 		and	r2, r3, #223
 344              	.LVL41:
 345              		.loc 1 182 18 view .LVU125
 346 009e 4C2A     		cmp	r2, #76
 347 00a0 16D1     		bne	.L22
 348              	.LVL42:
 349              		.loc 1 183 7 is_stmt 1 view .LVU126
 350              		.loc 1 184 7 view .LVU127
 351              		.loc 1 184 11 is_stmt 0 view .LVU128
 352 00a2 2A78     		ldrb	r2, [r5]	@ zero_extendqisi2
 353              		.loc 1 184 10 view .LVU129
 354 00a4 22B1     		cbz	r2, .L23
 355              		.loc 1 191 5 view .LVU130
 356 00a6 782A     		cmp	r2, #120
 357              		.loc 1 185 17 view .LVU131
 358 00a8 05F10105 		add	r5, r5, #1
 359              	.LVL43:
 360              		.loc 1 191 5 is_stmt 1 view .LVU132
 361 00ac 1346     		mov	r3, r2
 362 00ae 1ED8     		bhi	.L24
 363              	.LVL44:
 364              	.L23:
 365              		.loc 1 191 5 is_stmt 0 view .LVU133
 366 00b0 622B     		cmp	r3, #98
 367 00b2 00F25381 		bhi	.L58
 368              		.loc 1 191 5 view .LVU134
 369 00b6 552B     		cmp	r3, #85
 370 00b8 00F04E81 		beq	.L77
 371 00bc 00F28281 		bhi	.L59
 372 00c0 492B     		cmp	r3, #73
 373 00c2 7BD0     		beq	.L41
 374 00c4 4F2B     		cmp	r3, #79
 375 00c6 00F02581 		beq	.L76
 376 00ca 442B     		cmp	r3, #68
 377 00cc 76D0     		beq	.L41
 378 00ce 0EE0     		b	.L24
 379              	.LVL45:
 380              	.L22:
 381              		.loc 1 188 7 is_stmt 1 view .LVU135
 382              		.loc 1 188 28 is_stmt 0 view .LVU136
 383 00d0 A3F14100 		sub	r0, r3, #65
 384              		.loc 1 191 5 view .LVU137
 385 00d4 782B     		cmp	r3, #120
 386              		.loc 1 188 28 view .LVU138
 387 00d6 C0B2     		uxtb	r0, r0
 388              	.LVL46:
 389              		.loc 1 191 5 is_stmt 1 view .LVU139
 390 00d8 09D8     		bhi	.L24
 391 00da 622B     		cmp	r3, #98
 392 00dc 0BD8     		bhi	.L25
 393 00de 4F2B     		cmp	r3, #79
 394 00e0 00F00A81 		beq	.L66
 395 00e4 3AD8     		bhi	.L27
 396 00e6 442B     		cmp	r3, #68
 397 00e8 64D0     		beq	.L28
 398 00ea 492B     		cmp	r3, #73
ARM GAS  /tmp/ccBYr15j.s 			page 8


 399 00ec 62D0     		beq	.L28
 400              	.LVL47:
 401              	.L24:
 402              		.loc 1 248 7 view .LVU140
 403              		.loc 1 249 7 is_stmt 0 view .LVU141
 404 00ee 4446     		mov	r4, r8
 405              		.loc 1 248 12 view .LVU142
 406 00f0 8DF81030 		strb	r3, [sp, #16]
 407              		.loc 1 249 7 is_stmt 1 view .LVU143
 408 00f4 40E0     		b	.L102
 409              	.LVL48:
 410              	.L25:
 411              		.loc 1 249 7 is_stmt 0 view .LVU144
 412 00f6 A3F16302 		sub	r2, r3, #99
 413 00fa 152A     		cmp	r2, #21
 414 00fc F7D8     		bhi	.L24
 415 00fe 01A1     		adr	r1, .L29
 416 0100 51F822F0 		ldr	pc, [r1, r2, lsl #2]
 417              		.p2align 2
 418              	.L29:
 419 0104 6B010000 		.word	.L34+1
 420 0108 B5010000 		.word	.L28+1
 421 010c EF000000 		.word	.L24+1
 422 0110 47020000 		.word	.L33+1
 423 0114 EF000000 		.word	.L24+1
 424 0118 EF000000 		.word	.L24+1
 425 011c B5010000 		.word	.L28+1
 426 0120 EF000000 		.word	.L24+1
 427 0124 EF000000 		.word	.L24+1
 428 0128 EF000000 		.word	.L24+1
 429 012c EF000000 		.word	.L24+1
 430 0130 EF000000 		.word	.L24+1
 431 0134 F9020000 		.word	.L66+1
 432 0138 EF000000 		.word	.L24+1
 433 013c EF000000 		.word	.L24+1
 434 0140 EF000000 		.word	.L24+1
 435 0144 83010000 		.word	.L31+1
 436 0148 EF000000 		.word	.L24+1
 437 014c 11030000 		.word	.L68+1
 438 0150 EF000000 		.word	.L24+1
 439 0154 EF000000 		.word	.L24+1
 440 0158 67010000 		.word	.L69+1
 441              		.p2align 1
 442              	.L27:
 443              		.loc 1 191 5 view .LVU145
 444 015c 552B     		cmp	r3, #85
 445 015e 00F0D780 		beq	.L68
 446 0162 582B     		cmp	r3, #88
 447 0164 C3D1     		bne	.L24
 448              	.L69:
 449              		.loc 1 191 5 view .LVU146
 450 0166 1022     		movs	r2, #16
 451 0168 C7E0     		b	.L26
 452              	.LVL49:
 453              	.L34:
 454              		.loc 1 193 7 is_stmt 1 view .LVU147
 455              		.loc 1 194 7 view .LVU148
ARM GAS  /tmp/ccBYr15j.s 			page 9


 456              		.loc 1 194 14 is_stmt 0 view .LVU149
 457 016a 4446     		mov	r4, r8
 458              	.LVL50:
 459              		.loc 1 193 14 view .LVU150
 460 016c 4FF0200A 		mov	r10, #32
 461              		.loc 1 194 12 view .LVU151
 462 0170 54F8043B 		ldr	r3, [r4], #4
 463              	.LVL51:
 464              		.loc 1 194 12 view .LVU152
 465 0174 8DF81030 		strb	r3, [sp, #16]
 466              		.loc 1 195 7 is_stmt 1 view .LVU153
 467              	.LVL52:
 468              	.L102:
 469              		.loc 1 145 7 is_stmt 0 view .LVU154
 470 0178 0DF11009 		add	r9, sp, #16
 471              	.LVL53:
 472              		.loc 1 248 9 view .LVU155
 473 017c 0DF11100 		add	r0, sp, #17
 474              	.LVL54:
 475              		.loc 1 249 7 view .LVU156
 476 0180 30E0     		b	.L35
 477              	.LVL55:
 478              	.L31:
 479              		.loc 1 197 7 is_stmt 1 view .LVU157
 480              		.loc 1 198 7 view .LVU158
 481              		.loc 1 198 14 is_stmt 0 view .LVU159
 482 0182 4446     		mov	r4, r8
 483              	.LVL56:
 484              		.loc 1 199 11 view .LVU160
 485 0184 954B     		ldr	r3, .L103
 486              	.LVL57:
 487              		.loc 1 198 14 view .LVU161
 488 0186 54F8049B 		ldr	r9, [r4], #4
 489              	.LVL58:
 490              		.loc 1 199 11 view .LVU162
 491 018a B9F1000F 		cmp	r9, #0
 492 018e 08BF     		it	eq
 493 0190 9946     		moveq	r9, r3
 494              	.LVL59:
 495              		.loc 1 200 7 is_stmt 1 view .LVU163
 496              		.loc 1 201 19 is_stmt 0 view .LVU164
 497 0192 47F6FF73 		movw	r3, #32767
 498 0196 BBF1000F 		cmp	fp, #0
 499 019a 08BF     		it	eq
 500 019c 9B46     		moveq	fp, r3
 501 019e 4846     		mov	r0, r9
 502 01a0 CB44     		add	fp, fp, r9
 503              	.LVL60:
 504              	.L38:
 505              		.loc 1 202 19 is_stmt 1 discriminator 1 view .LVU165
 506              		.loc 1 202 7 is_stmt 0 discriminator 1 view .LVU166
 507 01a2 0378     		ldrb	r3, [r0]	@ zero_extendqisi2
 508 01a4 0BB1     		cbz	r3, .L70
 509              		.loc 1 202 22 discriminator 3 view .LVU167
 510 01a6 5845     		cmp	r0, fp
 511 01a8 02D1     		bne	.L39
 512              	.L70:
ARM GAS  /tmp/ccBYr15j.s 			page 10


 513              		.loc 1 197 14 view .LVU168
 514 01aa 4FF0200A 		mov	r10, #32
 515 01ae 19E0     		b	.L35
 516              	.L39:
 517              		.loc 1 203 9 is_stmt 1 discriminator 4 view .LVU169
 518              		.loc 1 202 45 discriminator 4 view .LVU170
 519              		.loc 1 202 46 is_stmt 0 discriminator 4 view .LVU171
 520 01b0 0130     		adds	r0, r0, #1
 521              	.LVL61:
 522              		.loc 1 202 46 discriminator 4 view .LVU172
 523 01b2 F6E7     		b	.L38
 524              	.LVL62:
 525              	.L28:
 526              		.loc 1 209 7 is_stmt 1 view .LVU173
 527              		.loc 1 209 10 is_stmt 0 view .LVU174
 528 01b4 1928     		cmp	r0, #25
 529              		.loc 1 212 11 view .LVU175
 530 01b6 08F10404 		add	r4, r8, #4
 531              		.loc 1 209 10 view .LVU176
 532 01ba 41D8     		bhi	.L40
 533              	.LVL63:
 534              	.L41:
 535              		.loc 1 210 9 is_stmt 1 view .LVU177
 536              		.loc 1 210 11 is_stmt 0 view .LVU178
 537 01bc 4446     		mov	r4, r8
 538              	.LVL64:
 539              		.loc 1 210 11 view .LVU179
 540 01be 54F8041B 		ldr	r1, [r4], #4
 541              	.LVL65:
 542              	.L42:
 543              		.loc 1 213 7 is_stmt 1 view .LVU180
 544              		.loc 1 214 9 view .LVU181
 545              		.loc 1 213 10 is_stmt 0 view .LVU182
 546 01c2 0029     		cmp	r1, #0
 547              	.LBB8:
 548              	.LBB9:
 549              		.loc 1 73 10 view .LVU183
 550 01c4 4FF00A02 		mov	r2, #10
 551              	.LBE9:
 552              	.LBE8:
 553              		.loc 1 214 14 view .LVU184
 554 01c8 BDBF     		ittte	lt
 555 01ca 2D23     		movlt	r3, #45
 556              	.LVL66:
 557              		.loc 1 215 11 view .LVU185
 558 01cc 4942     		rsblt	r1, r1, #0
 559              	.LVL67:
 560              		.loc 1 214 11 view .LVU186
 561 01ce 0DF11100 		addlt	r0, sp, #17
 562              		.loc 1 144 7 view .LVU187
 563 01d2 04A8     		addge	r0, sp, #16
 564              		.loc 1 214 14 view .LVU188
 565 01d4 B8BF     		it	lt
 566 01d6 8DF81030 		strblt	r3, [sp, #16]
 567              		.loc 1 215 9 is_stmt 1 view .LVU189
 568              	.LVL68:
 569              		.loc 1 217 7 view .LVU190
ARM GAS  /tmp/ccBYr15j.s 			page 11


 570              	.LBB11:
 571              	.LBI8:
 572              		.loc 1 71 14 view .LVU191
 573              	.LBB10:
 574              		.loc 1 73 3 view .LVU192
 575              		.loc 1 73 10 is_stmt 0 view .LVU193
 576 01da 0023     		movs	r3, #0
 577              	.LVL69:
 578              	.L101:
 579              		.loc 1 73 10 view .LVU194
 580              	.LBE10:
 581              	.LBE11:
 582              		.loc 1 145 7 view .LVU195
 583 01dc 0DF11009 		add	r9, sp, #16
 584              	.LVL70:
 585              	.LBB12:
 586              	.LBB13:
 587              		.loc 1 73 10 view .LVU196
 588 01e0 FFF7FEFF 		bl	long_to_string_with_divisor
 589              	.LVL71:
 590              		.loc 1 73 10 view .LVU197
 591              	.LBE13:
 592              	.LBE12:
 593              		.loc 1 246 7 is_stmt 1 view .LVU198
 594              	.L35:
 595              		.loc 1 251 5 view .LVU199
 596              		.loc 1 252 16 is_stmt 0 view .LVU200
 597 01e4 019B     		ldr	r3, [sp, #4]
 598              		.loc 1 251 7 view .LVU201
 599 01e6 A0EB0908 		sub	r8, r0, r9
 600              	.LVL72:
 601              		.loc 1 252 5 is_stmt 1 view .LVU202
 602              		.loc 1 254 8 is_stmt 0 view .LVU203
 603 01ea 0299     		ldr	r1, [sp, #8]
 604              		.loc 1 252 16 view .LVU204
 605 01ec A3EB0802 		sub	r2, r3, r8
 606              	.LVL73:
 607              		.loc 1 252 16 view .LVU205
 608 01f0 22EAE273 		bic	r3, r2, r2, asr #31
 609              	.LVL74:
 610              		.loc 1 254 5 is_stmt 1 view .LVU206
 611              		.loc 1 254 8 is_stmt 0 view .LVU207
 612 01f4 0029     		cmp	r1, #0
 613 01f6 40F0A580 		bne	.L73
 614              		.loc 1 255 7 is_stmt 1 view .LVU208
 615              		.loc 1 256 8 is_stmt 0 view .LVU209
 616 01fa 002A     		cmp	r2, #0
 617              		.loc 1 255 13 view .LVU210
 618 01fc C3F1000B 		rsb	fp, r3, #0
 619              	.LVL75:
 620              		.loc 1 256 5 is_stmt 1 view .LVU211
 621              		.loc 1 256 8 is_stmt 0 view .LVU212
 622 0200 1CDD     		ble	.L49
 623              		.loc 1 257 7 is_stmt 1 view .LVU213
 624              		.loc 1 257 10 is_stmt 0 view .LVU214
 625 0202 99F80010 		ldrb	r1, [r9]	@ zero_extendqisi2
 626 0206 2D29     		cmp	r1, #45
ARM GAS  /tmp/ccBYr15j.s 			page 12


 627 0208 0DD1     		bne	.L51
 628              		.loc 1 257 21 discriminator 1 view .LVU215
 629 020a BAF1300F 		cmp	r10, #48
 630 020e 0AD1     		bne	.L51
 631              		.loc 1 258 9 view .LVU216
 632 0210 3268     		ldr	r2, [r6]
 633 0212 3046     		mov	r0, r6
 634              	.LVL76:
 635              		.loc 1 258 9 view .LVU217
 636 0214 0193     		str	r3, [sp, #4]
 637              		.loc 1 260 10 view .LVU218
 638 0216 08F1FF38 		add	r8, r8, #-1
 639              	.LVL77:
 640              		.loc 1 258 9 view .LVU219
 641 021a D268     		ldr	r2, [r2, #12]
 642              		.loc 1 141 8 view .LVU220
 643 021c 0137     		adds	r7, r7, #1
 644              	.LVL78:
 645              		.loc 1 258 9 is_stmt 1 view .LVU221
 646 021e 9047     		blx	r2
 647              	.LVL79:
 648 0220 09F10109 		add	r9, r9, #1
 649              	.LVL80:
 650              		.loc 1 258 9 is_stmt 0 view .LVU222
 651 0224 019B     		ldr	r3, [sp, #4]
 652              		.loc 1 259 9 is_stmt 1 view .LVU223
 653              	.LVL81:
 654              		.loc 1 260 9 view .LVU224
 655              	.L51:
 656              		.loc 1 263 9 is_stmt 0 discriminator 1 view .LVU225
 657 0226 3268     		ldr	r2, [r6]
 658 0228 5146     		mov	r1, r10
 659 022a 3046     		mov	r0, r6
 660 022c 0193     		str	r3, [sp, #4]
 661              		.loc 1 262 7 is_stmt 1 discriminator 1 view .LVU226
 662              		.loc 1 263 9 discriminator 1 view .LVU227
 663 022e D268     		ldr	r2, [r2, #12]
 664 0230 9047     		blx	r2
 665              	.LVL82:
 666              		.loc 1 264 9 discriminator 1 view .LVU228
 667              		.loc 1 265 15 discriminator 1 view .LVU229
 668              		.loc 1 265 7 is_stmt 0 discriminator 1 view .LVU230
 669 0232 1BF1010B 		adds	fp, fp, #1
 670              	.LVL83:
 671              		.loc 1 265 7 discriminator 1 view .LVU231
 672 0236 019B     		ldr	r3, [sp, #4]
 673 0238 F5D1     		bne	.L51
 674 023a 1F44     		add	r7, r7, r3
 675              	.L49:
 676              	.LVL84:
 677              		.loc 1 265 7 discriminator 1 view .LVU232
 678 023c 4346     		mov	r3, r8
 679 023e 73E0     		b	.L52
 680              	.LVL85:
 681              	.L40:
 682              		.loc 1 212 9 is_stmt 1 view .LVU233
 683              		.loc 1 212 11 is_stmt 0 view .LVU234
ARM GAS  /tmp/ccBYr15j.s 			page 13


 684 0240 D8F80010 		ldr	r1, [r8]
 685 0244 BDE7     		b	.L42
 686              	.LVL86:
 687              	.L33:
 688              		.loc 1 221 7 is_stmt 1 view .LVU235
 689              		.loc 1 221 19 is_stmt 0 view .LVU236
 690 0246 08F10704 		add	r4, r8, #7
 691 024a 24F00704 		bic	r4, r4, #7
 692              	.LVL87:
 693              		.loc 1 221 9 view .LVU237
 694 024e F4E80201 		ldrd	r0, [r4], #8
 695              	.LVL88:
 696              		.loc 1 221 9 view .LVU238
 697 0252 FFF7FEFF 		bl	__aeabi_d2f
 698              	.LVL89:
 699              		.loc 1 221 9 view .LVU239
 700 0256 08EE100A 		vmov	s16, r0
 701              	.LVL90:
 702              		.loc 1 222 7 is_stmt 1 view .LVU240
 703              		.loc 1 222 10 is_stmt 0 view .LVU241
 704 025a B5EEC08A 		vcmpe.f32	s16, #0
 705 025e F1EE10FA 		vmrs	APSR_nzcv, FPSCR
 706              		.loc 1 223 9 is_stmt 1 view .LVU242
 707              	.LVL91:
 708              		.loc 1 224 11 is_stmt 0 view .LVU243
 709 0262 43BF     		ittte	mi
 710 0264 B1EE488A 		vnegmi.f32	s16, s16
 711              		.loc 1 223 14 view .LVU244
 712 0268 2D23     		movmi	r3, #45
 713              		.loc 1 223 11 view .LVU245
 714 026a 0DF11108 		addmi	r8, sp, #17
 715              		.loc 1 144 7 view .LVU246
 716 026e 0DF11008 		addpl	r8, sp, #16
 717              		.loc 1 223 14 view .LVU247
 718 0272 48BF     		it	mi
 719 0274 8DF81030 		strbmi	r3, [sp, #16]
 720              		.loc 1 224 9 is_stmt 1 view .LVU248
 721              	.LVL92:
 722              		.loc 1 226 7 view .LVU249
 723              		.loc 1 226 11 is_stmt 0 view .LVU250
 724 0278 18EE100A 		vmov	r0, s16
 725 027c FFF7FEFF 		bl	__aeabi_f2d
 726              	.LVL93:
 727              	.LBB15:
 728              	.LBB16:
 729              		.loc 1 84 24 view .LVU251
 730 0280 0BF1FF33 		add	r3, fp, #-1
 731              		.loc 1 88 5 view .LVU252
 732 0284 FDEEC87A 		vcvt.s32.f32	s15, s16
 733              		.loc 1 89 7 view .LVU253
 734 0288 0A22     		movs	r2, #10
 735              		.loc 1 85 15 view .LVU254
 736 028a 092B     		cmp	r3, #9
 737              		.loc 1 86 20 view .LVU255
 738 028c 544B     		ldr	r3, .L103+4
 739              		.loc 1 85 15 view .LVU256
 740 028e 28BF     		it	cs
ARM GAS  /tmp/ccBYr15j.s 			page 14


 741 0290 4FF0090B 		movcs	fp, #9
 742              		.loc 1 86 20 view .LVU257
 743 0294 0BF1FF3B 		add	fp, fp, #-1
 744 0298 53F82B30 		ldr	r3, [r3, fp, lsl #2]
 745              	.LBE16:
 746              	.LBE15:
 747              		.loc 1 226 11 view .LVU258
 748 029c 41EC190B 		vmov	d9, r0, r1
 749              	.LVL94:
 750              	.LBB18:
 751              	.LBI15:
 752              		.loc 1 81 14 is_stmt 1 view .LVU259
 753              	.LBB17:
 754              		.loc 1 82 3 view .LVU260
 755              		.loc 1 84 3 view .LVU261
 756              		.loc 1 86 3 view .LVU262
 757              		.loc 1 86 20 is_stmt 0 view .LVU263
 758 02a0 0393     		str	r3, [sp, #12]
 759              	.LVL95:
 760              		.loc 1 88 3 is_stmt 1 view .LVU264
 761              		.loc 1 89 3 view .LVU265
 762              		.loc 1 89 7 is_stmt 0 view .LVU266
 763 02a2 17EE901A 		vmov	r1, s15	@ int
 764 02a6 0023     		movs	r3, #0
 765              	.LVL96:
 766              		.loc 1 89 7 view .LVU267
 767 02a8 4046     		mov	r0, r8
 768              	.LVL97:
 769              		.loc 1 89 7 view .LVU268
 770 02aa FFF7FEFF 		bl	long_to_string_with_divisor
 771              	.LVL98:
 772              		.loc 1 90 3 is_stmt 1 view .LVU269
 773              		.loc 1 90 8 is_stmt 0 view .LVU270
 774 02ae 2E23     		movs	r3, #46
 775 02b0 8346     		mov	fp, r0
 776              	.LVL99:
 777              		.loc 1 91 19 view .LVU271
 778 02b2 17EE900A 		vmov	r0, s15	@ int
 779              	.LVL100:
 780              		.loc 1 90 8 view .LVU272
 781 02b6 0BF8013B 		strb	r3, [fp], #1
 782              	.LVL101:
 783              		.loc 1 91 3 is_stmt 1 view .LVU273
 784              		.loc 1 91 19 is_stmt 0 view .LVU274
 785 02ba FFF7FEFF 		bl	__aeabi_i2d
 786              	.LVL102:
 787              		.loc 1 91 19 view .LVU275
 788 02be 0246     		mov	r2, r0
 789 02c0 0B46     		mov	r3, r1
 790 02c2 51EC190B 		vmov	r0, r1, d9
 791 02c6 FFF7FEFF 		bl	__aeabi_dsub
 792              	.LVL103:
 793 02ca 8046     		mov	r8, r0
 794              	.LVL104:
 795              		.loc 1 91 19 view .LVU276
 796 02cc 8946     		mov	r9, r1
 797              		.loc 1 91 24 view .LVU277
ARM GAS  /tmp/ccBYr15j.s 			page 15


 798 02ce 0398     		ldr	r0, [sp, #12]
 799 02d0 FFF7FEFF 		bl	__aeabi_ui2d
 800              	.LVL105:
 801 02d4 0246     		mov	r2, r0
 802 02d6 0B46     		mov	r3, r1
 803 02d8 4046     		mov	r0, r8
 804 02da 4946     		mov	r1, r9
 805 02dc FFF7FEFF 		bl	__aeabi_dmul
 806              	.LVL106:
 807              		.loc 1 92 3 is_stmt 1 view .LVU278
 808              		.loc 1 92 58 is_stmt 0 view .LVU279
 809 02e0 0A22     		movs	r2, #10
 810 02e2 039B     		ldr	r3, [sp, #12]
 811 02e4 B3FBF2F3 		udiv	r3, r3, r2
 812 02e8 0393     		str	r3, [sp, #12]
 813              	.LVL107:
 814              		.loc 1 91 5 view .LVU280
 815 02ea FFF7FEFF 		bl	__aeabi_d2iz
 816              	.LVL108:
 817              		.loc 1 92 10 view .LVU281
 818 02ee 039B     		ldr	r3, [sp, #12]
 819              		.loc 1 91 5 view .LVU282
 820 02f0 0146     		mov	r1, r0
 821              		.loc 1 92 10 view .LVU283
 822 02f2 0A22     		movs	r2, #10
 823 02f4 5846     		mov	r0, fp
 824 02f6 71E7     		b	.L101
 825              	.LVL109:
 826              	.L66:
 827              		.loc 1 92 10 view .LVU284
 828              	.LBE17:
 829              	.LBE18:
 830              		.loc 1 239 9 view .LVU285
 831 02f8 0822     		movs	r2, #8
 832              	.L26:
 833              	.LVL110:
 834              		.loc 1 241 7 is_stmt 1 view .LVU286
 835              		.loc 1 244 11 is_stmt 0 view .LVU287
 836 02fa 4446     		mov	r4, r8
 837              		.loc 1 241 10 view .LVU288
 838 02fc 1928     		cmp	r0, #25
 839              		.loc 1 244 11 view .LVU289
 840 02fe 54F8041B 		ldr	r1, [r4], #4
 841              		.loc 1 241 10 view .LVU290
 842 0302 02D8     		bhi	.L47
 843              	.LVL111:
 844              	.L48:
 845              		.loc 1 242 9 is_stmt 1 view .LVU291
 846              		.loc 1 242 13 is_stmt 0 view .LVU292
 847 0304 4446     		mov	r4, r8
 848              	.LVL112:
 849              		.loc 1 242 11 view .LVU293
 850 0306 54F8041B 		ldr	r1, [r4], #4
 851              	.LVL113:
 852              	.L47:
 853              		.loc 1 245 7 is_stmt 1 view .LVU294
 854              	.LBB19:
ARM GAS  /tmp/ccBYr15j.s 			page 16


 855              	.LBI12:
 856              		.loc 1 71 14 view .LVU295
 857              	.LBB14:
 858              		.loc 1 73 3 view .LVU296
 859              		.loc 1 73 10 is_stmt 0 view .LVU297
 860 030a 0023     		movs	r3, #0
 861 030c 04A8     		add	r0, sp, #16
 862              	.LVL114:
 863              		.loc 1 73 10 view .LVU298
 864 030e 65E7     		b	.L101
 865              	.LVL115:
 866              	.L68:
 867              		.loc 1 73 10 view .LVU299
 868              	.LBE14:
 869              	.LBE19:
 870              		.loc 1 235 9 view .LVU300
 871 0310 0A22     		movs	r2, #10
 872 0312 F2E7     		b	.L26
 873              	.LVL116:
 874              	.L76:
 875              		.loc 1 191 5 view .LVU301
 876 0314 0822     		movs	r2, #8
 877 0316 F5E7     		b	.L48
 878              	.LVL117:
 879              	.L53:
 880              		.loc 1 268 7 view .LVU302
 881 0318 3268     		ldr	r2, [r6]
 882 031a 3046     		mov	r0, r6
 883 031c 19F8011B 		ldrb	r1, [r9], #1	@ zero_extendqisi2
 884              	.LVL118:
 885              		.loc 1 268 7 view .LVU303
 886 0320 D268     		ldr	r2, [r2, #12]
 887 0322 0193     		str	r3, [sp, #4]
 888              		.loc 1 268 7 is_stmt 1 view .LVU304
 889              	.LVL119:
 890              		.loc 1 268 7 is_stmt 0 view .LVU305
 891 0324 9047     		blx	r2
 892              	.LVL120:
 893              		.loc 1 269 7 is_stmt 1 view .LVU306
 894 0326 019B     		ldr	r3, [sp, #4]
 895              	.LVL121:
 896              	.L52:
 897              		.loc 1 267 11 view .LVU307
 898              		.loc 1 267 11 is_stmt 0 view .LVU308
 899 0328 013B     		subs	r3, r3, #1
 900              	.LVL122:
 901              		.loc 1 267 11 view .LVU309
 902 032a F5D5     		bpl	.L53
 903 032c B8F1000F 		cmp	r8, #0
 904 0330 A8BF     		it	ge
 905 0332 4744     		addge	r7, r7, r8
 906 0334 D846     		mov	r8, fp
 907              	.LVL123:
 908              	.L54:
 909              		.loc 1 272 11 is_stmt 1 view .LVU310
 910 0336 B8F1000F 		cmp	r8, #0
 911 033a 05D1     		bne	.L55
ARM GAS  /tmp/ccBYr15j.s 			page 17


 912 033c 5F44     		add	r7, r7, fp
 913 033e A046     		mov	r8, r4
 914              	.LVL124:
 915              	.L13:
 916              		.loc 1 272 11 is_stmt 0 view .LVU311
 917 0340 2946     		mov	r1, r5
 918 0342 65E6     		b	.L10
 919              	.LVL125:
 920              	.L73:
 921              		.loc 1 272 11 view .LVU312
 922 0344 9B46     		mov	fp, r3
 923 0346 79E7     		b	.L49
 924              	.LVL126:
 925              	.L55:
 926              		.loc 1 273 7 is_stmt 1 view .LVU313
 927 0348 3368     		ldr	r3, [r6]
 928 034a 5146     		mov	r1, r10
 929 034c 3046     		mov	r0, r6
 930              		.loc 1 275 12 is_stmt 0 view .LVU314
 931 034e 08F1FF38 		add	r8, r8, #-1
 932              	.LVL127:
 933              		.loc 1 273 7 view .LVU315
 934 0352 DB68     		ldr	r3, [r3, #12]
 935 0354 9847     		blx	r3
 936              	.LVL128:
 937              		.loc 1 274 7 is_stmt 1 view .LVU316
 938              		.loc 1 275 7 view .LVU317
 939              		.loc 1 275 7 is_stmt 0 view .LVU318
 940 0356 EEE7     		b	.L54
 941              	.LVL129:
 942              	.L77:
 943              		.loc 1 235 9 view .LVU319
 944 0358 0A22     		movs	r2, #10
 945 035a D3E7     		b	.L48
 946              	.L58:
 947 035c A3F16302 		sub	r2, r3, #99
 948 0360 152A     		cmp	r2, #21
 949 0362 3FF6C4AE 		bhi	.L24
 950 0366 01A1     		adr	r1, .L61
 951 0368 51F822F0 		ldr	pc, [r1, r2, lsl #2]
 952              		.p2align 2
 953              	.L61:
 954 036c 6B010000 		.word	.L34+1
 955 0370 BD010000 		.word	.L41+1
 956 0374 EF000000 		.word	.L24+1
 957 0378 47020000 		.word	.L33+1
 958 037c EF000000 		.word	.L24+1
 959 0380 EF000000 		.word	.L24+1
 960 0384 BD010000 		.word	.L41+1
 961 0388 EF000000 		.word	.L24+1
 962 038c EF000000 		.word	.L24+1
 963 0390 EF000000 		.word	.L24+1
 964 0394 EF000000 		.word	.L24+1
 965 0398 EF000000 		.word	.L24+1
 966 039c 15030000 		.word	.L76+1
 967 03a0 EF000000 		.word	.L24+1
 968 03a4 EF000000 		.word	.L24+1
ARM GAS  /tmp/ccBYr15j.s 			page 18


 969 03a8 EF000000 		.word	.L24+1
 970 03ac 83010000 		.word	.L31+1
 971 03b0 EF000000 		.word	.L24+1
 972 03b4 59030000 		.word	.L77+1
 973 03b8 EF000000 		.word	.L24+1
 974 03bc EF000000 		.word	.L24+1
 975 03c0 CB030000 		.word	.L60+1
 976              		.p2align 1
 977              	.L59:
 978              		.loc 1 191 5 view .LVU320
 979 03c4 582B     		cmp	r3, #88
 980 03c6 7FF492AE 		bne	.L24
 981              	.L60:
 982 03ca 1022     		movs	r2, #16
 983 03cc 9AE7     		b	.L48
 984              	.LVL130:
 985              	.L96:
 986              		.loc 1 278 1 view .LVU321
 987 03ce 3846     		mov	r0, r7
 988 03d0 0BB0     		add	sp, sp, #44
 989              		.cfi_def_cfa_offset 52
 990              		@ sp needed
 991 03d2 BDEC048B 		vldm	sp!, {d8-d9}
 992              		.cfi_restore 82
 993              		.cfi_restore 83
 994              		.cfi_restore 80
 995              		.cfi_restore 81
 996              		.cfi_def_cfa_offset 36
 997 03d6 BDE8F08F 		pop	{r4, r5, r6, r7, r8, r9, r10, fp, pc}
 998              	.LVL131:
 999              	.L104:
 1000              		.loc 1 278 1 view .LVU322
 1001 03da 00BF     		.align	2
 1002              	.L103:
 1003 03dc 00000000 		.word	.LC0
 1004 03e0 00000000 		.word	.LANCHOR0
 1005              		.cfi_endproc
 1006              	.LFE337:
 1007              		.size	chvprintf, .-chvprintf
 1008              		.section	.text.chprintf,"ax",%progbits
 1009              		.align	1
 1010              		.global	chprintf
 1011              		.syntax unified
 1012              		.thumb
 1013              		.thumb_func
 1014              		.fpu fpv4-sp-d16
 1015              		.type	chprintf, %function
 1016              	chprintf:
 1017              	.LVL132:
 1018              	.LFB338:
 1019              		.loc 1 305 63 is_stmt 1 view -0
 1020              		.cfi_startproc
 1021              		@ args = 4, pretend = 12, frame = 8
 1022              		@ frame_needed = 0, uses_anonymous_args = 1
 1023              		.loc 1 306 3 view .LVU324
 1024              		.loc 1 307 3 view .LVU325
 1025              		.loc 1 309 3 view .LVU326
ARM GAS  /tmp/ccBYr15j.s 			page 19


 1026              		.loc 1 305 63 is_stmt 0 view .LVU327
 1027 0000 0EB4     		push	{r1, r2, r3}
 1028              		.cfi_def_cfa_offset 12
 1029              		.cfi_offset 1, -12
 1030              		.cfi_offset 2, -8
 1031              		.cfi_offset 3, -4
 1032 0002 03B5     		push	{r0, r1, lr}
 1033              		.cfi_def_cfa_offset 24
 1034              		.cfi_offset 14, -16
 1035              		.loc 1 305 63 view .LVU328
 1036 0004 03AA     		add	r2, sp, #12
 1037 0006 52F8041B 		ldr	r1, [r2], #4
 1038              		.loc 1 309 3 view .LVU329
 1039 000a 0192     		str	r2, [sp, #4]
 1040              		.loc 1 310 3 is_stmt 1 view .LVU330
 1041              		.loc 1 310 21 is_stmt 0 view .LVU331
 1042 000c FFF7FEFF 		bl	chvprintf
 1043              	.LVL133:
 1044              		.loc 1 311 3 is_stmt 1 view .LVU332
 1045              		.loc 1 313 3 view .LVU333
 1046              		.loc 1 314 1 is_stmt 0 view .LVU334
 1047 0010 02B0     		add	sp, sp, #8
 1048              		.cfi_def_cfa_offset 16
 1049              		@ sp needed
 1050 0012 5DF804EB 		ldr	lr, [sp], #4
 1051              		.cfi_restore 14
 1052              		.cfi_def_cfa_offset 12
 1053 0016 03B0     		add	sp, sp, #12
 1054              		.cfi_restore 3
 1055              		.cfi_restore 2
 1056              		.cfi_restore 1
 1057              		.cfi_def_cfa_offset 0
 1058 0018 7047     		bx	lr
 1059              		.cfi_endproc
 1060              	.LFE338:
 1061              		.size	chprintf, .-chprintf
 1062              		.section	.text.chvsnprintf,"ax",%progbits
 1063              		.align	1
 1064              		.global	chvsnprintf
 1065              		.syntax unified
 1066              		.thumb
 1067              		.thumb_func
 1068              		.fpu fpv4-sp-d16
 1069              		.type	chvsnprintf, %function
 1070              	chvsnprintf:
 1071              	.LVL134:
 1072              	.LFB340:
 1073              		.loc 1 384 70 is_stmt 1 view -0
 1074              		.cfi_startproc
 1075              		@ args = 0, pretend = 0, frame = 24
 1076              		@ frame_needed = 0, uses_anonymous_args = 0
 1077              		.loc 1 385 3 view .LVU336
 1078              		.loc 1 386 3 view .LVU337
 1079              		.loc 1 387 3 view .LVU338
 1080              		.loc 1 388 3 view .LVU339
 1081              		.loc 1 390 3 view .LVU340
 1082              		.loc 1 384 70 is_stmt 0 view .LVU341
ARM GAS  /tmp/ccBYr15j.s 			page 20


 1083 0000 F0B5     		push	{r4, r5, r6, r7, lr}
 1084              		.cfi_def_cfa_offset 20
 1085              		.cfi_offset 4, -20
 1086              		.cfi_offset 5, -16
 1087              		.cfi_offset 6, -12
 1088              		.cfi_offset 7, -8
 1089              		.cfi_offset 14, -4
 1090 0002 0546     		mov	r5, r0
 1091 0004 87B0     		sub	sp, sp, #28
 1092              		.cfi_def_cfa_offset 48
 1093              		.loc 1 384 70 view .LVU342
 1094 0006 1646     		mov	r6, r2
 1095 0008 1F46     		mov	r7, r3
 1096              	.LVL135:
 1097              		.loc 1 390 6 view .LVU343
 1098 000a 0C46     		mov	r4, r1
 1099 000c 89B1     		cbz	r1, .L109
 1100              		.loc 1 391 5 is_stmt 1 view .LVU344
 1101              		.loc 1 391 17 is_stmt 0 view .LVU345
 1102 000e 4A1E     		subs	r2, r1, #1
 1103              	.LVL136:
 1104              	.L107:
 1105              		.loc 1 397 3 is_stmt 1 view .LVU346
 1106 0010 0023     		movs	r3, #0
 1107 0012 2946     		mov	r1, r5
 1108              	.LVL137:
 1109              		.loc 1 397 3 is_stmt 0 view .LVU347
 1110 0014 01A8     		add	r0, sp, #4
 1111              	.LVL138:
 1112              		.loc 1 397 3 view .LVU348
 1113 0016 FFF7FEFF 		bl	msObjectInit
 1114              	.LVL139:
 1115              		.loc 1 400 3 is_stmt 1 view .LVU349
 1116              		.loc 1 401 3 view .LVU350
 1117              		.loc 1 401 12 is_stmt 0 view .LVU351
 1118 001a 3A46     		mov	r2, r7
 1119 001c 3146     		mov	r1, r6
 1120 001e 01A8     		add	r0, sp, #4
 1121              	.LVL140:
 1122              		.loc 1 401 12 view .LVU352
 1123 0020 FFF7FEFF 		bl	chvprintf
 1124              	.LVL141:
 1125              		.loc 1 404 3 is_stmt 1 view .LVU353
 1126              		.loc 1 404 9 is_stmt 0 view .LVU354
 1127 0024 049B     		ldr	r3, [sp, #16]
 1128              		.loc 1 404 6 view .LVU355
 1129 0026 A342     		cmp	r3, r4
 1130              		.loc 1 405 5 is_stmt 1 view .LVU356
 1131              		.loc 1 405 17 is_stmt 0 view .LVU357
 1132 0028 3CBF     		itt	cc
 1133 002a 0022     		movcc	r2, #0
 1134 002c EA54     		strbcc	r2, [r5, r3]
 1135              		.loc 1 409 3 is_stmt 1 view .LVU358
 1136              		.loc 1 410 1 is_stmt 0 view .LVU359
 1137 002e 07B0     		add	sp, sp, #28
 1138              		.cfi_remember_state
 1139              		.cfi_def_cfa_offset 20
ARM GAS  /tmp/ccBYr15j.s 			page 21


 1140              		@ sp needed
 1141 0030 F0BD     		pop	{r4, r5, r6, r7, pc}
 1142              	.LVL142:
 1143              	.L109:
 1144              		.cfi_restore_state
 1145              		.loc 1 393 17 view .LVU360
 1146 0032 0A46     		mov	r2, r1
 1147              	.LVL143:
 1148              		.loc 1 393 17 view .LVU361
 1149 0034 ECE7     		b	.L107
 1150              		.cfi_endproc
 1151              	.LFE340:
 1152              		.size	chvsnprintf, .-chvsnprintf
 1153              		.section	.text.chsnprintf,"ax",%progbits
 1154              		.align	1
 1155              		.global	chsnprintf
 1156              		.syntax unified
 1157              		.thumb
 1158              		.thumb_func
 1159              		.fpu fpv4-sp-d16
 1160              		.type	chsnprintf, %function
 1161              	chsnprintf:
 1162              	.LVL144:
 1163              	.LFB339:
 1164              		.loc 1 343 62 is_stmt 1 view -0
 1165              		.cfi_startproc
 1166              		@ args = 4, pretend = 8, frame = 8
 1167              		@ frame_needed = 0, uses_anonymous_args = 1
 1168              		.loc 1 344 3 view .LVU363
 1169              		.loc 1 345 3 view .LVU364
 1170              		.loc 1 348 3 view .LVU365
 1171              		.loc 1 343 62 is_stmt 0 view .LVU366
 1172 0000 0CB4     		push	{r2, r3}
 1173              		.cfi_def_cfa_offset 8
 1174              		.cfi_offset 2, -8
 1175              		.cfi_offset 3, -4
 1176 0002 07B5     		push	{r0, r1, r2, lr}
 1177              		.cfi_def_cfa_offset 24
 1178              		.cfi_offset 14, -12
 1179              		.loc 1 343 62 view .LVU367
 1180 0004 04AB     		add	r3, sp, #16
 1181 0006 53F8042B 		ldr	r2, [r3], #4
 1182              		.loc 1 348 3 view .LVU368
 1183 000a 0193     		str	r3, [sp, #4]
 1184              		.loc 1 349 3 is_stmt 1 view .LVU369
 1185              		.loc 1 349 12 is_stmt 0 view .LVU370
 1186 000c FFF7FEFF 		bl	chvsnprintf
 1187              	.LVL145:
 1188              		.loc 1 350 3 is_stmt 1 view .LVU371
 1189              		.loc 1 353 3 view .LVU372
 1190              		.loc 1 354 1 is_stmt 0 view .LVU373
 1191 0010 03B0     		add	sp, sp, #12
 1192              		.cfi_def_cfa_offset 12
 1193              		@ sp needed
 1194 0012 5DF804EB 		ldr	lr, [sp], #4
 1195              		.cfi_restore 14
 1196              		.cfi_def_cfa_offset 8
ARM GAS  /tmp/ccBYr15j.s 			page 22


 1197 0016 02B0     		add	sp, sp, #8
 1198              		.cfi_restore 3
 1199              		.cfi_restore 2
 1200              		.cfi_def_cfa_offset 0
 1201 0018 7047     		bx	lr
 1202              		.cfi_endproc
 1203              	.LFE339:
 1204              		.size	chsnprintf, .-chsnprintf
 1205              		.section	.rodata.pow10,"a"
 1206              		.align	2
 1207              		.set	.LANCHOR0,. + 0
 1208              		.type	pow10, %object
 1209              		.size	pow10, 36
 1210              	pow10:
 1211 0000 0A000000 		.word	10
 1212 0004 64000000 		.word	100
 1213 0008 E8030000 		.word	1000
 1214 000c 10270000 		.word	10000
 1215 0010 A0860100 		.word	100000
 1216 0014 40420F00 		.word	1000000
 1217 0018 80969800 		.word	10000000
 1218 001c 00E1F505 		.word	100000000
 1219 0020 00CA9A3B 		.word	1000000000
 1220              		.text
 1221              	.Letext0:
 1222              		.file 2 "/opt/gcc-arm-none-eabi-10-2020-q4-major/lib/gcc/arm-none-eabi/10.2.1/include/stddef.h"
 1223              		.file 3 "/opt/gcc-arm-none-eabi-10-2020-q4-major/arm-none-eabi/include/machine/_default_types.h"
 1224              		.file 4 "/opt/gcc-arm-none-eabi-10-2020-q4-major/arm-none-eabi/include/sys/_stdint.h"
 1225              		.file 5 "../../modules/ChibiOS/os/common/ports/ARMCMx/compilers/GCC/chtypes.h"
 1226              		.file 6 "../../modules/ChibiOS/os/hal/include/hal_streams.h"
 1227              		.file 7 "/opt/gcc-arm-none-eabi-10-2020-q4-major/lib/gcc/arm-none-eabi/10.2.1/include/stdarg.h"
 1228              		.file 8 "../../modules/ChibiOS/os/hal/lib/streams/memstreams.h"
 1229              		.file 9 "<built-in>"
 1230              		.section	.debug_info,"",%progbits
 1231              	.Ldebug_info0:
 1232 0000 74090000 		.4byte	0x974
 1233 0004 0400     		.2byte	0x4
 1234 0006 00000000 		.4byte	.Ldebug_abbrev0
 1235 000a 04       		.byte	0x4
 1236 000b 01       		.uleb128 0x1
 1237 000c 84020000 		.4byte	.LASF57
 1238 0010 0C       		.byte	0xc
 1239 0011 46020000 		.4byte	.LASF58
 1240 0015 B4000000 		.4byte	.LASF59
 1241 0019 48000000 		.4byte	.Ldebug_ranges0+0x48
 1242 001d 00000000 		.4byte	0
 1243 0021 00000000 		.4byte	.Ldebug_line0
 1244 0025 02       		.uleb128 0x2
 1245 0026 04       		.byte	0x4
 1246 0027 07       		.byte	0x7
 1247 0028 99010000 		.4byte	.LASF0
 1248 002c 03       		.uleb128 0x3
 1249 002d 04       		.byte	0x4
 1250 002e 05       		.byte	0x5
 1251 002f 696E7400 		.ascii	"int\000"
 1252 0033 02       		.uleb128 0x2
 1253 0034 08       		.byte	0x8
ARM GAS  /tmp/ccBYr15j.s 			page 23


 1254 0035 04       		.byte	0x4
 1255 0036 2D020000 		.4byte	.LASF1
 1256 003a 02       		.uleb128 0x2
 1257 003b 04       		.byte	0x4
 1258 003c 04       		.byte	0x4
 1259 003d 8F000000 		.4byte	.LASF2
 1260 0041 04       		.uleb128 0x4
 1261 0042 39000000 		.4byte	.LASF6
 1262 0046 02       		.byte	0x2
 1263 0047 D1       		.byte	0xd1
 1264 0048 17       		.byte	0x17
 1265 0049 25000000 		.4byte	0x25
 1266 004d 02       		.uleb128 0x2
 1267 004e 08       		.byte	0x8
 1268 004f 05       		.byte	0x5
 1269 0050 A6000000 		.4byte	.LASF3
 1270 0054 02       		.uleb128 0x2
 1271 0055 08       		.byte	0x8
 1272 0056 04       		.byte	0x4
 1273 0057 3A010000 		.4byte	.LASF4
 1274 005b 02       		.uleb128 0x2
 1275 005c 01       		.byte	0x1
 1276 005d 06       		.byte	0x6
 1277 005e 6E010000 		.4byte	.LASF5
 1278 0062 04       		.uleb128 0x4
 1279 0063 14010000 		.4byte	.LASF7
 1280 0067 03       		.byte	0x3
 1281 0068 2B       		.byte	0x2b
 1282 0069 18       		.byte	0x18
 1283 006a 6E000000 		.4byte	0x6e
 1284 006e 02       		.uleb128 0x2
 1285 006f 01       		.byte	0x1
 1286 0070 08       		.byte	0x8
 1287 0071 46010000 		.4byte	.LASF8
 1288 0075 02       		.uleb128 0x2
 1289 0076 02       		.byte	0x2
 1290 0077 05       		.byte	0x5
 1291 0078 2F000000 		.4byte	.LASF9
 1292 007c 02       		.uleb128 0x2
 1293 007d 02       		.byte	0x2
 1294 007e 07       		.byte	0x7
 1295 007f B9010000 		.4byte	.LASF10
 1296 0083 04       		.uleb128 0x4
 1297 0084 7A020000 		.4byte	.LASF11
 1298 0088 03       		.byte	0x3
 1299 0089 4D       		.byte	0x4d
 1300 008a 18       		.byte	0x18
 1301 008b 8F000000 		.4byte	0x8f
 1302 008f 02       		.uleb128 0x2
 1303 0090 04       		.byte	0x4
 1304 0091 05       		.byte	0x5
 1305 0092 D6010000 		.4byte	.LASF12
 1306 0096 05       		.uleb128 0x5
 1307 0097 8F000000 		.4byte	0x8f
 1308 009b 02       		.uleb128 0x2
 1309 009c 04       		.byte	0x4
 1310 009d 07       		.byte	0x7
ARM GAS  /tmp/ccBYr15j.s 			page 24


 1311 009e 1B020000 		.4byte	.LASF13
 1312 00a2 02       		.uleb128 0x2
 1313 00a3 08       		.byte	0x8
 1314 00a4 07       		.byte	0x7
 1315 00a5 7A010000 		.4byte	.LASF14
 1316 00a9 04       		.uleb128 0x4
 1317 00aa 81000000 		.4byte	.LASF15
 1318 00ae 04       		.byte	0x4
 1319 00af 18       		.byte	0x18
 1320 00b0 13       		.byte	0x13
 1321 00b1 62000000 		.4byte	0x62
 1322 00b5 05       		.uleb128 0x5
 1323 00b6 A9000000 		.4byte	0xa9
 1324 00ba 04       		.uleb128 0x4
 1325 00bb DF010000 		.4byte	.LASF16
 1326 00bf 04       		.byte	0x4
 1327 00c0 2C       		.byte	0x2c
 1328 00c1 13       		.byte	0x13
 1329 00c2 83000000 		.4byte	0x83
 1330 00c6 04       		.uleb128 0x4
 1331 00c7 D1030000 		.4byte	.LASF17
 1332 00cb 05       		.byte	0x5
 1333 00cc 2F       		.byte	0x2f
 1334 00cd 1D       		.byte	0x1d
 1335 00ce BA000000 		.4byte	0xba
 1336 00d2 06       		.uleb128 0x6
 1337 00d3 04       		.byte	0x4
 1338 00d4 07       		.uleb128 0x7
 1339 00d5 04       		.byte	0x4
 1340 00d6 E1000000 		.4byte	0xe1
 1341 00da 02       		.uleb128 0x2
 1342 00db 01       		.byte	0x1
 1343 00dc 08       		.byte	0x8
 1344 00dd D1010000 		.4byte	.LASF18
 1345 00e1 05       		.uleb128 0x5
 1346 00e2 DA000000 		.4byte	0xda
 1347 00e6 02       		.uleb128 0x2
 1348 00e7 01       		.byte	0x1
 1349 00e8 02       		.byte	0x2
 1350 00e9 00020000 		.4byte	.LASF19
 1351 00ed 07       		.uleb128 0x7
 1352 00ee 04       		.byte	0x4
 1353 00ef A9000000 		.4byte	0xa9
 1354 00f3 08       		.uleb128 0x8
 1355 00f4 EB030000 		.4byte	.LASF26
 1356 00f8 14       		.byte	0x14
 1357 00f9 06       		.byte	0x6
 1358 00fa 48       		.byte	0x48
 1359 00fb 08       		.byte	0x8
 1360 00fc 42010000 		.4byte	0x142
 1361 0100 09       		.uleb128 0x9
 1362 0101 E8000000 		.4byte	.LASF20
 1363 0105 06       		.byte	0x6
 1364 0106 49       		.byte	0x49
 1365 0107 03       		.byte	0x3
 1366 0108 41000000 		.4byte	0x41
 1367 010c 00       		.byte	0
ARM GAS  /tmp/ccBYr15j.s 			page 25


 1368 010d 09       		.uleb128 0x9
 1369 010e 0C000000 		.4byte	.LASF21
 1370 0112 06       		.byte	0x6
 1371 0113 49       		.byte	0x49
 1372 0114 03       		.byte	0x3
 1373 0115 66010000 		.4byte	0x166
 1374 0119 04       		.byte	0x4
 1375 011a 09       		.uleb128 0x9
 1376 011b A1000000 		.4byte	.LASF22
 1377 011f 06       		.byte	0x6
 1378 0120 49       		.byte	0x49
 1379 0121 03       		.byte	0x3
 1380 0122 85010000 		.4byte	0x185
 1381 0126 08       		.byte	0x8
 1382 0127 0A       		.uleb128 0xa
 1383 0128 70757400 		.ascii	"put\000"
 1384 012c 06       		.byte	0x6
 1385 012d 49       		.byte	0x49
 1386 012e 03       		.byte	0x3
 1387 012f 9F010000 		.4byte	0x19f
 1388 0133 0C       		.byte	0xc
 1389 0134 0A       		.uleb128 0xa
 1390 0135 67657400 		.ascii	"get\000"
 1391 0139 06       		.byte	0x6
 1392 013a 49       		.byte	0x49
 1393 013b 03       		.byte	0x3
 1394 013c B4010000 		.4byte	0x1b4
 1395 0140 10       		.byte	0x10
 1396 0141 00       		.byte	0
 1397 0142 05       		.uleb128 0x5
 1398 0143 F3000000 		.4byte	0xf3
 1399 0147 0B       		.uleb128 0xb
 1400 0148 41000000 		.4byte	0x41
 1401 014c 60010000 		.4byte	0x160
 1402 0150 0C       		.uleb128 0xc
 1403 0151 D2000000 		.4byte	0xd2
 1404 0155 0C       		.uleb128 0xc
 1405 0156 60010000 		.4byte	0x160
 1406 015a 0C       		.uleb128 0xc
 1407 015b 41000000 		.4byte	0x41
 1408 015f 00       		.byte	0
 1409 0160 07       		.uleb128 0x7
 1410 0161 04       		.byte	0x4
 1411 0162 B5000000 		.4byte	0xb5
 1412 0166 07       		.uleb128 0x7
 1413 0167 04       		.byte	0x4
 1414 0168 47010000 		.4byte	0x147
 1415 016c 0B       		.uleb128 0xb
 1416 016d 41000000 		.4byte	0x41
 1417 0171 85010000 		.4byte	0x185
 1418 0175 0C       		.uleb128 0xc
 1419 0176 D2000000 		.4byte	0xd2
 1420 017a 0C       		.uleb128 0xc
 1421 017b ED000000 		.4byte	0xed
 1422 017f 0C       		.uleb128 0xc
 1423 0180 41000000 		.4byte	0x41
 1424 0184 00       		.byte	0
ARM GAS  /tmp/ccBYr15j.s 			page 26


 1425 0185 07       		.uleb128 0x7
 1426 0186 04       		.byte	0x4
 1427 0187 6C010000 		.4byte	0x16c
 1428 018b 0B       		.uleb128 0xb
 1429 018c C6000000 		.4byte	0xc6
 1430 0190 9F010000 		.4byte	0x19f
 1431 0194 0C       		.uleb128 0xc
 1432 0195 D2000000 		.4byte	0xd2
 1433 0199 0C       		.uleb128 0xc
 1434 019a A9000000 		.4byte	0xa9
 1435 019e 00       		.byte	0
 1436 019f 07       		.uleb128 0x7
 1437 01a0 04       		.byte	0x4
 1438 01a1 8B010000 		.4byte	0x18b
 1439 01a5 0B       		.uleb128 0xb
 1440 01a6 C6000000 		.4byte	0xc6
 1441 01aa B4010000 		.4byte	0x1b4
 1442 01ae 0C       		.uleb128 0xc
 1443 01af D2000000 		.4byte	0xd2
 1444 01b3 00       		.byte	0
 1445 01b4 07       		.uleb128 0x7
 1446 01b5 04       		.byte	0x4
 1447 01b6 A5010000 		.4byte	0x1a5
 1448 01ba 0D       		.uleb128 0xd
 1449 01bb 04       		.byte	0x4
 1450 01bc 06       		.byte	0x6
 1451 01bd 53       		.byte	0x53
 1452 01be 09       		.byte	0x9
 1453 01bf D1010000 		.4byte	0x1d1
 1454 01c3 0A       		.uleb128 0xa
 1455 01c4 766D7400 		.ascii	"vmt\000"
 1456 01c8 06       		.byte	0x6
 1457 01c9 55       		.byte	0x55
 1458 01ca 29       		.byte	0x29
 1459 01cb D1010000 		.4byte	0x1d1
 1460 01cf 00       		.byte	0
 1461 01d0 00       		.byte	0
 1462 01d1 07       		.uleb128 0x7
 1463 01d2 04       		.byte	0x4
 1464 01d3 42010000 		.4byte	0x142
 1465 01d7 04       		.uleb128 0x4
 1466 01d8 40000000 		.4byte	.LASF23
 1467 01dc 06       		.byte	0x6
 1468 01dd 57       		.byte	0x57
 1469 01de 03       		.byte	0x3
 1470 01df BA010000 		.4byte	0x1ba
 1471 01e3 04       		.uleb128 0x4
 1472 01e4 A1030000 		.4byte	.LASF24
 1473 01e8 07       		.byte	0x7
 1474 01e9 28       		.byte	0x28
 1475 01ea 1B       		.byte	0x1b
 1476 01eb EF010000 		.4byte	0x1ef
 1477 01ef 0E       		.uleb128 0xe
 1478 01f0 0A010000 		.4byte	.LASF60
 1479 01f4 04       		.byte	0x4
 1480 01f5 09       		.byte	0x9
 1481 01f6 00       		.byte	0
ARM GAS  /tmp/ccBYr15j.s 			page 27


 1482 01f7 06020000 		.4byte	0x206
 1483 01fb 0F       		.uleb128 0xf
 1484 01fc CC010000 		.4byte	.LASF61
 1485 0200 D2000000 		.4byte	0xd2
 1486 0204 00       		.byte	0
 1487 0205 00       		.byte	0
 1488 0206 04       		.uleb128 0x4
 1489 0207 65000000 		.4byte	.LASF25
 1490 020b 07       		.byte	0x7
 1491 020c 63       		.byte	0x63
 1492 020d 18       		.byte	0x18
 1493 020e E3010000 		.4byte	0x1e3
 1494 0212 08       		.uleb128 0x8
 1495 0213 74000000 		.4byte	.LASF27
 1496 0217 14       		.byte	0x14
 1497 0218 08       		.byte	0x8
 1498 0219 3D       		.byte	0x3d
 1499 021a 08       		.byte	0x8
 1500 021b 61020000 		.4byte	0x261
 1501 021f 09       		.uleb128 0x9
 1502 0220 E8000000 		.4byte	.LASF20
 1503 0224 08       		.byte	0x8
 1504 0225 3E       		.byte	0x3e
 1505 0226 03       		.byte	0x3
 1506 0227 41000000 		.4byte	0x41
 1507 022b 00       		.byte	0
 1508 022c 09       		.uleb128 0x9
 1509 022d 0C000000 		.4byte	.LASF21
 1510 0231 08       		.byte	0x8
 1511 0232 3E       		.byte	0x3e
 1512 0233 03       		.byte	0x3
 1513 0234 66010000 		.4byte	0x166
 1514 0238 04       		.byte	0x4
 1515 0239 09       		.uleb128 0x9
 1516 023a A1000000 		.4byte	.LASF22
 1517 023e 08       		.byte	0x8
 1518 023f 3E       		.byte	0x3e
 1519 0240 03       		.byte	0x3
 1520 0241 85010000 		.4byte	0x185
 1521 0245 08       		.byte	0x8
 1522 0246 0A       		.uleb128 0xa
 1523 0247 70757400 		.ascii	"put\000"
 1524 024b 08       		.byte	0x8
 1525 024c 3E       		.byte	0x3e
 1526 024d 03       		.byte	0x3
 1527 024e 9F010000 		.4byte	0x19f
 1528 0252 0C       		.byte	0xc
 1529 0253 0A       		.uleb128 0xa
 1530 0254 67657400 		.ascii	"get\000"
 1531 0258 08       		.byte	0x8
 1532 0259 3E       		.byte	0x3e
 1533 025a 03       		.byte	0x3
 1534 025b B4010000 		.4byte	0x1b4
 1535 025f 10       		.byte	0x10
 1536 0260 00       		.byte	0
 1537 0261 05       		.uleb128 0x5
 1538 0262 12020000 		.4byte	0x212
ARM GAS  /tmp/ccBYr15j.s 			page 28


 1539 0266 0D       		.uleb128 0xd
 1540 0267 14       		.byte	0x14
 1541 0268 08       		.byte	0x8
 1542 0269 46       		.byte	0x46
 1543 026a 09       		.byte	0x9
 1544 026b B1020000 		.4byte	0x2b1
 1545 026f 0A       		.uleb128 0xa
 1546 0270 766D7400 		.ascii	"vmt\000"
 1547 0274 08       		.byte	0x8
 1548 0275 48       		.byte	0x48
 1549 0276 1E       		.byte	0x1e
 1550 0277 B1020000 		.4byte	0x2b1
 1551 027b 00       		.byte	0
 1552 027c 09       		.uleb128 0x9
 1553 027d 14020000 		.4byte	.LASF28
 1554 0281 08       		.byte	0x8
 1555 0282 49       		.byte	0x49
 1556 0283 03       		.byte	0x3
 1557 0284 ED000000 		.4byte	0xed
 1558 0288 04       		.byte	0x4
 1559 0289 09       		.uleb128 0x9
 1560 028a 41020000 		.4byte	.LASF29
 1561 028e 08       		.byte	0x8
 1562 028f 49       		.byte	0x49
 1563 0290 03       		.byte	0x3
 1564 0291 41000000 		.4byte	0x41
 1565 0295 08       		.byte	0x8
 1566 0296 0A       		.uleb128 0xa
 1567 0297 656F7300 		.ascii	"eos\000"
 1568 029b 08       		.byte	0x8
 1569 029c 49       		.byte	0x49
 1570 029d 03       		.byte	0x3
 1571 029e 41000000 		.4byte	0x41
 1572 02a2 0C       		.byte	0xc
 1573 02a3 09       		.uleb128 0x9
 1574 02a4 03010000 		.4byte	.LASF30
 1575 02a8 08       		.byte	0x8
 1576 02a9 49       		.byte	0x49
 1577 02aa 03       		.byte	0x3
 1578 02ab 41000000 		.4byte	0x41
 1579 02af 10       		.byte	0x10
 1580 02b0 00       		.byte	0
 1581 02b1 07       		.uleb128 0x7
 1582 02b2 04       		.byte	0x4
 1583 02b3 61020000 		.4byte	0x261
 1584 02b7 04       		.uleb128 0x4
 1585 02b8 12000000 		.4byte	.LASF31
 1586 02bc 08       		.byte	0x8
 1587 02bd 4A       		.byte	0x4a
 1588 02be 03       		.byte	0x3
 1589 02bf 66020000 		.4byte	0x266
 1590 02c3 10       		.uleb128 0x10
 1591 02c4 96000000 		.4byte	0x96
 1592 02c8 D3020000 		.4byte	0x2d3
 1593 02cc 11       		.uleb128 0x11
 1594 02cd 25000000 		.4byte	0x25
 1595 02d1 08       		.byte	0x8
ARM GAS  /tmp/ccBYr15j.s 			page 29


 1596 02d2 00       		.byte	0
 1597 02d3 05       		.uleb128 0x5
 1598 02d4 C3020000 		.4byte	0x2c3
 1599 02d8 12       		.uleb128 0x12
 1600 02d9 AD010000 		.4byte	.LASF32
 1601 02dd 01       		.byte	0x1
 1602 02de 4D       		.byte	0x4d
 1603 02df 13       		.byte	0x13
 1604 02e0 D3020000 		.4byte	0x2d3
 1605 02e4 05       		.uleb128 0x5
 1606 02e5 03       		.byte	0x3
 1607 02e6 00000000 		.4byte	pow10
 1608 02ea 13       		.uleb128 0x13
 1609 02eb 8D030000 		.4byte	.LASF35
 1610 02ef 01       		.byte	0x1
 1611 02f0 8001     		.2byte	0x180
 1612 02f2 05       		.byte	0x5
 1613 02f3 2C000000 		.4byte	0x2c
 1614 02f7 00000000 		.4byte	.LFB340
 1615 02fb 36000000 		.4byte	.LFE340-.LFB340
 1616 02ff 01       		.uleb128 0x1
 1617 0300 9C       		.byte	0x9c
 1618 0301 E2030000 		.4byte	0x3e2
 1619 0305 14       		.uleb128 0x14
 1620 0306 73747200 		.ascii	"str\000"
 1621 030a 01       		.byte	0x1
 1622 030b 8001     		.2byte	0x180
 1623 030d 17       		.byte	0x17
 1624 030e E2030000 		.4byte	0x3e2
 1625 0312 06000000 		.4byte	.LLST35
 1626 0316 00000000 		.4byte	.LVUS35
 1627 031a 15       		.uleb128 0x15
 1628 031b 41020000 		.4byte	.LASF29
 1629 031f 01       		.byte	0x1
 1630 0320 8001     		.2byte	0x180
 1631 0322 23       		.byte	0x23
 1632 0323 41000000 		.4byte	0x41
 1633 0327 35000000 		.4byte	.LLST36
 1634 032b 2F000000 		.4byte	.LVUS36
 1635 032f 14       		.uleb128 0x14
 1636 0330 666D7400 		.ascii	"fmt\000"
 1637 0334 01       		.byte	0x1
 1638 0335 8001     		.2byte	0x180
 1639 0337 35       		.byte	0x35
 1640 0338 D4000000 		.4byte	0xd4
 1641 033c 66000000 		.4byte	.LLST37
 1642 0340 5E000000 		.4byte	.LVUS37
 1643 0344 14       		.uleb128 0x14
 1644 0345 617000   		.ascii	"ap\000"
 1645 0348 01       		.byte	0x1
 1646 0349 8001     		.2byte	0x180
 1647 034b 42       		.byte	0x42
 1648 034c 06020000 		.4byte	0x206
 1649 0350 9E000000 		.4byte	.LLST38
 1650 0354 9A000000 		.4byte	.LVUS38
 1651 0358 16       		.uleb128 0x16
 1652 0359 6D7300   		.ascii	"ms\000"
ARM GAS  /tmp/ccBYr15j.s 			page 30


 1653 035c 01       		.byte	0x1
 1654 035d 8101     		.2byte	0x181
 1655 035f 10       		.byte	0x10
 1656 0360 B7020000 		.4byte	0x2b7
 1657 0364 02       		.uleb128 0x2
 1658 0365 91       		.byte	0x91
 1659 0366 54       		.sleb128 -44
 1660 0367 17       		.uleb128 0x17
 1661 0368 63687000 		.ascii	"chp\000"
 1662 036c 01       		.byte	0x1
 1663 036d 8201     		.2byte	0x182
 1664 036f 19       		.byte	0x19
 1665 0370 E8030000 		.4byte	0x3e8
 1666 0374 C2000000 		.4byte	.LLST39
 1667 0378 BC000000 		.4byte	.LVUS39
 1668 037c 18       		.uleb128 0x18
 1669 037d 00000000 		.4byte	.LASF33
 1670 0381 01       		.byte	0x1
 1671 0382 8301     		.2byte	0x183
 1672 0384 0A       		.byte	0xa
 1673 0385 41000000 		.4byte	0x41
 1674 0389 F1000000 		.4byte	.LLST40
 1675 038d EF000000 		.4byte	.LVUS40
 1676 0391 18       		.uleb128 0x18
 1677 0392 6D000000 		.4byte	.LASF34
 1678 0396 01       		.byte	0x1
 1679 0397 8401     		.2byte	0x184
 1680 0399 07       		.byte	0x7
 1681 039a 2C000000 		.4byte	0x2c
 1682 039e 06010000 		.4byte	.LLST41
 1683 03a2 04010000 		.4byte	.LVUS41
 1684 03a6 19       		.uleb128 0x19
 1685 03a7 1A000000 		.4byte	.LVL139
 1686 03ab 2C090000 		.4byte	0x92c
 1687 03af C5030000 		.4byte	0x3c5
 1688 03b3 1A       		.uleb128 0x1a
 1689 03b4 01       		.uleb128 0x1
 1690 03b5 50       		.byte	0x50
 1691 03b6 02       		.uleb128 0x2
 1692 03b7 91       		.byte	0x91
 1693 03b8 54       		.sleb128 -44
 1694 03b9 1A       		.uleb128 0x1a
 1695 03ba 01       		.uleb128 0x1
 1696 03bb 51       		.byte	0x51
 1697 03bc 02       		.uleb128 0x2
 1698 03bd 75       		.byte	0x75
 1699 03be 00       		.sleb128 0
 1700 03bf 1A       		.uleb128 0x1a
 1701 03c0 01       		.uleb128 0x1
 1702 03c1 53       		.byte	0x53
 1703 03c2 01       		.uleb128 0x1
 1704 03c3 30       		.byte	0x30
 1705 03c4 00       		.byte	0
 1706 03c5 1B       		.uleb128 0x1b
 1707 03c6 24000000 		.4byte	.LVL141
 1708 03ca 12050000 		.4byte	0x512
 1709 03ce 1A       		.uleb128 0x1a
ARM GAS  /tmp/ccBYr15j.s 			page 31


 1710 03cf 01       		.uleb128 0x1
 1711 03d0 50       		.byte	0x50
 1712 03d1 02       		.uleb128 0x2
 1713 03d2 91       		.byte	0x91
 1714 03d3 54       		.sleb128 -44
 1715 03d4 1A       		.uleb128 0x1a
 1716 03d5 01       		.uleb128 0x1
 1717 03d6 51       		.byte	0x51
 1718 03d7 02       		.uleb128 0x2
 1719 03d8 76       		.byte	0x76
 1720 03d9 00       		.sleb128 0
 1721 03da 1A       		.uleb128 0x1a
 1722 03db 01       		.uleb128 0x1
 1723 03dc 52       		.byte	0x52
 1724 03dd 02       		.uleb128 0x2
 1725 03de 77       		.byte	0x77
 1726 03df 00       		.sleb128 0
 1727 03e0 00       		.byte	0
 1728 03e1 00       		.byte	0
 1729 03e2 07       		.uleb128 0x7
 1730 03e3 04       		.byte	0x4
 1731 03e4 DA000000 		.4byte	0xda
 1732 03e8 07       		.uleb128 0x7
 1733 03e9 04       		.byte	0x4
 1734 03ea D7010000 		.4byte	0x1d7
 1735 03ee 13       		.uleb128 0x13
 1736 03ef 03040000 		.4byte	.LASF36
 1737 03f3 01       		.byte	0x1
 1738 03f4 5701     		.2byte	0x157
 1739 03f6 05       		.byte	0x5
 1740 03f7 2C000000 		.4byte	0x2c
 1741 03fb 00000000 		.4byte	.LFB339
 1742 03ff 1A000000 		.4byte	.LFE339-.LFB339
 1743 0403 01       		.uleb128 0x1
 1744 0404 9C       		.byte	0x9c
 1745 0405 8E040000 		.4byte	0x48e
 1746 0409 14       		.uleb128 0x14
 1747 040a 73747200 		.ascii	"str\000"
 1748 040e 01       		.byte	0x1
 1749 040f 5701     		.2byte	0x157
 1750 0411 16       		.byte	0x16
 1751 0412 E2030000 		.4byte	0x3e2
 1752 0416 1D010000 		.4byte	.LLST42
 1753 041a 19010000 		.4byte	.LVUS42
 1754 041e 15       		.uleb128 0x15
 1755 041f 41020000 		.4byte	.LASF29
 1756 0423 01       		.byte	0x1
 1757 0424 5701     		.2byte	0x157
 1758 0426 22       		.byte	0x22
 1759 0427 41000000 		.4byte	0x41
 1760 042b 42010000 		.4byte	.LLST43
 1761 042f 3E010000 		.4byte	.LVUS43
 1762 0433 1C       		.uleb128 0x1c
 1763 0434 666D7400 		.ascii	"fmt\000"
 1764 0438 01       		.byte	0x1
 1765 0439 5701     		.2byte	0x157
 1766 043b 34       		.byte	0x34
ARM GAS  /tmp/ccBYr15j.s 			page 32


 1767 043c D4000000 		.4byte	0xd4
 1768 0440 02       		.uleb128 0x2
 1769 0441 91       		.byte	0x91
 1770 0442 78       		.sleb128 -8
 1771 0443 1D       		.uleb128 0x1d
 1772 0444 16       		.uleb128 0x16
 1773 0445 617000   		.ascii	"ap\000"
 1774 0448 01       		.byte	0x1
 1775 0449 5801     		.2byte	0x158
 1776 044b 0B       		.byte	0xb
 1777 044c 06020000 		.4byte	0x206
 1778 0450 02       		.uleb128 0x2
 1779 0451 91       		.byte	0x91
 1780 0452 6C       		.sleb128 -20
 1781 0453 18       		.uleb128 0x18
 1782 0454 6D000000 		.4byte	.LASF34
 1783 0458 01       		.byte	0x1
 1784 0459 5901     		.2byte	0x159
 1785 045b 07       		.byte	0x7
 1786 045c 2C000000 		.4byte	0x2c
 1787 0460 65010000 		.4byte	.LLST44
 1788 0464 63010000 		.4byte	.LVUS44
 1789 0468 1B       		.uleb128 0x1b
 1790 0469 10000000 		.4byte	.LVL145
 1791 046d EA020000 		.4byte	0x2ea
 1792 0471 1A       		.uleb128 0x1a
 1793 0472 01       		.uleb128 0x1
 1794 0473 50       		.byte	0x50
 1795 0474 03       		.uleb128 0x3
 1796 0475 F3       		.byte	0xf3
 1797 0476 01       		.uleb128 0x1
 1798 0477 50       		.byte	0x50
 1799 0478 1A       		.uleb128 0x1a
 1800 0479 01       		.uleb128 0x1
 1801 047a 51       		.byte	0x51
 1802 047b 03       		.uleb128 0x3
 1803 047c F3       		.byte	0xf3
 1804 047d 01       		.uleb128 0x1
 1805 047e 51       		.byte	0x51
 1806 047f 1A       		.uleb128 0x1a
 1807 0480 01       		.uleb128 0x1
 1808 0481 52       		.byte	0x52
 1809 0482 03       		.uleb128 0x3
 1810 0483 91       		.byte	0x91
 1811 0484 68       		.sleb128 -24
 1812 0485 06       		.byte	0x6
 1813 0486 1A       		.uleb128 0x1a
 1814 0487 01       		.uleb128 0x1
 1815 0488 53       		.byte	0x53
 1816 0489 02       		.uleb128 0x2
 1817 048a 91       		.byte	0x91
 1818 048b 6C       		.sleb128 -20
 1819 048c 00       		.byte	0
 1820 048d 00       		.byte	0
 1821 048e 13       		.uleb128 0x13
 1822 048f 06020000 		.4byte	.LASF37
 1823 0493 01       		.byte	0x1
ARM GAS  /tmp/ccBYr15j.s 			page 33


 1824 0494 3101     		.2byte	0x131
 1825 0496 05       		.byte	0x5
 1826 0497 2C000000 		.4byte	0x2c
 1827 049b 00000000 		.4byte	.LFB338
 1828 049f 1A000000 		.4byte	.LFE338-.LFB338
 1829 04a3 01       		.uleb128 0x1
 1830 04a4 9C       		.byte	0x9c
 1831 04a5 12050000 		.4byte	0x512
 1832 04a9 14       		.uleb128 0x14
 1833 04aa 63687000 		.ascii	"chp\000"
 1834 04ae 01       		.byte	0x1
 1835 04af 3101     		.2byte	0x131
 1836 04b1 24       		.byte	0x24
 1837 04b2 E8030000 		.4byte	0x3e8
 1838 04b6 7C010000 		.4byte	.LLST33
 1839 04ba 78010000 		.4byte	.LVUS33
 1840 04be 1C       		.uleb128 0x1c
 1841 04bf 666D7400 		.ascii	"fmt\000"
 1842 04c3 01       		.byte	0x1
 1843 04c4 3101     		.2byte	0x131
 1844 04c6 35       		.byte	0x35
 1845 04c7 D4000000 		.4byte	0xd4
 1846 04cb 02       		.uleb128 0x2
 1847 04cc 91       		.byte	0x91
 1848 04cd 74       		.sleb128 -12
 1849 04ce 1D       		.uleb128 0x1d
 1850 04cf 16       		.uleb128 0x16
 1851 04d0 617000   		.ascii	"ap\000"
 1852 04d3 01       		.byte	0x1
 1853 04d4 3201     		.2byte	0x132
 1854 04d6 0B       		.byte	0xb
 1855 04d7 06020000 		.4byte	0x206
 1856 04db 02       		.uleb128 0x2
 1857 04dc 91       		.byte	0x91
 1858 04dd 6C       		.sleb128 -20
 1859 04de 18       		.uleb128 0x18
 1860 04df 55000000 		.4byte	.LASF38
 1861 04e3 01       		.byte	0x1
 1862 04e4 3301     		.2byte	0x133
 1863 04e6 07       		.byte	0x7
 1864 04e7 2C000000 		.4byte	0x2c
 1865 04eb 9F010000 		.4byte	.LLST34
 1866 04ef 9D010000 		.4byte	.LVUS34
 1867 04f3 1B       		.uleb128 0x1b
 1868 04f4 10000000 		.4byte	.LVL133
 1869 04f8 12050000 		.4byte	0x512
 1870 04fc 1A       		.uleb128 0x1a
 1871 04fd 01       		.uleb128 0x1
 1872 04fe 50       		.byte	0x50
 1873 04ff 03       		.uleb128 0x3
 1874 0500 F3       		.byte	0xf3
 1875 0501 01       		.uleb128 0x1
 1876 0502 50       		.byte	0x50
 1877 0503 1A       		.uleb128 0x1a
 1878 0504 01       		.uleb128 0x1
 1879 0505 51       		.byte	0x51
 1880 0506 03       		.uleb128 0x3
ARM GAS  /tmp/ccBYr15j.s 			page 34


 1881 0507 91       		.byte	0x91
 1882 0508 5C       		.sleb128 -36
 1883 0509 06       		.byte	0x6
 1884 050a 1A       		.uleb128 0x1a
 1885 050b 01       		.uleb128 0x1
 1886 050c 52       		.byte	0x52
 1887 050d 02       		.uleb128 0x2
 1888 050e 91       		.byte	0x91
 1889 050f 60       		.sleb128 -32
 1890 0510 00       		.byte	0
 1891 0511 00       		.byte	0
 1892 0512 1E       		.uleb128 0x1e
 1893 0513 E1030000 		.4byte	.LASF39
 1894 0517 01       		.byte	0x1
 1895 0518 7A       		.byte	0x7a
 1896 0519 05       		.byte	0x5
 1897 051a 2C000000 		.4byte	0x2c
 1898 051e 00000000 		.4byte	.LFB337
 1899 0522 E4030000 		.4byte	.LFE337-.LFB337
 1900 0526 01       		.uleb128 0x1
 1901 0527 9C       		.byte	0x9c
 1902 0528 F8070000 		.4byte	0x7f8
 1903 052c 1F       		.uleb128 0x1f
 1904 052d 63687000 		.ascii	"chp\000"
 1905 0531 01       		.byte	0x1
 1906 0532 7A       		.byte	0x7a
 1907 0533 25       		.byte	0x25
 1908 0534 E8030000 		.4byte	0x3e8
 1909 0538 B8010000 		.4byte	.LLST8
 1910 053c B2010000 		.4byte	.LVUS8
 1911 0540 1F       		.uleb128 0x1f
 1912 0541 666D7400 		.ascii	"fmt\000"
 1913 0545 01       		.byte	0x1
 1914 0546 7A       		.byte	0x7a
 1915 0547 36       		.byte	0x36
 1916 0548 D4000000 		.4byte	0xd4
 1917 054c F8010000 		.4byte	.LLST9
 1918 0550 E4010000 		.4byte	.LVUS9
 1919 0554 1F       		.uleb128 0x1f
 1920 0555 617000   		.ascii	"ap\000"
 1921 0558 01       		.byte	0x1
 1922 0559 7A       		.byte	0x7a
 1923 055a 43       		.byte	0x43
 1924 055b 06020000 		.4byte	0x206
 1925 055f CB020000 		.4byte	.LLST10
 1926 0563 89020000 		.4byte	.LVUS10
 1927 0567 20       		.uleb128 0x20
 1928 0568 7000     		.ascii	"p\000"
 1929 056a 01       		.byte	0x1
 1930 056b 7B       		.byte	0x7b
 1931 056c 09       		.byte	0x9
 1932 056d E2030000 		.4byte	0x3e2
 1933 0571 B2040000 		.4byte	.LLST11
 1934 0575 8C040000 		.4byte	.LVUS11
 1935 0579 20       		.uleb128 0x20
 1936 057a 7300     		.ascii	"s\000"
 1937 057c 01       		.byte	0x1
ARM GAS  /tmp/ccBYr15j.s 			page 35


 1938 057d 7B       		.byte	0x7b
 1939 057e 0D       		.byte	0xd
 1940 057f E2030000 		.4byte	0x3e2
 1941 0583 CB050000 		.4byte	.LLST12
 1942 0587 AF050000 		.4byte	.LVUS12
 1943 058b 20       		.uleb128 0x20
 1944 058c 6300     		.ascii	"c\000"
 1945 058e 01       		.byte	0x1
 1946 058f 7B       		.byte	0x7b
 1947 0590 10       		.byte	0x10
 1948 0591 DA000000 		.4byte	0xda
 1949 0595 A7060000 		.4byte	.LLST13
 1950 0599 81060000 		.4byte	.LVUS13
 1951 059d 21       		.uleb128 0x21
 1952 059e 86030000 		.4byte	.LASF40
 1953 05a2 01       		.byte	0x1
 1954 05a3 7B       		.byte	0x7b
 1955 05a4 13       		.byte	0x13
 1956 05a5 DA000000 		.4byte	0xda
 1957 05a9 8F070000 		.4byte	.LLST14
 1958 05ad 81070000 		.4byte	.LVUS14
 1959 05b1 20       		.uleb128 0x20
 1960 05b2 6900     		.ascii	"i\000"
 1961 05b4 01       		.byte	0x1
 1962 05b5 7C       		.byte	0x7c
 1963 05b6 07       		.byte	0x7
 1964 05b7 2C000000 		.4byte	0x2c
 1965 05bb FA070000 		.4byte	.LLST15
 1966 05bf EA070000 		.4byte	.LVUS15
 1967 05c3 21       		.uleb128 0x21
 1968 05c4 D7030000 		.4byte	.LASF41
 1969 05c8 01       		.byte	0x1
 1970 05c9 7C       		.byte	0x7c
 1971 05ca 0A       		.byte	0xa
 1972 05cb 2C000000 		.4byte	0x2c
 1973 05cf 64080000 		.4byte	.LLST16
 1974 05d3 60080000 		.4byte	.LVUS16
 1975 05d7 21       		.uleb128 0x21
 1976 05d8 89000000 		.4byte	.LASF42
 1977 05dc 01       		.byte	0x1
 1978 05dd 7C       		.byte	0x7c
 1979 05de 15       		.byte	0x15
 1980 05df 2C000000 		.4byte	0x2c
 1981 05e3 A3080000 		.4byte	.LLST17
 1982 05e7 87080000 		.4byte	.LVUS17
 1983 05eb 20       		.uleb128 0x20
 1984 05ec 6E00     		.ascii	"n\000"
 1985 05ee 01       		.byte	0x1
 1986 05ef 7D       		.byte	0x7d
 1987 05f0 07       		.byte	0x7
 1988 05f1 2C000000 		.4byte	0x2c
 1989 05f5 63090000 		.4byte	.LLST18
 1990 05f9 4F090000 		.4byte	.LVUS18
 1991 05fd 21       		.uleb128 0x21
 1992 05fe 99030000 		.4byte	.LASF43
 1993 0602 01       		.byte	0x1
 1994 0603 7E       		.byte	0x7e
ARM GAS  /tmp/ccBYr15j.s 			page 36


 1995 0604 08       		.byte	0x8
 1996 0605 E6000000 		.4byte	0xe6
 1997 0609 F2090000 		.4byte	.LLST19
 1998 060d E0090000 		.4byte	.LVUS19
 1999 0611 21       		.uleb128 0x21
 2000 0612 F8000000 		.4byte	.LASF44
 2001 0616 01       		.byte	0x1
 2002 0617 7E       		.byte	0x7e
 2003 0618 11       		.byte	0x11
 2004 0619 E6000000 		.4byte	0xe6
 2005 061d 920A0000 		.4byte	.LLST20
 2006 0621 8A0A0000 		.4byte	.LVUS20
 2007 0625 20       		.uleb128 0x20
 2008 0626 6C00     		.ascii	"l\000"
 2009 0628 01       		.byte	0x1
 2010 0629 7F       		.byte	0x7f
 2011 062a 08       		.byte	0x8
 2012 062b 8F000000 		.4byte	0x8f
 2013 062f D20A0000 		.4byte	.LLST21
 2014 0633 CC0A0000 		.4byte	.LVUS21
 2015 0637 20       		.uleb128 0x20
 2016 0638 6600     		.ascii	"f\000"
 2017 063a 01       		.byte	0x1
 2018 063b 81       		.byte	0x81
 2019 063c 09       		.byte	0x9
 2020 063d 3A000000 		.4byte	0x3a
 2021 0641 FF0A0000 		.4byte	.LLST22
 2022 0645 FB0A0000 		.4byte	.LVUS22
 2023 0649 12       		.uleb128 0x12
 2024 064a A6010000 		.4byte	.LASF45
 2025 064e 01       		.byte	0x1
 2026 064f 82       		.byte	0x82
 2027 0650 08       		.byte	0x8
 2028 0651 F8070000 		.4byte	0x7f8
 2029 0655 03       		.uleb128 0x3
 2030 0656 91       		.byte	0x91
 2031 0657 B07F     		.sleb128 -80
 2032 0659 22       		.uleb128 0x22
 2033 065a 1F000000 		.4byte	.LASF62
 2034 065e 01       		.byte	0x1
 2035 065f F0       		.byte	0xf0
 2036 0660 01       		.byte	0x1
 2037 0661 FA020000 		.4byte	.L26
 2038 0665 23       		.uleb128 0x23
 2039 0666 46080000 		.4byte	0x846
 2040 066a DA010000 		.4byte	.LBI8
 2041 066e 0200     		.2byte	.LVU191
 2042 0670 00000000 		.4byte	.Ldebug_ranges0+0
 2043 0674 01       		.byte	0x1
 2044 0675 D9       		.byte	0xd9
 2045 0676 0B       		.byte	0xb
 2046 0677 A3060000 		.4byte	0x6a3
 2047 067b 24       		.uleb128 0x24
 2048 067c 6D080000 		.4byte	0x86d
 2049 0680 200B0000 		.4byte	.LLST23
 2050 0684 1E0B0000 		.4byte	.LVUS23
 2051 0688 24       		.uleb128 0x24
ARM GAS  /tmp/ccBYr15j.s 			page 37


 2052 0689 61080000 		.4byte	0x861
 2053 068d 360B0000 		.4byte	.LLST24
 2054 0691 340B0000 		.4byte	.LVUS24
 2055 0695 24       		.uleb128 0x24
 2056 0696 57080000 		.4byte	0x857
 2057 069a 4B0B0000 		.4byte	.LLST25
 2058 069e 490B0000 		.4byte	.LVUS25
 2059 06a2 00       		.byte	0
 2060 06a3 23       		.uleb128 0x23
 2061 06a4 46080000 		.4byte	0x846
 2062 06a8 0A030000 		.4byte	.LBI12
 2063 06ac 0100     		.2byte	.LVU295
 2064 06ae 18000000 		.4byte	.Ldebug_ranges0+0x18
 2065 06b2 01       		.byte	0x1
 2066 06b3 F5       		.byte	0xf5
 2067 06b4 0B       		.byte	0xb
 2068 06b5 EA060000 		.4byte	0x6ea
 2069 06b9 24       		.uleb128 0x24
 2070 06ba 6D080000 		.4byte	0x86d
 2071 06be 600B0000 		.4byte	.LLST26
 2072 06c2 5E0B0000 		.4byte	.LVUS26
 2073 06c6 24       		.uleb128 0x24
 2074 06c7 61080000 		.4byte	0x861
 2075 06cb 7A0B0000 		.4byte	.LLST27
 2076 06cf 780B0000 		.4byte	.LVUS27
 2077 06d3 24       		.uleb128 0x24
 2078 06d4 57080000 		.4byte	0x857
 2079 06d8 910B0000 		.4byte	.LLST28
 2080 06dc 8D0B0000 		.4byte	.LVUS28
 2081 06e0 25       		.uleb128 0x25
 2082 06e1 E4010000 		.4byte	.LVL71
 2083 06e5 7A080000 		.4byte	0x87a
 2084 06e9 00       		.byte	0
 2085 06ea 23       		.uleb128 0x23
 2086 06eb 08080000 		.4byte	0x808
 2087 06ef A0020000 		.4byte	.LBI15
 2088 06f3 0000     		.2byte	.LVU259
 2089 06f5 30000000 		.4byte	.Ldebug_ranges0+0x30
 2090 06f9 01       		.byte	0x1
 2091 06fa E2       		.byte	0xe2
 2092 06fb 0B       		.byte	0xb
 2093 06fc 8D070000 		.4byte	0x78d
 2094 0700 24       		.uleb128 0x24
 2095 0701 2F080000 		.4byte	0x82f
 2096 0705 B80B0000 		.4byte	.LLST29
 2097 0709 B20B0000 		.4byte	.LVUS29
 2098 070d 24       		.uleb128 0x24
 2099 070e 23080000 		.4byte	0x823
 2100 0712 F00B0000 		.4byte	.LLST30
 2101 0716 EC0B0000 		.4byte	.LVUS30
 2102 071a 24       		.uleb128 0x24
 2103 071b 19080000 		.4byte	0x819
 2104 071f 240C0000 		.4byte	.LLST31
 2105 0723 1A0C0000 		.4byte	.LVUS31
 2106 0727 26       		.uleb128 0x26
 2107 0728 30000000 		.4byte	.Ldebug_ranges0+0x30
 2108 072c 27       		.uleb128 0x27
ARM GAS  /tmp/ccBYr15j.s 			page 38


 2109 072d 3B080000 		.4byte	0x83b
 2110 0731 6D0C0000 		.4byte	.LLST32
 2111 0735 670C0000 		.4byte	.LVUS32
 2112 0739 19       		.uleb128 0x19
 2113 073a AE020000 		.4byte	.LVL98
 2114 073e 7A080000 		.4byte	0x87a
 2115 0742 5E070000 		.4byte	0x75e
 2116 0746 1A       		.uleb128 0x1a
 2117 0747 01       		.uleb128 0x1
 2118 0748 50       		.byte	0x50
 2119 0749 02       		.uleb128 0x2
 2120 074a 78       		.byte	0x78
 2121 074b 00       		.sleb128 0
 2122 074c 1A       		.uleb128 0x1a
 2123 074d 01       		.uleb128 0x1
 2124 074e 51       		.byte	0x51
 2125 074f 03       		.uleb128 0x3
 2126 0750 92       		.byte	0x92
 2127 0751 4F       		.uleb128 0x4f
 2128 0752 00       		.sleb128 0
 2129 0753 1A       		.uleb128 0x1a
 2130 0754 01       		.uleb128 0x1
 2131 0755 52       		.byte	0x52
 2132 0756 01       		.uleb128 0x1
 2133 0757 3A       		.byte	0x3a
 2134 0758 1A       		.uleb128 0x1a
 2135 0759 01       		.uleb128 0x1
 2136 075a 53       		.byte	0x53
 2137 075b 01       		.uleb128 0x1
 2138 075c 30       		.byte	0x30
 2139 075d 00       		.byte	0
 2140 075e 25       		.uleb128 0x25
 2141 075f BE020000 		.4byte	.LVL102
 2142 0763 38090000 		.4byte	0x938
 2143 0767 25       		.uleb128 0x25
 2144 0768 CA020000 		.4byte	.LVL103
 2145 076c 41090000 		.4byte	0x941
 2146 0770 25       		.uleb128 0x25
 2147 0771 D4020000 		.4byte	.LVL105
 2148 0775 4A090000 		.4byte	0x94a
 2149 0779 25       		.uleb128 0x25
 2150 077a E0020000 		.4byte	.LVL106
 2151 077e 53090000 		.4byte	0x953
 2152 0782 25       		.uleb128 0x25
 2153 0783 EE020000 		.4byte	.LVL108
 2154 0787 5C090000 		.4byte	0x95c
 2155 078b 00       		.byte	0
 2156 078c 00       		.byte	0
 2157 078d 28       		.uleb128 0x28
 2158 078e 2C000000 		.4byte	.LVL20
 2159 0792 9D070000 		.4byte	0x79d
 2160 0796 1A       		.uleb128 0x1a
 2161 0797 01       		.uleb128 0x1
 2162 0798 50       		.byte	0x50
 2163 0799 02       		.uleb128 0x2
 2164 079a 76       		.byte	0x76
 2165 079b 00       		.sleb128 0
ARM GAS  /tmp/ccBYr15j.s 			page 39


 2166 079c 00       		.byte	0
 2167 079d 28       		.uleb128 0x28
 2168 079e 20020000 		.4byte	.LVL79
 2169 07a2 AD070000 		.4byte	0x7ad
 2170 07a6 1A       		.uleb128 0x1a
 2171 07a7 01       		.uleb128 0x1
 2172 07a8 50       		.byte	0x50
 2173 07a9 02       		.uleb128 0x2
 2174 07aa 76       		.byte	0x76
 2175 07ab 00       		.sleb128 0
 2176 07ac 00       		.byte	0
 2177 07ad 28       		.uleb128 0x28
 2178 07ae 32020000 		.4byte	.LVL82
 2179 07b2 C3070000 		.4byte	0x7c3
 2180 07b6 1A       		.uleb128 0x1a
 2181 07b7 01       		.uleb128 0x1
 2182 07b8 50       		.byte	0x50
 2183 07b9 02       		.uleb128 0x2
 2184 07ba 76       		.byte	0x76
 2185 07bb 00       		.sleb128 0
 2186 07bc 1A       		.uleb128 0x1a
 2187 07bd 01       		.uleb128 0x1
 2188 07be 51       		.byte	0x51
 2189 07bf 02       		.uleb128 0x2
 2190 07c0 7A       		.byte	0x7a
 2191 07c1 00       		.sleb128 0
 2192 07c2 00       		.byte	0
 2193 07c3 25       		.uleb128 0x25
 2194 07c4 56020000 		.4byte	.LVL89
 2195 07c8 65090000 		.4byte	0x965
 2196 07cc 25       		.uleb128 0x25
 2197 07cd 80020000 		.4byte	.LVL93
 2198 07d1 6E090000 		.4byte	0x96e
 2199 07d5 28       		.uleb128 0x28
 2200 07d6 26030000 		.4byte	.LVL120
 2201 07da E5070000 		.4byte	0x7e5
 2202 07de 1A       		.uleb128 0x1a
 2203 07df 01       		.uleb128 0x1
 2204 07e0 50       		.byte	0x50
 2205 07e1 02       		.uleb128 0x2
 2206 07e2 76       		.byte	0x76
 2207 07e3 00       		.sleb128 0
 2208 07e4 00       		.byte	0
 2209 07e5 29       		.uleb128 0x29
 2210 07e6 56030000 		.4byte	.LVL128
 2211 07ea 1A       		.uleb128 0x1a
 2212 07eb 01       		.uleb128 0x1
 2213 07ec 50       		.byte	0x50
 2214 07ed 02       		.uleb128 0x2
 2215 07ee 76       		.byte	0x76
 2216 07ef 00       		.sleb128 0
 2217 07f0 1A       		.uleb128 0x1a
 2218 07f1 01       		.uleb128 0x1
 2219 07f2 51       		.byte	0x51
 2220 07f3 02       		.uleb128 0x2
 2221 07f4 7A       		.byte	0x7a
 2222 07f5 00       		.sleb128 0
ARM GAS  /tmp/ccBYr15j.s 			page 40


 2223 07f6 00       		.byte	0
 2224 07f7 00       		.byte	0
 2225 07f8 10       		.uleb128 0x10
 2226 07f9 DA000000 		.4byte	0xda
 2227 07fd 08080000 		.4byte	0x808
 2228 0801 11       		.uleb128 0x11
 2229 0802 25000000 		.4byte	0x25
 2230 0806 16       		.byte	0x16
 2231 0807 00       		.byte	0
 2232 0808 2A       		.uleb128 0x2a
 2233 0809 0F020000 		.4byte	.LASF46
 2234 080d 01       		.byte	0x1
 2235 080e 51       		.byte	0x51
 2236 080f 0E       		.byte	0xe
 2237 0810 E2030000 		.4byte	0x3e2
 2238 0814 01       		.byte	0x1
 2239 0815 46080000 		.4byte	0x846
 2240 0819 2B       		.uleb128 0x2b
 2241 081a 7000     		.ascii	"p\000"
 2242 081c 01       		.byte	0x1
 2243 081d 51       		.byte	0x51
 2244 081e 19       		.byte	0x19
 2245 081f E2030000 		.4byte	0x3e2
 2246 0823 2B       		.uleb128 0x2b
 2247 0824 6E756D00 		.ascii	"num\000"
 2248 0828 01       		.byte	0x1
 2249 0829 51       		.byte	0x51
 2250 082a 23       		.byte	0x23
 2251 082b 33000000 		.4byte	0x33
 2252 082f 2C       		.uleb128 0x2c
 2253 0830 D7030000 		.4byte	.LASF41
 2254 0834 01       		.byte	0x1
 2255 0835 51       		.byte	0x51
 2256 0836 36       		.byte	0x36
 2257 0837 9B000000 		.4byte	0x9b
 2258 083b 2D       		.uleb128 0x2d
 2259 083c 6C00     		.ascii	"l\000"
 2260 083e 01       		.byte	0x1
 2261 083f 52       		.byte	0x52
 2262 0840 08       		.byte	0x8
 2263 0841 8F000000 		.4byte	0x8f
 2264 0845 00       		.byte	0
 2265 0846 2A       		.uleb128 0x2a
 2266 0847 91010000 		.4byte	.LASF47
 2267 084b 01       		.byte	0x1
 2268 084c 47       		.byte	0x47
 2269 084d 0E       		.byte	0xe
 2270 084e E2030000 		.4byte	0x3e2
 2271 0852 01       		.byte	0x1
 2272 0853 7A080000 		.4byte	0x87a
 2273 0857 2B       		.uleb128 0x2b
 2274 0858 7000     		.ascii	"p\000"
 2275 085a 01       		.byte	0x1
 2276 085b 47       		.byte	0x47
 2277 085c 1C       		.byte	0x1c
 2278 085d E2030000 		.4byte	0x3e2
 2279 0861 2B       		.uleb128 0x2b
ARM GAS  /tmp/ccBYr15j.s 			page 41


 2280 0862 6E756D00 		.ascii	"num\000"
 2281 0866 01       		.byte	0x1
 2282 0867 47       		.byte	0x47
 2283 0868 24       		.byte	0x24
 2284 0869 8F000000 		.4byte	0x8f
 2285 086d 2C       		.uleb128 0x2c
 2286 086e B3010000 		.4byte	.LASF48
 2287 0872 01       		.byte	0x1
 2288 0873 47       		.byte	0x47
 2289 0874 32       		.byte	0x32
 2290 0875 25000000 		.4byte	0x25
 2291 0879 00       		.byte	0
 2292 087a 2E       		.uleb128 0x2e
 2293 087b 1E010000 		.4byte	.LASF63
 2294 087f 01       		.byte	0x1
 2295 0880 26       		.byte	0x26
 2296 0881 0E       		.byte	0xe
 2297 0882 E2030000 		.4byte	0x3e2
 2298 0886 00000000 		.4byte	.LFB334
 2299 088a 48000000 		.4byte	.LFE334-.LFB334
 2300 088e 01       		.uleb128 0x1
 2301 088f 9C       		.byte	0x9c
 2302 0890 2C090000 		.4byte	0x92c
 2303 0894 1F       		.uleb128 0x1f
 2304 0895 7000     		.ascii	"p\000"
 2305 0897 01       		.byte	0x1
 2306 0898 26       		.byte	0x26
 2307 0899 30       		.byte	0x30
 2308 089a E2030000 		.4byte	0x3e2
 2309 089e A70C0000 		.4byte	.LLST0
 2310 08a2 A50C0000 		.4byte	.LVUS0
 2311 08a6 1F       		.uleb128 0x1f
 2312 08a7 6E756D00 		.ascii	"num\000"
 2313 08ab 01       		.byte	0x1
 2314 08ac 27       		.byte	0x27
 2315 08ad 2F       		.byte	0x2f
 2316 08ae 8F000000 		.4byte	0x8f
 2317 08b2 BE0C0000 		.4byte	.LLST1
 2318 08b6 BA0C0000 		.4byte	.LVUS1
 2319 08ba 2F       		.uleb128 0x2f
 2320 08bb B3010000 		.4byte	.LASF48
 2321 08bf 01       		.byte	0x1
 2322 08c0 28       		.byte	0x28
 2323 08c1 33       		.byte	0x33
 2324 08c2 25000000 		.4byte	0x25
 2325 08c6 E30C0000 		.4byte	.LLST2
 2326 08ca DF0C0000 		.4byte	.LVUS2
 2327 08ce 2F       		.uleb128 0x2f
 2328 08cf C9030000 		.4byte	.LASF49
 2329 08d3 01       		.byte	0x1
 2330 08d4 29       		.byte	0x29
 2331 08d5 2F       		.byte	0x2f
 2332 08d6 8F000000 		.4byte	0x8f
 2333 08da 080D0000 		.4byte	.LLST3
 2334 08de 040D0000 		.4byte	.LVUS3
 2335 08e2 20       		.uleb128 0x20
 2336 08e3 6900     		.ascii	"i\000"
ARM GAS  /tmp/ccBYr15j.s 			page 42


 2337 08e5 01       		.byte	0x1
 2338 08e6 2A       		.byte	0x2a
 2339 08e7 07       		.byte	0x7
 2340 08e8 2C000000 		.4byte	0x2c
 2341 08ec 310D0000 		.4byte	.LLST4
 2342 08f0 290D0000 		.4byte	.LVUS4
 2343 08f4 20       		.uleb128 0x20
 2344 08f5 7100     		.ascii	"q\000"
 2345 08f7 01       		.byte	0x1
 2346 08f8 2B       		.byte	0x2b
 2347 08f9 09       		.byte	0x9
 2348 08fa E2030000 		.4byte	0x3e2
 2349 08fe 760D0000 		.4byte	.LLST5
 2350 0902 6A0D0000 		.4byte	.LVUS5
 2351 0906 20       		.uleb128 0x20
 2352 0907 6C00     		.ascii	"l\000"
 2353 0909 01       		.byte	0x1
 2354 090a 2C       		.byte	0x2c
 2355 090b 08       		.byte	0x8
 2356 090c 8F000000 		.4byte	0x8f
 2357 0910 CA0D0000 		.4byte	.LLST6
 2358 0914 C40D0000 		.4byte	.LVUS6
 2359 0918 20       		.uleb128 0x20
 2360 0919 6C6C00   		.ascii	"ll\000"
 2361 091c 01       		.byte	0x1
 2362 091d 2C       		.byte	0x2c
 2363 091e 0B       		.byte	0xb
 2364 091f 8F000000 		.4byte	0x8f
 2365 0923 F70D0000 		.4byte	.LLST7
 2366 0927 F30D0000 		.4byte	.LVUS7
 2367 092b 00       		.byte	0
 2368 092c 30       		.uleb128 0x30
 2369 092d B0030000 		.4byte	.LASF64
 2370 0931 B0030000 		.4byte	.LASF64
 2371 0935 08       		.byte	0x8
 2372 0936 57       		.byte	0x57
 2373 0937 08       		.byte	0x8
 2374 0938 31       		.uleb128 0x31
 2375 0939 95000000 		.4byte	.LASF50
 2376 093d 95000000 		.4byte	.LASF50
 2377 0941 31       		.uleb128 0x31
 2378 0942 34020000 		.4byte	.LASF51
 2379 0946 34020000 		.4byte	.LASF51
 2380 094a 31       		.uleb128 0x31
 2381 094b 54010000 		.4byte	.LASF52
 2382 094f 54010000 		.4byte	.LASF52
 2383 0953 31       		.uleb128 0x31
 2384 0954 F3010000 		.4byte	.LASF53
 2385 0958 F3010000 		.4byte	.LASF53
 2386 095c 31       		.uleb128 0x31
 2387 095d 61010000 		.4byte	.LASF54
 2388 0961 61010000 		.4byte	.LASF54
 2389 0965 31       		.uleb128 0x31
 2390 0966 BD030000 		.4byte	.LASF55
 2391 096a BD030000 		.4byte	.LASF55
 2392 096e 31       		.uleb128 0x31
 2393 096f E7010000 		.4byte	.LASF56
ARM GAS  /tmp/ccBYr15j.s 			page 43


 2394 0973 E7010000 		.4byte	.LASF56
 2395 0977 00       		.byte	0
 2396              		.section	.debug_abbrev,"",%progbits
 2397              	.Ldebug_abbrev0:
 2398 0000 01       		.uleb128 0x1
 2399 0001 11       		.uleb128 0x11
 2400 0002 01       		.byte	0x1
 2401 0003 25       		.uleb128 0x25
 2402 0004 0E       		.uleb128 0xe
 2403 0005 13       		.uleb128 0x13
 2404 0006 0B       		.uleb128 0xb
 2405 0007 03       		.uleb128 0x3
 2406 0008 0E       		.uleb128 0xe
 2407 0009 1B       		.uleb128 0x1b
 2408 000a 0E       		.uleb128 0xe
 2409 000b 55       		.uleb128 0x55
 2410 000c 17       		.uleb128 0x17
 2411 000d 11       		.uleb128 0x11
 2412 000e 01       		.uleb128 0x1
 2413 000f 10       		.uleb128 0x10
 2414 0010 17       		.uleb128 0x17
 2415 0011 00       		.byte	0
 2416 0012 00       		.byte	0
 2417 0013 02       		.uleb128 0x2
 2418 0014 24       		.uleb128 0x24
 2419 0015 00       		.byte	0
 2420 0016 0B       		.uleb128 0xb
 2421 0017 0B       		.uleb128 0xb
 2422 0018 3E       		.uleb128 0x3e
 2423 0019 0B       		.uleb128 0xb
 2424 001a 03       		.uleb128 0x3
 2425 001b 0E       		.uleb128 0xe
 2426 001c 00       		.byte	0
 2427 001d 00       		.byte	0
 2428 001e 03       		.uleb128 0x3
 2429 001f 24       		.uleb128 0x24
 2430 0020 00       		.byte	0
 2431 0021 0B       		.uleb128 0xb
 2432 0022 0B       		.uleb128 0xb
 2433 0023 3E       		.uleb128 0x3e
 2434 0024 0B       		.uleb128 0xb
 2435 0025 03       		.uleb128 0x3
 2436 0026 08       		.uleb128 0x8
 2437 0027 00       		.byte	0
 2438 0028 00       		.byte	0
 2439 0029 04       		.uleb128 0x4
 2440 002a 16       		.uleb128 0x16
 2441 002b 00       		.byte	0
 2442 002c 03       		.uleb128 0x3
 2443 002d 0E       		.uleb128 0xe
 2444 002e 3A       		.uleb128 0x3a
 2445 002f 0B       		.uleb128 0xb
 2446 0030 3B       		.uleb128 0x3b
 2447 0031 0B       		.uleb128 0xb
 2448 0032 39       		.uleb128 0x39
 2449 0033 0B       		.uleb128 0xb
 2450 0034 49       		.uleb128 0x49
ARM GAS  /tmp/ccBYr15j.s 			page 44


 2451 0035 13       		.uleb128 0x13
 2452 0036 00       		.byte	0
 2453 0037 00       		.byte	0
 2454 0038 05       		.uleb128 0x5
 2455 0039 26       		.uleb128 0x26
 2456 003a 00       		.byte	0
 2457 003b 49       		.uleb128 0x49
 2458 003c 13       		.uleb128 0x13
 2459 003d 00       		.byte	0
 2460 003e 00       		.byte	0
 2461 003f 06       		.uleb128 0x6
 2462 0040 0F       		.uleb128 0xf
 2463 0041 00       		.byte	0
 2464 0042 0B       		.uleb128 0xb
 2465 0043 0B       		.uleb128 0xb
 2466 0044 00       		.byte	0
 2467 0045 00       		.byte	0
 2468 0046 07       		.uleb128 0x7
 2469 0047 0F       		.uleb128 0xf
 2470 0048 00       		.byte	0
 2471 0049 0B       		.uleb128 0xb
 2472 004a 0B       		.uleb128 0xb
 2473 004b 49       		.uleb128 0x49
 2474 004c 13       		.uleb128 0x13
 2475 004d 00       		.byte	0
 2476 004e 00       		.byte	0
 2477 004f 08       		.uleb128 0x8
 2478 0050 13       		.uleb128 0x13
 2479 0051 01       		.byte	0x1
 2480 0052 03       		.uleb128 0x3
 2481 0053 0E       		.uleb128 0xe
 2482 0054 0B       		.uleb128 0xb
 2483 0055 0B       		.uleb128 0xb
 2484 0056 3A       		.uleb128 0x3a
 2485 0057 0B       		.uleb128 0xb
 2486 0058 3B       		.uleb128 0x3b
 2487 0059 0B       		.uleb128 0xb
 2488 005a 39       		.uleb128 0x39
 2489 005b 0B       		.uleb128 0xb
 2490 005c 01       		.uleb128 0x1
 2491 005d 13       		.uleb128 0x13
 2492 005e 00       		.byte	0
 2493 005f 00       		.byte	0
 2494 0060 09       		.uleb128 0x9
 2495 0061 0D       		.uleb128 0xd
 2496 0062 00       		.byte	0
 2497 0063 03       		.uleb128 0x3
 2498 0064 0E       		.uleb128 0xe
 2499 0065 3A       		.uleb128 0x3a
 2500 0066 0B       		.uleb128 0xb
 2501 0067 3B       		.uleb128 0x3b
 2502 0068 0B       		.uleb128 0xb
 2503 0069 39       		.uleb128 0x39
 2504 006a 0B       		.uleb128 0xb
 2505 006b 49       		.uleb128 0x49
 2506 006c 13       		.uleb128 0x13
 2507 006d 38       		.uleb128 0x38
ARM GAS  /tmp/ccBYr15j.s 			page 45


 2508 006e 0B       		.uleb128 0xb
 2509 006f 00       		.byte	0
 2510 0070 00       		.byte	0
 2511 0071 0A       		.uleb128 0xa
 2512 0072 0D       		.uleb128 0xd
 2513 0073 00       		.byte	0
 2514 0074 03       		.uleb128 0x3
 2515 0075 08       		.uleb128 0x8
 2516 0076 3A       		.uleb128 0x3a
 2517 0077 0B       		.uleb128 0xb
 2518 0078 3B       		.uleb128 0x3b
 2519 0079 0B       		.uleb128 0xb
 2520 007a 39       		.uleb128 0x39
 2521 007b 0B       		.uleb128 0xb
 2522 007c 49       		.uleb128 0x49
 2523 007d 13       		.uleb128 0x13
 2524 007e 38       		.uleb128 0x38
 2525 007f 0B       		.uleb128 0xb
 2526 0080 00       		.byte	0
 2527 0081 00       		.byte	0
 2528 0082 0B       		.uleb128 0xb
 2529 0083 15       		.uleb128 0x15
 2530 0084 01       		.byte	0x1
 2531 0085 27       		.uleb128 0x27
 2532 0086 19       		.uleb128 0x19
 2533 0087 49       		.uleb128 0x49
 2534 0088 13       		.uleb128 0x13
 2535 0089 01       		.uleb128 0x1
 2536 008a 13       		.uleb128 0x13
 2537 008b 00       		.byte	0
 2538 008c 00       		.byte	0
 2539 008d 0C       		.uleb128 0xc
 2540 008e 05       		.uleb128 0x5
 2541 008f 00       		.byte	0
 2542 0090 49       		.uleb128 0x49
 2543 0091 13       		.uleb128 0x13
 2544 0092 00       		.byte	0
 2545 0093 00       		.byte	0
 2546 0094 0D       		.uleb128 0xd
 2547 0095 13       		.uleb128 0x13
 2548 0096 01       		.byte	0x1
 2549 0097 0B       		.uleb128 0xb
 2550 0098 0B       		.uleb128 0xb
 2551 0099 3A       		.uleb128 0x3a
 2552 009a 0B       		.uleb128 0xb
 2553 009b 3B       		.uleb128 0x3b
 2554 009c 0B       		.uleb128 0xb
 2555 009d 39       		.uleb128 0x39
 2556 009e 0B       		.uleb128 0xb
 2557 009f 01       		.uleb128 0x1
 2558 00a0 13       		.uleb128 0x13
 2559 00a1 00       		.byte	0
 2560 00a2 00       		.byte	0
 2561 00a3 0E       		.uleb128 0xe
 2562 00a4 13       		.uleb128 0x13
 2563 00a5 01       		.byte	0x1
 2564 00a6 03       		.uleb128 0x3
ARM GAS  /tmp/ccBYr15j.s 			page 46


 2565 00a7 0E       		.uleb128 0xe
 2566 00a8 0B       		.uleb128 0xb
 2567 00a9 0B       		.uleb128 0xb
 2568 00aa 3A       		.uleb128 0x3a
 2569 00ab 0B       		.uleb128 0xb
 2570 00ac 3B       		.uleb128 0x3b
 2571 00ad 0B       		.uleb128 0xb
 2572 00ae 01       		.uleb128 0x1
 2573 00af 13       		.uleb128 0x13
 2574 00b0 00       		.byte	0
 2575 00b1 00       		.byte	0
 2576 00b2 0F       		.uleb128 0xf
 2577 00b3 0D       		.uleb128 0xd
 2578 00b4 00       		.byte	0
 2579 00b5 03       		.uleb128 0x3
 2580 00b6 0E       		.uleb128 0xe
 2581 00b7 49       		.uleb128 0x49
 2582 00b8 13       		.uleb128 0x13
 2583 00b9 38       		.uleb128 0x38
 2584 00ba 0B       		.uleb128 0xb
 2585 00bb 34       		.uleb128 0x34
 2586 00bc 19       		.uleb128 0x19
 2587 00bd 00       		.byte	0
 2588 00be 00       		.byte	0
 2589 00bf 10       		.uleb128 0x10
 2590 00c0 01       		.uleb128 0x1
 2591 00c1 01       		.byte	0x1
 2592 00c2 49       		.uleb128 0x49
 2593 00c3 13       		.uleb128 0x13
 2594 00c4 01       		.uleb128 0x1
 2595 00c5 13       		.uleb128 0x13
 2596 00c6 00       		.byte	0
 2597 00c7 00       		.byte	0
 2598 00c8 11       		.uleb128 0x11
 2599 00c9 21       		.uleb128 0x21
 2600 00ca 00       		.byte	0
 2601 00cb 49       		.uleb128 0x49
 2602 00cc 13       		.uleb128 0x13
 2603 00cd 2F       		.uleb128 0x2f
 2604 00ce 0B       		.uleb128 0xb
 2605 00cf 00       		.byte	0
 2606 00d0 00       		.byte	0
 2607 00d1 12       		.uleb128 0x12
 2608 00d2 34       		.uleb128 0x34
 2609 00d3 00       		.byte	0
 2610 00d4 03       		.uleb128 0x3
 2611 00d5 0E       		.uleb128 0xe
 2612 00d6 3A       		.uleb128 0x3a
 2613 00d7 0B       		.uleb128 0xb
 2614 00d8 3B       		.uleb128 0x3b
 2615 00d9 0B       		.uleb128 0xb
 2616 00da 39       		.uleb128 0x39
 2617 00db 0B       		.uleb128 0xb
 2618 00dc 49       		.uleb128 0x49
 2619 00dd 13       		.uleb128 0x13
 2620 00de 02       		.uleb128 0x2
 2621 00df 18       		.uleb128 0x18
ARM GAS  /tmp/ccBYr15j.s 			page 47


 2622 00e0 00       		.byte	0
 2623 00e1 00       		.byte	0
 2624 00e2 13       		.uleb128 0x13
 2625 00e3 2E       		.uleb128 0x2e
 2626 00e4 01       		.byte	0x1
 2627 00e5 3F       		.uleb128 0x3f
 2628 00e6 19       		.uleb128 0x19
 2629 00e7 03       		.uleb128 0x3
 2630 00e8 0E       		.uleb128 0xe
 2631 00e9 3A       		.uleb128 0x3a
 2632 00ea 0B       		.uleb128 0xb
 2633 00eb 3B       		.uleb128 0x3b
 2634 00ec 05       		.uleb128 0x5
 2635 00ed 39       		.uleb128 0x39
 2636 00ee 0B       		.uleb128 0xb
 2637 00ef 27       		.uleb128 0x27
 2638 00f0 19       		.uleb128 0x19
 2639 00f1 49       		.uleb128 0x49
 2640 00f2 13       		.uleb128 0x13
 2641 00f3 11       		.uleb128 0x11
 2642 00f4 01       		.uleb128 0x1
 2643 00f5 12       		.uleb128 0x12
 2644 00f6 06       		.uleb128 0x6
 2645 00f7 40       		.uleb128 0x40
 2646 00f8 18       		.uleb128 0x18
 2647 00f9 9742     		.uleb128 0x2117
 2648 00fb 19       		.uleb128 0x19
 2649 00fc 01       		.uleb128 0x1
 2650 00fd 13       		.uleb128 0x13
 2651 00fe 00       		.byte	0
 2652 00ff 00       		.byte	0
 2653 0100 14       		.uleb128 0x14
 2654 0101 05       		.uleb128 0x5
 2655 0102 00       		.byte	0
 2656 0103 03       		.uleb128 0x3
 2657 0104 08       		.uleb128 0x8
 2658 0105 3A       		.uleb128 0x3a
 2659 0106 0B       		.uleb128 0xb
 2660 0107 3B       		.uleb128 0x3b
 2661 0108 05       		.uleb128 0x5
 2662 0109 39       		.uleb128 0x39
 2663 010a 0B       		.uleb128 0xb
 2664 010b 49       		.uleb128 0x49
 2665 010c 13       		.uleb128 0x13
 2666 010d 02       		.uleb128 0x2
 2667 010e 17       		.uleb128 0x17
 2668 010f B742     		.uleb128 0x2137
 2669 0111 17       		.uleb128 0x17
 2670 0112 00       		.byte	0
 2671 0113 00       		.byte	0
 2672 0114 15       		.uleb128 0x15
 2673 0115 05       		.uleb128 0x5
 2674 0116 00       		.byte	0
 2675 0117 03       		.uleb128 0x3
 2676 0118 0E       		.uleb128 0xe
 2677 0119 3A       		.uleb128 0x3a
 2678 011a 0B       		.uleb128 0xb
ARM GAS  /tmp/ccBYr15j.s 			page 48


 2679 011b 3B       		.uleb128 0x3b
 2680 011c 05       		.uleb128 0x5
 2681 011d 39       		.uleb128 0x39
 2682 011e 0B       		.uleb128 0xb
 2683 011f 49       		.uleb128 0x49
 2684 0120 13       		.uleb128 0x13
 2685 0121 02       		.uleb128 0x2
 2686 0122 17       		.uleb128 0x17
 2687 0123 B742     		.uleb128 0x2137
 2688 0125 17       		.uleb128 0x17
 2689 0126 00       		.byte	0
 2690 0127 00       		.byte	0
 2691 0128 16       		.uleb128 0x16
 2692 0129 34       		.uleb128 0x34
 2693 012a 00       		.byte	0
 2694 012b 03       		.uleb128 0x3
 2695 012c 08       		.uleb128 0x8
 2696 012d 3A       		.uleb128 0x3a
 2697 012e 0B       		.uleb128 0xb
 2698 012f 3B       		.uleb128 0x3b
 2699 0130 05       		.uleb128 0x5
 2700 0131 39       		.uleb128 0x39
 2701 0132 0B       		.uleb128 0xb
 2702 0133 49       		.uleb128 0x49
 2703 0134 13       		.uleb128 0x13
 2704 0135 02       		.uleb128 0x2
 2705 0136 18       		.uleb128 0x18
 2706 0137 00       		.byte	0
 2707 0138 00       		.byte	0
 2708 0139 17       		.uleb128 0x17
 2709 013a 34       		.uleb128 0x34
 2710 013b 00       		.byte	0
 2711 013c 03       		.uleb128 0x3
 2712 013d 08       		.uleb128 0x8
 2713 013e 3A       		.uleb128 0x3a
 2714 013f 0B       		.uleb128 0xb
 2715 0140 3B       		.uleb128 0x3b
 2716 0141 05       		.uleb128 0x5
 2717 0142 39       		.uleb128 0x39
 2718 0143 0B       		.uleb128 0xb
 2719 0144 49       		.uleb128 0x49
 2720 0145 13       		.uleb128 0x13
 2721 0146 02       		.uleb128 0x2
 2722 0147 17       		.uleb128 0x17
 2723 0148 B742     		.uleb128 0x2137
 2724 014a 17       		.uleb128 0x17
 2725 014b 00       		.byte	0
 2726 014c 00       		.byte	0
 2727 014d 18       		.uleb128 0x18
 2728 014e 34       		.uleb128 0x34
 2729 014f 00       		.byte	0
 2730 0150 03       		.uleb128 0x3
 2731 0151 0E       		.uleb128 0xe
 2732 0152 3A       		.uleb128 0x3a
 2733 0153 0B       		.uleb128 0xb
 2734 0154 3B       		.uleb128 0x3b
 2735 0155 05       		.uleb128 0x5
ARM GAS  /tmp/ccBYr15j.s 			page 49


 2736 0156 39       		.uleb128 0x39
 2737 0157 0B       		.uleb128 0xb
 2738 0158 49       		.uleb128 0x49
 2739 0159 13       		.uleb128 0x13
 2740 015a 02       		.uleb128 0x2
 2741 015b 17       		.uleb128 0x17
 2742 015c B742     		.uleb128 0x2137
 2743 015e 17       		.uleb128 0x17
 2744 015f 00       		.byte	0
 2745 0160 00       		.byte	0
 2746 0161 19       		.uleb128 0x19
 2747 0162 898201   		.uleb128 0x4109
 2748 0165 01       		.byte	0x1
 2749 0166 11       		.uleb128 0x11
 2750 0167 01       		.uleb128 0x1
 2751 0168 31       		.uleb128 0x31
 2752 0169 13       		.uleb128 0x13
 2753 016a 01       		.uleb128 0x1
 2754 016b 13       		.uleb128 0x13
 2755 016c 00       		.byte	0
 2756 016d 00       		.byte	0
 2757 016e 1A       		.uleb128 0x1a
 2758 016f 8A8201   		.uleb128 0x410a
 2759 0172 00       		.byte	0
 2760 0173 02       		.uleb128 0x2
 2761 0174 18       		.uleb128 0x18
 2762 0175 9142     		.uleb128 0x2111
 2763 0177 18       		.uleb128 0x18
 2764 0178 00       		.byte	0
 2765 0179 00       		.byte	0
 2766 017a 1B       		.uleb128 0x1b
 2767 017b 898201   		.uleb128 0x4109
 2768 017e 01       		.byte	0x1
 2769 017f 11       		.uleb128 0x11
 2770 0180 01       		.uleb128 0x1
 2771 0181 31       		.uleb128 0x31
 2772 0182 13       		.uleb128 0x13
 2773 0183 00       		.byte	0
 2774 0184 00       		.byte	0
 2775 0185 1C       		.uleb128 0x1c
 2776 0186 05       		.uleb128 0x5
 2777 0187 00       		.byte	0
 2778 0188 03       		.uleb128 0x3
 2779 0189 08       		.uleb128 0x8
 2780 018a 3A       		.uleb128 0x3a
 2781 018b 0B       		.uleb128 0xb
 2782 018c 3B       		.uleb128 0x3b
 2783 018d 05       		.uleb128 0x5
 2784 018e 39       		.uleb128 0x39
 2785 018f 0B       		.uleb128 0xb
 2786 0190 49       		.uleb128 0x49
 2787 0191 13       		.uleb128 0x13
 2788 0192 02       		.uleb128 0x2
 2789 0193 18       		.uleb128 0x18
 2790 0194 00       		.byte	0
 2791 0195 00       		.byte	0
 2792 0196 1D       		.uleb128 0x1d
ARM GAS  /tmp/ccBYr15j.s 			page 50


 2793 0197 18       		.uleb128 0x18
 2794 0198 00       		.byte	0
 2795 0199 00       		.byte	0
 2796 019a 00       		.byte	0
 2797 019b 1E       		.uleb128 0x1e
 2798 019c 2E       		.uleb128 0x2e
 2799 019d 01       		.byte	0x1
 2800 019e 3F       		.uleb128 0x3f
 2801 019f 19       		.uleb128 0x19
 2802 01a0 03       		.uleb128 0x3
 2803 01a1 0E       		.uleb128 0xe
 2804 01a2 3A       		.uleb128 0x3a
 2805 01a3 0B       		.uleb128 0xb
 2806 01a4 3B       		.uleb128 0x3b
 2807 01a5 0B       		.uleb128 0xb
 2808 01a6 39       		.uleb128 0x39
 2809 01a7 0B       		.uleb128 0xb
 2810 01a8 27       		.uleb128 0x27
 2811 01a9 19       		.uleb128 0x19
 2812 01aa 49       		.uleb128 0x49
 2813 01ab 13       		.uleb128 0x13
 2814 01ac 11       		.uleb128 0x11
 2815 01ad 01       		.uleb128 0x1
 2816 01ae 12       		.uleb128 0x12
 2817 01af 06       		.uleb128 0x6
 2818 01b0 40       		.uleb128 0x40
 2819 01b1 18       		.uleb128 0x18
 2820 01b2 9742     		.uleb128 0x2117
 2821 01b4 19       		.uleb128 0x19
 2822 01b5 01       		.uleb128 0x1
 2823 01b6 13       		.uleb128 0x13
 2824 01b7 00       		.byte	0
 2825 01b8 00       		.byte	0
 2826 01b9 1F       		.uleb128 0x1f
 2827 01ba 05       		.uleb128 0x5
 2828 01bb 00       		.byte	0
 2829 01bc 03       		.uleb128 0x3
 2830 01bd 08       		.uleb128 0x8
 2831 01be 3A       		.uleb128 0x3a
 2832 01bf 0B       		.uleb128 0xb
 2833 01c0 3B       		.uleb128 0x3b
 2834 01c1 0B       		.uleb128 0xb
 2835 01c2 39       		.uleb128 0x39
 2836 01c3 0B       		.uleb128 0xb
 2837 01c4 49       		.uleb128 0x49
 2838 01c5 13       		.uleb128 0x13
 2839 01c6 02       		.uleb128 0x2
 2840 01c7 17       		.uleb128 0x17
 2841 01c8 B742     		.uleb128 0x2137
 2842 01ca 17       		.uleb128 0x17
 2843 01cb 00       		.byte	0
 2844 01cc 00       		.byte	0
 2845 01cd 20       		.uleb128 0x20
 2846 01ce 34       		.uleb128 0x34
 2847 01cf 00       		.byte	0
 2848 01d0 03       		.uleb128 0x3
 2849 01d1 08       		.uleb128 0x8
ARM GAS  /tmp/ccBYr15j.s 			page 51


 2850 01d2 3A       		.uleb128 0x3a
 2851 01d3 0B       		.uleb128 0xb
 2852 01d4 3B       		.uleb128 0x3b
 2853 01d5 0B       		.uleb128 0xb
 2854 01d6 39       		.uleb128 0x39
 2855 01d7 0B       		.uleb128 0xb
 2856 01d8 49       		.uleb128 0x49
 2857 01d9 13       		.uleb128 0x13
 2858 01da 02       		.uleb128 0x2
 2859 01db 17       		.uleb128 0x17
 2860 01dc B742     		.uleb128 0x2137
 2861 01de 17       		.uleb128 0x17
 2862 01df 00       		.byte	0
 2863 01e0 00       		.byte	0
 2864 01e1 21       		.uleb128 0x21
 2865 01e2 34       		.uleb128 0x34
 2866 01e3 00       		.byte	0
 2867 01e4 03       		.uleb128 0x3
 2868 01e5 0E       		.uleb128 0xe
 2869 01e6 3A       		.uleb128 0x3a
 2870 01e7 0B       		.uleb128 0xb
 2871 01e8 3B       		.uleb128 0x3b
 2872 01e9 0B       		.uleb128 0xb
 2873 01ea 39       		.uleb128 0x39
 2874 01eb 0B       		.uleb128 0xb
 2875 01ec 49       		.uleb128 0x49
 2876 01ed 13       		.uleb128 0x13
 2877 01ee 02       		.uleb128 0x2
 2878 01ef 17       		.uleb128 0x17
 2879 01f0 B742     		.uleb128 0x2137
 2880 01f2 17       		.uleb128 0x17
 2881 01f3 00       		.byte	0
 2882 01f4 00       		.byte	0
 2883 01f5 22       		.uleb128 0x22
 2884 01f6 0A       		.uleb128 0xa
 2885 01f7 00       		.byte	0
 2886 01f8 03       		.uleb128 0x3
 2887 01f9 0E       		.uleb128 0xe
 2888 01fa 3A       		.uleb128 0x3a
 2889 01fb 0B       		.uleb128 0xb
 2890 01fc 3B       		.uleb128 0x3b
 2891 01fd 0B       		.uleb128 0xb
 2892 01fe 39       		.uleb128 0x39
 2893 01ff 0B       		.uleb128 0xb
 2894 0200 11       		.uleb128 0x11
 2895 0201 01       		.uleb128 0x1
 2896 0202 00       		.byte	0
 2897 0203 00       		.byte	0
 2898 0204 23       		.uleb128 0x23
 2899 0205 1D       		.uleb128 0x1d
 2900 0206 01       		.byte	0x1
 2901 0207 31       		.uleb128 0x31
 2902 0208 13       		.uleb128 0x13
 2903 0209 52       		.uleb128 0x52
 2904 020a 01       		.uleb128 0x1
 2905 020b B842     		.uleb128 0x2138
 2906 020d 05       		.uleb128 0x5
ARM GAS  /tmp/ccBYr15j.s 			page 52


 2907 020e 55       		.uleb128 0x55
 2908 020f 17       		.uleb128 0x17
 2909 0210 58       		.uleb128 0x58
 2910 0211 0B       		.uleb128 0xb
 2911 0212 59       		.uleb128 0x59
 2912 0213 0B       		.uleb128 0xb
 2913 0214 57       		.uleb128 0x57
 2914 0215 0B       		.uleb128 0xb
 2915 0216 01       		.uleb128 0x1
 2916 0217 13       		.uleb128 0x13
 2917 0218 00       		.byte	0
 2918 0219 00       		.byte	0
 2919 021a 24       		.uleb128 0x24
 2920 021b 05       		.uleb128 0x5
 2921 021c 00       		.byte	0
 2922 021d 31       		.uleb128 0x31
 2923 021e 13       		.uleb128 0x13
 2924 021f 02       		.uleb128 0x2
 2925 0220 17       		.uleb128 0x17
 2926 0221 B742     		.uleb128 0x2137
 2927 0223 17       		.uleb128 0x17
 2928 0224 00       		.byte	0
 2929 0225 00       		.byte	0
 2930 0226 25       		.uleb128 0x25
 2931 0227 898201   		.uleb128 0x4109
 2932 022a 00       		.byte	0
 2933 022b 11       		.uleb128 0x11
 2934 022c 01       		.uleb128 0x1
 2935 022d 31       		.uleb128 0x31
 2936 022e 13       		.uleb128 0x13
 2937 022f 00       		.byte	0
 2938 0230 00       		.byte	0
 2939 0231 26       		.uleb128 0x26
 2940 0232 0B       		.uleb128 0xb
 2941 0233 01       		.byte	0x1
 2942 0234 55       		.uleb128 0x55
 2943 0235 17       		.uleb128 0x17
 2944 0236 00       		.byte	0
 2945 0237 00       		.byte	0
 2946 0238 27       		.uleb128 0x27
 2947 0239 34       		.uleb128 0x34
 2948 023a 00       		.byte	0
 2949 023b 31       		.uleb128 0x31
 2950 023c 13       		.uleb128 0x13
 2951 023d 02       		.uleb128 0x2
 2952 023e 17       		.uleb128 0x17
 2953 023f B742     		.uleb128 0x2137
 2954 0241 17       		.uleb128 0x17
 2955 0242 00       		.byte	0
 2956 0243 00       		.byte	0
 2957 0244 28       		.uleb128 0x28
 2958 0245 898201   		.uleb128 0x4109
 2959 0248 01       		.byte	0x1
 2960 0249 11       		.uleb128 0x11
 2961 024a 01       		.uleb128 0x1
 2962 024b 01       		.uleb128 0x1
 2963 024c 13       		.uleb128 0x13
ARM GAS  /tmp/ccBYr15j.s 			page 53


 2964 024d 00       		.byte	0
 2965 024e 00       		.byte	0
 2966 024f 29       		.uleb128 0x29
 2967 0250 898201   		.uleb128 0x4109
 2968 0253 01       		.byte	0x1
 2969 0254 11       		.uleb128 0x11
 2970 0255 01       		.uleb128 0x1
 2971 0256 00       		.byte	0
 2972 0257 00       		.byte	0
 2973 0258 2A       		.uleb128 0x2a
 2974 0259 2E       		.uleb128 0x2e
 2975 025a 01       		.byte	0x1
 2976 025b 03       		.uleb128 0x3
 2977 025c 0E       		.uleb128 0xe
 2978 025d 3A       		.uleb128 0x3a
 2979 025e 0B       		.uleb128 0xb
 2980 025f 3B       		.uleb128 0x3b
 2981 0260 0B       		.uleb128 0xb
 2982 0261 39       		.uleb128 0x39
 2983 0262 0B       		.uleb128 0xb
 2984 0263 27       		.uleb128 0x27
 2985 0264 19       		.uleb128 0x19
 2986 0265 49       		.uleb128 0x49
 2987 0266 13       		.uleb128 0x13
 2988 0267 20       		.uleb128 0x20
 2989 0268 0B       		.uleb128 0xb
 2990 0269 01       		.uleb128 0x1
 2991 026a 13       		.uleb128 0x13
 2992 026b 00       		.byte	0
 2993 026c 00       		.byte	0
 2994 026d 2B       		.uleb128 0x2b
 2995 026e 05       		.uleb128 0x5
 2996 026f 00       		.byte	0
 2997 0270 03       		.uleb128 0x3
 2998 0271 08       		.uleb128 0x8
 2999 0272 3A       		.uleb128 0x3a
 3000 0273 0B       		.uleb128 0xb
 3001 0274 3B       		.uleb128 0x3b
 3002 0275 0B       		.uleb128 0xb
 3003 0276 39       		.uleb128 0x39
 3004 0277 0B       		.uleb128 0xb
 3005 0278 49       		.uleb128 0x49
 3006 0279 13       		.uleb128 0x13
 3007 027a 00       		.byte	0
 3008 027b 00       		.byte	0
 3009 027c 2C       		.uleb128 0x2c
 3010 027d 05       		.uleb128 0x5
 3011 027e 00       		.byte	0
 3012 027f 03       		.uleb128 0x3
 3013 0280 0E       		.uleb128 0xe
 3014 0281 3A       		.uleb128 0x3a
 3015 0282 0B       		.uleb128 0xb
 3016 0283 3B       		.uleb128 0x3b
 3017 0284 0B       		.uleb128 0xb
 3018 0285 39       		.uleb128 0x39
 3019 0286 0B       		.uleb128 0xb
 3020 0287 49       		.uleb128 0x49
ARM GAS  /tmp/ccBYr15j.s 			page 54


 3021 0288 13       		.uleb128 0x13
 3022 0289 00       		.byte	0
 3023 028a 00       		.byte	0
 3024 028b 2D       		.uleb128 0x2d
 3025 028c 34       		.uleb128 0x34
 3026 028d 00       		.byte	0
 3027 028e 03       		.uleb128 0x3
 3028 028f 08       		.uleb128 0x8
 3029 0290 3A       		.uleb128 0x3a
 3030 0291 0B       		.uleb128 0xb
 3031 0292 3B       		.uleb128 0x3b
 3032 0293 0B       		.uleb128 0xb
 3033 0294 39       		.uleb128 0x39
 3034 0295 0B       		.uleb128 0xb
 3035 0296 49       		.uleb128 0x49
 3036 0297 13       		.uleb128 0x13
 3037 0298 00       		.byte	0
 3038 0299 00       		.byte	0
 3039 029a 2E       		.uleb128 0x2e
 3040 029b 2E       		.uleb128 0x2e
 3041 029c 01       		.byte	0x1
 3042 029d 03       		.uleb128 0x3
 3043 029e 0E       		.uleb128 0xe
 3044 029f 3A       		.uleb128 0x3a
 3045 02a0 0B       		.uleb128 0xb
 3046 02a1 3B       		.uleb128 0x3b
 3047 02a2 0B       		.uleb128 0xb
 3048 02a3 39       		.uleb128 0x39
 3049 02a4 0B       		.uleb128 0xb
 3050 02a5 27       		.uleb128 0x27
 3051 02a6 19       		.uleb128 0x19
 3052 02a7 49       		.uleb128 0x49
 3053 02a8 13       		.uleb128 0x13
 3054 02a9 11       		.uleb128 0x11
 3055 02aa 01       		.uleb128 0x1
 3056 02ab 12       		.uleb128 0x12
 3057 02ac 06       		.uleb128 0x6
 3058 02ad 40       		.uleb128 0x40
 3059 02ae 18       		.uleb128 0x18
 3060 02af 9742     		.uleb128 0x2117
 3061 02b1 19       		.uleb128 0x19
 3062 02b2 01       		.uleb128 0x1
 3063 02b3 13       		.uleb128 0x13
 3064 02b4 00       		.byte	0
 3065 02b5 00       		.byte	0
 3066 02b6 2F       		.uleb128 0x2f
 3067 02b7 05       		.uleb128 0x5
 3068 02b8 00       		.byte	0
 3069 02b9 03       		.uleb128 0x3
 3070 02ba 0E       		.uleb128 0xe
 3071 02bb 3A       		.uleb128 0x3a
 3072 02bc 0B       		.uleb128 0xb
 3073 02bd 3B       		.uleb128 0x3b
 3074 02be 0B       		.uleb128 0xb
 3075 02bf 39       		.uleb128 0x39
 3076 02c0 0B       		.uleb128 0xb
 3077 02c1 49       		.uleb128 0x49
ARM GAS  /tmp/ccBYr15j.s 			page 55


 3078 02c2 13       		.uleb128 0x13
 3079 02c3 02       		.uleb128 0x2
 3080 02c4 17       		.uleb128 0x17
 3081 02c5 B742     		.uleb128 0x2137
 3082 02c7 17       		.uleb128 0x17
 3083 02c8 00       		.byte	0
 3084 02c9 00       		.byte	0
 3085 02ca 30       		.uleb128 0x30
 3086 02cb 2E       		.uleb128 0x2e
 3087 02cc 00       		.byte	0
 3088 02cd 3F       		.uleb128 0x3f
 3089 02ce 19       		.uleb128 0x19
 3090 02cf 3C       		.uleb128 0x3c
 3091 02d0 19       		.uleb128 0x19
 3092 02d1 6E       		.uleb128 0x6e
 3093 02d2 0E       		.uleb128 0xe
 3094 02d3 03       		.uleb128 0x3
 3095 02d4 0E       		.uleb128 0xe
 3096 02d5 3A       		.uleb128 0x3a
 3097 02d6 0B       		.uleb128 0xb
 3098 02d7 3B       		.uleb128 0x3b
 3099 02d8 0B       		.uleb128 0xb
 3100 02d9 39       		.uleb128 0x39
 3101 02da 0B       		.uleb128 0xb
 3102 02db 00       		.byte	0
 3103 02dc 00       		.byte	0
 3104 02dd 31       		.uleb128 0x31
 3105 02de 2E       		.uleb128 0x2e
 3106 02df 00       		.byte	0
 3107 02e0 3F       		.uleb128 0x3f
 3108 02e1 19       		.uleb128 0x19
 3109 02e2 3C       		.uleb128 0x3c
 3110 02e3 19       		.uleb128 0x19
 3111 02e4 6E       		.uleb128 0x6e
 3112 02e5 0E       		.uleb128 0xe
 3113 02e6 03       		.uleb128 0x3
 3114 02e7 0E       		.uleb128 0xe
 3115 02e8 00       		.byte	0
 3116 02e9 00       		.byte	0
 3117 02ea 00       		.byte	0
 3118              		.section	.debug_loc,"",%progbits
 3119              	.Ldebug_loc0:
 3120              	.LVUS35:
 3121 0000 00       		.uleb128 0
 3122 0001 00       		.uleb128 .LVU348
 3123 0002 00       		.uleb128 .LVU348
 3124 0003 00       		.uleb128 .LVU360
 3125 0004 00       		.uleb128 .LVU360
 3126 0005 00       		.uleb128 0
 3127              	.LLST35:
 3128 0006 00000000 		.4byte	.LVL134
 3129 000a 16000000 		.4byte	.LVL138
 3130 000e 0100     		.2byte	0x1
 3131 0010 50       		.byte	0x50
 3132 0011 16000000 		.4byte	.LVL138
 3133 0015 32000000 		.4byte	.LVL142
 3134 0019 0100     		.2byte	0x1
ARM GAS  /tmp/ccBYr15j.s 			page 56


 3135 001b 55       		.byte	0x55
 3136 001c 32000000 		.4byte	.LVL142
 3137 0020 36000000 		.4byte	.LFE340
 3138 0024 0100     		.2byte	0x1
 3139 0026 50       		.byte	0x50
 3140 0027 00000000 		.4byte	0
 3141 002b 00000000 		.4byte	0
 3142              	.LVUS36:
 3143 002f 00       		.uleb128 0
 3144 0030 00       		.uleb128 .LVU347
 3145 0031 00       		.uleb128 .LVU347
 3146 0032 00       		.uleb128 .LVU360
 3147 0033 00       		.uleb128 .LVU360
 3148 0034 00       		.uleb128 0
 3149              	.LLST36:
 3150 0035 00000000 		.4byte	.LVL134
 3151 0039 14000000 		.4byte	.LVL137
 3152 003d 0100     		.2byte	0x1
 3153 003f 51       		.byte	0x51
 3154 0040 14000000 		.4byte	.LVL137
 3155 0044 32000000 		.4byte	.LVL142
 3156 0048 0100     		.2byte	0x1
 3157 004a 54       		.byte	0x54
 3158 004b 32000000 		.4byte	.LVL142
 3159 004f 36000000 		.4byte	.LFE340
 3160 0053 0100     		.2byte	0x1
 3161 0055 51       		.byte	0x51
 3162 0056 00000000 		.4byte	0
 3163 005a 00000000 		.4byte	0
 3164              	.LVUS37:
 3165 005e 00       		.uleb128 0
 3166 005f 00       		.uleb128 .LVU346
 3167 0060 00       		.uleb128 .LVU346
 3168 0061 00       		.uleb128 .LVU360
 3169 0062 00       		.uleb128 .LVU360
 3170 0063 00       		.uleb128 .LVU361
 3171 0064 00       		.uleb128 .LVU361
 3172 0065 00       		.uleb128 0
 3173              	.LLST37:
 3174 0066 00000000 		.4byte	.LVL134
 3175 006a 10000000 		.4byte	.LVL136
 3176 006e 0100     		.2byte	0x1
 3177 0070 52       		.byte	0x52
 3178 0071 10000000 		.4byte	.LVL136
 3179 0075 32000000 		.4byte	.LVL142
 3180 0079 0100     		.2byte	0x1
 3181 007b 56       		.byte	0x56
 3182 007c 32000000 		.4byte	.LVL142
 3183 0080 34000000 		.4byte	.LVL143
 3184 0084 0100     		.2byte	0x1
 3185 0086 52       		.byte	0x52
 3186 0087 34000000 		.4byte	.LVL143
 3187 008b 36000000 		.4byte	.LFE340
 3188 008f 0100     		.2byte	0x1
 3189 0091 56       		.byte	0x56
 3190 0092 00000000 		.4byte	0
 3191 0096 00000000 		.4byte	0
ARM GAS  /tmp/ccBYr15j.s 			page 57


 3192              	.LVUS38:
 3193 009a 00       		.uleb128 0
 3194 009b 00       		.uleb128 .LVU343
 3195 009c 02       		.uleb128 .LVU351
 3196 009d 00       		.uleb128 .LVU360
 3197              	.LLST38:
 3198 009e 00000000 		.4byte	.LVL134
 3199 00a2 0A000000 		.4byte	.LVL135
 3200 00a6 0100     		.2byte	0x1
 3201 00a8 53       		.byte	0x53
 3202 00a9 1A000000 		.4byte	.LVL139
 3203 00ad 32000000 		.4byte	.LVL142
 3204 00b1 0100     		.2byte	0x1
 3205 00b3 57       		.byte	0x57
 3206 00b4 00000000 		.4byte	0
 3207 00b8 00000000 		.4byte	0
 3208              	.LVUS39:
 3209 00bc 01       		.uleb128 .LVU350
 3210 00bd 00       		.uleb128 .LVU352
 3211 00be 00       		.uleb128 .LVU352
 3212 00bf 00       		.uleb128 .LVU353
 3213 00c0 00       		.uleb128 .LVU353
 3214 00c1 00       		.uleb128 .LVU360
 3215              	.LLST39:
 3216 00c2 1A000000 		.4byte	.LVL139
 3217 00c6 20000000 		.4byte	.LVL140
 3218 00ca 0300     		.2byte	0x3
 3219 00cc 91       		.byte	0x91
 3220 00cd 54       		.sleb128 -44
 3221 00ce 9F       		.byte	0x9f
 3222 00cf 20000000 		.4byte	.LVL140
 3223 00d3 23000000 		.4byte	.LVL141-1
 3224 00d7 0100     		.2byte	0x1
 3225 00d9 50       		.byte	0x50
 3226 00da 23000000 		.4byte	.LVL141-1
 3227 00de 32000000 		.4byte	.LVL142
 3228 00e2 0300     		.2byte	0x3
 3229 00e4 91       		.byte	0x91
 3230 00e5 54       		.sleb128 -44
 3231 00e6 9F       		.byte	0x9f
 3232 00e7 00000000 		.4byte	0
 3233 00eb 00000000 		.4byte	0
 3234              	.LVUS40:
 3235 00ef 00       		.uleb128 .LVU346
 3236 00f0 00       		.uleb128 .LVU349
 3237              	.LLST40:
 3238 00f1 10000000 		.4byte	.LVL136
 3239 00f5 19000000 		.4byte	.LVL139-1
 3240 00f9 0100     		.2byte	0x1
 3241 00fb 52       		.byte	0x52
 3242 00fc 00000000 		.4byte	0
 3243 0100 00000000 		.4byte	0
 3244              	.LVUS41:
 3245 0104 00       		.uleb128 .LVU353
 3246 0105 00       		.uleb128 .LVU360
 3247              	.LLST41:
 3248 0106 24000000 		.4byte	.LVL141
ARM GAS  /tmp/ccBYr15j.s 			page 58


 3249 010a 32000000 		.4byte	.LVL142
 3250 010e 0100     		.2byte	0x1
 3251 0110 50       		.byte	0x50
 3252 0111 00000000 		.4byte	0
 3253 0115 00000000 		.4byte	0
 3254              	.LVUS42:
 3255 0119 00       		.uleb128 0
 3256 011a 00       		.uleb128 .LVU371
 3257 011b 00       		.uleb128 .LVU371
 3258 011c 00       		.uleb128 0
 3259              	.LLST42:
 3260 011d 00000000 		.4byte	.LVL144
 3261 0121 0F000000 		.4byte	.LVL145-1
 3262 0125 0100     		.2byte	0x1
 3263 0127 50       		.byte	0x50
 3264 0128 0F000000 		.4byte	.LVL145-1
 3265 012c 1A000000 		.4byte	.LFE339
 3266 0130 0400     		.2byte	0x4
 3267 0132 F3       		.byte	0xf3
 3268 0133 01       		.uleb128 0x1
 3269 0134 50       		.byte	0x50
 3270 0135 9F       		.byte	0x9f
 3271 0136 00000000 		.4byte	0
 3272 013a 00000000 		.4byte	0
 3273              	.LVUS43:
 3274 013e 00       		.uleb128 0
 3275 013f 00       		.uleb128 .LVU371
 3276 0140 00       		.uleb128 .LVU371
 3277 0141 00       		.uleb128 0
 3278              	.LLST43:
 3279 0142 00000000 		.4byte	.LVL144
 3280 0146 0F000000 		.4byte	.LVL145-1
 3281 014a 0100     		.2byte	0x1
 3282 014c 51       		.byte	0x51
 3283 014d 0F000000 		.4byte	.LVL145-1
 3284 0151 1A000000 		.4byte	.LFE339
 3285 0155 0400     		.2byte	0x4
 3286 0157 F3       		.byte	0xf3
 3287 0158 01       		.uleb128 0x1
 3288 0159 51       		.byte	0x51
 3289 015a 9F       		.byte	0x9f
 3290 015b 00000000 		.4byte	0
 3291 015f 00000000 		.4byte	0
 3292              	.LVUS44:
 3293 0163 00       		.uleb128 .LVU371
 3294 0164 00       		.uleb128 0
 3295              	.LLST44:
 3296 0165 10000000 		.4byte	.LVL145
 3297 0169 1A000000 		.4byte	.LFE339
 3298 016d 0100     		.2byte	0x1
 3299 016f 50       		.byte	0x50
 3300 0170 00000000 		.4byte	0
 3301 0174 00000000 		.4byte	0
 3302              	.LVUS33:
 3303 0178 00       		.uleb128 0
 3304 0179 00       		.uleb128 .LVU332
 3305 017a 00       		.uleb128 .LVU332
ARM GAS  /tmp/ccBYr15j.s 			page 59


 3306 017b 00       		.uleb128 0
 3307              	.LLST33:
 3308 017c 00000000 		.4byte	.LVL132
 3309 0180 0F000000 		.4byte	.LVL133-1
 3310 0184 0100     		.2byte	0x1
 3311 0186 50       		.byte	0x50
 3312 0187 0F000000 		.4byte	.LVL133-1
 3313 018b 1A000000 		.4byte	.LFE338
 3314 018f 0400     		.2byte	0x4
 3315 0191 F3       		.byte	0xf3
 3316 0192 01       		.uleb128 0x1
 3317 0193 50       		.byte	0x50
 3318 0194 9F       		.byte	0x9f
 3319 0195 00000000 		.4byte	0
 3320 0199 00000000 		.4byte	0
 3321              	.LVUS34:
 3322 019d 00       		.uleb128 .LVU332
 3323 019e 00       		.uleb128 0
 3324              	.LLST34:
 3325 019f 10000000 		.4byte	.LVL133
 3326 01a3 1A000000 		.4byte	.LFE338
 3327 01a7 0100     		.2byte	0x1
 3328 01a9 50       		.byte	0x50
 3329 01aa 00000000 		.4byte	0
 3330 01ae 00000000 		.4byte	0
 3331              	.LVUS8:
 3332 01b2 00       		.uleb128 0
 3333 01b3 00       		.uleb128 .LVU49
 3334 01b4 00       		.uleb128 .LVU49
 3335 01b5 00       		.uleb128 .LVU322
 3336 01b6 00       		.uleb128 .LVU322
 3337 01b7 00       		.uleb128 0
 3338              	.LLST8:
 3339 01b8 00000000 		.4byte	.LVL13
 3340 01bc 10000000 		.4byte	.LVL15
 3341 01c0 0100     		.2byte	0x1
 3342 01c2 50       		.byte	0x50
 3343 01c3 10000000 		.4byte	.LVL15
 3344 01c7 DA030000 		.4byte	.LVL131
 3345 01cb 0100     		.2byte	0x1
 3346 01cd 56       		.byte	0x56
 3347 01ce DA030000 		.4byte	.LVL131
 3348 01d2 E4030000 		.4byte	.LFE337
 3349 01d6 0400     		.2byte	0x4
 3350 01d8 F3       		.byte	0xf3
 3351 01d9 01       		.uleb128 0x1
 3352 01da 50       		.byte	0x50
 3353 01db 9F       		.byte	0x9f
 3354 01dc 00000000 		.4byte	0
 3355 01e0 00000000 		.4byte	0
 3356              	.LVUS9:
 3357 01e4 00       		.uleb128 0
 3358 01e5 00       		.uleb128 .LVU56
 3359 01e6 00       		.uleb128 .LVU56
 3360 01e7 00       		.uleb128 .LVU57
 3361 01e8 00       		.uleb128 .LVU57
 3362 01e9 00       		.uleb128 .LVU85
ARM GAS  /tmp/ccBYr15j.s 			page 60


 3363 01ea 00       		.uleb128 .LVU85
 3364 01eb 00       		.uleb128 .LVU86
 3365 01ec 00       		.uleb128 .LVU86
 3366 01ed 02       		.uleb128 .LVU90
 3367 01ee 02       		.uleb128 .LVU90
 3368 01ef 00       		.uleb128 .LVU91
 3369 01f0 00       		.uleb128 .LVU91
 3370 01f1 02       		.uleb128 .LVU109
 3371 01f2 02       		.uleb128 .LVU109
 3372 01f3 00       		.uleb128 .LVU110
 3373 01f4 00       		.uleb128 .LVU110
 3374 01f5 00       		.uleb128 .LVU322
 3375 01f6 00       		.uleb128 .LVU322
 3376 01f7 00       		.uleb128 0
 3377              	.LLST9:
 3378 01f8 00000000 		.4byte	.LVL13
 3379 01fc 12000000 		.4byte	.LVL16
 3380 0200 0100     		.2byte	0x1
 3381 0202 51       		.byte	0x51
 3382 0203 12000000 		.4byte	.LVL16
 3383 0207 16000000 		.4byte	.LVL17
 3384 020b 0300     		.2byte	0x3
 3385 020d 71       		.byte	0x71
 3386 020e 01       		.sleb128 1
 3387 020f 9F       		.byte	0x9f
 3388 0210 16000000 		.4byte	.LVL17
 3389 0214 4A000000 		.4byte	.LVL25
 3390 0218 0100     		.2byte	0x1
 3391 021a 55       		.byte	0x55
 3392 021b 4A000000 		.4byte	.LVL25
 3393 021f 4E000000 		.4byte	.LVL26
 3394 0223 1400     		.2byte	0x14
 3395 0225 71       		.byte	0x71
 3396 0226 02       		.sleb128 2
 3397 0227 71       		.byte	0x71
 3398 0228 01       		.sleb128 1
 3399 0229 71       		.byte	0x71
 3400 022a 01       		.sleb128 1
 3401 022b 94       		.byte	0x94
 3402 022c 01       		.byte	0x1
 3403 022d 08       		.byte	0x8
 3404 022e FF       		.byte	0xff
 3405 022f 1A       		.byte	0x1a
 3406 0230 08       		.byte	0x8
 3407 0231 2D       		.byte	0x2d
 3408 0232 29       		.byte	0x29
 3409 0233 28       		.byte	0x28
 3410 0234 0100     		.2byte	0x1
 3411 0236 16       		.byte	0x16
 3412 0237 13       		.byte	0x13
 3413 0238 9F       		.byte	0x9f
 3414 0239 4E000000 		.4byte	.LVL26
 3415 023d 50000000 		.4byte	.LVL27
 3416 0241 0100     		.2byte	0x1
 3417 0243 55       		.byte	0x55
 3418 0244 50000000 		.4byte	.LVL27
 3419 0248 54000000 		.4byte	.LVL28
ARM GAS  /tmp/ccBYr15j.s 			page 61


 3420 024c 0300     		.2byte	0x3
 3421 024e 75       		.byte	0x75
 3422 024f 01       		.sleb128 1
 3423 0250 9F       		.byte	0x9f
 3424 0251 54000000 		.4byte	.LVL28
 3425 0255 7A000000 		.4byte	.LVL34
 3426 0259 0100     		.2byte	0x1
 3427 025b 55       		.byte	0x55
 3428 025c 7A000000 		.4byte	.LVL34
 3429 0260 7E000000 		.4byte	.LVL35
 3430 0264 0300     		.2byte	0x3
 3431 0266 75       		.byte	0x75
 3432 0267 01       		.sleb128 1
 3433 0268 9F       		.byte	0x9f
 3434 0269 7E000000 		.4byte	.LVL35
 3435 026d DA030000 		.4byte	.LVL131
 3436 0271 0100     		.2byte	0x1
 3437 0273 55       		.byte	0x55
 3438 0274 DA030000 		.4byte	.LVL131
 3439 0278 E4030000 		.4byte	.LFE337
 3440 027c 0300     		.2byte	0x3
 3441 027e 71       		.byte	0x71
 3442 027f 01       		.sleb128 1
 3443 0280 9F       		.byte	0x9f
 3444 0281 00000000 		.4byte	0
 3445 0285 00000000 		.4byte	0
 3446              	.LVUS10:
 3447 0289 00       		.uleb128 0
 3448 028a 00       		.uleb128 .LVU44
 3449 028b 00       		.uleb128 .LVU44
 3450 028c 00       		.uleb128 .LVU49
 3451 028d 00       		.uleb128 .LVU49
 3452 028e 00       		.uleb128 .LVU62
 3453 028f 00       		.uleb128 .LVU67
 3454 0290 01       		.uleb128 .LVU87
 3455 0291 01       		.uleb128 .LVU87
 3456 0292 01       		.uleb128 .LVU97
 3457 0293 01       		.uleb128 .LVU97
 3458 0294 00       		.uleb128 .LVU98
 3459 0295 00       		.uleb128 .LVU98
 3460 0296 00       		.uleb128 .LVU101
 3461 0297 00       		.uleb128 .LVU102
 3462 0298 01       		.uleb128 .LVU116
 3463 0299 01       		.uleb128 .LVU116
 3464 029a 00       		.uleb128 .LVU117
 3465 029b 00       		.uleb128 .LVU117
 3466 029c 00       		.uleb128 .LVU125
 3467 029d 00       		.uleb128 .LVU126
 3468 029e 00       		.uleb128 .LVU150
 3469 029f 00       		.uleb128 .LVU150
 3470 02a0 00       		.uleb128 .LVU152
 3471 02a1 00       		.uleb128 .LVU152
 3472 02a2 00       		.uleb128 .LVU157
 3473 02a3 00       		.uleb128 .LVU157
 3474 02a4 00       		.uleb128 .LVU160
 3475 02a5 00       		.uleb128 .LVU160
 3476 02a6 00       		.uleb128 .LVU162
ARM GAS  /tmp/ccBYr15j.s 			page 62


 3477 02a7 00       		.uleb128 .LVU162
 3478 02a8 00       		.uleb128 .LVU173
 3479 02a9 00       		.uleb128 .LVU173
 3480 02aa 00       		.uleb128 .LVU179
 3481 02ab 00       		.uleb128 .LVU179
 3482 02ac 00       		.uleb128 .LVU180
 3483 02ad 00       		.uleb128 .LVU180
 3484 02ae 00       		.uleb128 .LVU233
 3485 02af 00       		.uleb128 .LVU233
 3486 02b0 01       		.uleb128 .LVU234
 3487 02b1 01       		.uleb128 .LVU234
 3488 02b2 00       		.uleb128 .LVU235
 3489 02b3 00       		.uleb128 .LVU235
 3490 02b4 00       		.uleb128 .LVU237
 3491 02b5 00       		.uleb128 .LVU237
 3492 02b6 00       		.uleb128 .LVU238
 3493 02b7 00       		.uleb128 .LVU238
 3494 02b8 00       		.uleb128 .LVU284
 3495 02b9 00       		.uleb128 .LVU284
 3496 02ba 00       		.uleb128 .LVU293
 3497 02bb 00       		.uleb128 .LVU293
 3498 02bc 00       		.uleb128 .LVU294
 3499 02bd 00       		.uleb128 .LVU294
 3500 02be 00       		.uleb128 .LVU299
 3501 02bf 00       		.uleb128 .LVU299
 3502 02c0 00       		.uleb128 .LVU302
 3503 02c1 00       		.uleb128 .LVU302
 3504 02c2 00       		.uleb128 .LVU311
 3505 02c3 00       		.uleb128 .LVU311
 3506 02c4 00       		.uleb128 .LVU312
 3507 02c5 00       		.uleb128 .LVU312
 3508 02c6 00       		.uleb128 .LVU319
 3509 02c7 00       		.uleb128 .LVU319
 3510 02c8 00       		.uleb128 .LVU321
 3511 02c9 00       		.uleb128 .LVU321
 3512 02ca 00       		.uleb128 .LVU322
 3513              	.LLST10:
 3514 02cb 00000000 		.4byte	.LVL13
 3515 02cf 08000000 		.4byte	.LVL14
 3516 02d3 0100     		.2byte	0x1
 3517 02d5 52       		.byte	0x52
 3518 02d6 08000000 		.4byte	.LVL14
 3519 02da 10000000 		.4byte	.LVL15
 3520 02de 0300     		.2byte	0x3
 3521 02e0 52       		.byte	0x52
 3522 02e1 93       		.byte	0x93
 3523 02e2 04       		.uleb128 0x4
 3524 02e3 10000000 		.4byte	.LVL15
 3525 02e7 22000000 		.4byte	.LVL18
 3526 02eb 0300     		.2byte	0x3
 3527 02ed 58       		.byte	0x58
 3528 02ee 93       		.byte	0x93
 3529 02ef 04       		.uleb128 0x4
 3530 02f0 2E000000 		.4byte	.LVL21
 3531 02f4 4E000000 		.4byte	.LVL26
 3532 02f8 0100     		.2byte	0x1
 3533 02fa 52       		.byte	0x52
ARM GAS  /tmp/ccBYr15j.s 			page 63


 3534 02fb 4E000000 		.4byte	.LVL26
 3535 02ff 62000000 		.4byte	.LVL29
 3536 0303 0300     		.2byte	0x3
 3537 0305 58       		.byte	0x58
 3538 0306 93       		.byte	0x93
 3539 0307 04       		.uleb128 0x4
 3540 0308 62000000 		.4byte	.LVL29
 3541 030c 66000000 		.4byte	.LVL30
 3542 0310 0500     		.2byte	0x5
 3543 0312 78       		.byte	0x78
 3544 0313 04       		.sleb128 4
 3545 0314 9F       		.byte	0x9f
 3546 0315 93       		.byte	0x93
 3547 0316 04       		.uleb128 0x4
 3548 0317 66000000 		.4byte	.LVL30
 3549 031b 6C000000 		.4byte	.LVL32
 3550 031f 0300     		.2byte	0x3
 3551 0321 58       		.byte	0x58
 3552 0322 93       		.byte	0x93
 3553 0323 04       		.uleb128 0x4
 3554 0324 72000000 		.4byte	.LVL33
 3555 0328 8C000000 		.4byte	.LVL36
 3556 032c 0300     		.2byte	0x3
 3557 032e 58       		.byte	0x58
 3558 032f 93       		.byte	0x93
 3559 0330 04       		.uleb128 0x4
 3560 0331 8C000000 		.4byte	.LVL36
 3561 0335 90000000 		.4byte	.LVL37
 3562 0339 0500     		.2byte	0x5
 3563 033b 78       		.byte	0x78
 3564 033c 04       		.sleb128 4
 3565 033d 9F       		.byte	0x9f
 3566 033e 93       		.byte	0x93
 3567 033f 04       		.uleb128 0x4
 3568 0340 90000000 		.4byte	.LVL37
 3569 0344 9E000000 		.4byte	.LVL41
 3570 0348 0300     		.2byte	0x3
 3571 034a 58       		.byte	0x58
 3572 034b 93       		.byte	0x93
 3573 034c 04       		.uleb128 0x4
 3574 034d A2000000 		.4byte	.LVL42
 3575 0351 6C010000 		.4byte	.LVL50
 3576 0355 0300     		.2byte	0x3
 3577 0357 58       		.byte	0x58
 3578 0358 93       		.byte	0x93
 3579 0359 04       		.uleb128 0x4
 3580 035a 6C010000 		.4byte	.LVL50
 3581 035e 74010000 		.4byte	.LVL51
 3582 0362 0500     		.2byte	0x5
 3583 0364 74       		.byte	0x74
 3584 0365 04       		.sleb128 4
 3585 0366 9F       		.byte	0x9f
 3586 0367 93       		.byte	0x93
 3587 0368 04       		.uleb128 0x4
 3588 0369 74010000 		.4byte	.LVL51
 3589 036d 82010000 		.4byte	.LVL55
 3590 0371 0300     		.2byte	0x3
ARM GAS  /tmp/ccBYr15j.s 			page 64


 3591 0373 54       		.byte	0x54
 3592 0374 93       		.byte	0x93
 3593 0375 04       		.uleb128 0x4
 3594 0376 82010000 		.4byte	.LVL55
 3595 037a 84010000 		.4byte	.LVL56
 3596 037e 0300     		.2byte	0x3
 3597 0380 58       		.byte	0x58
 3598 0381 93       		.byte	0x93
 3599 0382 04       		.uleb128 0x4
 3600 0383 84010000 		.4byte	.LVL56
 3601 0387 8A010000 		.4byte	.LVL58
 3602 038b 0500     		.2byte	0x5
 3603 038d 74       		.byte	0x74
 3604 038e 04       		.sleb128 4
 3605 038f 9F       		.byte	0x9f
 3606 0390 93       		.byte	0x93
 3607 0391 04       		.uleb128 0x4
 3608 0392 8A010000 		.4byte	.LVL58
 3609 0396 B4010000 		.4byte	.LVL62
 3610 039a 0300     		.2byte	0x3
 3611 039c 54       		.byte	0x54
 3612 039d 93       		.byte	0x93
 3613 039e 04       		.uleb128 0x4
 3614 039f B4010000 		.4byte	.LVL62
 3615 03a3 BE010000 		.4byte	.LVL64
 3616 03a7 0300     		.2byte	0x3
 3617 03a9 58       		.byte	0x58
 3618 03aa 93       		.byte	0x93
 3619 03ab 04       		.uleb128 0x4
 3620 03ac BE010000 		.4byte	.LVL64
 3621 03b0 C2010000 		.4byte	.LVL65
 3622 03b4 0500     		.2byte	0x5
 3623 03b6 74       		.byte	0x74
 3624 03b7 04       		.sleb128 4
 3625 03b8 9F       		.byte	0x9f
 3626 03b9 93       		.byte	0x93
 3627 03ba 04       		.uleb128 0x4
 3628 03bb C2010000 		.4byte	.LVL65
 3629 03bf 40020000 		.4byte	.LVL85
 3630 03c3 0300     		.2byte	0x3
 3631 03c5 54       		.byte	0x54
 3632 03c6 93       		.byte	0x93
 3633 03c7 04       		.uleb128 0x4
 3634 03c8 40020000 		.4byte	.LVL85
 3635 03cc 40020000 		.4byte	.LVL85
 3636 03d0 0300     		.2byte	0x3
 3637 03d2 58       		.byte	0x58
 3638 03d3 93       		.byte	0x93
 3639 03d4 04       		.uleb128 0x4
 3640 03d5 40020000 		.4byte	.LVL85
 3641 03d9 46020000 		.4byte	.LVL86
 3642 03dd 0500     		.2byte	0x5
 3643 03df 78       		.byte	0x78
 3644 03e0 04       		.sleb128 4
 3645 03e1 9F       		.byte	0x9f
 3646 03e2 93       		.byte	0x93
 3647 03e3 04       		.uleb128 0x4
ARM GAS  /tmp/ccBYr15j.s 			page 65


 3648 03e4 46020000 		.4byte	.LVL86
 3649 03e8 4E020000 		.4byte	.LVL87
 3650 03ec 0300     		.2byte	0x3
 3651 03ee 58       		.byte	0x58
 3652 03ef 93       		.byte	0x93
 3653 03f0 04       		.uleb128 0x4
 3654 03f1 4E020000 		.4byte	.LVL87
 3655 03f5 52020000 		.4byte	.LVL88
 3656 03f9 0500     		.2byte	0x5
 3657 03fb 74       		.byte	0x74
 3658 03fc 08       		.sleb128 8
 3659 03fd 9F       		.byte	0x9f
 3660 03fe 93       		.byte	0x93
 3661 03ff 04       		.uleb128 0x4
 3662 0400 52020000 		.4byte	.LVL88
 3663 0404 F8020000 		.4byte	.LVL109
 3664 0408 0300     		.2byte	0x3
 3665 040a 54       		.byte	0x54
 3666 040b 93       		.byte	0x93
 3667 040c 04       		.uleb128 0x4
 3668 040d F8020000 		.4byte	.LVL109
 3669 0411 06030000 		.4byte	.LVL112
 3670 0415 0300     		.2byte	0x3
 3671 0417 58       		.byte	0x58
 3672 0418 93       		.byte	0x93
 3673 0419 04       		.uleb128 0x4
 3674 041a 06030000 		.4byte	.LVL112
 3675 041e 0A030000 		.4byte	.LVL113
 3676 0422 0500     		.2byte	0x5
 3677 0424 74       		.byte	0x74
 3678 0425 04       		.sleb128 4
 3679 0426 9F       		.byte	0x9f
 3680 0427 93       		.byte	0x93
 3681 0428 04       		.uleb128 0x4
 3682 0429 0A030000 		.4byte	.LVL113
 3683 042d 10030000 		.4byte	.LVL115
 3684 0431 0300     		.2byte	0x3
 3685 0433 54       		.byte	0x54
 3686 0434 93       		.byte	0x93
 3687 0435 04       		.uleb128 0x4
 3688 0436 10030000 		.4byte	.LVL115
 3689 043a 18030000 		.4byte	.LVL117
 3690 043e 0300     		.2byte	0x3
 3691 0440 58       		.byte	0x58
 3692 0441 93       		.byte	0x93
 3693 0442 04       		.uleb128 0x4
 3694 0443 18030000 		.4byte	.LVL117
 3695 0447 40030000 		.4byte	.LVL124
 3696 044b 0300     		.2byte	0x3
 3697 044d 54       		.byte	0x54
 3698 044e 93       		.byte	0x93
 3699 044f 04       		.uleb128 0x4
 3700 0450 40030000 		.4byte	.LVL124
 3701 0454 44030000 		.4byte	.LVL125
 3702 0458 0300     		.2byte	0x3
 3703 045a 58       		.byte	0x58
 3704 045b 93       		.byte	0x93
ARM GAS  /tmp/ccBYr15j.s 			page 66


 3705 045c 04       		.uleb128 0x4
 3706 045d 44030000 		.4byte	.LVL125
 3707 0461 58030000 		.4byte	.LVL129
 3708 0465 0300     		.2byte	0x3
 3709 0467 54       		.byte	0x54
 3710 0468 93       		.byte	0x93
 3711 0469 04       		.uleb128 0x4
 3712 046a 58030000 		.4byte	.LVL129
 3713 046e CE030000 		.4byte	.LVL130
 3714 0472 0300     		.2byte	0x3
 3715 0474 58       		.byte	0x58
 3716 0475 93       		.byte	0x93
 3717 0476 04       		.uleb128 0x4
 3718 0477 CE030000 		.4byte	.LVL130
 3719 047b DA030000 		.4byte	.LVL131
 3720 047f 0300     		.2byte	0x3
 3721 0481 58       		.byte	0x58
 3722 0482 93       		.byte	0x93
 3723 0483 04       		.uleb128 0x4
 3724 0484 00000000 		.4byte	0
 3725 0488 00000000 		.4byte	0
 3726              	.LVUS11:
 3727 048c 01       		.uleb128 .LVU68
 3728 048d 01       		.uleb128 .LVU141
 3729 048e 01       		.uleb128 .LVU141
 3730 048f 00       		.uleb128 .LVU144
 3731 0490 00       		.uleb128 .LVU144
 3732 0491 00       		.uleb128 .LVU150
 3733 0492 00       		.uleb128 .LVU150
 3734 0493 00       		.uleb128 .LVU156
 3735 0494 00       		.uleb128 .LVU156
 3736 0495 00       		.uleb128 .LVU157
 3737 0496 00       		.uleb128 .LVU157
 3738 0497 00       		.uleb128 .LVU165
 3739 0498 00       		.uleb128 .LVU165
 3740 0499 00       		.uleb128 .LVU173
 3741 049a 00       		.uleb128 .LVU173
 3742 049b 02       		.uleb128 .LVU182
 3743 049c 02       		.uleb128 .LVU182
 3744 049d 01       		.uleb128 .LVU190
 3745 049e 01       		.uleb128 .LVU190
 3746 049f 00       		.uleb128 .LVU194
 3747 04a0 00       		.uleb128 .LVU197
 3748 04a1 00       		.uleb128 .LVU217
 3749 04a2 00       		.uleb128 .LVU233
 3750 04a3 01       		.uleb128 .LVU243
 3751 04a4 01       		.uleb128 .LVU243
 3752 04a5 01       		.uleb128 .LVU249
 3753 04a6 01       		.uleb128 .LVU249
 3754 04a7 00       		.uleb128 .LVU276
 3755 04a8 00       		.uleb128 .LVU284
 3756 04a9 00       		.uleb128 .LVU298
 3757 04aa 00       		.uleb128 .LVU298
 3758 04ab 00       		.uleb128 .LVU299
 3759 04ac 00       		.uleb128 .LVU299
 3760 04ad 00       		.uleb128 .LVU302
 3761 04ae 00       		.uleb128 .LVU312
ARM GAS  /tmp/ccBYr15j.s 			page 67


 3762 04af 00       		.uleb128 .LVU313
 3763 04b0 00       		.uleb128 .LVU319
 3764 04b1 00       		.uleb128 .LVU321
 3765              	.LLST11:
 3766 04b2 2E000000 		.4byte	.LVL21
 3767 04b6 EE000000 		.4byte	.LVL47
 3768 04ba 0400     		.2byte	0x4
 3769 04bc 91       		.byte	0x91
 3770 04bd B07F     		.sleb128 -80
 3771 04bf 9F       		.byte	0x9f
 3772 04c0 EE000000 		.4byte	.LVL47
 3773 04c4 F6000000 		.4byte	.LVL48
 3774 04c8 0400     		.2byte	0x4
 3775 04ca 91       		.byte	0x91
 3776 04cb B17F     		.sleb128 -79
 3777 04cd 9F       		.byte	0x9f
 3778 04ce F6000000 		.4byte	.LVL48
 3779 04d2 6C010000 		.4byte	.LVL50
 3780 04d6 0400     		.2byte	0x4
 3781 04d8 91       		.byte	0x91
 3782 04d9 B07F     		.sleb128 -80
 3783 04db 9F       		.byte	0x9f
 3784 04dc 6C010000 		.4byte	.LVL50
 3785 04e0 80010000 		.4byte	.LVL54
 3786 04e4 0400     		.2byte	0x4
 3787 04e6 91       		.byte	0x91
 3788 04e7 B17F     		.sleb128 -79
 3789 04e9 9F       		.byte	0x9f
 3790 04ea 80010000 		.4byte	.LVL54
 3791 04ee 82010000 		.4byte	.LVL55
 3792 04f2 0100     		.2byte	0x1
 3793 04f4 50       		.byte	0x50
 3794 04f5 82010000 		.4byte	.LVL55
 3795 04f9 A2010000 		.4byte	.LVL60
 3796 04fd 0400     		.2byte	0x4
 3797 04ff 91       		.byte	0x91
 3798 0500 B07F     		.sleb128 -80
 3799 0502 9F       		.byte	0x9f
 3800 0503 A2010000 		.4byte	.LVL60
 3801 0507 B4010000 		.4byte	.LVL62
 3802 050b 0100     		.2byte	0x1
 3803 050d 50       		.byte	0x50
 3804 050e B4010000 		.4byte	.LVL62
 3805 0512 C2010000 		.4byte	.LVL65
 3806 0516 0400     		.2byte	0x4
 3807 0518 91       		.byte	0x91
 3808 0519 B07F     		.sleb128 -80
 3809 051b 9F       		.byte	0x9f
 3810 051c C2010000 		.4byte	.LVL65
 3811 0520 DA010000 		.4byte	.LVL68
 3812 0524 0400     		.2byte	0x4
 3813 0526 91       		.byte	0x91
 3814 0527 B17F     		.sleb128 -79
 3815 0529 9F       		.byte	0x9f
 3816 052a DA010000 		.4byte	.LVL68
 3817 052e DC010000 		.4byte	.LVL69
 3818 0532 0100     		.2byte	0x1
ARM GAS  /tmp/ccBYr15j.s 			page 68


 3819 0534 50       		.byte	0x50
 3820 0535 E4010000 		.4byte	.LVL71
 3821 0539 14020000 		.4byte	.LVL76
 3822 053d 0100     		.2byte	0x1
 3823 053f 50       		.byte	0x50
 3824 0540 40020000 		.4byte	.LVL85
 3825 0544 62020000 		.4byte	.LVL91
 3826 0548 0400     		.2byte	0x4
 3827 054a 91       		.byte	0x91
 3828 054b B07F     		.sleb128 -80
 3829 054d 9F       		.byte	0x9f
 3830 054e 62020000 		.4byte	.LVL91
 3831 0552 78020000 		.4byte	.LVL92
 3832 0556 0400     		.2byte	0x4
 3833 0558 91       		.byte	0x91
 3834 0559 B17F     		.sleb128 -79
 3835 055b 9F       		.byte	0x9f
 3836 055c 78020000 		.4byte	.LVL92
 3837 0560 CC020000 		.4byte	.LVL104
 3838 0564 0100     		.2byte	0x1
 3839 0566 58       		.byte	0x58
 3840 0567 F8020000 		.4byte	.LVL109
 3841 056b 0E030000 		.4byte	.LVL114
 3842 056f 0400     		.2byte	0x4
 3843 0571 91       		.byte	0x91
 3844 0572 B07F     		.sleb128 -80
 3845 0574 9F       		.byte	0x9f
 3846 0575 0E030000 		.4byte	.LVL114
 3847 0579 10030000 		.4byte	.LVL115
 3848 057d 0100     		.2byte	0x1
 3849 057f 50       		.byte	0x50
 3850 0580 10030000 		.4byte	.LVL115
 3851 0584 18030000 		.4byte	.LVL117
 3852 0588 0400     		.2byte	0x4
 3853 058a 91       		.byte	0x91
 3854 058b B07F     		.sleb128 -80
 3855 058d 9F       		.byte	0x9f
 3856 058e 44030000 		.4byte	.LVL125
 3857 0592 48030000 		.4byte	.LVL126
 3858 0596 0100     		.2byte	0x1
 3859 0598 50       		.byte	0x50
 3860 0599 58030000 		.4byte	.LVL129
 3861 059d CE030000 		.4byte	.LVL130
 3862 05a1 0400     		.2byte	0x4
 3863 05a3 91       		.byte	0x91
 3864 05a4 B07F     		.sleb128 -80
 3865 05a6 9F       		.byte	0x9f
 3866 05a7 00000000 		.4byte	0
 3867 05ab 00000000 		.4byte	0
 3868              	.LVUS12:
 3869 05af 02       		.uleb128 .LVU69
 3870 05b0 00       		.uleb128 .LVU155
 3871 05b1 00       		.uleb128 .LVU155
 3872 05b2 00       		.uleb128 .LVU157
 3873 05b3 00       		.uleb128 .LVU157
 3874 05b4 00       		.uleb128 .LVU162
 3875 05b5 00       		.uleb128 .LVU163
ARM GAS  /tmp/ccBYr15j.s 			page 69


 3876 05b6 00       		.uleb128 .LVU173
 3877 05b7 00       		.uleb128 .LVU173
 3878 05b8 00       		.uleb128 .LVU196
 3879 05b9 00       		.uleb128 .LVU196
 3880 05ba 02       		.uleb128 .LVU225
 3881 05bb 00       		.uleb128 .LVU233
 3882 05bc 00       		.uleb128 .LVU298
 3883 05bd 00       		.uleb128 .LVU298
 3884 05be 00       		.uleb128 .LVU299
 3885 05bf 00       		.uleb128 .LVU299
 3886 05c0 00       		.uleb128 .LVU302
 3887 05c1 00       		.uleb128 .LVU302
 3888 05c2 00       		.uleb128 .LVU303
 3889 05c3 00       		.uleb128 .LVU303
 3890 05c4 01       		.uleb128 .LVU305
 3891 05c5 00       		.uleb128 .LVU307
 3892 05c6 00       		.uleb128 .LVU311
 3893 05c7 00       		.uleb128 .LVU312
 3894 05c8 00       		.uleb128 .LVU319
 3895 05c9 00       		.uleb128 .LVU319
 3896 05ca 00       		.uleb128 .LVU321
 3897              	.LLST12:
 3898 05cb 2E000000 		.4byte	.LVL21
 3899 05cf 7C010000 		.4byte	.LVL53
 3900 05d3 0400     		.2byte	0x4
 3901 05d5 91       		.byte	0x91
 3902 05d6 B07F     		.sleb128 -80
 3903 05d8 9F       		.byte	0x9f
 3904 05d9 7C010000 		.4byte	.LVL53
 3905 05dd 82010000 		.4byte	.LVL55
 3906 05e1 0100     		.2byte	0x1
 3907 05e3 59       		.byte	0x59
 3908 05e4 82010000 		.4byte	.LVL55
 3909 05e8 8A010000 		.4byte	.LVL58
 3910 05ec 0400     		.2byte	0x4
 3911 05ee 91       		.byte	0x91
 3912 05ef B07F     		.sleb128 -80
 3913 05f1 9F       		.byte	0x9f
 3914 05f2 92010000 		.4byte	.LVL59
 3915 05f6 B4010000 		.4byte	.LVL62
 3916 05fa 0100     		.2byte	0x1
 3917 05fc 59       		.byte	0x59
 3918 05fd B4010000 		.4byte	.LVL62
 3919 0601 E0010000 		.4byte	.LVL70
 3920 0605 0400     		.2byte	0x4
 3921 0607 91       		.byte	0x91
 3922 0608 B07F     		.sleb128 -80
 3923 060a 9F       		.byte	0x9f
 3924 060b E0010000 		.4byte	.LVL70
 3925 060f 26020000 		.4byte	.LVL81
 3926 0613 0100     		.2byte	0x1
 3927 0615 59       		.byte	0x59
 3928 0616 40020000 		.4byte	.LVL85
 3929 061a 0E030000 		.4byte	.LVL114
 3930 061e 0400     		.2byte	0x4
 3931 0620 91       		.byte	0x91
 3932 0621 B07F     		.sleb128 -80
ARM GAS  /tmp/ccBYr15j.s 			page 70


 3933 0623 9F       		.byte	0x9f
 3934 0624 0E030000 		.4byte	.LVL114
 3935 0628 10030000 		.4byte	.LVL115
 3936 062c 0100     		.2byte	0x1
 3937 062e 50       		.byte	0x50
 3938 062f 10030000 		.4byte	.LVL115
 3939 0633 18030000 		.4byte	.LVL117
 3940 0637 0400     		.2byte	0x4
 3941 0639 91       		.byte	0x91
 3942 063a B07F     		.sleb128 -80
 3943 063c 9F       		.byte	0x9f
 3944 063d 18030000 		.4byte	.LVL117
 3945 0641 20030000 		.4byte	.LVL118
 3946 0645 0100     		.2byte	0x1
 3947 0647 59       		.byte	0x59
 3948 0648 20030000 		.4byte	.LVL118
 3949 064c 24030000 		.4byte	.LVL119
 3950 0650 0300     		.2byte	0x3
 3951 0652 79       		.byte	0x79
 3952 0653 7F       		.sleb128 -1
 3953 0654 9F       		.byte	0x9f
 3954 0655 28030000 		.4byte	.LVL121
 3955 0659 40030000 		.4byte	.LVL124
 3956 065d 0100     		.2byte	0x1
 3957 065f 59       		.byte	0x59
 3958 0660 44030000 		.4byte	.LVL125
 3959 0664 58030000 		.4byte	.LVL129
 3960 0668 0100     		.2byte	0x1
 3961 066a 59       		.byte	0x59
 3962 066b 58030000 		.4byte	.LVL129
 3963 066f CE030000 		.4byte	.LVL130
 3964 0673 0400     		.2byte	0x4
 3965 0675 91       		.byte	0x91
 3966 0676 B07F     		.sleb128 -80
 3967 0678 9F       		.byte	0x9f
 3968 0679 00000000 		.4byte	0
 3969 067d 00000000 		.4byte	0
 3970              	.LVUS13:
 3971 0681 00       		.uleb128 .LVU57
 3972 0682 00       		.uleb128 .LVU65
 3973 0683 00       		.uleb128 .LVU67
 3974 0684 00       		.uleb128 .LVU72
 3975 0685 00       		.uleb128 .LVU72
 3976 0686 01       		.uleb128 .LVU87
 3977 0687 00       		.uleb128 .LVU91
 3978 0688 00       		.uleb128 .LVU99
 3979 0689 00       		.uleb128 .LVU99
 3980 068a 00       		.uleb128 .LVU102
 3981 068b 00       		.uleb128 .LVU102
 3982 068c 00       		.uleb128 .LVU107
 3983 068d 00       		.uleb128 .LVU110
 3984 068e 00       		.uleb128 .LVU118
 3985 068f 00       		.uleb128 .LVU118
 3986 0690 00       		.uleb128 .LVU123
 3987 0691 00       		.uleb128 .LVU123
 3988 0692 00       		.uleb128 .LVU132
 3989 0693 00       		.uleb128 .LVU132
ARM GAS  /tmp/ccBYr15j.s 			page 71


 3990 0694 00       		.uleb128 .LVU133
 3991 0695 00       		.uleb128 .LVU133
 3992 0696 00       		.uleb128 .LVU140
 3993 0697 00       		.uleb128 .LVU144
 3994 0698 00       		.uleb128 .LVU152
 3995 0699 00       		.uleb128 .LVU157
 3996 069a 00       		.uleb128 .LVU161
 3997 069b 00       		.uleb128 .LVU173
 3998 069c 00       		.uleb128 .LVU185
 3999 069d 00       		.uleb128 .LVU233
 4000 069e 00       		.uleb128 .LVU239
 4001 069f 00       		.uleb128 .LVU284
 4002 06a0 00       		.uleb128 .LVU286
 4003 06a1 00       		.uleb128 .LVU286
 4004 06a2 00       		.uleb128 .LVU299
 4005 06a3 00       		.uleb128 .LVU299
 4006 06a4 00       		.uleb128 .LVU302
 4007 06a5 00       		.uleb128 .LVU319
 4008 06a6 00       		.uleb128 0
 4009              	.LLST13:
 4010 06a7 16000000 		.4byte	.LVL17
 4011 06ab 2B000000 		.4byte	.LVL20-1
 4012 06af 0100     		.2byte	0x1
 4013 06b1 53       		.byte	0x53
 4014 06b2 2E000000 		.4byte	.LVL21
 4015 06b6 30000000 		.4byte	.LVL22
 4016 06ba 0100     		.2byte	0x1
 4017 06bc 53       		.byte	0x53
 4018 06bd 30000000 		.4byte	.LVL22
 4019 06c1 4E000000 		.4byte	.LVL26
 4020 06c5 0200     		.2byte	0x2
 4021 06c7 71       		.byte	0x71
 4022 06c8 00       		.sleb128 0
 4023 06c9 54000000 		.4byte	.LVL28
 4024 06cd 68000000 		.4byte	.LVL31
 4025 06d1 0100     		.2byte	0x1
 4026 06d3 53       		.byte	0x53
 4027 06d4 68000000 		.4byte	.LVL31
 4028 06d8 72000000 		.4byte	.LVL33
 4029 06dc 0100     		.2byte	0x1
 4030 06de 51       		.byte	0x51
 4031 06df 72000000 		.4byte	.LVL33
 4032 06e3 7A000000 		.4byte	.LVL34
 4033 06e7 0100     		.2byte	0x1
 4034 06e9 53       		.byte	0x53
 4035 06ea 7E000000 		.4byte	.LVL35
 4036 06ee 92000000 		.4byte	.LVL38
 4037 06f2 0100     		.2byte	0x1
 4038 06f4 53       		.byte	0x53
 4039 06f5 92000000 		.4byte	.LVL38
 4040 06f9 9A000000 		.4byte	.LVL40
 4041 06fd 0100     		.2byte	0x1
 4042 06ff 51       		.byte	0x51
 4043 0700 9A000000 		.4byte	.LVL40
 4044 0704 AC000000 		.4byte	.LVL43
 4045 0708 0100     		.2byte	0x1
 4046 070a 53       		.byte	0x53
ARM GAS  /tmp/ccBYr15j.s 			page 72


 4047 070b AC000000 		.4byte	.LVL43
 4048 070f B0000000 		.4byte	.LVL44
 4049 0713 0100     		.2byte	0x1
 4050 0715 52       		.byte	0x52
 4051 0716 B0000000 		.4byte	.LVL44
 4052 071a EE000000 		.4byte	.LVL47
 4053 071e 0100     		.2byte	0x1
 4054 0720 53       		.byte	0x53
 4055 0721 F6000000 		.4byte	.LVL48
 4056 0725 74010000 		.4byte	.LVL51
 4057 0729 0100     		.2byte	0x1
 4058 072b 53       		.byte	0x53
 4059 072c 82010000 		.4byte	.LVL55
 4060 0730 86010000 		.4byte	.LVL57
 4061 0734 0100     		.2byte	0x1
 4062 0736 53       		.byte	0x53
 4063 0737 B4010000 		.4byte	.LVL62
 4064 073b CC010000 		.4byte	.LVL66
 4065 073f 0100     		.2byte	0x1
 4066 0741 53       		.byte	0x53
 4067 0742 40020000 		.4byte	.LVL85
 4068 0746 55020000 		.4byte	.LVL89-1
 4069 074a 0100     		.2byte	0x1
 4070 074c 53       		.byte	0x53
 4071 074d F8020000 		.4byte	.LVL109
 4072 0751 FA020000 		.4byte	.LVL110
 4073 0755 0100     		.2byte	0x1
 4074 0757 53       		.byte	0x53
 4075 0758 FA020000 		.4byte	.LVL110
 4076 075c 10030000 		.4byte	.LVL115
 4077 0760 0100     		.2byte	0x1
 4078 0762 52       		.byte	0x52
 4079 0763 10030000 		.4byte	.LVL115
 4080 0767 18030000 		.4byte	.LVL117
 4081 076b 0100     		.2byte	0x1
 4082 076d 53       		.byte	0x53
 4083 076e 58030000 		.4byte	.LVL129
 4084 0772 E4030000 		.4byte	.LFE337
 4085 0776 0100     		.2byte	0x1
 4086 0778 53       		.byte	0x53
 4087 0779 00000000 		.4byte	0
 4088 077d 00000000 		.4byte	0
 4089              	.LVUS14:
 4090 0781 01       		.uleb128 .LVU81
 4091 0782 00       		.uleb128 .LVU86
 4092 0783 00       		.uleb128 .LVU86
 4093 0784 01       		.uleb128 .LVU148
 4094 0785 01       		.uleb128 .LVU148
 4095 0786 01       		.uleb128 .LVU154
 4096 0787 00       		.uleb128 .LVU157
 4097 0788 01       		.uleb128 .LVU158
 4098 0789 01       		.uleb128 .LVU158
 4099 078a 00       		.uleb128 .LVU173
 4100 078b 00       		.uleb128 .LVU173
 4101 078c 00       		.uleb128 .LVU311
 4102 078d 00       		.uleb128 .LVU312
 4103 078e 00       		.uleb128 .LVU321
ARM GAS  /tmp/ccBYr15j.s 			page 73


 4104              	.LLST14:
 4105 078f 40000000 		.4byte	.LVL24
 4106 0793 4E000000 		.4byte	.LVL26
 4107 0797 0300     		.2byte	0x3
 4108 0799 08       		.byte	0x8
 4109 079a 20       		.byte	0x20
 4110 079b 9F       		.byte	0x9f
 4111 079c 4E000000 		.4byte	.LVL26
 4112 07a0 6A010000 		.4byte	.LVL49
 4113 07a4 0100     		.2byte	0x1
 4114 07a6 5A       		.byte	0x5a
 4115 07a7 6A010000 		.4byte	.LVL49
 4116 07ab 78010000 		.4byte	.LVL52
 4117 07af 0300     		.2byte	0x3
 4118 07b1 08       		.byte	0x8
 4119 07b2 20       		.byte	0x20
 4120 07b3 9F       		.byte	0x9f
 4121 07b4 82010000 		.4byte	.LVL55
 4122 07b8 82010000 		.4byte	.LVL55
 4123 07bc 0100     		.2byte	0x1
 4124 07be 5A       		.byte	0x5a
 4125 07bf 82010000 		.4byte	.LVL55
 4126 07c3 B4010000 		.4byte	.LVL62
 4127 07c7 0300     		.2byte	0x3
 4128 07c9 08       		.byte	0x8
 4129 07ca 20       		.byte	0x20
 4130 07cb 9F       		.byte	0x9f
 4131 07cc B4010000 		.4byte	.LVL62
 4132 07d0 40030000 		.4byte	.LVL124
 4133 07d4 0100     		.2byte	0x1
 4134 07d6 5A       		.byte	0x5a
 4135 07d7 44030000 		.4byte	.LVL125
 4136 07db CE030000 		.4byte	.LVL130
 4137 07df 0100     		.2byte	0x1
 4138 07e1 5A       		.byte	0x5a
 4139 07e2 00000000 		.4byte	0
 4140 07e6 00000000 		.4byte	0
 4141              	.LVUS15:
 4142 07ea 00       		.uleb128 .LVU202
 4143 07eb 00       		.uleb128 .LVU219
 4144 07ec 00       		.uleb128 .LVU219
 4145 07ed 02       		.uleb128 .LVU225
 4146 07ee 00       		.uleb128 .LVU302
 4147 07ef 00       		.uleb128 .LVU306
 4148 07f0 00       		.uleb128 .LVU306
 4149 07f1 00       		.uleb128 .LVU307
 4150 07f2 00       		.uleb128 .LVU307
 4151 07f3 01       		.uleb128 .LVU308
 4152 07f4 01       		.uleb128 .LVU308
 4153 07f5 00       		.uleb128 .LVU309
 4154 07f6 00       		.uleb128 .LVU309
 4155 07f7 00       		.uleb128 .LVU310
 4156 07f8 00       		.uleb128 .LVU312
 4157 07f9 00       		.uleb128 .LVU313
 4158              	.LLST15:
 4159 07fa EA010000 		.4byte	.LVL72
 4160 07fe 1A020000 		.4byte	.LVL77
ARM GAS  /tmp/ccBYr15j.s 			page 74


 4161 0802 0100     		.2byte	0x1
 4162 0804 58       		.byte	0x58
 4163 0805 1A020000 		.4byte	.LVL77
 4164 0809 26020000 		.4byte	.LVL81
 4165 080d 0300     		.2byte	0x3
 4166 080f 78       		.byte	0x78
 4167 0810 01       		.sleb128 1
 4168 0811 9F       		.byte	0x9f
 4169 0812 18030000 		.4byte	.LVL117
 4170 0816 25030000 		.4byte	.LVL120-1
 4171 081a 0100     		.2byte	0x1
 4172 081c 53       		.byte	0x53
 4173 081d 25030000 		.4byte	.LVL120-1
 4174 0821 28030000 		.4byte	.LVL121
 4175 0825 0300     		.2byte	0x3
 4176 0827 91       		.byte	0x91
 4177 0828 A47F     		.sleb128 -92
 4178 082a 28030000 		.4byte	.LVL121
 4179 082e 28030000 		.4byte	.LVL121
 4180 0832 0100     		.2byte	0x1
 4181 0834 53       		.byte	0x53
 4182 0835 28030000 		.4byte	.LVL121
 4183 0839 2A030000 		.4byte	.LVL122
 4184 083d 0300     		.2byte	0x3
 4185 083f 73       		.byte	0x73
 4186 0840 7F       		.sleb128 -1
 4187 0841 9F       		.byte	0x9f
 4188 0842 2A030000 		.4byte	.LVL122
 4189 0846 36030000 		.4byte	.LVL123
 4190 084a 0100     		.2byte	0x1
 4191 084c 53       		.byte	0x53
 4192 084d 44030000 		.4byte	.LVL125
 4193 0851 48030000 		.4byte	.LVL126
 4194 0855 0100     		.2byte	0x1
 4195 0857 58       		.byte	0x58
 4196 0858 00000000 		.4byte	0
 4197 085c 00000000 		.4byte	0
 4198              	.LVUS16:
 4199 0860 01       		.uleb128 .LVU103
 4200 0861 00       		.uleb128 .LVU107
 4201 0862 01       		.uleb128 .LVU119
 4202 0863 00       		.uleb128 .LVU121
 4203              	.LLST16:
 4204 0864 72000000 		.4byte	.LVL33
 4205 0868 7A000000 		.4byte	.LVL34
 4206 086c 0200     		.2byte	0x2
 4207 086e 30       		.byte	0x30
 4208 086f 9F       		.byte	0x9f
 4209 0870 92000000 		.4byte	.LVL38
 4210 0874 98000000 		.4byte	.LVL39
 4211 0878 0500     		.2byte	0x5
 4212 087a 7B       		.byte	0x7b
 4213 087b 00       		.sleb128 0
 4214 087c 3A       		.byte	0x3a
 4215 087d 1E       		.byte	0x1e
 4216 087e 9F       		.byte	0x9f
 4217 087f 00000000 		.4byte	0
ARM GAS  /tmp/ccBYr15j.s 			page 75


 4218 0883 00000000 		.4byte	0
 4219              	.LVUS17:
 4220 0887 00       		.uleb128 .LVU88
 4221 0888 00       		.uleb128 .LVU91
 4222 0889 00       		.uleb128 .LVU91
 4223 088a 00       		.uleb128 .LVU205
 4224 088b 00       		.uleb128 .LVU205
 4225 088c 00       		.uleb128 .LVU206
 4226 088d 00       		.uleb128 .LVU206
 4227 088e 00       		.uleb128 .LVU211
 4228 088f 00       		.uleb128 .LVU211
 4229 0890 02       		.uleb128 .LVU230
 4230 0891 02       		.uleb128 .LVU230
 4231 0892 00       		.uleb128 .LVU231
 4232 0893 00       		.uleb128 .LVU231
 4233 0894 00       		.uleb128 .LVU232
 4234 0895 00       		.uleb128 .LVU233
 4235 0896 00       		.uleb128 .LVU302
 4236 0897 00       		.uleb128 .LVU310
 4237 0898 00       		.uleb128 .LVU311
 4238 0899 00       		.uleb128 .LVU312
 4239 089a 00       		.uleb128 .LVU313
 4240 089b 00       		.uleb128 .LVU313
 4241 089c 00       		.uleb128 .LVU315
 4242 089d 00       		.uleb128 .LVU315
 4243 089e 02       		.uleb128 .LVU318
 4244 089f 02       		.uleb128 .LVU318
 4245 08a0 00       		.uleb128 .LVU319
 4246 08a1 00       		.uleb128 .LVU319
 4247 08a2 00       		.uleb128 .LVU321
 4248              	.LLST17:
 4249 08a3 50000000 		.4byte	.LVL27
 4250 08a7 54000000 		.4byte	.LVL28
 4251 08ab 0100     		.2byte	0x1
 4252 08ad 53       		.byte	0x53
 4253 08ae 54000000 		.4byte	.LVL28
 4254 08b2 F0010000 		.4byte	.LVL73
 4255 08b6 0300     		.2byte	0x3
 4256 08b8 91       		.byte	0x91
 4257 08b9 A47F     		.sleb128 -92
 4258 08bb F0010000 		.4byte	.LVL73
 4259 08bf F4010000 		.4byte	.LVL74
 4260 08c3 0100     		.2byte	0x1
 4261 08c5 52       		.byte	0x52
 4262 08c6 F4010000 		.4byte	.LVL74
 4263 08ca 00020000 		.4byte	.LVL75
 4264 08ce 0100     		.2byte	0x1
 4265 08d0 53       		.byte	0x53
 4266 08d1 00020000 		.4byte	.LVL75
 4267 08d5 32020000 		.4byte	.LVL82
 4268 08d9 0100     		.2byte	0x1
 4269 08db 5B       		.byte	0x5b
 4270 08dc 32020000 		.4byte	.LVL82
 4271 08e0 36020000 		.4byte	.LVL83
 4272 08e4 0300     		.2byte	0x3
 4273 08e6 7B       		.byte	0x7b
 4274 08e7 01       		.sleb128 1
ARM GAS  /tmp/ccBYr15j.s 			page 76


 4275 08e8 9F       		.byte	0x9f
 4276 08e9 36020000 		.4byte	.LVL83
 4277 08ed 3C020000 		.4byte	.LVL84
 4278 08f1 0100     		.2byte	0x1
 4279 08f3 5B       		.byte	0x5b
 4280 08f4 40020000 		.4byte	.LVL85
 4281 08f8 18030000 		.4byte	.LVL117
 4282 08fc 0300     		.2byte	0x3
 4283 08fe 91       		.byte	0x91
 4284 08ff A47F     		.sleb128 -92
 4285 0901 36030000 		.4byte	.LVL123
 4286 0905 40030000 		.4byte	.LVL124
 4287 0909 0100     		.2byte	0x1
 4288 090b 58       		.byte	0x58
 4289 090c 44030000 		.4byte	.LVL125
 4290 0910 48030000 		.4byte	.LVL126
 4291 0914 0100     		.2byte	0x1
 4292 0916 53       		.byte	0x53
 4293 0917 48030000 		.4byte	.LVL126
 4294 091b 52030000 		.4byte	.LVL127
 4295 091f 0100     		.2byte	0x1
 4296 0921 58       		.byte	0x58
 4297 0922 52030000 		.4byte	.LVL127
 4298 0926 56030000 		.4byte	.LVL128
 4299 092a 0300     		.2byte	0x3
 4300 092c 78       		.byte	0x78
 4301 092d 01       		.sleb128 1
 4302 092e 9F       		.byte	0x9f
 4303 092f 56030000 		.4byte	.LVL128
 4304 0933 58030000 		.4byte	.LVL129
 4305 0937 0100     		.2byte	0x1
 4306 0939 58       		.byte	0x58
 4307 093a 58030000 		.4byte	.LVL129
 4308 093e CE030000 		.4byte	.LVL130
 4309 0942 0300     		.2byte	0x3
 4310 0944 91       		.byte	0x91
 4311 0945 A47F     		.sleb128 -92
 4312 0947 00000000 		.4byte	0
 4313 094b 00000000 		.4byte	0
 4314              	.LVUS18:
 4315 094f 03       		.uleb128 .LVU47
 4316 0950 00       		.uleb128 .LVU49
 4317 0951 00       		.uleb128 .LVU49
 4318 0952 00       		.uleb128 .LVU64
 4319 0953 00       		.uleb128 .LVU64
 4320 0954 01       		.uleb128 .LVU66
 4321 0955 01       		.uleb128 .LVU66
 4322 0956 00       		.uleb128 .LVU221
 4323 0957 00       		.uleb128 .LVU221
 4324 0958 01       		.uleb128 .LVU224
 4325 0959 01       		.uleb128 .LVU224
 4326 095a 02       		.uleb128 .LVU225
 4327 095b 00       		.uleb128 .LVU233
 4328 095c 00       		.uleb128 .LVU302
 4329 095d 00       		.uleb128 .LVU312
 4330 095e 00       		.uleb128 .LVU313
 4331 095f 00       		.uleb128 .LVU319
ARM GAS  /tmp/ccBYr15j.s 			page 77


 4332 0960 00       		.uleb128 .LVU322
 4333 0961 00       		.uleb128 .LVU322
 4334 0962 00       		.uleb128 0
 4335              	.LLST18:
 4336 0963 08000000 		.4byte	.LVL14
 4337 0967 10000000 		.4byte	.LVL15
 4338 096b 0200     		.2byte	0x2
 4339 096d 30       		.byte	0x30
 4340 096e 9F       		.byte	0x9f
 4341 096f 10000000 		.4byte	.LVL15
 4342 0973 28000000 		.4byte	.LVL19
 4343 0977 0100     		.2byte	0x1
 4344 0979 57       		.byte	0x57
 4345 097a 28000000 		.4byte	.LVL19
 4346 097e 2C000000 		.4byte	.LVL20
 4347 0982 0300     		.2byte	0x3
 4348 0984 77       		.byte	0x77
 4349 0985 7F       		.sleb128 -1
 4350 0986 9F       		.byte	0x9f
 4351 0987 2C000000 		.4byte	.LVL20
 4352 098b 1E020000 		.4byte	.LVL78
 4353 098f 0100     		.2byte	0x1
 4354 0991 57       		.byte	0x57
 4355 0992 1E020000 		.4byte	.LVL78
 4356 0996 26020000 		.4byte	.LVL81
 4357 099a 0300     		.2byte	0x3
 4358 099c 77       		.byte	0x77
 4359 099d 7F       		.sleb128 -1
 4360 099e 9F       		.byte	0x9f
 4361 099f 26020000 		.4byte	.LVL81
 4362 09a3 26020000 		.4byte	.LVL81
 4363 09a7 0300     		.2byte	0x3
 4364 09a9 77       		.byte	0x77
 4365 09aa 01       		.sleb128 1
 4366 09ab 9F       		.byte	0x9f
 4367 09ac 40020000 		.4byte	.LVL85
 4368 09b0 18030000 		.4byte	.LVL117
 4369 09b4 0100     		.2byte	0x1
 4370 09b6 57       		.byte	0x57
 4371 09b7 44030000 		.4byte	.LVL125
 4372 09bb 48030000 		.4byte	.LVL126
 4373 09bf 0100     		.2byte	0x1
 4374 09c1 57       		.byte	0x57
 4375 09c2 58030000 		.4byte	.LVL129
 4376 09c6 DA030000 		.4byte	.LVL131
 4377 09ca 0100     		.2byte	0x1
 4378 09cc 57       		.byte	0x57
 4379 09cd DA030000 		.4byte	.LVL131
 4380 09d1 E4030000 		.4byte	.LFE337
 4381 09d5 0100     		.2byte	0x1
 4382 09d7 50       		.byte	0x50
 4383 09d8 00000000 		.4byte	0
 4384 09dc 00000000 		.4byte	0
 4385              	.LVUS19:
 4386 09e0 01       		.uleb128 .LVU127
 4387 09e1 00       		.uleb128 .LVU135
 4388 09e2 00       		.uleb128 .LVU139
ARM GAS  /tmp/ccBYr15j.s 			page 78


 4389 09e3 00       		.uleb128 .LVU140
 4390 09e4 00       		.uleb128 .LVU144
 4391 09e5 00       		.uleb128 .LVU147
 4392 09e6 00       		.uleb128 .LVU173
 4393 09e7 00       		.uleb128 .LVU177
 4394 09e8 00       		.uleb128 .LVU233
 4395 09e9 00       		.uleb128 .LVU235
 4396 09ea 00       		.uleb128 .LVU284
 4397 09eb 00       		.uleb128 .LVU291
 4398 09ec 00       		.uleb128 .LVU299
 4399 09ed 00       		.uleb128 .LVU301
 4400 09ee 00       		.uleb128 .LVU301
 4401 09ef 00       		.uleb128 .LVU302
 4402 09f0 00       		.uleb128 .LVU319
 4403 09f1 00       		.uleb128 .LVU321
 4404              	.LLST19:
 4405 09f2 A2000000 		.4byte	.LVL42
 4406 09f6 D0000000 		.4byte	.LVL45
 4407 09fa 0200     		.2byte	0x2
 4408 09fc 31       		.byte	0x31
 4409 09fd 9F       		.byte	0x9f
 4410 09fe D8000000 		.4byte	.LVL46
 4411 0a02 EE000000 		.4byte	.LVL47
 4412 0a06 0800     		.2byte	0x8
 4413 0a08 70       		.byte	0x70
 4414 0a09 00       		.sleb128 0
 4415 0a0a 08       		.byte	0x8
 4416 0a0b FF       		.byte	0xff
 4417 0a0c 1A       		.byte	0x1a
 4418 0a0d 49       		.byte	0x49
 4419 0a0e 2C       		.byte	0x2c
 4420 0a0f 9F       		.byte	0x9f
 4421 0a10 F6000000 		.4byte	.LVL48
 4422 0a14 6A010000 		.4byte	.LVL49
 4423 0a18 0800     		.2byte	0x8
 4424 0a1a 70       		.byte	0x70
 4425 0a1b 00       		.sleb128 0
 4426 0a1c 08       		.byte	0x8
 4427 0a1d FF       		.byte	0xff
 4428 0a1e 1A       		.byte	0x1a
 4429 0a1f 49       		.byte	0x49
 4430 0a20 2C       		.byte	0x2c
 4431 0a21 9F       		.byte	0x9f
 4432 0a22 B4010000 		.4byte	.LVL62
 4433 0a26 BC010000 		.4byte	.LVL63
 4434 0a2a 0800     		.2byte	0x8
 4435 0a2c 70       		.byte	0x70
 4436 0a2d 00       		.sleb128 0
 4437 0a2e 08       		.byte	0x8
 4438 0a2f FF       		.byte	0xff
 4439 0a30 1A       		.byte	0x1a
 4440 0a31 49       		.byte	0x49
 4441 0a32 2C       		.byte	0x2c
 4442 0a33 9F       		.byte	0x9f
 4443 0a34 40020000 		.4byte	.LVL85
 4444 0a38 46020000 		.4byte	.LVL86
 4445 0a3c 0800     		.2byte	0x8
ARM GAS  /tmp/ccBYr15j.s 			page 79


 4446 0a3e 70       		.byte	0x70
 4447 0a3f 00       		.sleb128 0
 4448 0a40 08       		.byte	0x8
 4449 0a41 FF       		.byte	0xff
 4450 0a42 1A       		.byte	0x1a
 4451 0a43 49       		.byte	0x49
 4452 0a44 2C       		.byte	0x2c
 4453 0a45 9F       		.byte	0x9f
 4454 0a46 F8020000 		.4byte	.LVL109
 4455 0a4a 04030000 		.4byte	.LVL111
 4456 0a4e 0800     		.2byte	0x8
 4457 0a50 70       		.byte	0x70
 4458 0a51 00       		.sleb128 0
 4459 0a52 08       		.byte	0x8
 4460 0a53 FF       		.byte	0xff
 4461 0a54 1A       		.byte	0x1a
 4462 0a55 49       		.byte	0x49
 4463 0a56 2C       		.byte	0x2c
 4464 0a57 9F       		.byte	0x9f
 4465 0a58 10030000 		.4byte	.LVL115
 4466 0a5c 14030000 		.4byte	.LVL116
 4467 0a60 0800     		.2byte	0x8
 4468 0a62 70       		.byte	0x70
 4469 0a63 00       		.sleb128 0
 4470 0a64 08       		.byte	0x8
 4471 0a65 FF       		.byte	0xff
 4472 0a66 1A       		.byte	0x1a
 4473 0a67 49       		.byte	0x49
 4474 0a68 2C       		.byte	0x2c
 4475 0a69 9F       		.byte	0x9f
 4476 0a6a 14030000 		.4byte	.LVL116
 4477 0a6e 18030000 		.4byte	.LVL117
 4478 0a72 0200     		.2byte	0x2
 4479 0a74 31       		.byte	0x31
 4480 0a75 9F       		.byte	0x9f
 4481 0a76 58030000 		.4byte	.LVL129
 4482 0a7a CE030000 		.4byte	.LVL130
 4483 0a7e 0200     		.2byte	0x2
 4484 0a80 31       		.byte	0x31
 4485 0a81 9F       		.byte	0x9f
 4486 0a82 00000000 		.4byte	0
 4487 0a86 00000000 		.4byte	0
 4488              	.LVUS20:
 4489 0a8a 03       		.uleb128 .LVU70
 4490 0a8b 01       		.uleb128 .LVU76
 4491 0a8c 01       		.uleb128 .LVU76
 4492 0a8d 00       		.uleb128 .LVU80
 4493 0a8e 00       		.uleb128 .LVU80
 4494 0a8f 00       		.uleb128 .LVU311
 4495 0a90 00       		.uleb128 .LVU312
 4496 0a91 00       		.uleb128 .LVU321
 4497              	.LLST20:
 4498 0a92 2E000000 		.4byte	.LVL21
 4499 0a96 36000000 		.4byte	.LVL23
 4500 0a9a 0200     		.2byte	0x2
 4501 0a9c 30       		.byte	0x30
 4502 0a9d 9F       		.byte	0x9f
ARM GAS  /tmp/ccBYr15j.s 			page 80


 4503 0a9e 36000000 		.4byte	.LVL23
 4504 0aa2 40000000 		.4byte	.LVL24
 4505 0aa6 0200     		.2byte	0x2
 4506 0aa8 31       		.byte	0x31
 4507 0aa9 9F       		.byte	0x9f
 4508 0aaa 40000000 		.4byte	.LVL24
 4509 0aae 40030000 		.4byte	.LVL124
 4510 0ab2 0300     		.2byte	0x3
 4511 0ab4 91       		.byte	0x91
 4512 0ab5 A87F     		.sleb128 -88
 4513 0ab7 44030000 		.4byte	.LVL125
 4514 0abb CE030000 		.4byte	.LVL130
 4515 0abf 0300     		.2byte	0x3
 4516 0ac1 91       		.byte	0x91
 4517 0ac2 A87F     		.sleb128 -88
 4518 0ac4 00000000 		.4byte	0
 4519 0ac8 00000000 		.4byte	0
 4520              	.LVUS21:
 4521 0acc 00       		.uleb128 .LVU180
 4522 0acd 00       		.uleb128 .LVU186
 4523 0ace 01       		.uleb128 .LVU190
 4524 0acf 00       		.uleb128 .LVU194
 4525 0ad0 00       		.uleb128 .LVU294
 4526 0ad1 00       		.uleb128 .LVU299
 4527              	.LLST21:
 4528 0ad2 C2010000 		.4byte	.LVL65
 4529 0ad6 CE010000 		.4byte	.LVL67
 4530 0ada 0100     		.2byte	0x1
 4531 0adc 51       		.byte	0x51
 4532 0add DA010000 		.4byte	.LVL68
 4533 0ae1 DC010000 		.4byte	.LVL69
 4534 0ae5 0100     		.2byte	0x1
 4535 0ae7 51       		.byte	0x51
 4536 0ae8 0A030000 		.4byte	.LVL113
 4537 0aec 10030000 		.4byte	.LVL115
 4538 0af0 0100     		.2byte	0x1
 4539 0af2 51       		.byte	0x51
 4540 0af3 00000000 		.4byte	0
 4541 0af7 00000000 		.4byte	0
 4542              	.LVUS22:
 4543 0afb 00       		.uleb128 .LVU240
 4544 0afc 01       		.uleb128 .LVU249
 4545 0afd 01       		.uleb128 .LVU249
 4546 0afe 00       		.uleb128 .LVU284
 4547              	.LLST22:
 4548 0aff 5A020000 		.4byte	.LVL90
 4549 0b03 78020000 		.4byte	.LVL92
 4550 0b07 0100     		.2byte	0x1
 4551 0b09 50       		.byte	0x50
 4552 0b0a 78020000 		.4byte	.LVL92
 4553 0b0e F8020000 		.4byte	.LVL109
 4554 0b12 0200     		.2byte	0x2
 4555 0b14 90       		.byte	0x90
 4556 0b15 50       		.uleb128 0x50
 4557 0b16 00000000 		.4byte	0
 4558 0b1a 00000000 		.4byte	0
 4559              	.LVUS23:
ARM GAS  /tmp/ccBYr15j.s 			page 81


 4560 0b1e 02       		.uleb128 .LVU191
 4561 0b1f 00       		.uleb128 .LVU194
 4562              	.LLST23:
 4563 0b20 DA010000 		.4byte	.LVL68
 4564 0b24 DC010000 		.4byte	.LVL69
 4565 0b28 0200     		.2byte	0x2
 4566 0b2a 3A       		.byte	0x3a
 4567 0b2b 9F       		.byte	0x9f
 4568 0b2c 00000000 		.4byte	0
 4569 0b30 00000000 		.4byte	0
 4570              	.LVUS24:
 4571 0b34 02       		.uleb128 .LVU191
 4572 0b35 00       		.uleb128 .LVU194
 4573              	.LLST24:
 4574 0b36 DA010000 		.4byte	.LVL68
 4575 0b3a DC010000 		.4byte	.LVL69
 4576 0b3e 0100     		.2byte	0x1
 4577 0b40 51       		.byte	0x51
 4578 0b41 00000000 		.4byte	0
 4579 0b45 00000000 		.4byte	0
 4580              	.LVUS25:
 4581 0b49 02       		.uleb128 .LVU191
 4582 0b4a 00       		.uleb128 .LVU194
 4583              	.LLST25:
 4584 0b4b DA010000 		.4byte	.LVL68
 4585 0b4f DC010000 		.4byte	.LVL69
 4586 0b53 0100     		.2byte	0x1
 4587 0b55 50       		.byte	0x50
 4588 0b56 00000000 		.4byte	0
 4589 0b5a 00000000 		.4byte	0
 4590              	.LVUS26:
 4591 0b5e 01       		.uleb128 .LVU295
 4592 0b5f 00       		.uleb128 .LVU299
 4593              	.LLST26:
 4594 0b60 0A030000 		.4byte	.LVL113
 4595 0b64 10030000 		.4byte	.LVL115
 4596 0b68 0600     		.2byte	0x6
 4597 0b6a 72       		.byte	0x72
 4598 0b6b 00       		.sleb128 0
 4599 0b6c 08       		.byte	0x8
 4600 0b6d FF       		.byte	0xff
 4601 0b6e 1A       		.byte	0x1a
 4602 0b6f 9F       		.byte	0x9f
 4603 0b70 00000000 		.4byte	0
 4604 0b74 00000000 		.4byte	0
 4605              	.LVUS27:
 4606 0b78 01       		.uleb128 .LVU295
 4607 0b79 00       		.uleb128 .LVU299
 4608              	.LLST27:
 4609 0b7a 0A030000 		.4byte	.LVL113
 4610 0b7e 10030000 		.4byte	.LVL115
 4611 0b82 0100     		.2byte	0x1
 4612 0b84 51       		.byte	0x51
 4613 0b85 00000000 		.4byte	0
 4614 0b89 00000000 		.4byte	0
 4615              	.LVUS28:
 4616 0b8d 01       		.uleb128 .LVU295
ARM GAS  /tmp/ccBYr15j.s 			page 82


 4617 0b8e 00       		.uleb128 .LVU298
 4618 0b8f 00       		.uleb128 .LVU298
 4619 0b90 00       		.uleb128 .LVU299
 4620              	.LLST28:
 4621 0b91 0A030000 		.4byte	.LVL113
 4622 0b95 0E030000 		.4byte	.LVL114
 4623 0b99 0400     		.2byte	0x4
 4624 0b9b 91       		.byte	0x91
 4625 0b9c B07F     		.sleb128 -80
 4626 0b9e 9F       		.byte	0x9f
 4627 0b9f 0E030000 		.4byte	.LVL114
 4628 0ba3 10030000 		.4byte	.LVL115
 4629 0ba7 0100     		.2byte	0x1
 4630 0ba9 50       		.byte	0x50
 4631 0baa 00000000 		.4byte	0
 4632 0bae 00000000 		.4byte	0
 4633              	.LVUS29:
 4634 0bb2 00       		.uleb128 .LVU264
 4635 0bb3 00       		.uleb128 .LVU267
 4636 0bb4 00       		.uleb128 .LVU267
 4637 0bb5 00       		.uleb128 .LVU271
 4638 0bb6 00       		.uleb128 .LVU271
 4639 0bb7 00       		.uleb128 .LVU280
 4640              	.LLST29:
 4641 0bb8 A2020000 		.4byte	.LVL95
 4642 0bbc A8020000 		.4byte	.LVL96
 4643 0bc0 0100     		.2byte	0x1
 4644 0bc2 53       		.byte	0x53
 4645 0bc3 A8020000 		.4byte	.LVL96
 4646 0bc7 B2020000 		.4byte	.LVL99
 4647 0bcb 0A00     		.2byte	0xa
 4648 0bcd 7B       		.byte	0x7b
 4649 0bce 00       		.sleb128 0
 4650 0bcf 32       		.byte	0x32
 4651 0bd0 24       		.byte	0x24
 4652 0bd1 03       		.byte	0x3
 4653 0bd2 00000000 		.4byte	.LANCHOR0
 4654 0bd6 22       		.byte	0x22
 4655 0bd7 B2020000 		.4byte	.LVL99
 4656 0bdb EA020000 		.4byte	.LVL107
 4657 0bdf 0300     		.2byte	0x3
 4658 0be1 91       		.byte	0x91
 4659 0be2 AC7F     		.sleb128 -84
 4660 0be4 00000000 		.4byte	0
 4661 0be8 00000000 		.4byte	0
 4662              	.LVUS30:
 4663 0bec 00       		.uleb128 .LVU259
 4664 0bed 00       		.uleb128 .LVU268
 4665 0bee 00       		.uleb128 .LVU268
 4666 0bef 00       		.uleb128 .LVU284
 4667              	.LLST30:
 4668 0bf0 A0020000 		.4byte	.LVL94
 4669 0bf4 AA020000 		.4byte	.LVL97
 4670 0bf8 0600     		.2byte	0x6
 4671 0bfa 50       		.byte	0x50
 4672 0bfb 93       		.byte	0x93
 4673 0bfc 04       		.uleb128 0x4
ARM GAS  /tmp/ccBYr15j.s 			page 83


 4674 0bfd 51       		.byte	0x51
 4675 0bfe 93       		.byte	0x93
 4676 0bff 04       		.uleb128 0x4
 4677 0c00 AA020000 		.4byte	.LVL97
 4678 0c04 F8020000 		.4byte	.LVL109
 4679 0c08 0800     		.2byte	0x8
 4680 0c0a 90       		.byte	0x90
 4681 0c0b 52       		.uleb128 0x52
 4682 0c0c 93       		.byte	0x93
 4683 0c0d 04       		.uleb128 0x4
 4684 0c0e 90       		.byte	0x90
 4685 0c0f 53       		.uleb128 0x53
 4686 0c10 93       		.byte	0x93
 4687 0c11 04       		.uleb128 0x4
 4688 0c12 00000000 		.4byte	0
 4689 0c16 00000000 		.4byte	0
 4690              	.LVUS31:
 4691 0c1a 00       		.uleb128 .LVU259
 4692 0c1b 00       		.uleb128 .LVU269
 4693 0c1c 00       		.uleb128 .LVU269
 4694 0c1d 01       		.uleb128 .LVU270
 4695 0c1e 01       		.uleb128 .LVU270
 4696 0c1f 00       		.uleb128 .LVU272
 4697 0c20 00       		.uleb128 .LVU272
 4698 0c21 00       		.uleb128 .LVU273
 4699 0c22 00       		.uleb128 .LVU273
 4700 0c23 00       		.uleb128 .LVU284
 4701              	.LLST31:
 4702 0c24 A0020000 		.4byte	.LVL94
 4703 0c28 AE020000 		.4byte	.LVL98
 4704 0c2c 0100     		.2byte	0x1
 4705 0c2e 58       		.byte	0x58
 4706 0c2f AE020000 		.4byte	.LVL98
 4707 0c33 AE020000 		.4byte	.LVL98
 4708 0c37 0100     		.2byte	0x1
 4709 0c39 50       		.byte	0x50
 4710 0c3a AE020000 		.4byte	.LVL98
 4711 0c3e B6020000 		.4byte	.LVL100
 4712 0c42 0300     		.2byte	0x3
 4713 0c44 70       		.byte	0x70
 4714 0c45 01       		.sleb128 1
 4715 0c46 9F       		.byte	0x9f
 4716 0c47 B6020000 		.4byte	.LVL100
 4717 0c4b BA020000 		.4byte	.LVL101
 4718 0c4f 0300     		.2byte	0x3
 4719 0c51 7B       		.byte	0x7b
 4720 0c52 01       		.sleb128 1
 4721 0c53 9F       		.byte	0x9f
 4722 0c54 BA020000 		.4byte	.LVL101
 4723 0c58 F8020000 		.4byte	.LVL109
 4724 0c5c 0100     		.2byte	0x1
 4725 0c5e 5B       		.byte	0x5b
 4726 0c5f 00000000 		.4byte	0
 4727 0c63 00000000 		.4byte	0
 4728              	.LVUS32:
 4729 0c67 01       		.uleb128 .LVU265
 4730 0c68 00       		.uleb128 .LVU275
ARM GAS  /tmp/ccBYr15j.s 			page 84


 4731 0c69 00       		.uleb128 .LVU275
 4732 0c6a 00       		.uleb128 .LVU278
 4733 0c6b 00       		.uleb128 .LVU278
 4734 0c6c 00       		.uleb128 .LVU281
 4735              	.LLST32:
 4736 0c6d A2020000 		.4byte	.LVL95
 4737 0c71 BD020000 		.4byte	.LVL102-1
 4738 0c75 0200     		.2byte	0x2
 4739 0c77 90       		.byte	0x90
 4740 0c78 4F       		.uleb128 0x4f
 4741 0c79 BD020000 		.4byte	.LVL102-1
 4742 0c7d E0020000 		.4byte	.LVL106
 4743 0c81 0800     		.2byte	0x8
 4744 0c83 F5       		.byte	0xf5
 4745 0c84 50       		.uleb128 0x50
 4746 0c85 3A       		.uleb128 0x3a
 4747 0c86 F7       		.byte	0xf7
 4748 0c87 2C       		.uleb128 0x2c
 4749 0c88 F7       		.byte	0xf7
 4750 0c89 00       		.uleb128 0
 4751 0c8a 9F       		.byte	0x9f
 4752 0c8b E0020000 		.4byte	.LVL106
 4753 0c8f ED020000 		.4byte	.LVL108-1
 4754 0c93 0800     		.2byte	0x8
 4755 0c95 F5       		.byte	0xf5
 4756 0c96 00       		.uleb128 0
 4757 0c97 33       		.uleb128 0x33
 4758 0c98 F7       		.byte	0xf7
 4759 0c99 2C       		.uleb128 0x2c
 4760 0c9a F7       		.byte	0xf7
 4761 0c9b 00       		.uleb128 0
 4762 0c9c 9F       		.byte	0x9f
 4763 0c9d 00000000 		.4byte	0
 4764 0ca1 00000000 		.4byte	0
 4765              	.LVUS0:
 4766 0ca5 00       		.uleb128 0
 4767 0ca6 00       		.uleb128 .LVU32
 4768              	.LLST0:
 4769 0ca7 00000000 		.4byte	.LVL0
 4770 0cab 38000000 		.4byte	.LVL11
 4771 0caf 0100     		.2byte	0x1
 4772 0cb1 50       		.byte	0x50
 4773 0cb2 00000000 		.4byte	0
 4774 0cb6 00000000 		.4byte	0
 4775              	.LVUS1:
 4776 0cba 00       		.uleb128 0
 4777 0cbb 00       		.uleb128 .LVU11
 4778 0cbc 00       		.uleb128 .LVU11
 4779 0cbd 00       		.uleb128 0
 4780              	.LLST1:
 4781 0cbe 00000000 		.4byte	.LVL0
 4782 0cc2 10000000 		.4byte	.LVL2
 4783 0cc6 0100     		.2byte	0x1
 4784 0cc8 51       		.byte	0x51
 4785 0cc9 10000000 		.4byte	.LVL2
 4786 0ccd 48000000 		.4byte	.LFE334
 4787 0cd1 0400     		.2byte	0x4
ARM GAS  /tmp/ccBYr15j.s 			page 85


 4788 0cd3 F3       		.byte	0xf3
 4789 0cd4 01       		.uleb128 0x1
 4790 0cd5 51       		.byte	0x51
 4791 0cd6 9F       		.byte	0x9f
 4792 0cd7 00000000 		.4byte	0
 4793 0cdb 00000000 		.4byte	0
 4794              	.LVUS2:
 4795 0cdf 00       		.uleb128 0
 4796 0ce0 00       		.uleb128 .LVU31
 4797 0ce1 00       		.uleb128 .LVU31
 4798 0ce2 00       		.uleb128 0
 4799              	.LLST2:
 4800 0ce3 00000000 		.4byte	.LVL0
 4801 0ce7 36000000 		.4byte	.LVL10
 4802 0ceb 0100     		.2byte	0x1
 4803 0ced 52       		.byte	0x52
 4804 0cee 36000000 		.4byte	.LVL10
 4805 0cf2 48000000 		.4byte	.LFE334
 4806 0cf6 0400     		.2byte	0x4
 4807 0cf8 F3       		.byte	0xf3
 4808 0cf9 01       		.uleb128 0x1
 4809 0cfa 52       		.byte	0x52
 4810 0cfb 9F       		.byte	0x9f
 4811 0cfc 00000000 		.4byte	0
 4812 0d00 00000000 		.4byte	0
 4813              	.LVUS3:
 4814 0d04 00       		.uleb128 0
 4815 0d05 00       		.uleb128 .LVU11
 4816 0d06 00       		.uleb128 .LVU11
 4817 0d07 00       		.uleb128 0
 4818              	.LLST3:
 4819 0d08 00000000 		.4byte	.LVL0
 4820 0d0c 10000000 		.4byte	.LVL2
 4821 0d10 0100     		.2byte	0x1
 4822 0d12 53       		.byte	0x53
 4823 0d13 10000000 		.4byte	.LVL2
 4824 0d17 48000000 		.4byte	.LFE334
 4825 0d1b 0400     		.2byte	0x4
 4826 0d1d F3       		.byte	0xf3
 4827 0d1e 01       		.uleb128 0x1
 4828 0d1f 53       		.byte	0x53
 4829 0d20 9F       		.byte	0x9f
 4830 0d21 00000000 		.4byte	0
 4831 0d25 00000000 		.4byte	0
 4832              	.LVUS4:
 4833 0d29 00       		.uleb128 .LVU14
 4834 0d2a 00       		.uleb128 .LVU16
 4835 0d2b 00       		.uleb128 .LVU16
 4836 0d2c 00       		.uleb128 .LVU26
 4837 0d2d 01       		.uleb128 .LVU30
 4838 0d2e 00       		.uleb128 .LVU32
 4839 0d2f 00       		.uleb128 .LVU32
 4840 0d30 00       		.uleb128 0
 4841              	.LLST4:
 4842 0d31 18000000 		.4byte	.LVL3
 4843 0d35 1C000000 		.4byte	.LVL4
 4844 0d39 0100     		.2byte	0x1
ARM GAS  /tmp/ccBYr15j.s 			page 86


 4845 0d3b 51       		.byte	0x51
 4846 0d3c 1C000000 		.4byte	.LVL4
 4847 0d40 2C000000 		.4byte	.LVL7
 4848 0d44 0100     		.2byte	0x1
 4849 0d46 56       		.byte	0x56
 4850 0d47 34000000 		.4byte	.LVL9
 4851 0d4b 38000000 		.4byte	.LVL11
 4852 0d4f 0600     		.2byte	0x6
 4853 0d51 74       		.byte	0x74
 4854 0d52 00       		.sleb128 0
 4855 0d53 73       		.byte	0x73
 4856 0d54 00       		.sleb128 0
 4857 0d55 1C       		.byte	0x1c
 4858 0d56 9F       		.byte	0x9f
 4859 0d57 38000000 		.4byte	.LVL11
 4860 0d5b 48000000 		.4byte	.LFE334
 4861 0d5f 0100     		.2byte	0x1
 4862 0d61 51       		.byte	0x51
 4863 0d62 00000000 		.4byte	0
 4864 0d66 00000000 		.4byte	0
 4865              	.LVUS5:
 4866 0d6a 01       		.uleb128 .LVU10
 4867 0d6b 00       		.uleb128 .LVU11
 4868 0d6c 00       		.uleb128 .LVU11
 4869 0d6d 01       		.uleb128 .LVU21
 4870 0d6e 01       		.uleb128 .LVU21
 4871 0d6f 00       		.uleb128 .LVU23
 4872 0d70 00       		.uleb128 .LVU23
 4873 0d71 02       		.uleb128 .LVU34
 4874 0d72 02       		.uleb128 .LVU34
 4875 0d73 00       		.uleb128 .LVU35
 4876 0d74 00       		.uleb128 .LVU35
 4877 0d75 00       		.uleb128 0
 4878              	.LLST5:
 4879 0d76 0E000000 		.4byte	.LVL1
 4880 0d7a 10000000 		.4byte	.LVL2
 4881 0d7e 0100     		.2byte	0x1
 4882 0d80 54       		.byte	0x54
 4883 0d81 10000000 		.4byte	.LVL2
 4884 0d85 24000000 		.4byte	.LVL5
 4885 0d89 0100     		.2byte	0x1
 4886 0d8b 53       		.byte	0x53
 4887 0d8c 24000000 		.4byte	.LVL5
 4888 0d90 2A000000 		.4byte	.LVL6
 4889 0d94 0300     		.2byte	0x3
 4890 0d96 73       		.byte	0x73
 4891 0d97 7F       		.sleb128 -1
 4892 0d98 9F       		.byte	0x9f
 4893 0d99 2A000000 		.4byte	.LVL6
 4894 0d9d 38000000 		.4byte	.LVL11
 4895 0da1 0100     		.2byte	0x1
 4896 0da3 53       		.byte	0x53
 4897 0da4 38000000 		.4byte	.LVL11
 4898 0da8 3C000000 		.4byte	.LVL12
 4899 0dac 0300     		.2byte	0x3
 4900 0dae 73       		.byte	0x73
 4901 0daf 01       		.sleb128 1
ARM GAS  /tmp/ccBYr15j.s 			page 87


 4902 0db0 9F       		.byte	0x9f
 4903 0db1 3C000000 		.4byte	.LVL12
 4904 0db5 48000000 		.4byte	.LFE334
 4905 0db9 0100     		.2byte	0x1
 4906 0dbb 53       		.byte	0x53
 4907 0dbc 00000000 		.4byte	0
 4908 0dc0 00000000 		.4byte	0
 4909              	.LVUS6:
 4910 0dc4 05       		.uleb128 .LVU5
 4911 0dc5 00       		.uleb128 .LVU14
 4912 0dc6 01       		.uleb128 .LVU24
 4913 0dc7 00       		.uleb128 .LVU32
 4914 0dc8 00       		.uleb128 .LVU32
 4915 0dc9 00       		.uleb128 0
 4916              	.LLST6:
 4917 0dca 00000000 		.4byte	.LVL0
 4918 0dce 18000000 		.4byte	.LVL3
 4919 0dd2 0100     		.2byte	0x1
 4920 0dd4 51       		.byte	0x51
 4921 0dd5 2A000000 		.4byte	.LVL6
 4922 0dd9 38000000 		.4byte	.LVL11
 4923 0ddd 0100     		.2byte	0x1
 4924 0ddf 51       		.byte	0x51
 4925 0de0 38000000 		.4byte	.LVL11
 4926 0de4 48000000 		.4byte	.LFE334
 4927 0de8 0100     		.2byte	0x1
 4928 0dea 57       		.byte	0x57
 4929 0deb 00000000 		.4byte	0
 4930 0def 00000000 		.4byte	0
 4931              	.LVUS7:
 4932 0df3 00       		.uleb128 .LVU9
 4933 0df4 00       		.uleb128 .LVU32
 4934 0df5 00       		.uleb128 .LVU32
 4935 0df6 00       		.uleb128 0
 4936              	.LLST7:
 4937 0df7 0E000000 		.4byte	.LVL1
 4938 0dfb 38000000 		.4byte	.LVL11
 4939 0dff 0100     		.2byte	0x1
 4940 0e01 55       		.byte	0x55
 4941 0e02 38000000 		.4byte	.LVL11
 4942 0e06 48000000 		.4byte	.LFE334
 4943 0e0a 0D00     		.2byte	0xd
 4944 0e0c 76       		.byte	0x76
 4945 0e0d 00       		.sleb128 0
 4946 0e0e F7       		.byte	0xf7
 4947 0e0f 25       		.uleb128 0x25
 4948 0e10 F3       		.byte	0xf3
 4949 0e11 01       		.uleb128 0x1
 4950 0e12 52       		.byte	0x52
 4951 0e13 F7       		.byte	0xf7
 4952 0e14 25       		.uleb128 0x25
 4953 0e15 1B       		.byte	0x1b
 4954 0e16 F7       		.byte	0xf7
 4955 0e17 00       		.uleb128 0
 4956 0e18 9F       		.byte	0x9f
 4957 0e19 00000000 		.4byte	0
 4958 0e1d 00000000 		.4byte	0
ARM GAS  /tmp/ccBYr15j.s 			page 88


 4959              		.section	.debug_aranges,"",%progbits
 4960 0000 3C000000 		.4byte	0x3c
 4961 0004 0200     		.2byte	0x2
 4962 0006 00000000 		.4byte	.Ldebug_info0
 4963 000a 04       		.byte	0x4
 4964 000b 00       		.byte	0
 4965 000c 0000     		.2byte	0
 4966 000e 0000     		.2byte	0
 4967 0010 00000000 		.4byte	.LFB334
 4968 0014 48000000 		.4byte	.LFE334-.LFB334
 4969 0018 00000000 		.4byte	.LFB337
 4970 001c E4030000 		.4byte	.LFE337-.LFB337
 4971 0020 00000000 		.4byte	.LFB338
 4972 0024 1A000000 		.4byte	.LFE338-.LFB338
 4973 0028 00000000 		.4byte	.LFB340
 4974 002c 36000000 		.4byte	.LFE340-.LFB340
 4975 0030 00000000 		.4byte	.LFB339
 4976 0034 1A000000 		.4byte	.LFE339-.LFB339
 4977 0038 00000000 		.4byte	0
 4978 003c 00000000 		.4byte	0
 4979              		.section	.debug_ranges,"",%progbits
 4980              	.Ldebug_ranges0:
 4981 0000 C4010000 		.4byte	.LBB8
 4982 0004 C8010000 		.4byte	.LBE8
 4983 0008 DA010000 		.4byte	.LBB11
 4984 000c DC010000 		.4byte	.LBE11
 4985 0010 00000000 		.4byte	0
 4986 0014 00000000 		.4byte	0
 4987 0018 E0010000 		.4byte	.LBB12
 4988 001c E4010000 		.4byte	.LBE12
 4989 0020 0A030000 		.4byte	.LBB19
 4990 0024 10030000 		.4byte	.LBE19
 4991 0028 00000000 		.4byte	0
 4992 002c 00000000 		.4byte	0
 4993 0030 80020000 		.4byte	.LBB15
 4994 0034 9C020000 		.4byte	.LBE15
 4995 0038 A0020000 		.4byte	.LBB18
 4996 003c F8020000 		.4byte	.LBE18
 4997 0040 00000000 		.4byte	0
 4998 0044 00000000 		.4byte	0
 4999 0048 00000000 		.4byte	.LFB334
 5000 004c 48000000 		.4byte	.LFE334
 5001 0050 00000000 		.4byte	.LFB337
 5002 0054 E4030000 		.4byte	.LFE337
 5003 0058 00000000 		.4byte	.LFB338
 5004 005c 1A000000 		.4byte	.LFE338
 5005 0060 00000000 		.4byte	.LFB340
 5006 0064 36000000 		.4byte	.LFE340
 5007 0068 00000000 		.4byte	.LFB339
 5008 006c 1A000000 		.4byte	.LFE339
 5009 0070 00000000 		.4byte	0
 5010 0074 00000000 		.4byte	0
 5011              		.section	.debug_line,"",%progbits
 5012              	.Ldebug_line0:
 5013 0000 48070000 		.section	.debug_str,"MS",%progbits,1
 5013      0300F401 
 5013      00000201 
ARM GAS  /tmp/ccBYr15j.s 			page 89


 5013      FB0E0D00 
 5013      01010101 
 5014              	.LASF33:
 5015 0000 73697A65 		.ascii	"size_wo_nul\000"
 5015      5F776F5F 
 5015      6E756C00 
 5016              	.LASF21:
 5017 000c 77726974 		.ascii	"write\000"
 5017      6500
 5018              	.LASF31:
 5019 0012 4D656D6F 		.ascii	"MemoryStream\000"
 5019      72795374 
 5019      7265616D 
 5019      00
 5020              	.LASF62:
 5021 001f 756E7369 		.ascii	"unsigned_common\000"
 5021      676E6564 
 5021      5F636F6D 
 5021      6D6F6E00 
 5022              	.LASF9:
 5023 002f 73686F72 		.ascii	"short int\000"
 5023      7420696E 
 5023      7400
 5024              	.LASF6:
 5025 0039 73697A65 		.ascii	"size_t\000"
 5025      5F7400
 5026              	.LASF23:
 5027 0040 42617365 		.ascii	"BaseSequentialStream\000"
 5027      53657175 
 5027      656E7469 
 5027      616C5374 
 5027      7265616D 
 5028              	.LASF38:
 5029 0055 666F726D 		.ascii	"formatted_bytes\000"
 5029      61747465 
 5029      645F6279 
 5029      74657300 
 5030              	.LASF25:
 5031 0065 76615F6C 		.ascii	"va_list\000"
 5031      69737400 
 5032              	.LASF34:
 5033 006d 72657476 		.ascii	"retval\000"
 5033      616C00
 5034              	.LASF27:
 5035 0074 4D656D53 		.ascii	"MemStreamVMT\000"
 5035      74726561 
 5035      6D564D54 
 5035      00
 5036              	.LASF15:
 5037 0081 75696E74 		.ascii	"uint8_t\000"
 5037      385F7400 
 5038              	.LASF42:
 5039 0089 77696474 		.ascii	"width\000"
 5039      6800
 5040              	.LASF2:
 5041 008f 666C6F61 		.ascii	"float\000"
 5041      7400
ARM GAS  /tmp/ccBYr15j.s 			page 90


 5042              	.LASF50:
 5043 0095 5F5F6165 		.ascii	"__aeabi_i2d\000"
 5043      6162695F 
 5043      69326400 
 5044              	.LASF22:
 5045 00a1 72656164 		.ascii	"read\000"
 5045      00
 5046              	.LASF3:
 5047 00a6 6C6F6E67 		.ascii	"long long int\000"
 5047      206C6F6E 
 5047      6720696E 
 5047      7400
 5048              	.LASF59:
 5049 00b4 2F686F6D 		.ascii	"/home/mahathi/mathur407_payload2/4.0.7/build/CUAVv5"
 5049      652F6D61 
 5049      68617468 
 5049      692F6D61 
 5049      74687572 
 5050 00e7 00       		.ascii	"\000"
 5051              	.LASF20:
 5052 00e8 696E7374 		.ascii	"instance_offset\000"
 5052      616E6365 
 5052      5F6F6666 
 5052      73657400 
 5053              	.LASF44:
 5054 00f8 6C656674 		.ascii	"left_align\000"
 5054      5F616C69 
 5054      676E00
 5055              	.LASF30:
 5056 0103 6F666673 		.ascii	"offset\000"
 5056      657400
 5057              	.LASF60:
 5058 010a 5F5F7661 		.ascii	"__va_list\000"
 5058      5F6C6973 
 5058      7400
 5059              	.LASF7:
 5060 0114 5F5F7569 		.ascii	"__uint8_t\000"
 5060      6E74385F 
 5060      7400
 5061              	.LASF63:
 5062 011e 6C6F6E67 		.ascii	"long_to_string_with_divisor\000"
 5062      5F746F5F 
 5062      73747269 
 5062      6E675F77 
 5062      6974685F 
 5063              	.LASF4:
 5064 013a 6C6F6E67 		.ascii	"long double\000"
 5064      20646F75 
 5064      626C6500 
 5065              	.LASF8:
 5066 0146 756E7369 		.ascii	"unsigned char\000"
 5066      676E6564 
 5066      20636861 
 5066      7200
 5067              	.LASF52:
 5068 0154 5F5F6165 		.ascii	"__aeabi_ui2d\000"
 5068      6162695F 
ARM GAS  /tmp/ccBYr15j.s 			page 91


 5068      75693264 
 5068      00
 5069              	.LASF54:
 5070 0161 5F5F6165 		.ascii	"__aeabi_d2iz\000"
 5070      6162695F 
 5070      6432697A 
 5070      00
 5071              	.LASF5:
 5072 016e 7369676E 		.ascii	"signed char\000"
 5072      65642063 
 5072      68617200 
 5073              	.LASF14:
 5074 017a 6C6F6E67 		.ascii	"long long unsigned int\000"
 5074      206C6F6E 
 5074      6720756E 
 5074      7369676E 
 5074      65642069 
 5075              	.LASF47:
 5076 0191 63685F6C 		.ascii	"ch_ltoa\000"
 5076      746F6100 
 5077              	.LASF0:
 5078 0199 756E7369 		.ascii	"unsigned int\000"
 5078      676E6564 
 5078      20696E74 
 5078      00
 5079              	.LASF45:
 5080 01a6 746D7062 		.ascii	"tmpbuf\000"
 5080      756600
 5081              	.LASF32:
 5082 01ad 706F7731 		.ascii	"pow10\000"
 5082      3000
 5083              	.LASF48:
 5084 01b3 72616469 		.ascii	"radix\000"
 5084      7800
 5085              	.LASF10:
 5086 01b9 73686F72 		.ascii	"short unsigned int\000"
 5086      7420756E 
 5086      7369676E 
 5086      65642069 
 5086      6E7400
 5087              	.LASF61:
 5088 01cc 5F5F6170 		.ascii	"__ap\000"
 5088      00
 5089              	.LASF18:
 5090 01d1 63686172 		.ascii	"char\000"
 5090      00
 5091              	.LASF12:
 5092 01d6 6C6F6E67 		.ascii	"long int\000"
 5092      20696E74 
 5092      00
 5093              	.LASF16:
 5094 01df 696E7433 		.ascii	"int32_t\000"
 5094      325F7400 
 5095              	.LASF56:
 5096 01e7 5F5F6165 		.ascii	"__aeabi_f2d\000"
 5096      6162695F 
 5096      66326400 
ARM GAS  /tmp/ccBYr15j.s 			page 92


 5097              	.LASF53:
 5098 01f3 5F5F6165 		.ascii	"__aeabi_dmul\000"
 5098      6162695F 
 5098      646D756C 
 5098      00
 5099              	.LASF19:
 5100 0200 5F426F6F 		.ascii	"_Bool\000"
 5100      6C00
 5101              	.LASF37:
 5102 0206 63687072 		.ascii	"chprintf\000"
 5102      696E7466 
 5102      00
 5103              	.LASF46:
 5104 020f 66746F61 		.ascii	"ftoa\000"
 5104      00
 5105              	.LASF28:
 5106 0214 62756666 		.ascii	"buffer\000"
 5106      657200
 5107              	.LASF13:
 5108 021b 6C6F6E67 		.ascii	"long unsigned int\000"
 5108      20756E73 
 5108      69676E65 
 5108      6420696E 
 5108      7400
 5109              	.LASF1:
 5110 022d 646F7562 		.ascii	"double\000"
 5110      6C6500
 5111              	.LASF51:
 5112 0234 5F5F6165 		.ascii	"__aeabi_dsub\000"
 5112      6162695F 
 5112      64737562 
 5112      00
 5113              	.LASF29:
 5114 0241 73697A65 		.ascii	"size\000"
 5114      00
 5115              	.LASF58:
 5116 0246 2E2E2F2E 		.ascii	"../../modules/ChibiOS/os/hal/lib/streams/chprintf.c"
 5116      2E2F6D6F 
 5116      64756C65 
 5116      732F4368 
 5116      6962694F 
 5117 0279 00       		.ascii	"\000"
 5118              	.LASF11:
 5119 027a 5F5F696E 		.ascii	"__int32_t\000"
 5119      7433325F 
 5119      7400
 5120              	.LASF57:
 5121 0284 474E5520 		.ascii	"GNU C17 10.2.1 20201103 (release) -mcpu=cortex-m7 -"
 5121      43313720 
 5121      31302E32 
 5121      2E312032 
 5121      30323031 
 5122 02b7 6D666C6F 		.ascii	"mfloat-abi=hard -mfpu=fpv4-sp-d16 -mno-thumb-interw"
 5122      61742D61 
 5122      62693D68 
 5122      61726420 
 5122      2D6D6670 
ARM GAS  /tmp/ccBYr15j.s 			page 93


 5123 02ea 6F726B20 		.ascii	"ork -mthumb -march=armv7e-m+fp -g -Os -fomit-frame-"
 5123      2D6D7468 
 5123      756D6220 
 5123      2D6D6172 
 5123      63683D61 
 5124 031d 706F696E 		.ascii	"pointer -falign-functions=16 -ffunction-sections -f"
 5124      74657220 
 5124      2D66616C 
 5124      69676E2D 
 5124      66756E63 
 5125 0350 64617461 		.ascii	"data-sections -fno-common -fsingle-precision-consta"
 5125      2D736563 
 5125      74696F6E 
 5125      73202D66 
 5125      6E6F2D63 
 5126 0383 6E7400   		.ascii	"nt\000"
 5127              	.LASF40:
 5128 0386 66696C6C 		.ascii	"filler\000"
 5128      657200
 5129              	.LASF35:
 5130 038d 63687673 		.ascii	"chvsnprintf\000"
 5130      6E707269 
 5130      6E746600 
 5131              	.LASF43:
 5132 0399 69735F6C 		.ascii	"is_long\000"
 5132      6F6E6700 
 5133              	.LASF24:
 5134 03a1 5F5F676E 		.ascii	"__gnuc_va_list\000"
 5134      75635F76 
 5134      615F6C69 
 5134      737400
 5135              	.LASF64:
 5136 03b0 6D734F62 		.ascii	"msObjectInit\000"
 5136      6A656374 
 5136      496E6974 
 5136      00
 5137              	.LASF55:
 5138 03bd 5F5F6165 		.ascii	"__aeabi_d2f\000"
 5138      6162695F 
 5138      64326600 
 5139              	.LASF49:
 5140 03c9 64697669 		.ascii	"divisor\000"
 5140      736F7200 
 5141              	.LASF17:
 5142 03d1 6D73675F 		.ascii	"msg_t\000"
 5142      7400
 5143              	.LASF41:
 5144 03d7 70726563 		.ascii	"precision\000"
 5144      6973696F 
 5144      6E00
 5145              	.LASF39:
 5146 03e1 63687670 		.ascii	"chvprintf\000"
 5146      72696E74 
 5146      6600
 5147              	.LASF26:
 5148 03eb 42617365 		.ascii	"BaseSequentialStreamVMT\000"
 5148      53657175 
ARM GAS  /tmp/ccBYr15j.s 			page 94


 5148      656E7469 
 5148      616C5374 
 5148      7265616D 
 5149              	.LASF36:
 5150 0403 6368736E 		.ascii	"chsnprintf\000"
 5150      7072696E 
 5150      746600
 5151              		.ident	"GCC: (GNU Arm Embedded Toolchain 10-2020-q4-major) 10.2.1 20201103 (release)"
ARM GAS  /tmp/ccBYr15j.s 			page 95


DEFINED SYMBOLS
                            *ABS*:0000000000000000 chprintf.c
     /tmp/ccBYr15j.s:18     .text.long_to_string_with_divisor:0000000000000000 $t
     /tmp/ccBYr15j.s:25     .text.long_to_string_with_divisor:0000000000000000 long_to_string_with_divisor
     /tmp/ccBYr15j.s:135    .text.chvprintf:0000000000000000 $t
     /tmp/ccBYr15j.s:142    .text.chvprintf:0000000000000000 chvprintf
     /tmp/ccBYr15j.s:419    .text.chvprintf:0000000000000104 $d
     /tmp/ccBYr15j.s:441    .text.chvprintf:000000000000015c $t
     /tmp/ccBYr15j.s:954    .text.chvprintf:000000000000036c $d
     /tmp/ccBYr15j.s:976    .text.chvprintf:00000000000003c4 $t
     /tmp/ccBYr15j.s:1003   .text.chvprintf:00000000000003dc $d
     /tmp/ccBYr15j.s:1009   .text.chprintf:0000000000000000 $t
     /tmp/ccBYr15j.s:1016   .text.chprintf:0000000000000000 chprintf
     /tmp/ccBYr15j.s:1063   .text.chvsnprintf:0000000000000000 $t
     /tmp/ccBYr15j.s:1070   .text.chvsnprintf:0000000000000000 chvsnprintf
     /tmp/ccBYr15j.s:1154   .text.chsnprintf:0000000000000000 $t
     /tmp/ccBYr15j.s:1161   .text.chsnprintf:0000000000000000 chsnprintf
     /tmp/ccBYr15j.s:1206   .rodata.pow10:0000000000000000 $d
     /tmp/ccBYr15j.s:1210   .rodata.pow10:0000000000000000 pow10

UNDEFINED SYMBOLS
__aeabi_d2f
__aeabi_f2d
__aeabi_i2d
__aeabi_dsub
__aeabi_ui2d
__aeabi_dmul
__aeabi_d2iz
msObjectInit
