ARM GAS  /tmp/ccXLP3mN.s 			page 1


   1              		.cpu cortex-m7
   2              		.eabi_attribute 27, 1
   3              		.eabi_attribute 28, 1
   4              		.eabi_attribute 20, 1
   5              		.eabi_attribute 21, 1
   6              		.eabi_attribute 23, 3
   7              		.eabi_attribute 24, 1
   8              		.eabi_attribute 25, 1
   9              		.eabi_attribute 26, 1
  10              		.eabi_attribute 30, 4
  11              		.eabi_attribute 34, 1
  12              		.eabi_attribute 18, 4
  13              		.file	"chsem.c"
  14              		.text
  15              	.Ltext0:
  16              		.cfi_sections	.debug_frame
  17              		.section	.text.chSemObjectInit,"ax",%progbits
  18              		.align	1
  19              		.global	chSemObjectInit
  20              		.arch armv7e-m
  21              		.syntax unified
  22              		.thumb
  23              		.thumb_func
  24              		.fpu fpv4-sp-d16
  25              		.type	chSemObjectInit, %function
  26              	chSemObjectInit:
  27              	.LVL0:
  28              	.LFB301:
  29              		.file 1 "../../modules/ChibiOS/os/rt/src/chsem.c"
  30              		.loc 1 97 48 view -0
  31              		.cfi_startproc
  32              		@ args = 0, pretend = 0, frame = 0
  33              		@ frame_needed = 0, uses_anonymous_args = 0
  34              		@ link register save eliminated.
  35              		.loc 1 99 3 view .LVU1
  36              		.loc 1 99 3 view .LVU2
  37              		.loc 1 99 3 view .LVU3
  38              		.loc 1 101 3 view .LVU4
  39              	.LBB38:
  40              	.LBI38:
  41              		.file 2 "../../modules/ChibiOS/os/rt/include/chschd.h"
  42              		.loc 2 537 20 view .LVU5
  43              	.LBB39:
  44              		.loc 2 539 3 view .LVU6
  45              		.loc 2 540 13 is_stmt 0 view .LVU7
  46 0000 C0E90000 		strd	r0, r0, [r0]
  47              	.LVL1:
  48              		.loc 2 540 13 view .LVU8
  49              	.LBE39:
  50              	.LBE38:
  51              		.loc 1 102 3 is_stmt 1 view .LVU9
  52              		.loc 1 102 11 is_stmt 0 view .LVU10
  53 0004 8160     		str	r1, [r0, #8]
  54              		.loc 1 103 1 view .LVU11
  55 0006 7047     		bx	lr
  56              		.cfi_endproc
  57              	.LFE301:
ARM GAS  /tmp/ccXLP3mN.s 			page 2


  58              		.size	chSemObjectInit, .-chSemObjectInit
  59              		.section	.text.chSemResetI,"ax",%progbits
  60              		.align	1
  61              		.global	chSemResetI
  62              		.syntax unified
  63              		.thumb
  64              		.thumb_func
  65              		.fpu fpv4-sp-d16
  66              		.type	chSemResetI, %function
  67              	chSemResetI:
  68              	.LVL2:
  69              	.LFB303:
  70              		.loc 1 147 44 is_stmt 1 view -0
  71              		.cfi_startproc
  72              		@ args = 0, pretend = 0, frame = 0
  73              		@ frame_needed = 0, uses_anonymous_args = 0
  74              		.loc 1 148 3 view .LVU13
  75              		.loc 1 150 21 view .LVU14
  76              		.loc 1 151 3 view .LVU15
  77              		.loc 1 151 3 view .LVU16
  78              		.loc 1 151 3 view .LVU17
  79              		.loc 1 152 3 view .LVU18
  80              		.loc 1 152 3 view .LVU19
  81              		.loc 1 152 3 view .LVU20
  82              		.loc 1 156 3 view .LVU21
  83              		.loc 1 147 44 is_stmt 0 view .LVU22
  84 0000 70B5     		push	{r4, r5, r6, lr}
  85              		.cfi_def_cfa_offset 16
  86              		.cfi_offset 4, -16
  87              		.cfi_offset 5, -12
  88              		.cfi_offset 6, -8
  89              		.cfi_offset 14, -4
  90              		.loc 1 147 44 view .LVU23
  91 0002 0446     		mov	r4, r0
  92              		.loc 1 159 58 view .LVU24
  93 0004 6FF00106 		mvn	r6, #1
  94              		.loc 1 156 7 view .LVU25
  95 0008 8568     		ldr	r5, [r0, #8]
  96              	.LVL3:
  97              		.loc 1 157 3 is_stmt 1 view .LVU26
  98              		.loc 1 157 11 is_stmt 0 view .LVU27
  99 000a 8160     		str	r1, [r0, #8]
 100              		.loc 1 158 3 is_stmt 1 view .LVU28
 101              	.LVL4:
 102              	.L3:
 103              		.loc 1 158 9 view .LVU29
 104 000c 0135     		adds	r5, r5, #1
 105              	.LVL5:
 106              		.loc 1 158 9 is_stmt 0 view .LVU30
 107 000e 002D     		cmp	r5, #0
 108 0010 00DD     		ble	.L4
 109              		.loc 1 161 1 view .LVU31
 110 0012 70BD     		pop	{r4, r5, r6, pc}
 111              	.LVL6:
 112              	.L4:
 113              		.loc 1 159 5 is_stmt 1 view .LVU32
 114              	.LBB40:
ARM GAS  /tmp/ccXLP3mN.s 			page 3


 115              	.LBI40:
 116              		.loc 2 615 25 view .LVU33
 117              	.LBB41:
 118              		.loc 2 616 3 view .LVU34
 119              		.loc 2 616 13 is_stmt 0 view .LVU35
 120 0014 6068     		ldr	r0, [r4, #4]
 121              	.LVL7:
 122              		.loc 2 618 3 is_stmt 1 view .LVU36
 123              		.loc 2 618 36 is_stmt 0 view .LVU37
 124 0016 4368     		ldr	r3, [r0, #4]
 125              		.loc 2 618 25 view .LVU38
 126 0018 6360     		str	r3, [r4, #4]
 127              		.loc 2 619 3 is_stmt 1 view .LVU39
 128              		.loc 2 619 25 is_stmt 0 view .LVU40
 129 001a 1C60     		str	r4, [r3]
 130              		.loc 2 621 3 is_stmt 1 view .LVU41
 131              	.LVL8:
 132              		.loc 2 621 3 is_stmt 0 view .LVU42
 133              	.LBE41:
 134              	.LBE40:
 135              		.loc 1 159 5 view .LVU43
 136 001c FFF7FEFF 		bl	chSchReadyI
 137              	.LVL9:
 138              		.loc 1 159 58 view .LVU44
 139 0020 4662     		str	r6, [r0, #36]
 140 0022 F3E7     		b	.L3
 141              		.cfi_endproc
 142              	.LFE303:
 143              		.size	chSemResetI, .-chSemResetI
 144              		.section	.text.chSemReset,"ax",%progbits
 145              		.align	1
 146              		.global	chSemReset
 147              		.syntax unified
 148              		.thumb
 149              		.thumb_func
 150              		.fpu fpv4-sp-d16
 151              		.type	chSemReset, %function
 152              	chSemReset:
 153              	.LVL10:
 154              	.LFB302:
 155              		.loc 1 120 43 is_stmt 1 view -0
 156              		.cfi_startproc
 157              		@ args = 0, pretend = 0, frame = 8
 158              		@ frame_needed = 0, uses_anonymous_args = 0
 159              		.loc 1 122 3 view .LVU46
 160              	.LBB52:
 161              	.LBI52:
 162              		.file 3 "../../modules/ChibiOS/os/rt/include/chsys.h"
 163              		.loc 3 353 20 view .LVU47
 164              	.LBB53:
 165              		.loc 3 355 3 view .LVU48
 166              	.LBB54:
 167              	.LBI54:
 168              		.file 4 "../../modules/ChibiOS/os/common/ports/ARMCMx/chcore_v7m.h"
 169              		.loc 4 602 20 view .LVU49
 170              	.LBE54:
 171              	.LBE53:
ARM GAS  /tmp/ccXLP3mN.s 			page 4


 172              	.LBE52:
 173              		.loc 4 610 3 view .LVU50
 174              	.LBB67:
 175              	.LBB64:
 176              	.LBB61:
 177              	.LBB55:
 178              	.LBI55:
 179              		.file 5 "../../modules/ChibiOS/os/common/ext/ARM/CMSIS/Core/Include/cmsis_gcc.h"
 180              		.loc 5 491 27 view .LVU51
 181              	.LBB56:
 182              		.loc 5 493 3 view .LVU52
 183              	.LBE56:
 184              	.LBE55:
 185              	.LBE61:
 186              	.LBE64:
 187              	.LBE67:
 188              		.loc 1 120 43 is_stmt 0 view .LVU53
 189 0000 07B5     		push	{r0, r1, r2, lr}
 190              		.cfi_def_cfa_offset 16
 191              		.cfi_offset 14, -4
 192              	.LBB68:
 193              	.LBB65:
 194              	.LBB62:
 195              	.LBB59:
 196              	.LBB57:
 197              		.loc 5 493 3 view .LVU54
 198 0002 2023     		movs	r3, #32
 199              	.LBE57:
 200              	.LBE59:
 201              	.LBE62:
 202              	.LBE65:
 203              	.LBE68:
 204              		.loc 1 120 43 view .LVU55
 205 0004 CDE90010 		strd	r1, r0, [sp]
 206              	.LBB69:
 207              	.LBB66:
 208              	.LBB63:
 209              	.LBB60:
 210              	.LBB58:
 211              		.loc 5 493 3 view .LVU56
 212              		.syntax unified
 213              	@ 493 "../../modules/ChibiOS/os/common/ext/ARM/CMSIS/Core/Include/cmsis_gcc.h" 1
 214 0008 83F31188 		MSR basepri, r3
 215              	@ 0 "" 2
 216              	.LVL11:
 217              		.loc 5 493 3 view .LVU57
 218              		.thumb
 219              		.syntax unified
 220              	.LBE58:
 221              	.LBE60:
 222              	.LBE63:
 223              		.loc 3 356 3 is_stmt 1 view .LVU58
 224 000c FFF7FEFF 		bl	_stats_start_measure_crit_thd
 225              	.LVL12:
 226              		.loc 3 357 20 view .LVU59
 227              	.LBE66:
 228              	.LBE69:
ARM GAS  /tmp/ccXLP3mN.s 			page 5


 229              		.loc 1 123 3 view .LVU60
 230 0010 DDE90010 		ldrd	r1, r0, [sp]
 231 0014 FFF7FEFF 		bl	chSemResetI
 232              	.LVL13:
 233              		.loc 1 124 3 view .LVU61
 234 0018 FFF7FEFF 		bl	chSchRescheduleS
 235              	.LVL14:
 236              		.loc 1 125 3 view .LVU62
 237              	.LBB70:
 238              	.LBI70:
 239              		.loc 3 365 20 view .LVU63
 240              	.LBB71:
 241              		.loc 3 367 22 view .LVU64
 242              		.loc 3 368 3 view .LVU65
 243 001c FFF7FEFF 		bl	_stats_stop_measure_crit_thd
 244              	.LVL15:
 245              		.loc 3 374 3 view .LVU66
 246              		.loc 3 374 3 view .LVU67
 247              		.loc 3 374 3 view .LVU68
 248              		.loc 3 378 3 view .LVU69
 249              	.LBB72:
 250              	.LBI72:
 251              		.loc 4 626 20 view .LVU70
 252              	.LBE72:
 253              	.LBE71:
 254              	.LBE70:
 255              		.loc 4 629 3 view .LVU71
 256              	.LBB77:
 257              	.LBB76:
 258              	.LBB75:
 259              	.LBB73:
 260              	.LBI73:
 261              		.loc 5 491 27 view .LVU72
 262              	.LBB74:
 263              		.loc 5 493 3 view .LVU73
 264 0020 0023     		movs	r3, #0
 265              		.syntax unified
 266              	@ 493 "../../modules/ChibiOS/os/common/ext/ARM/CMSIS/Core/Include/cmsis_gcc.h" 1
 267 0022 83F31188 		MSR basepri, r3
 268              	@ 0 "" 2
 269              	.LVL16:
 270              		.loc 5 493 3 is_stmt 0 view .LVU74
 271              		.thumb
 272              		.syntax unified
 273              	.LBE74:
 274              	.LBE73:
 275              	.LBE75:
 276              	.LBE76:
 277              	.LBE77:
 278              		.loc 1 126 1 view .LVU75
 279 0026 03B0     		add	sp, sp, #12
 280              		.cfi_def_cfa_offset 4
 281              	.LVL17:
 282              		.loc 1 126 1 view .LVU76
 283              		@ sp needed
 284 0028 5DF804FB 		ldr	pc, [sp], #4
 285              		.loc 1 126 1 view .LVU77
ARM GAS  /tmp/ccXLP3mN.s 			page 6


 286              		.cfi_endproc
 287              	.LFE302:
 288              		.size	chSemReset, .-chSemReset
 289              		.section	.text.chSemWaitS,"ax",%progbits
 290              		.align	1
 291              		.global	chSemWaitS
 292              		.syntax unified
 293              		.thumb
 294              		.thumb_func
 295              		.fpu fpv4-sp-d16
 296              		.type	chSemWaitS, %function
 297              	chSemWaitS:
 298              	.LVL18:
 299              	.LFB305:
 300              		.loc 1 197 35 is_stmt 1 view -0
 301              		.cfi_startproc
 302              		@ args = 0, pretend = 0, frame = 0
 303              		@ frame_needed = 0, uses_anonymous_args = 0
 304              		.loc 1 199 21 view .LVU79
 305              		.loc 1 200 3 view .LVU80
 306              		.loc 1 200 3 view .LVU81
 307              		.loc 1 200 3 view .LVU82
 308              		.loc 1 201 3 view .LVU83
 309              		.loc 1 201 3 view .LVU84
 310              		.loc 1 201 3 view .LVU85
 311              		.loc 1 205 3 view .LVU86
 312              		.loc 1 205 7 is_stmt 0 view .LVU87
 313 0000 8368     		ldr	r3, [r0, #8]
 314 0002 013B     		subs	r3, r3, #1
 315              		.loc 1 205 6 view .LVU88
 316 0004 002B     		cmp	r3, #0
 317              		.loc 1 197 35 view .LVU89
 318 0006 10B5     		push	{r4, lr}
 319              		.cfi_def_cfa_offset 8
 320              		.cfi_offset 4, -8
 321              		.cfi_offset 14, -4
 322              		.loc 1 205 6 view .LVU90
 323 0008 8360     		str	r3, [r0, #8]
 324 000a 0DDA     		bge	.L8
 325              	.LVL19:
 326              	.LBB82:
 327              	.LBI82:
 328              		.loc 1 197 7 is_stmt 1 view .LVU91
 329              	.LBB83:
 330              		.loc 1 206 5 view .LVU92
 331 000c 074C     		ldr	r4, .L9
 332              	.LBB84:
 333              	.LBB85:
 334              		.loc 2 601 35 is_stmt 0 view .LVU93
 335 000e 4268     		ldr	r2, [r0, #4]
 336              	.LBE85:
 337              	.LBE84:
 338              		.loc 1 206 5 view .LVU94
 339 0010 A369     		ldr	r3, [r4, #24]
 340              		.loc 1 206 21 view .LVU95
 341 0012 5862     		str	r0, [r3, #36]
 342              		.loc 1 207 5 is_stmt 1 view .LVU96
ARM GAS  /tmp/ccXLP3mN.s 			page 7


 343              	.LVL20:
 344              	.LBB87:
 345              	.LBI84:
 346              		.loc 2 598 20 view .LVU97
 347              	.LBB86:
 348              		.loc 2 600 3 view .LVU98
 349              		.loc 2 600 30 is_stmt 0 view .LVU99
 350 0014 1860     		str	r0, [r3]
 351              		.loc 2 601 3 is_stmt 1 view .LVU100
 352              		.loc 2 601 30 is_stmt 0 view .LVU101
 353 0016 5A60     		str	r2, [r3, #4]
 354              		.loc 2 602 3 is_stmt 1 view .LVU102
 355              		.loc 2 602 30 is_stmt 0 view .LVU103
 356 0018 1360     		str	r3, [r2]
 357              		.loc 2 603 3 is_stmt 1 view .LVU104
 358              		.loc 2 603 30 is_stmt 0 view .LVU105
 359 001a 4360     		str	r3, [r0, #4]
 360              	.LVL21:
 361              		.loc 2 603 30 view .LVU106
 362              	.LBE86:
 363              	.LBE87:
 364              		.loc 1 208 5 is_stmt 1 view .LVU107
 365 001c 0520     		movs	r0, #5
 366              	.LVL22:
 367              		.loc 1 208 5 is_stmt 0 view .LVU108
 368 001e FFF7FEFF 		bl	chSchGoSleepS
 369              	.LVL23:
 370              		.loc 1 210 5 is_stmt 1 view .LVU109
 371              		.loc 1 210 20 is_stmt 0 view .LVU110
 372 0022 A369     		ldr	r3, [r4, #24]
 373 0024 586A     		ldr	r0, [r3, #36]
 374              	.LVL24:
 375              	.L6:
 376              		.loc 1 210 20 view .LVU111
 377              	.LBE83:
 378              	.LBE82:
 379              		.loc 1 214 1 view .LVU112
 380 0026 10BD     		pop	{r4, pc}
 381              	.LVL25:
 382              	.L8:
 383              		.loc 1 213 10 view .LVU113
 384 0028 0020     		movs	r0, #0
 385              	.LVL26:
 386              		.loc 1 213 10 view .LVU114
 387 002a FCE7     		b	.L6
 388              	.L10:
 389              		.align	2
 390              	.L9:
 391 002c 00000000 		.word	ch
 392              		.cfi_endproc
 393              	.LFE305:
 394              		.size	chSemWaitS, .-chSemWaitS
 395              		.section	.text.chSemWait,"ax",%progbits
 396              		.align	1
 397              		.global	chSemWait
 398              		.syntax unified
 399              		.thumb
ARM GAS  /tmp/ccXLP3mN.s 			page 8


 400              		.thumb_func
 401              		.fpu fpv4-sp-d16
 402              		.type	chSemWait, %function
 403              	chSemWait:
 404              	.LVL27:
 405              	.LFB304:
 406              		.loc 1 175 34 is_stmt 1 view -0
 407              		.cfi_startproc
 408              		@ args = 0, pretend = 0, frame = 8
 409              		@ frame_needed = 0, uses_anonymous_args = 0
 410              		.loc 1 176 3 view .LVU116
 411              		.loc 1 178 3 view .LVU117
 412              	.LBB98:
 413              	.LBI98:
 414              		.loc 3 353 20 view .LVU118
 415              	.LBB99:
 416              		.loc 3 355 3 view .LVU119
 417              	.LBB100:
 418              	.LBI100:
 419              		.loc 4 602 20 view .LVU120
 420              	.LBE100:
 421              	.LBE99:
 422              	.LBE98:
 423              		.loc 4 610 3 view .LVU121
 424              	.LBB113:
 425              	.LBB110:
 426              	.LBB107:
 427              	.LBB101:
 428              	.LBI101:
 429              		.loc 5 491 27 view .LVU122
 430              	.LBB102:
 431              		.loc 5 493 3 view .LVU123
 432              	.LBE102:
 433              	.LBE101:
 434              	.LBE107:
 435              	.LBE110:
 436              	.LBE113:
 437              		.loc 1 175 34 is_stmt 0 view .LVU124
 438 0000 07B5     		push	{r0, r1, r2, lr}
 439              		.cfi_def_cfa_offset 16
 440              		.cfi_offset 14, -4
 441              	.LBB114:
 442              	.LBB111:
 443              	.LBB108:
 444              	.LBB105:
 445              	.LBB103:
 446              		.loc 5 493 3 view .LVU125
 447 0002 2023     		movs	r3, #32
 448              	.LBE103:
 449              	.LBE105:
 450              	.LBE108:
 451              	.LBE111:
 452              	.LBE114:
 453              		.loc 1 175 34 view .LVU126
 454 0004 0190     		str	r0, [sp, #4]
 455              	.LBB115:
 456              	.LBB112:
ARM GAS  /tmp/ccXLP3mN.s 			page 9


 457              	.LBB109:
 458              	.LBB106:
 459              	.LBB104:
 460              		.loc 5 493 3 view .LVU127
 461              		.syntax unified
 462              	@ 493 "../../modules/ChibiOS/os/common/ext/ARM/CMSIS/Core/Include/cmsis_gcc.h" 1
 463 0006 83F31188 		MSR basepri, r3
 464              	@ 0 "" 2
 465              	.LVL28:
 466              		.loc 5 493 3 view .LVU128
 467              		.thumb
 468              		.syntax unified
 469              	.LBE104:
 470              	.LBE106:
 471              	.LBE109:
 472              		.loc 3 356 3 is_stmt 1 view .LVU129
 473 000a FFF7FEFF 		bl	_stats_start_measure_crit_thd
 474              	.LVL29:
 475              		.loc 3 357 20 view .LVU130
 476              	.LBE112:
 477              	.LBE115:
 478              		.loc 1 179 3 view .LVU131
 479              		.loc 1 179 9 is_stmt 0 view .LVU132
 480 000e 0198     		ldr	r0, [sp, #4]
 481 0010 FFF7FEFF 		bl	chSemWaitS
 482              	.LVL30:
 483 0014 0190     		str	r0, [sp, #4]
 484              	.LVL31:
 485              		.loc 1 180 3 is_stmt 1 view .LVU133
 486              	.LBB116:
 487              	.LBI116:
 488              		.loc 3 365 20 view .LVU134
 489              	.LBB117:
 490              		.loc 3 367 22 view .LVU135
 491              		.loc 3 368 3 view .LVU136
 492 0016 FFF7FEFF 		bl	_stats_stop_measure_crit_thd
 493              	.LVL32:
 494              		.loc 3 374 3 view .LVU137
 495              		.loc 3 374 3 view .LVU138
 496              		.loc 3 374 3 view .LVU139
 497              		.loc 3 378 3 view .LVU140
 498              	.LBB118:
 499              	.LBI118:
 500              		.loc 4 626 20 view .LVU141
 501              	.LBE118:
 502              	.LBE117:
 503              	.LBE116:
 504              		.loc 4 629 3 view .LVU142
 505              	.LBB123:
 506              	.LBB122:
 507              	.LBB121:
 508              	.LBB119:
 509              	.LBI119:
 510              		.loc 5 491 27 view .LVU143
 511              	.LBB120:
 512              		.loc 5 493 3 view .LVU144
 513 001a 0023     		movs	r3, #0
ARM GAS  /tmp/ccXLP3mN.s 			page 10


 514              		.syntax unified
 515              	@ 493 "../../modules/ChibiOS/os/common/ext/ARM/CMSIS/Core/Include/cmsis_gcc.h" 1
 516 001c 83F31188 		MSR basepri, r3
 517              	@ 0 "" 2
 518              	.LVL33:
 519              		.loc 5 493 3 is_stmt 0 view .LVU145
 520              		.thumb
 521              		.syntax unified
 522              	.LBE120:
 523              	.LBE119:
 524              	.LBE121:
 525              	.LBE122:
 526              	.LBE123:
 527              		.loc 1 182 3 is_stmt 1 view .LVU146
 528              		.loc 1 183 1 is_stmt 0 view .LVU147
 529 0020 0198     		ldr	r0, [sp, #4]
 530 0022 03B0     		add	sp, sp, #12
 531              		.cfi_def_cfa_offset 4
 532              		@ sp needed
 533 0024 5DF804FB 		ldr	pc, [sp], #4
 534              		.loc 1 183 1 view .LVU148
 535              		.cfi_endproc
 536              	.LFE304:
 537              		.size	chSemWait, .-chSemWait
 538              		.section	.text.chSemWaitTimeoutS,"ax",%progbits
 539              		.align	1
 540              		.global	chSemWaitTimeoutS
 541              		.syntax unified
 542              		.thumb
 543              		.thumb_func
 544              		.fpu fpv4-sp-d16
 545              		.type	chSemWaitTimeoutS, %function
 546              	chSemWaitTimeoutS:
 547              	.LVL34:
 548              	.LFB307:
 549              		.loc 1 264 65 is_stmt 1 view -0
 550              		.cfi_startproc
 551              		@ args = 0, pretend = 0, frame = 0
 552              		@ frame_needed = 0, uses_anonymous_args = 0
 553              		@ link register save eliminated.
 554              		.loc 1 266 21 view .LVU150
 555              		.loc 1 267 3 view .LVU151
 556              		.loc 1 267 3 view .LVU152
 557              		.loc 1 267 3 view .LVU153
 558              		.loc 1 268 3 view .LVU154
 559              		.loc 1 268 3 view .LVU155
 560              		.loc 1 268 3 view .LVU156
 561              		.loc 1 272 3 view .LVU157
 562              		.loc 1 272 11 is_stmt 0 view .LVU158
 563 0000 8268     		ldr	r2, [r0, #8]
 564              		.loc 1 264 65 view .LVU159
 565 0002 10B4     		push	{r4}
 566              		.cfi_def_cfa_offset 4
 567              		.cfi_offset 4, -4
 568              		.loc 1 272 7 view .LVU160
 569 0004 541E     		subs	r4, r2, #1
 570              		.loc 1 272 6 view .LVU161
ARM GAS  /tmp/ccXLP3mN.s 			page 11


 571 0006 002C     		cmp	r4, #0
 572 0008 8460     		str	r4, [r0, #8]
 573 000a 13DA     		bge	.L15
 574              		.loc 1 273 5 is_stmt 1 view .LVU162
 575              		.loc 1 273 8 is_stmt 0 view .LVU163
 576 000c 29B9     		cbnz	r1, .L14
 577              		.loc 1 274 7 is_stmt 1 view .LVU164
 578              		.loc 1 274 14 is_stmt 0 view .LVU165
 579 000e 8260     		str	r2, [r0, #8]
 580              		.loc 1 276 7 is_stmt 1 view .LVU166
 581              		.loc 1 276 14 is_stmt 0 view .LVU167
 582 0010 4FF0FF30 		mov	r0, #-1
 583              	.LVL35:
 584              	.L12:
 585              		.loc 1 285 1 view .LVU168
 586 0014 5DF8044B 		ldr	r4, [sp], #4
 587              		.cfi_remember_state
 588              		.cfi_restore 4
 589              		.cfi_def_cfa_offset 0
 590 0018 7047     		bx	lr
 591              	.LVL36:
 592              	.L14:
 593              		.cfi_restore_state
 594              	.LBB128:
 595              	.LBI128:
 596              		.loc 1 264 7 is_stmt 1 view .LVU169
 597              	.LBB129:
 598              		.loc 1 278 5 view .LVU170
 599 001a 074B     		ldr	r3, .L16
 600              	.LBB130:
 601              	.LBB131:
 602              		.loc 2 601 35 is_stmt 0 view .LVU171
 603 001c 4268     		ldr	r2, [r0, #4]
 604              	.LBE131:
 605              	.LBE130:
 606              		.loc 1 278 5 view .LVU172
 607 001e 9B69     		ldr	r3, [r3, #24]
 608              	.LBE129:
 609              	.LBE128:
 610              		.loc 1 285 1 view .LVU173
 611 0020 5DF8044B 		ldr	r4, [sp], #4
 612              		.cfi_remember_state
 613              		.cfi_restore 4
 614              		.cfi_def_cfa_offset 0
 615              	.LBB135:
 616              	.LBB134:
 617              		.loc 1 278 21 view .LVU174
 618 0024 5862     		str	r0, [r3, #36]
 619              		.loc 1 279 5 is_stmt 1 view .LVU175
 620              	.LVL37:
 621              	.LBB133:
 622              	.LBI130:
 623              		.loc 2 598 20 view .LVU176
 624              	.LBB132:
 625              		.loc 2 600 3 view .LVU177
 626              		.loc 2 600 30 is_stmt 0 view .LVU178
 627 0026 1860     		str	r0, [r3]
ARM GAS  /tmp/ccXLP3mN.s 			page 12


 628              		.loc 2 601 3 is_stmt 1 view .LVU179
 629              		.loc 2 601 30 is_stmt 0 view .LVU180
 630 0028 5A60     		str	r2, [r3, #4]
 631              		.loc 2 602 3 is_stmt 1 view .LVU181
 632              		.loc 2 602 30 is_stmt 0 view .LVU182
 633 002a 1360     		str	r3, [r2]
 634              		.loc 2 603 3 is_stmt 1 view .LVU183
 635              		.loc 2 603 30 is_stmt 0 view .LVU184
 636 002c 4360     		str	r3, [r0, #4]
 637              	.LVL38:
 638              		.loc 2 603 30 view .LVU185
 639              	.LBE132:
 640              	.LBE133:
 641              		.loc 1 281 5 is_stmt 1 view .LVU186
 642              		.loc 1 281 12 is_stmt 0 view .LVU187
 643 002e 0520     		movs	r0, #5
 644              	.LVL39:
 645              		.loc 1 281 12 view .LVU188
 646 0030 FFF7FEBF 		b	chSchGoSleepTimeoutS
 647              	.LVL40:
 648              	.L15:
 649              		.cfi_restore_state
 650              		.loc 1 281 12 view .LVU189
 651              	.LBE134:
 652              	.LBE135:
 653              		.loc 1 284 10 view .LVU190
 654 0034 0020     		movs	r0, #0
 655              	.LVL41:
 656              		.loc 1 284 10 view .LVU191
 657 0036 EDE7     		b	.L12
 658              	.L17:
 659              		.align	2
 660              	.L16:
 661 0038 00000000 		.word	ch
 662              		.cfi_endproc
 663              	.LFE307:
 664              		.size	chSemWaitTimeoutS, .-chSemWaitTimeoutS
 665              		.section	.text.chSemWaitTimeout,"ax",%progbits
 666              		.align	1
 667              		.global	chSemWaitTimeout
 668              		.syntax unified
 669              		.thumb
 670              		.thumb_func
 671              		.fpu fpv4-sp-d16
 672              		.type	chSemWaitTimeout, %function
 673              	chSemWaitTimeout:
 674              	.LVL42:
 675              	.LFB306:
 676              		.loc 1 235 64 is_stmt 1 view -0
 677              		.cfi_startproc
 678              		@ args = 0, pretend = 0, frame = 8
 679              		@ frame_needed = 0, uses_anonymous_args = 0
 680              		.loc 1 236 3 view .LVU193
 681              		.loc 1 238 3 view .LVU194
 682              	.LBB146:
 683              	.LBI146:
 684              		.loc 3 353 20 view .LVU195
ARM GAS  /tmp/ccXLP3mN.s 			page 13


 685              	.LBB147:
 686              		.loc 3 355 3 view .LVU196
 687              	.LBB148:
 688              	.LBI148:
 689              		.loc 4 602 20 view .LVU197
 690              	.LBE148:
 691              	.LBE147:
 692              	.LBE146:
 693              		.loc 4 610 3 view .LVU198
 694              	.LBB161:
 695              	.LBB158:
 696              	.LBB155:
 697              	.LBB149:
 698              	.LBI149:
 699              		.loc 5 491 27 view .LVU199
 700              	.LBB150:
 701              		.loc 5 493 3 view .LVU200
 702              	.LBE150:
 703              	.LBE149:
 704              	.LBE155:
 705              	.LBE158:
 706              	.LBE161:
 707              		.loc 1 235 64 is_stmt 0 view .LVU201
 708 0000 07B5     		push	{r0, r1, r2, lr}
 709              		.cfi_def_cfa_offset 16
 710              		.cfi_offset 14, -4
 711              	.LBB162:
 712              	.LBB159:
 713              	.LBB156:
 714              	.LBB153:
 715              	.LBB151:
 716              		.loc 5 493 3 view .LVU202
 717 0002 2023     		movs	r3, #32
 718              	.LBE151:
 719              	.LBE153:
 720              	.LBE156:
 721              	.LBE159:
 722              	.LBE162:
 723              		.loc 1 235 64 view .LVU203
 724 0004 CDE90010 		strd	r1, r0, [sp]
 725              	.LBB163:
 726              	.LBB160:
 727              	.LBB157:
 728              	.LBB154:
 729              	.LBB152:
 730              		.loc 5 493 3 view .LVU204
 731              		.syntax unified
 732              	@ 493 "../../modules/ChibiOS/os/common/ext/ARM/CMSIS/Core/Include/cmsis_gcc.h" 1
 733 0008 83F31188 		MSR basepri, r3
 734              	@ 0 "" 2
 735              	.LVL43:
 736              		.loc 5 493 3 view .LVU205
 737              		.thumb
 738              		.syntax unified
 739              	.LBE152:
 740              	.LBE154:
 741              	.LBE157:
ARM GAS  /tmp/ccXLP3mN.s 			page 14


 742              		.loc 3 356 3 is_stmt 1 view .LVU206
 743 000c FFF7FEFF 		bl	_stats_start_measure_crit_thd
 744              	.LVL44:
 745              		.loc 3 357 20 view .LVU207
 746              	.LBE160:
 747              	.LBE163:
 748              		.loc 1 239 3 view .LVU208
 749              		.loc 1 239 9 is_stmt 0 view .LVU209
 750 0010 DDE90010 		ldrd	r1, r0, [sp]
 751 0014 FFF7FEFF 		bl	chSemWaitTimeoutS
 752              	.LVL45:
 753 0018 0090     		str	r0, [sp]
 754              	.LVL46:
 755              		.loc 1 240 3 is_stmt 1 view .LVU210
 756              	.LBB164:
 757              	.LBI164:
 758              		.loc 3 365 20 view .LVU211
 759              	.LBB165:
 760              		.loc 3 367 22 view .LVU212
 761              		.loc 3 368 3 view .LVU213
 762 001a FFF7FEFF 		bl	_stats_stop_measure_crit_thd
 763              	.LVL47:
 764              		.loc 3 374 3 view .LVU214
 765              		.loc 3 374 3 view .LVU215
 766              		.loc 3 374 3 view .LVU216
 767              		.loc 3 378 3 view .LVU217
 768              	.LBB166:
 769              	.LBI166:
 770              		.loc 4 626 20 view .LVU218
 771              	.LBE166:
 772              	.LBE165:
 773              	.LBE164:
 774              		.loc 4 629 3 view .LVU219
 775              	.LBB171:
 776              	.LBB170:
 777              	.LBB169:
 778              	.LBB167:
 779              	.LBI167:
 780              		.loc 5 491 27 view .LVU220
 781              	.LBB168:
 782              		.loc 5 493 3 view .LVU221
 783 001e 0023     		movs	r3, #0
 784              		.syntax unified
 785              	@ 493 "../../modules/ChibiOS/os/common/ext/ARM/CMSIS/Core/Include/cmsis_gcc.h" 1
 786 0020 83F31188 		MSR basepri, r3
 787              	@ 0 "" 2
 788              	.LVL48:
 789              		.loc 5 493 3 is_stmt 0 view .LVU222
 790              		.thumb
 791              		.syntax unified
 792              	.LBE168:
 793              	.LBE167:
 794              	.LBE169:
 795              	.LBE170:
 796              	.LBE171:
 797              		.loc 1 242 3 is_stmt 1 view .LVU223
 798              		.loc 1 243 1 is_stmt 0 view .LVU224
ARM GAS  /tmp/ccXLP3mN.s 			page 15


 799 0024 0098     		ldr	r0, [sp]
 800 0026 03B0     		add	sp, sp, #12
 801              		.cfi_def_cfa_offset 4
 802              	.LVL49:
 803              		.loc 1 243 1 view .LVU225
 804              		@ sp needed
 805 0028 5DF804FB 		ldr	pc, [sp], #4
 806              		.loc 1 243 1 view .LVU226
 807              		.cfi_endproc
 808              	.LFE306:
 809              		.size	chSemWaitTimeout, .-chSemWaitTimeout
 810              		.section	.text.chSemSignal,"ax",%progbits
 811              		.align	1
 812              		.global	chSemSignal
 813              		.syntax unified
 814              		.thumb
 815              		.thumb_func
 816              		.fpu fpv4-sp-d16
 817              		.type	chSemSignal, %function
 818              	chSemSignal:
 819              	.LVL50:
 820              	.LFB308:
 821              		.loc 1 294 35 is_stmt 1 view -0
 822              		.cfi_startproc
 823              		@ args = 0, pretend = 0, frame = 0
 824              		@ frame_needed = 0, uses_anonymous_args = 0
 825              		.loc 1 296 3 view .LVU228
 826              		.loc 1 296 3 view .LVU229
 827              		.loc 1 296 3 view .LVU230
 828              		.loc 1 298 3 view .LVU231
 829              	.LBB184:
 830              	.LBI184:
 831              		.loc 3 353 20 view .LVU232
 832              	.LBB185:
 833              		.loc 3 355 3 view .LVU233
 834              	.LBB186:
 835              	.LBI186:
 836              		.loc 4 602 20 view .LVU234
 837              	.LBE186:
 838              	.LBE185:
 839              	.LBE184:
 840              		.loc 4 610 3 view .LVU235
 841              	.LBB199:
 842              	.LBB196:
 843              	.LBB193:
 844              	.LBB187:
 845              	.LBI187:
 846              		.loc 5 491 27 view .LVU236
 847              	.LBB188:
 848              		.loc 5 493 3 view .LVU237
 849              	.LBE188:
 850              	.LBE187:
 851              	.LBE193:
 852              	.LBE196:
 853              	.LBE199:
 854              		.loc 1 294 35 is_stmt 0 view .LVU238
 855 0000 10B5     		push	{r4, lr}
ARM GAS  /tmp/ccXLP3mN.s 			page 16


 856              		.cfi_def_cfa_offset 8
 857              		.cfi_offset 4, -8
 858              		.cfi_offset 14, -4
 859              	.LBB200:
 860              	.LBB197:
 861              	.LBB194:
 862              	.LBB191:
 863              	.LBB189:
 864              		.loc 5 493 3 view .LVU239
 865 0002 2023     		movs	r3, #32
 866              	.LBE189:
 867              	.LBE191:
 868              	.LBE194:
 869              	.LBE197:
 870              	.LBE200:
 871              		.loc 1 294 35 view .LVU240
 872 0004 0446     		mov	r4, r0
 873              	.LBB201:
 874              	.LBB198:
 875              	.LBB195:
 876              	.LBB192:
 877              	.LBB190:
 878              		.loc 5 493 3 view .LVU241
 879              		.syntax unified
 880              	@ 493 "../../modules/ChibiOS/os/common/ext/ARM/CMSIS/Core/Include/cmsis_gcc.h" 1
 881 0006 83F31188 		MSR basepri, r3
 882              	@ 0 "" 2
 883              	.LVL51:
 884              		.loc 5 493 3 view .LVU242
 885              		.thumb
 886              		.syntax unified
 887              	.LBE190:
 888              	.LBE192:
 889              	.LBE195:
 890              		.loc 3 356 3 is_stmt 1 view .LVU243
 891 000a FFF7FEFF 		bl	_stats_start_measure_crit_thd
 892              	.LVL52:
 893              		.loc 3 357 20 view .LVU244
 894              	.LBE198:
 895              	.LBE201:
 896              		.loc 1 299 3 view .LVU245
 897              		.loc 1 299 3 view .LVU246
 898              		.loc 1 299 3 view .LVU247
 899              		.loc 1 302 3 view .LVU248
 900              		.loc 1 302 7 is_stmt 0 view .LVU249
 901 000e A368     		ldr	r3, [r4, #8]
 902 0010 0133     		adds	r3, r3, #1
 903              		.loc 1 302 6 view .LVU250
 904 0012 002B     		cmp	r3, #0
 905 0014 A360     		str	r3, [r4, #8]
 906 0016 06DC     		bgt	.L20
 907              		.loc 1 303 5 is_stmt 1 view .LVU251
 908              	.LVL53:
 909              	.LBB202:
 910              	.LBI202:
 911              		.loc 2 606 25 view .LVU252
 912              	.LBB203:
ARM GAS  /tmp/ccXLP3mN.s 			page 17


 913              		.loc 2 607 3 view .LVU253
 914              		.loc 2 607 13 is_stmt 0 view .LVU254
 915 0018 2068     		ldr	r0, [r4]
 916              	.LVL54:
 917              		.loc 2 609 3 is_stmt 1 view .LVU255
 918              	.LBE203:
 919              	.LBE202:
 920              		.loc 1 303 5 is_stmt 0 view .LVU256
 921 001a 0021     		movs	r1, #0
 922              	.LBB205:
 923              	.LBB204:
 924              		.loc 2 609 36 view .LVU257
 925 001c 0368     		ldr	r3, [r0]
 926              		.loc 2 609 25 view .LVU258
 927 001e 2360     		str	r3, [r4]
 928              		.loc 2 610 3 is_stmt 1 view .LVU259
 929              		.loc 2 610 25 is_stmt 0 view .LVU260
 930 0020 5C60     		str	r4, [r3, #4]
 931              		.loc 2 612 3 is_stmt 1 view .LVU261
 932              	.LVL55:
 933              		.loc 2 612 3 is_stmt 0 view .LVU262
 934              	.LBE204:
 935              	.LBE205:
 936              		.loc 1 303 5 view .LVU263
 937 0022 FFF7FEFF 		bl	chSchWakeupS
 938              	.LVL56:
 939              	.L20:
 940              		.loc 1 305 3 is_stmt 1 view .LVU264
 941              	.LBB206:
 942              	.LBI206:
 943              		.loc 3 365 20 view .LVU265
 944              	.LBB207:
 945              		.loc 3 367 22 view .LVU266
 946              		.loc 3 368 3 view .LVU267
 947 0026 FFF7FEFF 		bl	_stats_stop_measure_crit_thd
 948              	.LVL57:
 949              		.loc 3 374 3 view .LVU268
 950              		.loc 3 374 3 view .LVU269
 951              		.loc 3 374 3 view .LVU270
 952              		.loc 3 378 3 view .LVU271
 953              	.LBB208:
 954              	.LBI208:
 955              		.loc 4 626 20 view .LVU272
 956              	.LBE208:
 957              	.LBE207:
 958              	.LBE206:
 959              		.loc 4 629 3 view .LVU273
 960              	.LBB213:
 961              	.LBB212:
 962              	.LBB211:
 963              	.LBB209:
 964              	.LBI209:
 965              		.loc 5 491 27 view .LVU274
 966              	.LBB210:
 967              		.loc 5 493 3 view .LVU275
 968 002a 0023     		movs	r3, #0
 969              		.syntax unified
ARM GAS  /tmp/ccXLP3mN.s 			page 18


 970              	@ 493 "../../modules/ChibiOS/os/common/ext/ARM/CMSIS/Core/Include/cmsis_gcc.h" 1
 971 002c 83F31188 		MSR basepri, r3
 972              	@ 0 "" 2
 973              	.LVL58:
 974              		.loc 5 493 3 is_stmt 0 view .LVU276
 975              		.thumb
 976              		.syntax unified
 977              	.LBE210:
 978              	.LBE209:
 979              	.LBE211:
 980              	.LBE212:
 981              	.LBE213:
 982              		.loc 1 306 1 view .LVU277
 983 0030 10BD     		pop	{r4, pc}
 984              		.loc 1 306 1 view .LVU278
 985              		.cfi_endproc
 986              	.LFE308:
 987              		.size	chSemSignal, .-chSemSignal
 988              		.section	.text.chSemSignalI,"ax",%progbits
 989              		.align	1
 990              		.global	chSemSignalI
 991              		.syntax unified
 992              		.thumb
 993              		.thumb_func
 994              		.fpu fpv4-sp-d16
 995              		.type	chSemSignalI, %function
 996              	chSemSignalI:
 997              	.LVL59:
 998              	.LFB309:
 999              		.loc 1 319 36 is_stmt 1 view -0
 1000              		.cfi_startproc
 1001              		@ args = 0, pretend = 0, frame = 0
 1002              		@ frame_needed = 0, uses_anonymous_args = 0
 1003              		@ link register save eliminated.
 1004              		.loc 1 321 21 view .LVU280
 1005              		.loc 1 322 3 view .LVU281
 1006              		.loc 1 322 3 view .LVU282
 1007              		.loc 1 322 3 view .LVU283
 1008              		.loc 1 323 3 view .LVU284
 1009              		.loc 1 323 3 view .LVU285
 1010              		.loc 1 323 3 view .LVU286
 1011              		.loc 1 327 3 view .LVU287
 1012              		.loc 1 327 7 is_stmt 0 view .LVU288
 1013 0000 8368     		ldr	r3, [r0, #8]
 1014 0002 0133     		adds	r3, r3, #1
 1015              		.loc 1 327 6 view .LVU289
 1016 0004 002B     		cmp	r3, #0
 1017 0006 8360     		str	r3, [r0, #8]
 1018 0008 08DC     		bgt	.L21
 1019              	.LBB214:
 1020              		.loc 1 330 5 is_stmt 1 view .LVU290
 1021              	.LVL60:
 1022              	.LBB215:
 1023              	.LBI215:
 1024              		.loc 2 606 25 view .LVU291
 1025              	.LBB216:
 1026              		.loc 2 607 3 view .LVU292
ARM GAS  /tmp/ccXLP3mN.s 			page 19


 1027              		.loc 2 607 13 is_stmt 0 view .LVU293
 1028 000a 0368     		ldr	r3, [r0]
 1029              	.LVL61:
 1030              		.loc 2 609 3 is_stmt 1 view .LVU294
 1031              		.loc 2 609 36 is_stmt 0 view .LVU295
 1032 000c 1A68     		ldr	r2, [r3]
 1033              		.loc 2 609 25 view .LVU296
 1034 000e 0260     		str	r2, [r0]
 1035              		.loc 2 610 3 is_stmt 1 view .LVU297
 1036              		.loc 2 610 25 is_stmt 0 view .LVU298
 1037 0010 5060     		str	r0, [r2, #4]
 1038              		.loc 2 612 3 is_stmt 1 view .LVU299
 1039              	.LVL62:
 1040              		.loc 2 612 3 is_stmt 0 view .LVU300
 1041              	.LBE216:
 1042              	.LBE215:
 1043              		.loc 1 331 5 is_stmt 1 view .LVU301
 1044              		.loc 1 331 18 is_stmt 0 view .LVU302
 1045 0012 0022     		movs	r2, #0
 1046              		.loc 1 332 12 view .LVU303
 1047 0014 1846     		mov	r0, r3
 1048              	.LVL63:
 1049              		.loc 1 331 18 view .LVU304
 1050 0016 5A62     		str	r2, [r3, #36]
 1051              		.loc 1 332 5 is_stmt 1 view .LVU305
 1052              		.loc 1 332 12 is_stmt 0 view .LVU306
 1053 0018 FFF7FEBF 		b	chSchReadyI
 1054              	.LVL64:
 1055              	.L21:
 1056              		.loc 1 332 12 view .LVU307
 1057              	.LBE214:
 1058              		.loc 1 334 1 view .LVU308
 1059 001c 7047     		bx	lr
 1060              		.cfi_endproc
 1061              	.LFE309:
 1062              		.size	chSemSignalI, .-chSemSignalI
 1063              		.section	.text.chSemAddCounterI,"ax",%progbits
 1064              		.align	1
 1065              		.global	chSemAddCounterI
 1066              		.syntax unified
 1067              		.thumb
 1068              		.thumb_func
 1069              		.fpu fpv4-sp-d16
 1070              		.type	chSemAddCounterI, %function
 1071              	chSemAddCounterI:
 1072              	.LVL65:
 1073              	.LFB310:
 1074              		.loc 1 349 49 is_stmt 1 view -0
 1075              		.cfi_startproc
 1076              		@ args = 0, pretend = 0, frame = 0
 1077              		@ frame_needed = 0, uses_anonymous_args = 0
 1078              		.loc 1 351 21 view .LVU310
 1079              		.loc 1 352 3 view .LVU311
 1080              		.loc 1 352 3 view .LVU312
 1081              		.loc 1 352 3 view .LVU313
 1082              		.loc 1 353 3 view .LVU314
 1083              		.loc 1 353 3 view .LVU315
ARM GAS  /tmp/ccXLP3mN.s 			page 20


 1084              		.loc 1 349 49 is_stmt 0 view .LVU316
 1085 0000 70B5     		push	{r4, r5, r6, lr}
 1086              		.cfi_def_cfa_offset 16
 1087              		.cfi_offset 4, -16
 1088              		.cfi_offset 5, -12
 1089              		.cfi_offset 6, -8
 1090              		.cfi_offset 14, -4
 1091              		.loc 1 349 49 view .LVU317
 1092 0002 0446     		mov	r4, r0
 1093 0004 0D46     		mov	r5, r1
 1094              		.loc 1 359 60 view .LVU318
 1095 0006 0026     		movs	r6, #0
 1096              	.LVL66:
 1097              	.L24:
 1098              		.loc 1 357 9 is_stmt 1 view .LVU319
 1099 0008 002D     		cmp	r5, #0
 1100 000a 00DC     		bgt	.L26
 1101              		.loc 1 363 1 is_stmt 0 view .LVU320
 1102 000c 70BD     		pop	{r4, r5, r6, pc}
 1103              	.LVL67:
 1104              	.L26:
 1105              		.loc 1 358 5 is_stmt 1 view .LVU321
 1106              		.loc 1 358 9 is_stmt 0 view .LVU322
 1107 000e A368     		ldr	r3, [r4, #8]
 1108 0010 0133     		adds	r3, r3, #1
 1109              		.loc 1 358 8 view .LVU323
 1110 0012 002B     		cmp	r3, #0
 1111 0014 A360     		str	r3, [r4, #8]
 1112 0016 06DC     		bgt	.L25
 1113              		.loc 1 359 7 is_stmt 1 view .LVU324
 1114              	.LVL68:
 1115              	.LBB217:
 1116              	.LBI217:
 1117              		.loc 2 606 25 view .LVU325
 1118              	.LBB218:
 1119              		.loc 2 607 3 view .LVU326
 1120              		.loc 2 607 13 is_stmt 0 view .LVU327
 1121 0018 2068     		ldr	r0, [r4]
 1122              	.LVL69:
 1123              		.loc 2 609 3 is_stmt 1 view .LVU328
 1124              		.loc 2 609 36 is_stmt 0 view .LVU329
 1125 001a 0368     		ldr	r3, [r0]
 1126              		.loc 2 609 25 view .LVU330
 1127 001c 2360     		str	r3, [r4]
 1128              		.loc 2 610 3 is_stmt 1 view .LVU331
 1129              		.loc 2 610 25 is_stmt 0 view .LVU332
 1130 001e 5C60     		str	r4, [r3, #4]
 1131              		.loc 2 612 3 is_stmt 1 view .LVU333
 1132              	.LVL70:
 1133              		.loc 2 612 3 is_stmt 0 view .LVU334
 1134              	.LBE218:
 1135              	.LBE217:
 1136              		.loc 1 359 7 view .LVU335
 1137 0020 FFF7FEFF 		bl	chSchReadyI
 1138              	.LVL71:
 1139              		.loc 1 359 60 view .LVU336
 1140 0024 4662     		str	r6, [r0, #36]
ARM GAS  /tmp/ccXLP3mN.s 			page 21


 1141              	.L25:
 1142              		.loc 1 361 5 is_stmt 1 view .LVU337
 1143              		.loc 1 361 6 is_stmt 0 view .LVU338
 1144 0026 013D     		subs	r5, r5, #1
 1145              	.LVL72:
 1146              		.loc 1 361 6 view .LVU339
 1147 0028 EEE7     		b	.L24
 1148              		.cfi_endproc
 1149              	.LFE310:
 1150              		.size	chSemAddCounterI, .-chSemAddCounterI
 1151              		.section	.text.chSemSignalWait,"ax",%progbits
 1152              		.align	1
 1153              		.global	chSemSignalWait
 1154              		.syntax unified
 1155              		.thumb
 1156              		.thumb_func
 1157              		.fpu fpv4-sp-d16
 1158              		.type	chSemSignalWait, %function
 1159              	chSemSignalWait:
 1160              	.LVL73:
 1161              	.LFB311:
 1162              		.loc 1 378 59 is_stmt 1 view -0
 1163              		.cfi_startproc
 1164              		@ args = 0, pretend = 0, frame = 0
 1165              		@ frame_needed = 0, uses_anonymous_args = 0
 1166              		.loc 1 379 3 view .LVU341
 1167              		.loc 1 381 3 view .LVU342
 1168              		.loc 1 381 3 view .LVU343
 1169              		.loc 1 381 3 view .LVU344
 1170              		.loc 1 383 3 view .LVU345
 1171              	.LBB234:
 1172              	.LBI234:
 1173              		.loc 3 353 20 view .LVU346
 1174              	.LBB235:
 1175              		.loc 3 355 3 view .LVU347
 1176              	.LBB236:
 1177              	.LBI236:
 1178              		.loc 4 602 20 view .LVU348
 1179              	.LBE236:
 1180              	.LBE235:
 1181              	.LBE234:
 1182              		.loc 4 610 3 view .LVU349
 1183              	.LBB245:
 1184              	.LBB243:
 1185              	.LBB241:
 1186              	.LBB237:
 1187              	.LBI237:
 1188              		.loc 5 491 27 view .LVU350
 1189              	.LBB238:
 1190              		.loc 5 493 3 view .LVU351
 1191              	.LBE238:
 1192              	.LBE237:
 1193              	.LBE241:
 1194              	.LBE243:
 1195              	.LBE245:
 1196              		.loc 1 378 59 is_stmt 0 view .LVU352
 1197 0000 38B5     		push	{r3, r4, r5, lr}
ARM GAS  /tmp/ccXLP3mN.s 			page 22


 1198              		.cfi_def_cfa_offset 16
 1199              		.cfi_offset 3, -16
 1200              		.cfi_offset 4, -12
 1201              		.cfi_offset 5, -8
 1202              		.cfi_offset 14, -4
 1203              		.loc 1 378 59 view .LVU353
 1204 0002 0546     		mov	r5, r0
 1205 0004 0C46     		mov	r4, r1
 1206              	.LBB246:
 1207              	.LBB244:
 1208              	.LBB242:
 1209              	.LBB240:
 1210              	.LBB239:
 1211              		.loc 5 493 3 view .LVU354
 1212 0006 2023     		movs	r3, #32
 1213              		.syntax unified
 1214              	@ 493 "../../modules/ChibiOS/os/common/ext/ARM/CMSIS/Core/Include/cmsis_gcc.h" 1
 1215 0008 83F31188 		MSR basepri, r3
 1216              	@ 0 "" 2
 1217              	.LVL74:
 1218              		.loc 5 493 3 view .LVU355
 1219              		.thumb
 1220              		.syntax unified
 1221              	.LBE239:
 1222              	.LBE240:
 1223              	.LBE242:
 1224              		.loc 3 356 3 is_stmt 1 view .LVU356
 1225 000c FFF7FEFF 		bl	_stats_start_measure_crit_thd
 1226              	.LVL75:
 1227              		.loc 3 357 20 view .LVU357
 1228              	.LBE244:
 1229              	.LBE246:
 1230              		.loc 1 384 3 view .LVU358
 1231              		.loc 1 384 3 view .LVU359
 1232              		.loc 1 384 3 view .LVU360
 1233              		.loc 1 387 3 view .LVU361
 1234              		.loc 1 387 3 view .LVU362
 1235              		.loc 1 387 3 view .LVU363
 1236              		.loc 1 390 3 view .LVU364
 1237              		.loc 1 390 7 is_stmt 0 view .LVU365
 1238 0010 AB68     		ldr	r3, [r5, #8]
 1239 0012 0133     		adds	r3, r3, #1
 1240              		.loc 1 390 6 view .LVU366
 1241 0014 002B     		cmp	r3, #0
 1242 0016 AB60     		str	r3, [r5, #8]
 1243 0018 07DC     		bgt	.L28
 1244              		.loc 1 391 5 is_stmt 1 view .LVU367
 1245              	.LVL76:
 1246              	.LBB247:
 1247              	.LBI247:
 1248              		.loc 2 606 25 view .LVU368
 1249              	.LBB248:
 1250              		.loc 2 607 3 view .LVU369
 1251              		.loc 2 607 13 is_stmt 0 view .LVU370
 1252 001a 2868     		ldr	r0, [r5]
 1253              	.LVL77:
 1254              		.loc 2 609 3 is_stmt 1 view .LVU371
ARM GAS  /tmp/ccXLP3mN.s 			page 23


 1255              		.loc 2 609 36 is_stmt 0 view .LVU372
 1256 001c 0368     		ldr	r3, [r0]
 1257              		.loc 2 609 25 view .LVU373
 1258 001e 2B60     		str	r3, [r5]
 1259              		.loc 2 610 3 is_stmt 1 view .LVU374
 1260              		.loc 2 610 25 is_stmt 0 view .LVU375
 1261 0020 5D60     		str	r5, [r3, #4]
 1262              		.loc 2 612 3 is_stmt 1 view .LVU376
 1263              	.LVL78:
 1264              		.loc 2 612 3 is_stmt 0 view .LVU377
 1265              	.LBE248:
 1266              	.LBE247:
 1267              		.loc 1 391 5 view .LVU378
 1268 0022 FFF7FEFF 		bl	chSchReadyI
 1269              	.LVL79:
 1270              		.loc 1 391 59 view .LVU379
 1271 0026 0023     		movs	r3, #0
 1272 0028 4362     		str	r3, [r0, #36]
 1273              	.L28:
 1274              		.loc 1 393 3 is_stmt 1 view .LVU380
 1275              		.loc 1 393 7 is_stmt 0 view .LVU381
 1276 002a A368     		ldr	r3, [r4, #8]
 1277 002c 013B     		subs	r3, r3, #1
 1278              		.loc 1 393 6 view .LVU382
 1279 002e 002B     		cmp	r3, #0
 1280 0030 A360     		str	r3, [r4, #8]
 1281 0032 12DA     		bge	.L29
 1282              	.LBB249:
 1283              		.loc 1 394 5 is_stmt 1 view .LVU383
 1284              		.loc 1 394 15 is_stmt 0 view .LVU384
 1285 0034 0B4B     		ldr	r3, .L31
 1286              		.loc 1 397 5 view .LVU385
 1287 0036 0520     		movs	r0, #5
 1288              		.loc 1 394 15 view .LVU386
 1289 0038 9D69     		ldr	r5, [r3, #24]
 1290              	.LVL80:
 1291              		.loc 1 395 5 is_stmt 1 view .LVU387
 1292              	.LBB250:
 1293              	.LBI250:
 1294              		.loc 2 598 20 view .LVU388
 1295              	.LBB251:
 1296              		.loc 2 600 3 view .LVU389
 1297              		.loc 2 601 35 is_stmt 0 view .LVU390
 1298 003a 6368     		ldr	r3, [r4, #4]
 1299              		.loc 2 600 30 view .LVU391
 1300 003c 2C60     		str	r4, [r5]
 1301              		.loc 2 601 3 is_stmt 1 view .LVU392
 1302              		.loc 2 601 30 is_stmt 0 view .LVU393
 1303 003e 6B60     		str	r3, [r5, #4]
 1304              		.loc 2 602 3 is_stmt 1 view .LVU394
 1305              		.loc 2 602 30 is_stmt 0 view .LVU395
 1306 0040 1D60     		str	r5, [r3]
 1307              		.loc 2 603 3 is_stmt 1 view .LVU396
 1308              		.loc 2 603 30 is_stmt 0 view .LVU397
 1309 0042 6560     		str	r5, [r4, #4]
 1310              	.LVL81:
 1311              		.loc 2 603 30 view .LVU398
ARM GAS  /tmp/ccXLP3mN.s 			page 24


 1312              	.LBE251:
 1313              	.LBE250:
 1314              		.loc 1 396 5 is_stmt 1 view .LVU399
 1315              		.loc 1 396 19 is_stmt 0 view .LVU400
 1316 0044 6C62     		str	r4, [r5, #36]
 1317              		.loc 1 397 5 is_stmt 1 view .LVU401
 1318 0046 FFF7FEFF 		bl	chSchGoSleepS
 1319              	.LVL82:
 1320              		.loc 1 398 5 view .LVU402
 1321              		.loc 1 398 9 is_stmt 0 view .LVU403
 1322 004a 6C6A     		ldr	r4, [r5, #36]
 1323              	.LVL83:
 1324              	.L30:
 1325              		.loc 1 398 9 view .LVU404
 1326              	.LBE249:
 1327              		.loc 1 404 3 is_stmt 1 view .LVU405
 1328              	.LBB252:
 1329              	.LBI252:
 1330              		.loc 3 365 20 view .LVU406
 1331              	.LBB253:
 1332              		.loc 3 367 22 view .LVU407
 1333              		.loc 3 368 3 view .LVU408
 1334 004c FFF7FEFF 		bl	_stats_stop_measure_crit_thd
 1335              	.LVL84:
 1336              		.loc 3 374 3 view .LVU409
 1337              		.loc 3 374 3 view .LVU410
 1338              		.loc 3 374 3 view .LVU411
 1339              		.loc 3 378 3 view .LVU412
 1340              	.LBB254:
 1341              	.LBI254:
 1342              		.loc 4 626 20 view .LVU413
 1343              	.LBE254:
 1344              	.LBE253:
 1345              	.LBE252:
 1346              		.loc 4 629 3 view .LVU414
 1347              	.LBB259:
 1348              	.LBB258:
 1349              	.LBB257:
 1350              	.LBB255:
 1351              	.LBI255:
 1352              		.loc 5 491 27 view .LVU415
 1353              	.LBB256:
 1354              		.loc 5 493 3 view .LVU416
 1355 0050 0023     		movs	r3, #0
 1356              		.syntax unified
 1357              	@ 493 "../../modules/ChibiOS/os/common/ext/ARM/CMSIS/Core/Include/cmsis_gcc.h" 1
 1358 0052 83F31188 		MSR basepri, r3
 1359              	@ 0 "" 2
 1360              	.LVL85:
 1361              		.loc 5 493 3 is_stmt 0 view .LVU417
 1362              		.thumb
 1363              		.syntax unified
 1364              	.LBE256:
 1365              	.LBE255:
 1366              	.LBE257:
 1367              	.LBE258:
 1368              	.LBE259:
ARM GAS  /tmp/ccXLP3mN.s 			page 25


 1369              		.loc 1 406 3 is_stmt 1 view .LVU418
 1370              		.loc 1 407 1 is_stmt 0 view .LVU419
 1371 0056 2046     		mov	r0, r4
 1372 0058 38BD     		pop	{r3, r4, r5, pc}
 1373              	.LVL86:
 1374              	.L29:
 1375              		.loc 1 401 5 is_stmt 1 view .LVU420
 1376              		.loc 1 402 9 is_stmt 0 view .LVU421
 1377 005a 0024     		movs	r4, #0
 1378              	.LVL87:
 1379              		.loc 1 401 5 view .LVU422
 1380 005c FFF7FEFF 		bl	chSchRescheduleS
 1381              	.LVL88:
 1382              		.loc 1 402 5 is_stmt 1 view .LVU423
 1383              		.loc 1 402 5 is_stmt 0 view .LVU424
 1384 0060 F4E7     		b	.L30
 1385              	.L32:
 1386 0062 00BF     		.align	2
 1387              	.L31:
 1388 0064 00000000 		.word	ch
 1389              		.cfi_endproc
 1390              	.LFE311:
 1391              		.size	chSemSignalWait, .-chSemSignalWait
 1392              		.text
 1393              	.Letext0:
 1394              		.file 6 "/opt/gcc-arm-none-eabi-10-2020-q4-major/arm-none-eabi/include/machine/_default_types.h"
 1395              		.file 7 "/opt/gcc-arm-none-eabi-10-2020-q4-major/arm-none-eabi/include/sys/_stdint.h"
 1396              		.file 8 "../../modules/ChibiOS/os/common/ports/ARMCMx/compilers/GCC/chtypes.h"
 1397              		.file 9 "../../modules/ChibiOS/os/rt/include/chsystypes.h"
 1398              		.file 10 "../../modules/ChibiOS/os/rt/include/chtime.h"
 1399              		.file 11 "../../modules/ChibiOS/os/common/ports/ARMCMx/chcore.h"
 1400              		.file 12 "../../modules/ChibiOS/os/rt/include/chtm.h"
 1401              		.file 13 "../../modules/ChibiOS/os/rt/include/chstats.h"
 1402              		.file 14 "../../modules/ChibiOS/os/rt/include/chsem.h"
 1403              		.file 15 "../../modules/ChibiOS/os/rt/include/chmtx.h"