ARM GAS  /tmp/ccomGlrN.s 			page 1


   1              		.cpu cortex-m7
   2              		.eabi_attribute 27, 1
   3              		.eabi_attribute 28, 1
   4              		.eabi_attribute 20, 1
   5              		.eabi_attribute 21, 1
   6              		.eabi_attribute 23, 3
   7              		.eabi_attribute 24, 1
   8              		.eabi_attribute 25, 1
   9              		.eabi_attribute 26, 1
  10              		.eabi_attribute 30, 4
  11              		.eabi_attribute 34, 1
  12              		.eabi_attribute 18, 4
  13              		.file	"chstats.c"
  14              		.text
  15              	.Ltext0:
  16              		.cfi_sections	.debug_frame
  17              		.section	.text._stats_init,"ax",%progbits
  18              		.align	1
  19              		.global	_stats_init
  20              		.arch armv7e-m
  21              		.syntax unified
  22              		.thumb
  23              		.thumb_func
  24              		.fpu fpv4-sp-d16
  25              		.type	_stats_init, %function
  26              	_stats_init:
  27              	.LFB301:
  28              		.file 1 "../../modules/ChibiOS/os/rt/src/chstats.c"
  29              		.loc 1 62 24 view -0
  30              		.cfi_startproc
  31              		@ args = 0, pretend = 0, frame = 0
  32              		@ frame_needed = 0, uses_anonymous_args = 0
  33              		.loc 1 64 3 view .LVU1
  34              		.loc 1 62 24 is_stmt 0 view .LVU2
  35 0000 10B5     		push	{r4, lr}
  36              		.cfi_def_cfa_offset 8
  37              		.cfi_offset 4, -8
  38              		.cfi_offset 14, -4
  39              		.loc 1 64 25 view .LVU3
  40 0002 074C     		ldr	r4, .L2
  41 0004 0023     		movs	r3, #0
  42              		.loc 1 66 3 view .LVU4
  43 0006 04F1A000 		add	r0, r4, #160
  44              		.loc 1 65 28 view .LVU5
  45 000a C4E92633 		strd	r3, r3, [r4, #152]
  46              		.loc 1 66 3 is_stmt 1 view .LVU6
  47 000e FFF7FEFF 		bl	chTMObjectInit
  48              	.LVL0:
  49              		.loc 1 67 3 view .LVU7
  50 0012 04F1B800 		add	r0, r4, #184
  51              		.loc 1 68 1 is_stmt 0 view .LVU8
  52 0016 BDE81040 		pop	{r4, lr}
  53              		.cfi_restore 14
  54              		.cfi_restore 4
  55              		.cfi_def_cfa_offset 0
  56              		.loc 1 67 3 view .LVU9
  57 001a FFF7FEBF 		b	chTMObjectInit
ARM GAS  /tmp/ccomGlrN.s 			page 2


  58              	.LVL1:
  59              	.L3:
  60 001e 00BF     		.align	2
  61              	.L2:
  62 0020 00000000 		.word	ch
  63              		.cfi_endproc
  64              	.LFE301:
  65              		.size	_stats_init, .-_stats_init
  66              		.section	.text._stats_increase_irq,"ax",%progbits
  67              		.align	1
  68              		.global	_stats_increase_irq
  69              		.syntax unified
  70              		.thumb
  71              		.thumb_func
  72              		.fpu fpv4-sp-d16
  73              		.type	_stats_increase_irq, %function
  74              	_stats_increase_irq:
  75              	.LFB302:
  76              		.loc 1 73 32 is_stmt 1 view -0
  77              		.cfi_startproc
  78              		@ args = 0, pretend = 0, frame = 0
  79              		@ frame_needed = 0, uses_anonymous_args = 0
  80              		@ link register save eliminated.
  81              		.loc 1 75 3 view .LVU11
  82              	.LBB24:
  83              	.LBI24:
  84              		.file 2 "../../modules/ChibiOS/os/common/ports/ARMCMx/chcore_v7m.h"
  85              		.loc 2 641 20 view .LVU12
  86              	.LBE24:
  87              		.loc 2 643 3 view .LVU13
  88              	.LBB29:
  89              	.LBB25:
  90              	.LBI25:
  91              		.loc 2 602 20 view .LVU14
  92              	.LBE25:
  93              	.LBE29:
  94              		.loc 2 610 3 view .LVU15
  95              	.LVL2:
  96              	.LBB30:
  97              	.LBB28:
  98              	.LBB26:
  99              	.LBI26:
 100              		.file 3 "../../modules/ChibiOS/os/common/ext/ARM/CMSIS/Core/Include/cmsis_gcc.h"
 101              		.loc 3 491 27 view .LVU16
 102              	.LBB27:
 103              		.loc 3 493 3 view .LVU17
 104 0000 2023     		movs	r3, #32
 105              		.syntax unified
 106              	@ 493 "../../modules/ChibiOS/os/common/ext/ARM/CMSIS/Core/Include/cmsis_gcc.h" 1
 107 0002 83F31188 		MSR basepri, r3
 108              	@ 0 "" 2
 109              	.LVL3:
 110              		.loc 3 493 3 is_stmt 0 view .LVU18
 111              		.thumb
 112              		.syntax unified
 113              	.LBE27:
 114              	.LBE26:
ARM GAS  /tmp/ccomGlrN.s 			page 3


 115              	.LBE28:
 116              	.LBE30:
 117              		.loc 1 76 3 is_stmt 1 view .LVU19
 118              		.loc 1 76 24 is_stmt 0 view .LVU20
 119 0006 054A     		ldr	r2, .L5
 120 0008 D2F89830 		ldr	r3, [r2, #152]
 121 000c 0133     		adds	r3, r3, #1
 122 000e C2F89830 		str	r3, [r2, #152]
 123              		.loc 1 77 3 is_stmt 1 view .LVU21
 124              	.LBB31:
 125              	.LBI31:
 126              		.loc 2 652 20 view .LVU22
 127              	.LBE31:
 128              		.loc 2 654 3 view .LVU23
 129              	.LBB36:
 130              	.LBB32:
 131              	.LBI32:
 132              		.loc 2 626 20 view .LVU24
 133              	.LBE32:
 134              	.LBE36:
 135              		.loc 2 629 3 view .LVU25
 136              	.LVL4:
 137              	.LBB37:
 138              	.LBB35:
 139              	.LBB33:
 140              	.LBI33:
 141              		.loc 3 491 27 view .LVU26
 142              	.LBB34:
 143              		.loc 3 493 3 view .LVU27
 144 0012 0023     		movs	r3, #0
 145              		.syntax unified
 146              	@ 493 "../../modules/ChibiOS/os/common/ext/ARM/CMSIS/Core/Include/cmsis_gcc.h" 1
 147 0014 83F31188 		MSR basepri, r3
 148              	@ 0 "" 2
 149              	.LVL5:
 150              		.loc 3 493 3 is_stmt 0 view .LVU28
 151              		.thumb
 152              		.syntax unified
 153              	.LBE34:
 154              	.LBE33:
 155              	.LBE35:
 156              	.LBE37:
 157              		.loc 1 78 1 view .LVU29
 158 0018 7047     		bx	lr
 159              	.L6:
 160 001a 00BF     		.align	2
 161              	.L5:
 162 001c 00000000 		.word	ch
 163              		.cfi_endproc
 164              	.LFE302:
 165              		.size	_stats_increase_irq, .-_stats_increase_irq
 166              		.section	.text._stats_ctxswc,"ax",%progbits
 167              		.align	1
 168              		.global	_stats_ctxswc
 169              		.syntax unified
 170              		.thumb
 171              		.thumb_func
ARM GAS  /tmp/ccomGlrN.s 			page 4


 172              		.fpu fpv4-sp-d16
 173              		.type	_stats_ctxswc, %function
 174              	_stats_ctxswc:
 175              	.LVL6:
 176              	.LFB303:
 177              		.loc 1 86 50 is_stmt 1 view -0
 178              		.cfi_startproc
 179              		@ args = 0, pretend = 0, frame = 0
 180              		@ frame_needed = 0, uses_anonymous_args = 0
 181              		@ link register save eliminated.
 182              		.loc 1 88 3 view .LVU31
 183              		.loc 1 88 27 is_stmt 0 view .LVU32
 184 0000 074A     		ldr	r2, .L8
 185 0002 D2F89C30 		ldr	r3, [r2, #156]
 186              		.loc 1 86 50 view .LVU33
 187 0006 10B4     		push	{r4}
 188              		.cfi_def_cfa_offset 4
 189              		.cfi_offset 4, -4
 190              		.loc 1 86 50 view .LVU34
 191 0008 0C46     		mov	r4, r1
 192              		.loc 1 88 27 view .LVU35
 193 000a 0133     		adds	r3, r3, #1
 194              		.loc 1 89 3 view .LVU36
 195 000c 00F14801 		add	r1, r0, #72
 196              	.LVL7:
 197              		.loc 1 89 3 view .LVU37
 198 0010 04F14800 		add	r0, r4, #72
 199              	.LVL8:
 200              		.loc 1 90 1 view .LVU38
 201 0014 5DF8044B 		ldr	r4, [sp], #4
 202              		.cfi_restore 4
 203              		.cfi_def_cfa_offset 0
 204              	.LVL9:
 205              		.loc 1 88 27 view .LVU39
 206 0018 C2F89C30 		str	r3, [r2, #156]
 207              		.loc 1 89 3 is_stmt 1 view .LVU40
 208 001c FFF7FEBF 		b	chTMChainMeasurementToX
 209              	.LVL10:
 210              	.L9:
 211              		.loc 1 89 3 is_stmt 0 view .LVU41
 212              		.align	2
 213              	.L8:
 214 0020 00000000 		.word	ch
 215              		.cfi_endproc
 216              	.LFE303:
 217              		.size	_stats_ctxswc, .-_stats_ctxswc
 218              		.section	.text._stats_start_measure_crit_thd,"ax",%progbits
 219              		.align	1
 220              		.global	_stats_start_measure_crit_thd
 221              		.syntax unified
 222              		.thumb
 223              		.thumb_func
 224              		.fpu fpv4-sp-d16
 225              		.type	_stats_start_measure_crit_thd, %function
 226              	_stats_start_measure_crit_thd:
 227              	.LFB304:
 228              		.loc 1 95 42 is_stmt 1 view -0
ARM GAS  /tmp/ccomGlrN.s 			page 5


 229              		.cfi_startproc
 230              		@ args = 0, pretend = 0, frame = 0
 231              		@ frame_needed = 0, uses_anonymous_args = 0
 232              		@ link register save eliminated.
 233              		.loc 1 97 3 view .LVU43
 234 0000 0148     		ldr	r0, .L11
 235 0002 FFF7FEBF 		b	chTMStartMeasurementX
 236              	.LVL11:
 237              	.L12:
 238 0006 00BF     		.align	2
 239              	.L11:
 240 0008 A0000000 		.word	ch+160
 241              		.cfi_endproc
 242              	.LFE304:
 243              		.size	_stats_start_measure_crit_thd, .-_stats_start_measure_crit_thd
 244              		.section	.text._stats_stop_measure_crit_thd,"ax",%progbits
 245              		.align	1
 246              		.global	_stats_stop_measure_crit_thd
 247              		.syntax unified
 248              		.thumb
 249              		.thumb_func
 250              		.fpu fpv4-sp-d16
 251              		.type	_stats_stop_measure_crit_thd, %function
 252              	_stats_stop_measure_crit_thd:
 253              	.LFB305:
 254              		.loc 1 103 41 view -0
 255              		.cfi_startproc
 256              		@ args = 0, pretend = 0, frame = 0
 257              		@ frame_needed = 0, uses_anonymous_args = 0
 258              		@ link register save eliminated.
 259              		.loc 1 105 3 view .LVU45
 260 0000 0148     		ldr	r0, .L14
 261 0002 FFF7FEBF 		b	chTMStopMeasurementX
 262              	.LVL12:
 263              	.L15:
 264 0006 00BF     		.align	2
 265              	.L14:
 266 0008 A0000000 		.word	ch+160
 267              		.cfi_endproc
 268              	.LFE305:
 269              		.size	_stats_stop_measure_crit_thd, .-_stats_stop_measure_crit_thd
 270              		.section	.text._stats_start_measure_crit_isr,"ax",%progbits
 271              		.align	1
 272              		.global	_stats_start_measure_crit_isr
 273              		.syntax unified
 274              		.thumb
 275              		.thumb_func
 276              		.fpu fpv4-sp-d16
 277              		.type	_stats_start_measure_crit_isr, %function
 278              	_stats_start_measure_crit_isr:
 279              	.LFB306:
 280              		.loc 1 111 42 view -0
 281              		.cfi_startproc
 282              		@ args = 0, pretend = 0, frame = 0
 283              		@ frame_needed = 0, uses_anonymous_args = 0
 284              		@ link register save eliminated.
 285              		.loc 1 113 3 view .LVU47
ARM GAS  /tmp/ccomGlrN.s 			page 6


 286 0000 0148     		ldr	r0, .L17
 287 0002 FFF7FEBF 		b	chTMStartMeasurementX
 288              	.LVL13:
 289              	.L18:
 290 0006 00BF     		.align	2
 291              	.L17:
 292 0008 B8000000 		.word	ch+184
 293              		.cfi_endproc
 294              	.LFE306:
 295              		.size	_stats_start_measure_crit_isr, .-_stats_start_measure_crit_isr
 296              		.section	.text._stats_stop_measure_crit_isr,"ax",%progbits
 297              		.align	1
 298              		.global	_stats_stop_measure_crit_isr
 299              		.syntax unified
 300              		.thumb
 301              		.thumb_func
 302              		.fpu fpv4-sp-d16
 303              		.type	_stats_stop_measure_crit_isr, %function
 304              	_stats_stop_measure_crit_isr:
 305              	.LFB307:
 306              		.loc 1 119 41 view -0
 307              		.cfi_startproc
 308              		@ args = 0, pretend = 0, frame = 0
 309              		@ frame_needed = 0, uses_anonymous_args = 0
 310              		@ link register save eliminated.
 311              		.loc 1 121 3 view .LVU49
 312 0000 0148     		ldr	r0, .L20
 313 0002 FFF7FEBF 		b	chTMStopMeasurementX
 314              	.LVL14:
 315              	.L21:
 316 0006 00BF     		.align	2
 317              	.L20:
 318 0008 B8000000 		.word	ch+184
 319              		.cfi_endproc
 320              	.LFE307:
 321              		.size	_stats_stop_measure_crit_isr, .-_stats_stop_measure_crit_isr
 322              		.text
 323              	.Letext0:
 324              		.file 4 "/opt/gcc-arm-none-eabi-10-2020-q4-major/arm-none-eabi/include/machine/_default_types.h"
 325              		.file 5 "/opt/gcc-arm-none-eabi-10-2020-q4-major/arm-none-eabi/include/sys/_stdint.h"
 326              		.file 6 "../../modules/ChibiOS/os/common/ports/ARMCMx/compilers/GCC/chtypes.h"
 327              		.file 7 "../../modules/ChibiOS/os/rt/include/chsystypes.h"
 328              		.file 8 "../../modules/ChibiOS/os/rt/include/chschd.h"
 329              		.file 9 "../../modules/ChibiOS/os/rt/include/chtime.h"
 330              		.file 10 "../../modules/ChibiOS/os/common/ports/ARMCMx/chcore.h"
 331              		.file 11 "../../modules/ChibiOS/os/rt/include/chtm.h"
 332              		.file 12 "../../modules/ChibiOS/os/rt/include/chstats.h"
 333              		.file 13 "../../modules/ChibiOS/os/rt/include/chsem.h"
 334              		.file 14 "../../modules/ChibiOS/os/rt/include/chmtx.h"
 335              		.section	.debug_info,"",%progbits
 336              	.Ldebug_info0:
 337 0000 6F0A0000 		.4byte	0xa6f
 338 0004 0400     		.2byte	0x4
 339 0006 00000000 		.4byte	.Ldebug_abbrev0
 340 000a 04       		.byte	0x4
 341 000b 01       		.uleb128 0x1
 342 000c 14050000 		.4byte	.LASF120
ARM GAS  /tmp/ccomGlrN.s 			page 7


 343 0010 0C       		.byte	0xc
 344 0011 8F060000 		.4byte	.LASF121
 345 0015 3D040000 		.4byte	.LASF122
 346 0019 40000000 		.4byte	.Ldebug_ranges0+0x40
 347 001d 00000000 		.4byte	0
 348 0021 00000000 		.4byte	.Ldebug_line0
 349 0025 02       		.uleb128 0x2
 350 0026 04       		.byte	0x4
 351 0027 05       		.byte	0x5
 352 0028 696E7400 		.ascii	"int\000"
 353 002c 03       		.uleb128 0x3
 354 002d 04       		.byte	0x4
 355 002e 07       		.byte	0x7
 356 002f CE010000 		.4byte	.LASF0
 357 0033 03       		.uleb128 0x3
 358 0034 08       		.byte	0x8
 359 0035 05       		.byte	0x5
 360 0036 FA000000 		.4byte	.LASF1
 361 003a 03       		.uleb128 0x3
 362 003b 08       		.byte	0x8
 363 003c 04       		.byte	0x4
 364 003d FA020000 		.4byte	.LASF2
 365 0041 03       		.uleb128 0x3
 366 0042 01       		.byte	0x1
 367 0043 06       		.byte	0x6
 368 0044 08010000 		.4byte	.LASF3
 369 0048 04       		.uleb128 0x4
 370 0049 36000000 		.4byte	.LASF7
 371 004d 04       		.byte	0x4
 372 004e 2B       		.byte	0x2b
 373 004f 18       		.byte	0x18
 374 0050 54000000 		.4byte	0x54
 375 0054 03       		.uleb128 0x3
 376 0055 01       		.byte	0x1
 377 0056 08       		.byte	0x8
 378 0057 A1030000 		.4byte	.LASF4
 379 005b 03       		.uleb128 0x3
 380 005c 02       		.byte	0x2
 381 005d 05       		.byte	0x5
 382 005e AF030000 		.4byte	.LASF5
 383 0062 03       		.uleb128 0x3
 384 0063 02       		.byte	0x2
 385 0064 07       		.byte	0x7
 386 0065 F4010000 		.4byte	.LASF6
 387 0069 04       		.uleb128 0x4
 388 006a 7C040000 		.4byte	.LASF8
 389 006e 04       		.byte	0x4
 390 006f 4D       		.byte	0x4d
 391 0070 18       		.byte	0x18
 392 0071 75000000 		.4byte	0x75
 393 0075 03       		.uleb128 0x3
 394 0076 04       		.byte	0x4
 395 0077 05       		.byte	0x5
 396 0078 60010000 		.4byte	.LASF9
 397 007c 04       		.uleb128 0x4
 398 007d 7D010000 		.4byte	.LASF10
 399 0081 04       		.byte	0x4
ARM GAS  /tmp/ccomGlrN.s 			page 8


 400 0082 4F       		.byte	0x4f
 401 0083 19       		.byte	0x19
 402 0084 88000000 		.4byte	0x88
 403 0088 03       		.uleb128 0x3
 404 0089 04       		.byte	0x4
 405 008a 07       		.byte	0x7
 406 008b 2B040000 		.4byte	.LASF11
 407 008f 04       		.uleb128 0x4
 408 0090 4F030000 		.4byte	.LASF12
 409 0094 04       		.byte	0x4
 410 0095 69       		.byte	0x69
 411 0096 19       		.byte	0x19
 412 0097 9B000000 		.4byte	0x9b
 413 009b 03       		.uleb128 0x3
 414 009c 08       		.byte	0x8
 415 009d 07       		.byte	0x7
 416 009e 94000000 		.4byte	.LASF13
 417 00a2 04       		.uleb128 0x4
 418 00a3 16060000 		.4byte	.LASF14
 419 00a7 05       		.byte	0x5
 420 00a8 18       		.byte	0x18
 421 00a9 13       		.byte	0x13
 422 00aa 48000000 		.4byte	0x48
 423 00ae 04       		.uleb128 0x4
 424 00af 99030000 		.4byte	.LASF15
 425 00b3 05       		.byte	0x5
 426 00b4 2C       		.byte	0x2c
 427 00b5 13       		.byte	0x13
 428 00b6 69000000 		.4byte	0x69
 429 00ba 04       		.uleb128 0x4
 430 00bb F8030000 		.4byte	.LASF16
 431 00bf 05       		.byte	0x5
 432 00c0 30       		.byte	0x30
 433 00c1 14       		.byte	0x14
 434 00c2 7C000000 		.4byte	0x7c
 435 00c6 04       		.uleb128 0x4
 436 00c7 20000000 		.4byte	.LASF17
 437 00cb 05       		.byte	0x5
 438 00cc 3C       		.byte	0x3c
 439 00cd 14       		.byte	0x14
 440 00ce 8F000000 		.4byte	0x8f
 441 00d2 04       		.uleb128 0x4
 442 00d3 C8020000 		.4byte	.LASF18
 443 00d7 06       		.byte	0x6
 444 00d8 27       		.byte	0x27
 445 00d9 1D       		.byte	0x1d
 446 00da BA000000 		.4byte	0xba
 447 00de 04       		.uleb128 0x4
 448 00df F1000000 		.4byte	.LASF19
 449 00e3 06       		.byte	0x6
 450 00e4 28       		.byte	0x28
 451 00e5 1D       		.byte	0x1d
 452 00e6 C6000000 		.4byte	0xc6
 453 00ea 04       		.uleb128 0x4
 454 00eb 4C020000 		.4byte	.LASF20
 455 00ef 06       		.byte	0x6
 456 00f0 2A       		.byte	0x2a
ARM GAS  /tmp/ccomGlrN.s 			page 9


 457 00f1 1D       		.byte	0x1d
 458 00f2 A2000000 		.4byte	0xa2
 459 00f6 04       		.uleb128 0x4
 460 00f7 69010000 		.4byte	.LASF21
 461 00fb 06       		.byte	0x6
 462 00fc 2B       		.byte	0x2b
 463 00fd 1D       		.byte	0x1d
 464 00fe A2000000 		.4byte	0xa2
 465 0102 04       		.uleb128 0x4
 466 0103 65030000 		.4byte	.LASF22
 467 0107 06       		.byte	0x6
 468 0108 2C       		.byte	0x2c
 469 0109 1D       		.byte	0x1d
 470 010a A2000000 		.4byte	0xa2
 471 010e 04       		.uleb128 0x4
 472 010f 82030000 		.4byte	.LASF23
 473 0113 06       		.byte	0x6
 474 0114 2E       		.byte	0x2e
 475 0115 1D       		.byte	0x1d
 476 0116 BA000000 		.4byte	0xba
 477 011a 04       		.uleb128 0x4
 478 011b 25020000 		.4byte	.LASF24
 479 011f 06       		.byte	0x6
 480 0120 2F       		.byte	0x2f
 481 0121 1D       		.byte	0x1d
 482 0122 AE000000 		.4byte	0xae
 483 0126 04       		.uleb128 0x4
 484 0127 6D020000 		.4byte	.LASF25
 485 012b 06       		.byte	0x6
 486 012c 31       		.byte	0x31
 487 012d 1D       		.byte	0x1d
 488 012e BA000000 		.4byte	0xba
 489 0132 04       		.uleb128 0x4
 490 0133 BF010000 		.4byte	.LASF26
 491 0137 06       		.byte	0x6
 492 0138 33       		.byte	0x33
 493 0139 1D       		.byte	0x1d
 494 013a AE000000 		.4byte	0xae
 495 013e 04       		.uleb128 0x4
 496 013f 30020000 		.4byte	.LASF27
 497 0143 06       		.byte	0x6
 498 0144 34       		.byte	0x34
 499 0145 1D       		.byte	0x1d
 500 0146 BA000000 		.4byte	0xba
 501 014a 04       		.uleb128 0x4
 502 014b A2040000 		.4byte	.LASF28
 503 014f 07       		.byte	0x7
 504 0150 34       		.byte	0x34
 505 0151 1A       		.byte	0x1a
 506 0152 56010000 		.4byte	0x156
 507 0156 05       		.uleb128 0x5
 508 0157 1B020000 		.4byte	.LASF47
 509 015b 60       		.byte	0x60
 510 015c 08       		.byte	0x8
 511 015d 8E       		.byte	0x8e
 512 015e 08       		.byte	0x8
 513 015f 54020000 		.4byte	0x254
ARM GAS  /tmp/ccomGlrN.s 			page 10


 514 0163 06       		.uleb128 0x6
 515 0164 E8010000 		.4byte	.LASF29
 516 0168 08       		.byte	0x8
 517 0169 8F       		.byte	0x8f
 518 016a 19       		.byte	0x19
 519 016b 8D020000 		.4byte	0x28d
 520 016f 00       		.byte	0
 521 0170 06       		.uleb128 0x6
 522 0171 24030000 		.4byte	.LASF30
 523 0175 08       		.byte	0x8
 524 0176 90       		.byte	0x90
 525 0177 19       		.byte	0x19
 526 0178 0E010000 		.4byte	0x10e
 527 017c 08       		.byte	0x8
 528 017d 07       		.uleb128 0x7
 529 017e 63747800 		.ascii	"ctx\000"
 530 0182 08       		.byte	0x8
 531 0183 91       		.byte	0x91
 532 0184 19       		.byte	0x19
 533 0185 CA040000 		.4byte	0x4ca
 534 0189 0C       		.byte	0xc
 535 018a 06       		.uleb128 0x6
 536 018b 9C020000 		.4byte	.LASF31
 537 018f 08       		.byte	0x8
 538 0190 93       		.byte	0x93
 539 0191 1A       		.byte	0x1a
 540 0192 60020000 		.4byte	0x260
 541 0196 10       		.byte	0x10
 542 0197 06       		.uleb128 0x6
 543 0198 76040000 		.4byte	.LASF32
 544 019c 08       		.byte	0x8
 545 019d 94       		.byte	0x94
 546 019e 1A       		.byte	0x1a
 547 019f 60020000 		.4byte	0x260
 548 01a3 14       		.byte	0x14
 549 01a4 06       		.uleb128 0x6
 550 01a5 16020000 		.4byte	.LASF33
 551 01a9 08       		.byte	0x8
 552 01aa 9B       		.byte	0x9b
 553 01ab 1A       		.byte	0x1a
 554 01ac F9070000 		.4byte	0x7f9
 555 01b0 18       		.byte	0x18
 556 01b1 06       		.uleb128 0x6
 557 01b2 D3030000 		.4byte	.LASF34
 558 01b6 08       		.byte	0x8
 559 01b7 A4       		.byte	0xa4
 560 01b8 1A       		.byte	0x1a
 561 01b9 10080000 		.4byte	0x810
 562 01bd 1C       		.byte	0x1c
 563 01be 06       		.uleb128 0x6
 564 01bf 45010000 		.4byte	.LASF35
 565 01c3 08       		.byte	0x8
 566 01c4 A9       		.byte	0xa9
 567 01c5 19       		.byte	0x19
 568 01c6 F6000000 		.4byte	0xf6
 569 01ca 20       		.byte	0x20
 570 01cb 06       		.uleb128 0x6
ARM GAS  /tmp/ccomGlrN.s 			page 11


 571 01cc 1E060000 		.4byte	.LASF36
 572 01d0 08       		.byte	0x8
 573 01d1 AD       		.byte	0xad
 574 01d2 19       		.byte	0x19
 575 01d3 EA000000 		.4byte	0xea
 576 01d7 21       		.byte	0x21
 577 01d8 06       		.uleb128 0x6
 578 01d9 6D030000 		.4byte	.LASF37
 579 01dd 08       		.byte	0x8
 580 01de B2       		.byte	0xb2
 581 01df 19       		.byte	0x19
 582 01e0 02010000 		.4byte	0x102
 583 01e4 22       		.byte	0x22
 584 01e5 08       		.uleb128 0x8
 585 01e6 7500     		.ascii	"u\000"
 586 01e8 08       		.byte	0x8
 587 01e9 0301     		.2byte	0x103
 588 01eb 19       		.byte	0x19
 589 01ec 12070000 		.4byte	0x712
 590 01f0 24       		.byte	0x24
 591 01f1 09       		.uleb128 0x9
 592 01f2 A1010000 		.4byte	.LASF38
 593 01f6 08       		.byte	0x8
 594 01f7 0801     		.2byte	0x108
 595 01f9 19       		.byte	0x19
 596 01fa 66020000 		.4byte	0x266
 597 01fe 28       		.byte	0x28
 598 01ff 09       		.uleb128 0x9
 599 0200 C5010000 		.4byte	.LASF39
 600 0204 08       		.byte	0x8
 601 0205 0E01     		.2byte	0x10e
 602 0207 19       		.byte	0x19
 603 0208 8D020000 		.4byte	0x28d
 604 020c 2C       		.byte	0x2c
 605 020d 09       		.uleb128 0x9
 606 020e 37020000 		.4byte	.LASF40
 607 0212 08       		.byte	0x8
 608 0213 1401     		.2byte	0x114
 609 0215 19       		.byte	0x19
 610 0216 26010000 		.4byte	0x126
 611 021a 34       		.byte	0x34
 612 021b 09       		.uleb128 0x9
 613 021c B9060000 		.4byte	.LASF41
 614 0220 08       		.byte	0x8
 615 0221 1B01     		.2byte	0x11b
 616 0223 1A       		.byte	0x1a
 617 0224 F3070000 		.4byte	0x7f3
 618 0228 38       		.byte	0x38
 619 0229 09       		.uleb128 0x9
 620 022a A2020000 		.4byte	.LASF42
 621 022e 08       		.byte	0x8
 622 022f 1F01     		.2byte	0x11f
 623 0231 19       		.byte	0x19
 624 0232 0E010000 		.4byte	0x10e
 625 0236 3C       		.byte	0x3c
 626 0237 09       		.uleb128 0x9
 627 0238 EE010000 		.4byte	.LASF43
ARM GAS  /tmp/ccomGlrN.s 			page 12


 628 023c 08       		.byte	0x8
 629 023d 2601     		.2byte	0x126
 630 023f 1A       		.byte	0x1a
 631 0240 4D030000 		.4byte	0x34d
 632 0244 40       		.byte	0x40
 633 0245 09       		.uleb128 0x9
 634 0246 77010000 		.4byte	.LASF44
 635 024a 08       		.byte	0x8
 636 024b 2C01     		.2byte	0x12c
 637 024d 19       		.byte	0x19
 638 024e BC060000 		.4byte	0x6bc
 639 0252 48       		.byte	0x48
 640 0253 00       		.byte	0
 641 0254 04       		.uleb128 0x4
 642 0255 D0020000 		.4byte	.LASF45
 643 0259 07       		.byte	0x7
 644 025a 39       		.byte	0x39
 645 025b 14       		.byte	0x14
 646 025c 60020000 		.4byte	0x260
 647 0260 0A       		.uleb128 0xa
 648 0261 04       		.byte	0x4
 649 0262 4A010000 		.4byte	0x14a
 650 0266 04       		.uleb128 0x4
 651 0267 57060000 		.4byte	.LASF46
 652 026b 07       		.byte	0x7
 653 026c 3E       		.byte	0x3e
 654 026d 20       		.byte	0x20
 655 026e 72020000 		.4byte	0x272
 656 0272 05       		.uleb128 0x5
 657 0273 15040000 		.4byte	.LASF48
 658 0277 04       		.byte	0x4
 659 0278 08       		.byte	0x8
 660 0279 7C       		.byte	0x7c
 661 027a 08       		.byte	0x8
 662 027b 8D020000 		.4byte	0x28d
 663 027f 06       		.uleb128 0x6
 664 0280 EC000000 		.4byte	.LASF49
 665 0284 08       		.byte	0x8
 666 0285 7D       		.byte	0x7d
 667 0286 1A       		.byte	0x1a
 668 0287 60020000 		.4byte	0x260
 669 028b 00       		.byte	0
 670 028c 00       		.byte	0
 671 028d 04       		.uleb128 0x4
 672 028e F5040000 		.4byte	.LASF50
 673 0292 07       		.byte	0x7
 674 0293 45       		.byte	0x45
 675 0294 21       		.byte	0x21
 676 0295 99020000 		.4byte	0x299
 677 0299 05       		.uleb128 0x5
 678 029a 51000000 		.4byte	.LASF51
 679 029e 08       		.byte	0x8
 680 029f 08       		.byte	0x8
 681 02a0 83       		.byte	0x83
 682 02a1 08       		.byte	0x8
 683 02a2 C1020000 		.4byte	0x2c1
 684 02a6 06       		.uleb128 0x6
ARM GAS  /tmp/ccomGlrN.s 			page 13


 685 02a7 EC000000 		.4byte	.LASF49
 686 02ab 08       		.byte	0x8
 687 02ac 84       		.byte	0x84
 688 02ad 1A       		.byte	0x1a
 689 02ae 60020000 		.4byte	0x260
 690 02b2 00       		.byte	0
 691 02b3 06       		.uleb128 0x6
 692 02b4 40000000 		.4byte	.LASF52
 693 02b8 08       		.byte	0x8
 694 02b9 85       		.byte	0x85
 695 02ba 1A       		.byte	0x1a
 696 02bb 60020000 		.4byte	0x260
 697 02bf 04       		.byte	0x4
 698 02c0 00       		.byte	0
 699 02c1 04       		.uleb128 0x4
 700 02c2 00000000 		.4byte	.LASF53
 701 02c6 07       		.byte	0x7
 702 02c7 4C       		.byte	0x4c
 703 02c8 1E       		.byte	0x1e
 704 02c9 CD020000 		.4byte	0x2cd
 705 02cd 0B       		.uleb128 0xb
 706 02ce 5F020000 		.4byte	.LASF54
 707 02d2 1C       		.byte	0x1c
 708 02d3 08       		.byte	0x8
 709 02d4 5E01     		.2byte	0x15e
 710 02d6 08       		.byte	0x8
 711 02d7 30030000 		.4byte	0x330
 712 02db 09       		.uleb128 0x9
 713 02dc E8010000 		.4byte	.LASF29
 714 02e0 08       		.byte	0x8
 715 02e1 5F01     		.2byte	0x15f
 716 02e3 19       		.byte	0x19
 717 02e4 8D020000 		.4byte	0x28d
 718 02e8 00       		.byte	0
 719 02e9 09       		.uleb128 0x9
 720 02ea 24030000 		.4byte	.LASF30
 721 02ee 08       		.byte	0x8
 722 02ef 6001     		.2byte	0x160
 723 02f1 19       		.byte	0x19
 724 02f2 0E010000 		.4byte	0x10e
 725 02f6 08       		.byte	0x8
 726 02f7 08       		.uleb128 0x8
 727 02f8 63747800 		.ascii	"ctx\000"
 728 02fc 08       		.byte	0x8
 729 02fd 6201     		.2byte	0x162
 730 02ff 19       		.byte	0x19
 731 0300 CA040000 		.4byte	0x4ca
 732 0304 0C       		.byte	0xc
 733 0305 09       		.uleb128 0x9
 734 0306 9C020000 		.4byte	.LASF31
 735 030a 08       		.byte	0x8
 736 030b 6501     		.2byte	0x165
 737 030d 1A       		.byte	0x1a
 738 030e 60020000 		.4byte	0x260
 739 0312 10       		.byte	0x10
 740 0313 09       		.uleb128 0x9
 741 0314 76040000 		.4byte	.LASF32
ARM GAS  /tmp/ccomGlrN.s 			page 14


 742 0318 08       		.byte	0x8
 743 0319 6601     		.2byte	0x166
 744 031b 1A       		.byte	0x1a
 745 031c 60020000 		.4byte	0x260
 746 0320 14       		.byte	0x14
 747 0321 09       		.uleb128 0x9
 748 0322 47030000 		.4byte	.LASF55
 749 0326 08       		.byte	0x8
 750 0327 6901     		.2byte	0x169
 751 0329 1A       		.byte	0x1a
 752 032a 60020000 		.4byte	0x260
 753 032e 18       		.byte	0x18
 754 032f 00       		.byte	0
 755 0330 04       		.uleb128 0x4
 756 0331 BA040000 		.4byte	.LASF56
 757 0335 07       		.byte	0x7
 758 0336 51       		.byte	0x51
 759 0337 10       		.byte	0x10
 760 0338 3C030000 		.4byte	0x33c
 761 033c 0A       		.uleb128 0xa
 762 033d 04       		.byte	0x4
 763 033e 42030000 		.4byte	0x342
 764 0342 0C       		.uleb128 0xc
 765 0343 4D030000 		.4byte	0x34d
 766 0347 0D       		.uleb128 0xd
 767 0348 4D030000 		.4byte	0x34d
 768 034c 00       		.byte	0
 769 034d 0E       		.uleb128 0xe
 770 034e 04       		.byte	0x4
 771 034f 04       		.uleb128 0x4
 772 0350 72030000 		.4byte	.LASF57
 773 0354 07       		.byte	0x7
 774 0355 56       		.byte	0x56
 775 0356 21       		.byte	0x21
 776 0357 5B030000 		.4byte	0x35b
 777 035b 0B       		.uleb128 0xb
 778 035c DA030000 		.4byte	.LASF58
 779 0360 14       		.byte	0x14
 780 0361 08       		.byte	0x8
 781 0362 3901     		.2byte	0x139
 782 0364 08       		.byte	0x8
 783 0365 B0030000 		.4byte	0x3b0
 784 0369 09       		.uleb128 0x9
 785 036a EC000000 		.4byte	.LASF49
 786 036e 08       		.byte	0x8
 787 036f 3A01     		.2byte	0x13a
 788 0371 1A       		.byte	0x1a
 789 0372 16080000 		.4byte	0x816
 790 0376 00       		.byte	0
 791 0377 09       		.uleb128 0x9
 792 0378 40000000 		.4byte	.LASF52
 793 037c 08       		.byte	0x8
 794 037d 3B01     		.2byte	0x13b
 795 037f 1A       		.byte	0x1a
 796 0380 16080000 		.4byte	0x816
 797 0384 04       		.byte	0x4
 798 0385 09       		.uleb128 0x9
ARM GAS  /tmp/ccomGlrN.s 			page 15


 799 0386 13000000 		.4byte	.LASF59
 800 038a 08       		.byte	0x8
 801 038b 3C01     		.2byte	0x13c
 802 038d 19       		.byte	0x19
 803 038e A6040000 		.4byte	0x4a6
 804 0392 08       		.byte	0x8
 805 0393 09       		.uleb128 0x9
 806 0394 72010000 		.4byte	.LASF60
 807 0398 08       		.byte	0x8
 808 0399 3D01     		.2byte	0x13d
 809 039b 19       		.byte	0x19
 810 039c 30030000 		.4byte	0x330
 811 03a0 0C       		.byte	0xc
 812 03a1 08       		.uleb128 0x8
 813 03a2 70617200 		.ascii	"par\000"
 814 03a6 08       		.byte	0x8
 815 03a7 3F01     		.2byte	0x13f
 816 03a9 1A       		.byte	0x1a
 817 03aa 4D030000 		.4byte	0x34d
 818 03ae 10       		.byte	0x10
 819 03af 00       		.byte	0
 820 03b0 04       		.uleb128 0x4
 821 03b1 C7000000 		.4byte	.LASF61
 822 03b5 07       		.byte	0x7
 823 03b6 5B       		.byte	0x5b
 824 03b7 28       		.byte	0x28
 825 03b8 BC030000 		.4byte	0x3bc
 826 03bc 0B       		.uleb128 0xb
 827 03bd E3020000 		.4byte	.LASF62
 828 03c1 10       		.byte	0x10
 829 03c2 08       		.byte	0x8
 830 03c3 4901     		.2byte	0x149
 831 03c5 08       		.byte	0x8
 832 03c6 03040000 		.4byte	0x403
 833 03ca 09       		.uleb128 0x9
 834 03cb EC000000 		.4byte	.LASF49
 835 03cf 08       		.byte	0x8
 836 03d0 4A01     		.2byte	0x14a
 837 03d2 1A       		.byte	0x1a
 838 03d3 16080000 		.4byte	0x816
 839 03d7 00       		.byte	0
 840 03d8 09       		.uleb128 0x9
 841 03d9 40000000 		.4byte	.LASF52
 842 03dd 08       		.byte	0x8
 843 03de 4C01     		.2byte	0x14c
 844 03e0 1A       		.byte	0x1a
 845 03e1 16080000 		.4byte	0x816
 846 03e5 04       		.byte	0x4
 847 03e6 09       		.uleb128 0x9
 848 03e7 13000000 		.4byte	.LASF59
 849 03eb 08       		.byte	0x8
 850 03ec 4E01     		.2byte	0x14e
 851 03ee 19       		.byte	0x19
 852 03ef A6040000 		.4byte	0x4a6
 853 03f3 08       		.byte	0x8
 854 03f4 09       		.uleb128 0x9
 855 03f5 B9030000 		.4byte	.LASF63
ARM GAS  /tmp/ccomGlrN.s 			page 16


 856 03f9 08       		.byte	0x8
 857 03fa 5601     		.2byte	0x156
 858 03fc 19       		.byte	0x19
 859 03fd 9A040000 		.4byte	0x49a
 860 0401 0C       		.byte	0xc
 861 0402 00       		.byte	0
 862 0403 04       		.uleb128 0x4
 863 0404 62000000 		.4byte	.LASF64
 864 0408 07       		.byte	0x7
 865 0409 60       		.byte	0x60
 866 040a 20       		.byte	0x20
 867 040b 0F040000 		.4byte	0x40f
 868 040f 0B       		.uleb128 0xb
 869 0410 91010000 		.4byte	.LASF65
 870 0414 04       		.byte	0x4
 871 0415 08       		.byte	0x8
 872 0416 7001     		.2byte	0x170
 873 0418 08       		.byte	0x8
 874 0419 2C040000 		.4byte	0x42c
 875 041d 09       		.uleb128 0x9
 876 041e D1040000 		.4byte	.LASF66
 877 0422 08       		.byte	0x8
 878 0423 7801     		.2byte	0x178
 879 0425 24       		.byte	0x24
 880 0426 FF070000 		.4byte	0x7ff
 881 042a 00       		.byte	0
 882 042b 00       		.byte	0
 883 042c 04       		.uleb128 0x4
 884 042d 40020000 		.4byte	.LASF67
 885 0431 07       		.byte	0x7
 886 0432 65       		.byte	0x65
 887 0433 1A       		.byte	0x1a
 888 0434 38040000 		.4byte	0x438
 889 0438 0B       		.uleb128 0xb
 890 0439 C9030000 		.4byte	.LASF68
 891 043d D0       		.byte	0xd0
 892 043e 08       		.byte	0x8
 893 043f 9001     		.2byte	0x190
 894 0441 08       		.byte	0x8
 895 0442 9A040000 		.4byte	0x49a
 896 0446 09       		.uleb128 0x9
 897 0447 0E050000 		.4byte	.LASF69
 898 044b 08       		.byte	0x8
 899 044c 9401     		.2byte	0x194
 900 044e 19       		.byte	0x19
 901 044f C1020000 		.4byte	0x2c1
 902 0453 00       		.byte	0
 903 0454 09       		.uleb128 0x9
 904 0455 1C010000 		.4byte	.LASF70
 905 0459 08       		.byte	0x8
 906 045a 9801     		.2byte	0x198
 907 045c 19       		.byte	0x19
 908 045d B0030000 		.4byte	0x3b0
 909 0461 1C       		.byte	0x1c
 910 0462 08       		.uleb128 0x8
 911 0463 64626700 		.ascii	"dbg\000"
 912 0467 08       		.byte	0x8
ARM GAS  /tmp/ccomGlrN.s 			page 17


 913 0468 9C01     		.2byte	0x19c
 914 046a 19       		.byte	0x19
 915 046b 03040000 		.4byte	0x403
 916 046f 2C       		.byte	0x2c
 917 0470 09       		.uleb128 0x9
 918 0471 B4000000 		.4byte	.LASF71
 919 0475 08       		.byte	0x8
 920 0476 A001     		.2byte	0x1a0
 921 0478 19       		.byte	0x19
 922 0479 4A010000 		.4byte	0x14a
 923 047d 30       		.byte	0x30
 924 047e 08       		.uleb128 0x8
 925 047f 746D00   		.ascii	"tm\000"
 926 0482 08       		.byte	0x8
 927 0483 A501     		.2byte	0x1a5
 928 0485 19       		.byte	0x19
 929 0486 67060000 		.4byte	0x667
 930 048a 90       		.byte	0x90
 931 048b 09       		.uleb128 0x9
 932 048c 29000000 		.4byte	.LASF72
 933 0490 08       		.byte	0x8
 934 0491 AB01     		.2byte	0x1ab
 935 0493 19       		.byte	0x19
 936 0494 06070000 		.4byte	0x706
 937 0498 98       		.byte	0x98
 938 0499 00       		.byte	0
 939 049a 04       		.uleb128 0x4
 940 049b B0040000 		.4byte	.LASF73
 941 049f 09       		.byte	0x9
 942 04a0 6D       		.byte	0x6d
 943 04a1 12       		.byte	0x12
 944 04a2 BA000000 		.4byte	0xba
 945 04a6 04       		.uleb128 0x4
 946 04a7 B1010000 		.4byte	.LASF74
 947 04ab 09       		.byte	0x9
 948 04ac 79       		.byte	0x79
 949 04ad 12       		.byte	0x12
 950 04ae BA000000 		.4byte	0xba
 951 04b2 04       		.uleb128 0x4
 952 04b3 88010000 		.4byte	.LASF75
 953 04b7 0A       		.byte	0xa
 954 04b8 65       		.byte	0x65
 955 04b9 0F       		.byte	0xf
 956 04ba 4D030000 		.4byte	0x34d
 957 04be 04       		.uleb128 0x4
 958 04bf 91020000 		.4byte	.LASF76
 959 04c3 0A       		.byte	0xa
 960 04c4 6D       		.byte	0x6d
 961 04c5 12       		.byte	0x12
 962 04c6 C6000000 		.4byte	0xc6
 963 04ca 05       		.uleb128 0x5
 964 04cb 06030000 		.4byte	.LASF77
 965 04cf 04       		.byte	0x4
 966 04d0 0A       		.byte	0xa
 967 04d1 89       		.byte	0x89
 968 04d2 08       		.byte	0x8
 969 04d3 E4040000 		.4byte	0x4e4
ARM GAS  /tmp/ccomGlrN.s 			page 18


 970 04d7 07       		.uleb128 0x7
 971 04d8 737000   		.ascii	"sp\000"
 972 04db 0A       		.byte	0xa
 973 04dc 8A       		.byte	0x8a
 974 04dd 17       		.byte	0x17
 975 04de 4A060000 		.4byte	0x64a
 976 04e2 00       		.byte	0
 977 04e3 00       		.byte	0
 978 04e4 0B       		.uleb128 0xb
 979 04e5 45000000 		.4byte	.LASF78
 980 04e9 64       		.byte	0x64
 981 04ea 02       		.byte	0x2
 982 04eb 5901     		.2byte	0x159
 983 04ed 08       		.byte	0x8
 984 04ee 4A060000 		.4byte	0x64a
 985 04f2 08       		.uleb128 0x8
 986 04f3 73313600 		.ascii	"s16\000"
 987 04f7 02       		.byte	0x2
 988 04f8 5B01     		.2byte	0x15b
 989 04fa 11       		.byte	0x11
 990 04fb B2040000 		.4byte	0x4b2
 991 04ff 00       		.byte	0
 992 0500 08       		.uleb128 0x8
 993 0501 73313700 		.ascii	"s17\000"
 994 0505 02       		.byte	0x2
 995 0506 5C01     		.2byte	0x15c
 996 0508 11       		.byte	0x11
 997 0509 B2040000 		.4byte	0x4b2
 998 050d 04       		.byte	0x4
 999 050e 08       		.uleb128 0x8
 1000 050f 73313800 		.ascii	"s18\000"
 1001 0513 02       		.byte	0x2
 1002 0514 5D01     		.2byte	0x15d
 1003 0516 11       		.byte	0x11
 1004 0517 B2040000 		.4byte	0x4b2
 1005 051b 08       		.byte	0x8
 1006 051c 08       		.uleb128 0x8
 1007 051d 73313900 		.ascii	"s19\000"
 1008 0521 02       		.byte	0x2
 1009 0522 5E01     		.2byte	0x15e
 1010 0524 11       		.byte	0x11
 1011 0525 B2040000 		.4byte	0x4b2
 1012 0529 0C       		.byte	0xc
 1013 052a 08       		.uleb128 0x8
 1014 052b 73323000 		.ascii	"s20\000"
 1015 052f 02       		.byte	0x2
 1016 0530 5F01     		.2byte	0x15f
 1017 0532 11       		.byte	0x11
 1018 0533 B2040000 		.4byte	0x4b2
 1019 0537 10       		.byte	0x10
 1020 0538 08       		.uleb128 0x8
 1021 0539 73323100 		.ascii	"s21\000"
 1022 053d 02       		.byte	0x2
 1023 053e 6001     		.2byte	0x160
 1024 0540 11       		.byte	0x11
 1025 0541 B2040000 		.4byte	0x4b2
 1026 0545 14       		.byte	0x14
ARM GAS  /tmp/ccomGlrN.s 			page 19


 1027 0546 08       		.uleb128 0x8
 1028 0547 73323200 		.ascii	"s22\000"
 1029 054b 02       		.byte	0x2
 1030 054c 6101     		.2byte	0x161
 1031 054e 11       		.byte	0x11
 1032 054f B2040000 		.4byte	0x4b2
 1033 0553 18       		.byte	0x18
 1034 0554 08       		.uleb128 0x8
 1035 0555 73323300 		.ascii	"s23\000"
 1036 0559 02       		.byte	0x2
 1037 055a 6201     		.2byte	0x162
 1038 055c 11       		.byte	0x11
 1039 055d B2040000 		.4byte	0x4b2
 1040 0561 1C       		.byte	0x1c
 1041 0562 08       		.uleb128 0x8
 1042 0563 73323400 		.ascii	"s24\000"
 1043 0567 02       		.byte	0x2
 1044 0568 6301     		.2byte	0x163
 1045 056a 11       		.byte	0x11
 1046 056b B2040000 		.4byte	0x4b2
 1047 056f 20       		.byte	0x20
 1048 0570 08       		.uleb128 0x8
 1049 0571 73323500 		.ascii	"s25\000"
 1050 0575 02       		.byte	0x2
 1051 0576 6401     		.2byte	0x164
 1052 0578 11       		.byte	0x11
 1053 0579 B2040000 		.4byte	0x4b2
 1054 057d 24       		.byte	0x24
 1055 057e 08       		.uleb128 0x8
 1056 057f 73323600 		.ascii	"s26\000"
 1057 0583 02       		.byte	0x2
 1058 0584 6501     		.2byte	0x165
 1059 0586 11       		.byte	0x11
 1060 0587 B2040000 		.4byte	0x4b2
 1061 058b 28       		.byte	0x28
 1062 058c 08       		.uleb128 0x8
 1063 058d 73323700 		.ascii	"s27\000"
 1064 0591 02       		.byte	0x2
 1065 0592 6601     		.2byte	0x166
 1066 0594 11       		.byte	0x11
 1067 0595 B2040000 		.4byte	0x4b2
 1068 0599 2C       		.byte	0x2c
 1069 059a 08       		.uleb128 0x8
 1070 059b 73323800 		.ascii	"s28\000"
 1071 059f 02       		.byte	0x2
 1072 05a0 6701     		.2byte	0x167
 1073 05a2 11       		.byte	0x11
 1074 05a3 B2040000 		.4byte	0x4b2
 1075 05a7 30       		.byte	0x30
 1076 05a8 08       		.uleb128 0x8
 1077 05a9 73323900 		.ascii	"s29\000"
 1078 05ad 02       		.byte	0x2
 1079 05ae 6801     		.2byte	0x168
 1080 05b0 11       		.byte	0x11
 1081 05b1 B2040000 		.4byte	0x4b2
 1082 05b5 34       		.byte	0x34
 1083 05b6 08       		.uleb128 0x8
ARM GAS  /tmp/ccomGlrN.s 			page 20


 1084 05b7 73333000 		.ascii	"s30\000"
 1085 05bb 02       		.byte	0x2
 1086 05bc 6901     		.2byte	0x169
 1087 05be 11       		.byte	0x11
 1088 05bf B2040000 		.4byte	0x4b2
 1089 05c3 38       		.byte	0x38
 1090 05c4 08       		.uleb128 0x8
 1091 05c5 73333100 		.ascii	"s31\000"
 1092 05c9 02       		.byte	0x2
 1093 05ca 6A01     		.2byte	0x16a
 1094 05cc 11       		.byte	0x11
 1095 05cd B2040000 		.4byte	0x4b2
 1096 05d1 3C       		.byte	0x3c
 1097 05d2 08       		.uleb128 0x8
 1098 05d3 723400   		.ascii	"r4\000"
 1099 05d6 02       		.byte	0x2
 1100 05d7 6C01     		.2byte	0x16c
 1101 05d9 11       		.byte	0x11
 1102 05da B2040000 		.4byte	0x4b2
 1103 05de 40       		.byte	0x40
 1104 05df 08       		.uleb128 0x8
 1105 05e0 723500   		.ascii	"r5\000"
 1106 05e3 02       		.byte	0x2
 1107 05e4 6D01     		.2byte	0x16d
 1108 05e6 11       		.byte	0x11
 1109 05e7 B2040000 		.4byte	0x4b2
 1110 05eb 44       		.byte	0x44
 1111 05ec 08       		.uleb128 0x8
 1112 05ed 723600   		.ascii	"r6\000"
 1113 05f0 02       		.byte	0x2
 1114 05f1 6E01     		.2byte	0x16e
 1115 05f3 11       		.byte	0x11
 1116 05f4 B2040000 		.4byte	0x4b2
 1117 05f8 48       		.byte	0x48
 1118 05f9 08       		.uleb128 0x8
 1119 05fa 723700   		.ascii	"r7\000"
 1120 05fd 02       		.byte	0x2
 1121 05fe 6F01     		.2byte	0x16f
 1122 0600 11       		.byte	0x11
 1123 0601 B2040000 		.4byte	0x4b2
 1124 0605 4C       		.byte	0x4c
 1125 0606 08       		.uleb128 0x8
 1126 0607 723800   		.ascii	"r8\000"
 1127 060a 02       		.byte	0x2
 1128 060b 7001     		.2byte	0x170
 1129 060d 11       		.byte	0x11
 1130 060e B2040000 		.4byte	0x4b2
 1131 0612 50       		.byte	0x50
 1132 0613 08       		.uleb128 0x8
 1133 0614 723900   		.ascii	"r9\000"
 1134 0617 02       		.byte	0x2
 1135 0618 7101     		.2byte	0x171
 1136 061a 11       		.byte	0x11
 1137 061b B2040000 		.4byte	0x4b2
 1138 061f 54       		.byte	0x54
 1139 0620 08       		.uleb128 0x8
 1140 0621 72313000 		.ascii	"r10\000"
ARM GAS  /tmp/ccomGlrN.s 			page 21


 1141 0625 02       		.byte	0x2
 1142 0626 7201     		.2byte	0x172
 1143 0628 11       		.byte	0x11
 1144 0629 B2040000 		.4byte	0x4b2
 1145 062d 58       		.byte	0x58
 1146 062e 08       		.uleb128 0x8
 1147 062f 72313100 		.ascii	"r11\000"
 1148 0633 02       		.byte	0x2
 1149 0634 7301     		.2byte	0x173
 1150 0636 11       		.byte	0x11
 1151 0637 B2040000 		.4byte	0x4b2
 1152 063b 5C       		.byte	0x5c
 1153 063c 08       		.uleb128 0x8
 1154 063d 6C7200   		.ascii	"lr\000"
 1155 0640 02       		.byte	0x2
 1156 0641 7401     		.2byte	0x174
 1157 0643 11       		.byte	0x11
 1158 0644 B2040000 		.4byte	0x4b2
 1159 0648 60       		.byte	0x60
 1160 0649 00       		.byte	0
 1161 064a 0A       		.uleb128 0xa
 1162 064b 04       		.byte	0x4
 1163 064c E4040000 		.4byte	0x4e4
 1164 0650 0F       		.uleb128 0xf
 1165 0651 04       		.byte	0x4
 1166 0652 0B       		.byte	0xb
 1167 0653 38       		.byte	0x38
 1168 0654 09       		.byte	0x9
 1169 0655 67060000 		.4byte	0x667
 1170 0659 06       		.uleb128 0x6
 1171 065a DB040000 		.4byte	.LASF79
 1172 065e 0B       		.byte	0xb
 1173 065f 3C       		.byte	0x3c
 1174 0660 19       		.byte	0x19
 1175 0661 D2000000 		.4byte	0xd2
 1176 0665 00       		.byte	0
 1177 0666 00       		.byte	0
 1178 0667 04       		.uleb128 0x4
 1179 0668 13030000 		.4byte	.LASF80
 1180 066c 0B       		.byte	0xb
 1181 066d 3D       		.byte	0x3d
 1182 066e 03       		.byte	0x3
 1183 066f 50060000 		.4byte	0x650
 1184 0673 0F       		.uleb128 0xf
 1185 0674 18       		.byte	0x18
 1186 0675 0B       		.byte	0xb
 1187 0676 48       		.byte	0x48
 1188 0677 09       		.byte	0x9
 1189 0678 BC060000 		.4byte	0x6bc
 1190 067c 06       		.uleb128 0x6
 1191 067d AB040000 		.4byte	.LASF81
 1192 0681 0B       		.byte	0xb
 1193 0682 49       		.byte	0x49
 1194 0683 19       		.byte	0x19
 1195 0684 D2000000 		.4byte	0xd2
 1196 0688 00       		.byte	0
 1197 0689 06       		.uleb128 0x6
ARM GAS  /tmp/ccomGlrN.s 			page 22


 1198 068a 7B000000 		.4byte	.LASF82
 1199 068e 0B       		.byte	0xb
 1200 068f 4A       		.byte	0x4a
 1201 0690 19       		.byte	0x19
 1202 0691 D2000000 		.4byte	0xd2
 1203 0695 04       		.byte	0x4
 1204 0696 06       		.uleb128 0x6
 1205 0697 2B020000 		.4byte	.LASF83
 1206 069b 0B       		.byte	0xb
 1207 069c 4B       		.byte	0x4b
 1208 069d 19       		.byte	0x19
 1209 069e D2000000 		.4byte	0xd2
 1210 06a2 08       		.byte	0x8
 1211 06a3 07       		.uleb128 0x7
 1212 06a4 6E00     		.ascii	"n\000"
 1213 06a6 0B       		.byte	0xb
 1214 06a7 4C       		.byte	0x4c
 1215 06a8 19       		.byte	0x19
 1216 06a9 3E010000 		.4byte	0x13e
 1217 06ad 0C       		.byte	0xc
 1218 06ae 06       		.uleb128 0x6
 1219 06af 5A030000 		.4byte	.LASF84
 1220 06b3 0B       		.byte	0xb
 1221 06b4 4D       		.byte	0x4d
 1222 06b5 19       		.byte	0x19
 1223 06b6 DE000000 		.4byte	0xde
 1224 06ba 10       		.byte	0x10
 1225 06bb 00       		.byte	0
 1226 06bc 04       		.uleb128 0x4
 1227 06bd 81000000 		.4byte	.LASF85
 1228 06c1 0B       		.byte	0xb
 1229 06c2 4E       		.byte	0x4e
 1230 06c3 03       		.byte	0x3
 1231 06c4 73060000 		.4byte	0x673
 1232 06c8 0F       		.uleb128 0xf
 1233 06c9 38       		.byte	0x38
 1234 06ca 0C       		.byte	0xc
 1235 06cb 38       		.byte	0x38
 1236 06cc 09       		.byte	0x9
 1237 06cd 06070000 		.4byte	0x706
 1238 06d1 06       		.uleb128 0x6
 1239 06d2 E2010000 		.4byte	.LASF86
 1240 06d6 0C       		.byte	0xc
 1241 06d7 39       		.byte	0x39
 1242 06d8 19       		.byte	0x19
 1243 06d9 3E010000 		.4byte	0x13e
 1244 06dd 00       		.byte	0
 1245 06de 06       		.uleb128 0x6
 1246 06df 8A030000 		.4byte	.LASF87
 1247 06e3 0C       		.byte	0xc
 1248 06e4 3A       		.byte	0x3a
 1249 06e5 19       		.byte	0x19
 1250 06e6 3E010000 		.4byte	0x13e
 1251 06ea 04       		.byte	0x4
 1252 06eb 06       		.uleb128 0x6
 1253 06ec C1060000 		.4byte	.LASF88
 1254 06f0 0C       		.byte	0xc
ARM GAS  /tmp/ccomGlrN.s 			page 23


 1255 06f1 3B       		.byte	0x3b
 1256 06f2 19       		.byte	0x19
 1257 06f3 BC060000 		.4byte	0x6bc
 1258 06f7 08       		.byte	0x8
 1259 06f8 06       		.uleb128 0x6
 1260 06f9 54020000 		.4byte	.LASF89
 1261 06fd 0C       		.byte	0xc
 1262 06fe 3D       		.byte	0x3d
 1263 06ff 19       		.byte	0x19
 1264 0700 BC060000 		.4byte	0x6bc
 1265 0704 20       		.byte	0x20
 1266 0705 00       		.byte	0
 1267 0706 04       		.uleb128 0x4
 1268 0707 07020000 		.4byte	.LASF90
 1269 070b 0C       		.byte	0xc
 1270 070c 3F       		.byte	0x3f
 1271 070d 03       		.byte	0x3
 1272 070e C8060000 		.4byte	0x6c8
 1273 0712 10       		.uleb128 0x10
 1274 0713 04       		.byte	0x4
 1275 0714 08       		.byte	0x8
 1276 0715 C6       		.byte	0xc6
 1277 0716 03       		.byte	0x3
 1278 0717 7D070000 		.4byte	0x77d
 1279 071b 11       		.uleb128 0x11
 1280 071c 19000000 		.4byte	.LASF91
 1281 0720 08       		.byte	0x8
 1282 0721 CD       		.byte	0xcd
 1283 0722 19       		.byte	0x19
 1284 0723 1A010000 		.4byte	0x11a
 1285 0727 11       		.uleb128 0x11
 1286 0728 AB000000 		.4byte	.LASF92
 1287 072c 08       		.byte	0x8
 1288 072d D4       		.byte	0xd4
 1289 072e 19       		.byte	0x19
 1290 072f 1A010000 		.4byte	0x11a
 1291 0733 11       		.uleb128 0x11
 1292 0734 50060000 		.4byte	.LASF93
 1293 0738 08       		.byte	0x8
 1294 0739 DB       		.byte	0xdb
 1295 073a 1A       		.byte	0x1a
 1296 073b 4D030000 		.4byte	0x34d
 1297 073f 11       		.uleb128 0x11
 1298 0740 0D000000 		.4byte	.LASF94
 1299 0744 08       		.byte	0x8
 1300 0745 E2       		.byte	0xe2
 1301 0746 1A       		.byte	0x1a
 1302 0747 7D070000 		.4byte	0x77d
 1303 074b 11       		.uleb128 0x11
 1304 074c BF000000 		.4byte	.LASF95
 1305 0750 08       		.byte	0x8
 1306 0751 E7       		.byte	0xe7
 1307 0752 19       		.byte	0x19
 1308 0753 1A010000 		.4byte	0x11a
 1309 0757 11       		.uleb128 0x11
 1310 0758 DB010000 		.4byte	.LASF96
 1311 075c 08       		.byte	0x8
ARM GAS  /tmp/ccomGlrN.s 			page 24


 1312 075d F0       		.byte	0xf0
 1313 075e 1A       		.byte	0x1a
 1314 075f AB070000 		.4byte	0x7ab
 1315 0763 11       		.uleb128 0x11
 1316 0764 86040000 		.4byte	.LASF97
 1317 0768 08       		.byte	0x8
 1318 0769 F9       		.byte	0xf9
 1319 076a 1A       		.byte	0x1a
 1320 076b F3070000 		.4byte	0x7f3
 1321 076f 12       		.uleb128 0x12
 1322 0770 C2030000 		.4byte	.LASF98
 1323 0774 08       		.byte	0x8
 1324 0775 0101     		.2byte	0x101
 1325 0777 19       		.byte	0x19
 1326 0778 26010000 		.4byte	0x126
 1327 077c 00       		.byte	0
 1328 077d 0A       		.uleb128 0xa
 1329 077e 04       		.byte	0x4
 1330 077f 54020000 		.4byte	0x254
 1331 0783 05       		.uleb128 0x5
 1332 0784 EB030000 		.4byte	.LASF99
 1333 0788 0C       		.byte	0xc
 1334 0789 0D       		.byte	0xd
 1335 078a 34       		.byte	0x34
 1336 078b 10       		.byte	0x10
 1337 078c AB070000 		.4byte	0x7ab
 1338 0790 06       		.uleb128 0x6
 1339 0791 E8010000 		.4byte	.LASF29
 1340 0795 0D       		.byte	0xd
 1341 0796 35       		.byte	0x35
 1342 0797 19       		.byte	0x19
 1343 0798 8D020000 		.4byte	0x28d
 1344 079c 00       		.byte	0
 1345 079d 07       		.uleb128 0x7
 1346 079e 636E7400 		.ascii	"cnt\000"
 1347 07a2 0D       		.byte	0xd
 1348 07a3 37       		.byte	0x37
 1349 07a4 19       		.byte	0x19
 1350 07a5 32010000 		.4byte	0x132
 1351 07a9 08       		.byte	0x8
 1352 07aa 00       		.byte	0
 1353 07ab 0A       		.uleb128 0xa
 1354 07ac 04       		.byte	0x4
 1355 07ad 83070000 		.4byte	0x783
 1356 07b1 05       		.uleb128 0x5
 1357 07b2 05050000 		.4byte	.LASF100
 1358 07b6 14       		.byte	0x14
 1359 07b7 0E       		.byte	0xe
 1360 07b8 39       		.byte	0x39
 1361 07b9 08       		.byte	0x8
 1362 07ba F3070000 		.4byte	0x7f3
 1363 07be 06       		.uleb128 0x6
 1364 07bf E8010000 		.4byte	.LASF29
 1365 07c3 0E       		.byte	0xe
 1366 07c4 3A       		.byte	0x3a
 1367 07c5 19       		.byte	0x19
 1368 07c6 8D020000 		.4byte	0x28d
ARM GAS  /tmp/ccomGlrN.s 			page 25


 1369 07ca 00       		.byte	0
 1370 07cb 06       		.uleb128 0x6
 1371 07cc 25040000 		.4byte	.LASF101
 1372 07d0 0E       		.byte	0xe
 1373 07d1 3C       		.byte	0x3c
 1374 07d2 1A       		.byte	0x1a
 1375 07d3 60020000 		.4byte	0x260
 1376 07d7 08       		.byte	0x8
 1377 07d8 06       		.uleb128 0x6
 1378 07d9 EC000000 		.4byte	.LASF49
 1379 07dd 0E       		.byte	0xe
 1380 07de 3E       		.byte	0x3e
 1381 07df 1A       		.byte	0x1a
 1382 07e0 34080000 		.4byte	0x834
 1383 07e4 0C       		.byte	0xc
 1384 07e5 07       		.uleb128 0x7
 1385 07e6 636E7400 		.ascii	"cnt\000"
 1386 07ea 0E       		.byte	0xe
 1387 07eb 41       		.byte	0x41
 1388 07ec 19       		.byte	0x19
 1389 07ed 32010000 		.4byte	0x132
 1390 07f1 10       		.byte	0x10
 1391 07f2 00       		.byte	0
 1392 07f3 0A       		.uleb128 0xa
 1393 07f4 04       		.byte	0x4
 1394 07f5 B1070000 		.4byte	0x7b1
 1395 07f9 0A       		.uleb128 0xa
 1396 07fa 04       		.byte	0x4
 1397 07fb 0B080000 		.4byte	0x80b
 1398 07ff 13       		.uleb128 0x13
 1399 0800 F9070000 		.4byte	0x7f9
 1400 0804 03       		.uleb128 0x3
 1401 0805 01       		.byte	0x1
 1402 0806 08       		.byte	0x8
 1403 0807 71040000 		.4byte	.LASF102
 1404 080b 14       		.uleb128 0x14
 1405 080c 04080000 		.4byte	0x804
 1406 0810 0A       		.uleb128 0xa
 1407 0811 04       		.byte	0x4
 1408 0812 BE040000 		.4byte	0x4be
 1409 0816 0A       		.uleb128 0xa
 1410 0817 04       		.byte	0x4
 1411 0818 4F030000 		.4byte	0x34f
 1412 081c 15       		.uleb128 0x15
 1413 081d 636800   		.ascii	"ch\000"
 1414 0820 08       		.byte	0x8
 1415 0821 C701     		.2byte	0x1c7
 1416 0823 14       		.byte	0x14
 1417 0824 2C040000 		.4byte	0x42c
 1418 0828 04       		.uleb128 0x4
 1419 0829 A9010000 		.4byte	.LASF103
 1420 082d 0E       		.byte	0xe
 1421 082e 34       		.byte	0x34
 1422 082f 19       		.byte	0x19
 1423 0830 B1070000 		.4byte	0x7b1
 1424 0834 0A       		.uleb128 0xa
 1425 0835 04       		.byte	0x4
ARM GAS  /tmp/ccomGlrN.s 			page 26


 1426 0836 28080000 		.4byte	0x828
 1427 083a 03       		.uleb128 0x3
 1428 083b 01       		.byte	0x1
 1429 083c 02       		.byte	0x2
 1430 083d 93030000 		.4byte	.LASF104
 1431 0841 16       		.uleb128 0x16
 1432 0842 72060000 		.4byte	.LASF105
 1433 0846 01       		.byte	0x1
 1434 0847 77       		.byte	0x77
 1435 0848 06       		.byte	0x6
 1436 0849 00000000 		.4byte	.LFB307
 1437 084d 0C000000 		.4byte	.LFE307-.LFB307
 1438 0851 01       		.uleb128 0x1
 1439 0852 9C       		.byte	0x9c
 1440 0853 61080000 		.4byte	0x861
 1441 0857 17       		.uleb128 0x17
 1442 0858 06000000 		.4byte	.LVL14
 1443 085c 420A0000 		.4byte	0xa42
 1444 0860 00       		.byte	0
 1445 0861 16       		.uleb128 0x16
 1446 0862 29030000 		.4byte	.LASF106
 1447 0866 01       		.byte	0x1
 1448 0867 6F       		.byte	0x6f
 1449 0868 06       		.byte	0x6
 1450 0869 00000000 		.4byte	.LFB306
 1451 086d 0C000000 		.4byte	.LFE306-.LFB306
 1452 0871 01       		.uleb128 0x1
 1453 0872 9C       		.byte	0x9c
 1454 0873 81080000 		.4byte	0x881
 1455 0877 17       		.uleb128 0x17
 1456 0878 06000000 		.4byte	.LVL13
 1457 087c 4E0A0000 		.4byte	0xa4e
 1458 0880 00       		.byte	0
 1459 0881 16       		.uleb128 0x16
 1460 0882 AB020000 		.4byte	.LASF107
 1461 0886 01       		.byte	0x1
 1462 0887 67       		.byte	0x67
 1463 0888 06       		.byte	0x6
 1464 0889 00000000 		.4byte	.LFB305
 1465 088d 0C000000 		.4byte	.LFE305-.LFB305
 1466 0891 01       		.uleb128 0x1
 1467 0892 9C       		.byte	0x9c
 1468 0893 A1080000 		.4byte	0x8a1
 1469 0897 17       		.uleb128 0x17
 1470 0898 06000000 		.4byte	.LVL12
 1471 089c 420A0000 		.4byte	0xa42
 1472 08a0 00       		.byte	0
 1473 08a1 16       		.uleb128 0x16
 1474 08a2 24060000 		.4byte	.LASF108
 1475 08a6 01       		.byte	0x1
 1476 08a7 5F       		.byte	0x5f
 1477 08a8 06       		.byte	0x6
 1478 08a9 00000000 		.4byte	.LFB304
 1479 08ad 0C000000 		.4byte	.LFE304-.LFB304
 1480 08b1 01       		.uleb128 0x1
 1481 08b2 9C       		.byte	0x9c
 1482 08b3 C1080000 		.4byte	0x8c1
ARM GAS  /tmp/ccomGlrN.s 			page 27


 1483 08b7 17       		.uleb128 0x17
 1484 08b8 06000000 		.4byte	.LVL11
 1485 08bc 4E0A0000 		.4byte	0xa4e
 1486 08c0 00       		.byte	0
 1487 08c1 16       		.uleb128 0x16
 1488 08c2 42060000 		.4byte	.LASF109
 1489 08c6 01       		.byte	0x1
 1490 08c7 56       		.byte	0x56
 1491 08c8 06       		.byte	0x6
 1492 08c9 00000000 		.4byte	.LFB303
 1493 08cd 24000000 		.4byte	.LFE303-.LFB303
 1494 08d1 01       		.uleb128 0x1
 1495 08d2 9C       		.byte	0x9c
 1496 08d3 1C090000 		.4byte	0x91c
 1497 08d7 18       		.uleb128 0x18
 1498 08d8 6E747000 		.ascii	"ntp\000"
 1499 08dc 01       		.byte	0x1
 1500 08dd 56       		.byte	0x56
 1501 08de 1E       		.byte	0x1e
 1502 08df 60020000 		.4byte	0x260
 1503 08e3 06000000 		.4byte	.LLST2
 1504 08e7 00000000 		.4byte	.LVUS2
 1505 08eb 18       		.uleb128 0x18
 1506 08ec 6F747000 		.ascii	"otp\000"
 1507 08f0 01       		.byte	0x1
 1508 08f1 56       		.byte	0x56
 1509 08f2 2D       		.byte	0x2d
 1510 08f3 60020000 		.4byte	0x260
 1511 08f7 3D000000 		.4byte	.LLST3
 1512 08fb 35000000 		.4byte	.LVUS3
 1513 08ff 19       		.uleb128 0x19
 1514 0900 20000000 		.4byte	.LVL10
 1515 0904 5A0A0000 		.4byte	0xa5a
 1516 0908 1A       		.uleb128 0x1a
 1517 0909 01       		.uleb128 0x1
 1518 090a 50       		.byte	0x50
 1519 090b 05       		.uleb128 0x5
 1520 090c F3       		.byte	0xf3
 1521 090d 01       		.uleb128 0x1
 1522 090e 51       		.byte	0x51
 1523 090f 23       		.byte	0x23
 1524 0910 48       		.uleb128 0x48
 1525 0911 1A       		.uleb128 0x1a
 1526 0912 01       		.uleb128 0x1
 1527 0913 51       		.byte	0x51
 1528 0914 05       		.uleb128 0x5
 1529 0915 F3       		.byte	0xf3
 1530 0916 01       		.uleb128 0x1
 1531 0917 50       		.byte	0x50
 1532 0918 23       		.byte	0x23
 1533 0919 48       		.uleb128 0x48
 1534 091a 00       		.byte	0
 1535 091b 00       		.byte	0
 1536 091c 16       		.uleb128 0x16
 1537 091d 01040000 		.4byte	.LASF110
 1538 0921 01       		.byte	0x1
 1539 0922 49       		.byte	0x49
ARM GAS  /tmp/ccomGlrN.s 			page 28


 1540 0923 06       		.byte	0x6
 1541 0924 00000000 		.4byte	.LFB302
 1542 0928 20000000 		.4byte	.LFE302-.LFB302
 1543 092c 01       		.uleb128 0x1
 1544 092d 9C       		.byte	0x9c
 1545 092e C9090000 		.4byte	0x9c9
 1546 0932 1B       		.uleb128 0x1b
 1547 0933 080A0000 		.4byte	0xa08
 1548 0937 00000000 		.4byte	.LBI24
 1549 093b 02       		.byte	.LVU12
 1550 093c 00000000 		.4byte	.Ldebug_ranges0+0
 1551 0940 01       		.byte	0x1
 1552 0941 4B       		.byte	0x4b
 1553 0942 03       		.byte	0x3
 1554 0943 7F090000 		.4byte	0x97f
 1555 0947 1C       		.uleb128 0x1c
 1556 0948 1C0A0000 		.4byte	0xa1c
 1557 094c 00000000 		.4byte	.LBI25
 1558 0950 04       		.byte	.LVU14
 1559 0951 08000000 		.4byte	.Ldebug_ranges0+0x8
 1560 0955 02       		.byte	0x2
 1561 0956 8302     		.2byte	0x283
 1562 0958 03       		.byte	0x3
 1563 0959 1D       		.uleb128 0x1d
 1564 095a 260A0000 		.4byte	0xa26
 1565 095e 00000000 		.4byte	.LBI26
 1566 0962 06       		.byte	.LVU16
 1567 0963 00000000 		.4byte	.LBB26
 1568 0967 06000000 		.4byte	.LBE26-.LBB26
 1569 096b 02       		.byte	0x2
 1570 096c 6202     		.2byte	0x262
 1571 096e 03       		.byte	0x3
 1572 096f 1E       		.uleb128 0x1e
 1573 0970 340A0000 		.4byte	0xa34
 1574 0974 79000000 		.4byte	.LLST0
 1575 0978 77000000 		.4byte	.LVUS0
 1576 097c 00       		.byte	0
 1577 097d 00       		.byte	0
 1578 097e 00       		.byte	0
 1579 097f 1F       		.uleb128 0x1f
 1580 0980 FE090000 		.4byte	0x9fe
 1581 0984 12000000 		.4byte	.LBI31
 1582 0988 01       		.byte	.LVU22
 1583 0989 20000000 		.4byte	.Ldebug_ranges0+0x20
 1584 098d 01       		.byte	0x1
 1585 098e 4D       		.byte	0x4d
 1586 098f 03       		.byte	0x3
 1587 0990 1C       		.uleb128 0x1c
 1588 0991 120A0000 		.4byte	0xa12
 1589 0995 12000000 		.4byte	.LBI32
 1590 0999 03       		.byte	.LVU24
 1591 099a 28000000 		.4byte	.Ldebug_ranges0+0x28
 1592 099e 02       		.byte	0x2
 1593 099f 8E02     		.2byte	0x28e
 1594 09a1 03       		.byte	0x3
 1595 09a2 1D       		.uleb128 0x1d
 1596 09a3 260A0000 		.4byte	0xa26
ARM GAS  /tmp/ccomGlrN.s 			page 29


 1597 09a7 12000000 		.4byte	.LBI33
 1598 09ab 05       		.byte	.LVU26
 1599 09ac 12000000 		.4byte	.LBB33
 1600 09b0 06000000 		.4byte	.LBE33-.LBB33
 1601 09b4 02       		.byte	0x2
 1602 09b5 7502     		.2byte	0x275
 1603 09b7 03       		.byte	0x3
 1604 09b8 1E       		.uleb128 0x1e
 1605 09b9 340A0000 		.4byte	0xa34
 1606 09bd 90000000 		.4byte	.LLST1
 1607 09c1 8E000000 		.4byte	.LVUS1
 1608 09c5 00       		.byte	0
 1609 09c6 00       		.byte	0
 1610 09c7 00       		.byte	0
 1611 09c8 00       		.byte	0
 1612 09c9 16       		.uleb128 0x16
 1613 09ca 66060000 		.4byte	.LASF111
 1614 09ce 01       		.byte	0x1
 1615 09cf 3E       		.byte	0x3e
 1616 09d0 06       		.byte	0x6
 1617 09d1 00000000 		.4byte	.LFB301
 1618 09d5 24000000 		.4byte	.LFE301-.LFB301
 1619 09d9 01       		.uleb128 0x1
 1620 09da 9C       		.byte	0x9c
 1621 09db FE090000 		.4byte	0x9fe
 1622 09df 20       		.uleb128 0x20
 1623 09e0 12000000 		.4byte	.LVL0
 1624 09e4 660A0000 		.4byte	0xa66
 1625 09e8 F4090000 		.4byte	0x9f4
 1626 09ec 1A       		.uleb128 0x1a
 1627 09ed 01       		.uleb128 0x1
 1628 09ee 50       		.byte	0x50
 1629 09ef 03       		.uleb128 0x3
 1630 09f0 74       		.byte	0x74
 1631 09f1 A001     		.sleb128 160
 1632 09f3 00       		.byte	0
 1633 09f4 17       		.uleb128 0x17
 1634 09f5 1E000000 		.4byte	.LVL1
 1635 09f9 660A0000 		.4byte	0xa66
 1636 09fd 00       		.byte	0
 1637 09fe 21       		.uleb128 0x21
 1638 09ff 8D040000 		.4byte	.LASF112
 1639 0a03 02       		.byte	0x2
 1640 0a04 8C02     		.2byte	0x28c
 1641 0a06 14       		.byte	0x14
 1642 0a07 03       		.byte	0x3
 1643 0a08 21       		.uleb128 0x21
 1644 0a09 E2040000 		.4byte	.LASF113
 1645 0a0d 02       		.byte	0x2
 1646 0a0e 8102     		.2byte	0x281
 1647 0a10 14       		.byte	0x14
 1648 0a11 03       		.byte	0x3
 1649 0a12 21       		.uleb128 0x21
 1650 0a13 23010000 		.4byte	.LASF114
 1651 0a17 02       		.byte	0x2
 1652 0a18 7202     		.2byte	0x272
 1653 0a1a 14       		.byte	0x14
ARM GAS  /tmp/ccomGlrN.s 			page 30


 1654 0a1b 03       		.byte	0x3
 1655 0a1c 21       		.uleb128 0x21
 1656 0a1d 71000000 		.4byte	.LASF115
 1657 0a21 02       		.byte	0x2
 1658 0a22 5A02     		.2byte	0x25a
 1659 0a24 14       		.byte	0x14
 1660 0a25 03       		.byte	0x3
 1661 0a26 22       		.uleb128 0x22
 1662 0a27 C3040000 		.4byte	.LASF123
 1663 0a2b 03       		.byte	0x3
 1664 0a2c EB01     		.2byte	0x1eb
 1665 0a2e 1B       		.byte	0x1b
 1666 0a2f 03       		.byte	0x3
 1667 0a30 420A0000 		.4byte	0xa42
 1668 0a34 23       		.uleb128 0x23
 1669 0a35 14010000 		.4byte	.LASF124
 1670 0a39 03       		.byte	0x3
 1671 0a3a EB01     		.2byte	0x1eb
 1672 0a3c 32       		.byte	0x32
 1673 0a3d BA000000 		.4byte	0xba
 1674 0a41 00       		.byte	0
 1675 0a42 24       		.uleb128 0x24
 1676 0a43 4B010000 		.4byte	.LASF116
 1677 0a47 4B010000 		.4byte	.LASF116
 1678 0a4b 0B       		.byte	0xb
 1679 0a4c 5E       		.byte	0x5e
 1680 0a4d 11       		.byte	0x11
 1681 0a4e 24       		.uleb128 0x24
 1682 0a4f 2F010000 		.4byte	.LASF117
 1683 0a53 2F010000 		.4byte	.LASF117
 1684 0a57 0B       		.byte	0xb
 1685 0a58 5D       		.byte	0x5d
 1686 0a59 11       		.byte	0x11
 1687 0a5a 24       		.uleb128 0x24
 1688 0a5b 79020000 		.4byte	.LASF118
 1689 0a5f 79020000 		.4byte	.LASF118
 1690 0a63 0B       		.byte	0xb
 1691 0a64 5F       		.byte	0x5f
 1692 0a65 11       		.byte	0x11
 1693 0a66 24       		.uleb128 0x24
 1694 0a67 DD000000 		.4byte	.LASF119
 1695 0a6b DD000000 		.4byte	.LASF119
 1696 0a6f 0B       		.byte	0xb
 1697 0a70 5C       		.byte	0x5c
 1698 0a71 08       		.byte	0x8
 1699 0a72 00       		.byte	0
 1700              		.section	.debug_abbrev,"",%progbits
 1701              	.Ldebug_abbrev0:
 1702 0000 01       		.uleb128 0x1
 1703 0001 11       		.uleb128 0x11
 1704 0002 01       		.byte	0x1
 1705 0003 25       		.uleb128 0x25
 1706 0004 0E       		.uleb128 0xe
 1707 0005 13       		.uleb128 0x13
 1708 0006 0B       		.uleb128 0xb
 1709 0007 03       		.uleb128 0x3
 1710 0008 0E       		.uleb128 0xe
ARM GAS  /tmp/ccomGlrN.s 			page 31


 1711 0009 1B       		.uleb128 0x1b
 1712 000a 0E       		.uleb128 0xe
 1713 000b 55       		.uleb128 0x55
 1714 000c 17       		.uleb128 0x17
 1715 000d 11       		.uleb128 0x11
 1716 000e 01       		.uleb128 0x1
 1717 000f 10       		.uleb128 0x10
 1718 0010 17       		.uleb128 0x17
 1719 0011 00       		.byte	0
 1720 0012 00       		.byte	0
 1721 0013 02       		.uleb128 0x2
 1722 0014 24       		.uleb128 0x24
 1723 0015 00       		.byte	0
 1724 0016 0B       		.uleb128 0xb
 1725 0017 0B       		.uleb128 0xb
 1726 0018 3E       		.uleb128 0x3e
 1727 0019 0B       		.uleb128 0xb
 1728 001a 03       		.uleb128 0x3
 1729 001b 08       		.uleb128 0x8
 1730 001c 00       		.byte	0
 1731 001d 00       		.byte	0
 1732 001e 03       		.uleb128 0x3
 1733 001f 24       		.uleb128 0x24
 1734 0020 00       		.byte	0
 1735 0021 0B       		.uleb128 0xb
 1736 0022 0B       		.uleb128 0xb
 1737 0023 3E       		.uleb128 0x3e
 1738 0024 0B       		.uleb128 0xb
 1739 0025 03       		.uleb128 0x3
 1740 0026 0E       		.uleb128 0xe
 1741 0027 00       		.byte	0
 1742 0028 00       		.byte	0
 1743 0029 04       		.uleb128 0x4
 1744 002a 16       		.uleb128 0x16
 1745 002b 00       		.byte	0
 1746 002c 03       		.uleb128 0x3
 1747 002d 0E       		.uleb128 0xe
 1748 002e 3A       		.uleb128 0x3a
 1749 002f 0B       		.uleb128 0xb
 1750 0030 3B       		.uleb128 0x3b
 1751 0031 0B       		.uleb128 0xb
 1752 0032 39       		.uleb128 0x39
 1753 0033 0B       		.uleb128 0xb
 1754 0034 49       		.uleb128 0x49
 1755 0035 13       		.uleb128 0x13
 1756 0036 00       		.byte	0
 1757 0037 00       		.byte	0
 1758 0038 05       		.uleb128 0x5
 1759 0039 13       		.uleb128 0x13
 1760 003a 01       		.byte	0x1
 1761 003b 03       		.uleb128 0x3
 1762 003c 0E       		.uleb128 0xe
 1763 003d 0B       		.uleb128 0xb
 1764 003e 0B       		.uleb128 0xb
 1765 003f 3A       		.uleb128 0x3a
 1766 0040 0B       		.uleb128 0xb
 1767 0041 3B       		.uleb128 0x3b
ARM GAS  /tmp/ccomGlrN.s 			page 32


 1768 0042 0B       		.uleb128 0xb
 1769 0043 39       		.uleb128 0x39
 1770 0044 0B       		.uleb128 0xb
 1771 0045 01       		.uleb128 0x1
 1772 0046 13       		.uleb128 0x13
 1773 0047 00       		.byte	0
 1774 0048 00       		.byte	0
 1775 0049 06       		.uleb128 0x6
 1776 004a 0D       		.uleb128 0xd
 1777 004b 00       		.byte	0
 1778 004c 03       		.uleb128 0x3
 1779 004d 0E       		.uleb128 0xe
 1780 004e 3A       		.uleb128 0x3a
 1781 004f 0B       		.uleb128 0xb
 1782 0050 3B       		.uleb128 0x3b
 1783 0051 0B       		.uleb128 0xb
 1784 0052 39       		.uleb128 0x39
 1785 0053 0B       		.uleb128 0xb
 1786 0054 49       		.uleb128 0x49
 1787 0055 13       		.uleb128 0x13
 1788 0056 38       		.uleb128 0x38
 1789 0057 0B       		.uleb128 0xb
 1790 0058 00       		.byte	0
 1791 0059 00       		.byte	0
 1792 005a 07       		.uleb128 0x7
 1793 005b 0D       		.uleb128 0xd
 1794 005c 00       		.byte	0
 1795 005d 03       		.uleb128 0x3
 1796 005e 08       		.uleb128 0x8
 1797 005f 3A       		.uleb128 0x3a
 1798 0060 0B       		.uleb128 0xb
 1799 0061 3B       		.uleb128 0x3b
 1800 0062 0B       		.uleb128 0xb
 1801 0063 39       		.uleb128 0x39
 1802 0064 0B       		.uleb128 0xb
 1803 0065 49       		.uleb128 0x49
 1804 0066 13       		.uleb128 0x13
 1805 0067 38       		.uleb128 0x38
 1806 0068 0B       		.uleb128 0xb
 1807 0069 00       		.byte	0
 1808 006a 00       		.byte	0
 1809 006b 08       		.uleb128 0x8
 1810 006c 0D       		.uleb128 0xd
 1811 006d 00       		.byte	0
 1812 006e 03       		.uleb128 0x3
 1813 006f 08       		.uleb128 0x8
 1814 0070 3A       		.uleb128 0x3a
 1815 0071 0B       		.uleb128 0xb
 1816 0072 3B       		.uleb128 0x3b
 1817 0073 05       		.uleb128 0x5
 1818 0074 39       		.uleb128 0x39
 1819 0075 0B       		.uleb128 0xb
 1820 0076 49       		.uleb128 0x49
 1821 0077 13       		.uleb128 0x13
 1822 0078 38       		.uleb128 0x38
 1823 0079 0B       		.uleb128 0xb
 1824 007a 00       		.byte	0
ARM GAS  /tmp/ccomGlrN.s 			page 33


 1825 007b 00       		.byte	0
 1826 007c 09       		.uleb128 0x9
 1827 007d 0D       		.uleb128 0xd
 1828 007e 00       		.byte	0
 1829 007f 03       		.uleb128 0x3
 1830 0080 0E       		.uleb128 0xe
 1831 0081 3A       		.uleb128 0x3a
 1832 0082 0B       		.uleb128 0xb
 1833 0083 3B       		.uleb128 0x3b
 1834 0084 05       		.uleb128 0x5
 1835 0085 39       		.uleb128 0x39
 1836 0086 0B       		.uleb128 0xb
 1837 0087 49       		.uleb128 0x49
 1838 0088 13       		.uleb128 0x13
 1839 0089 38       		.uleb128 0x38
 1840 008a 0B       		.uleb128 0xb
 1841 008b 00       		.byte	0
 1842 008c 00       		.byte	0
 1843 008d 0A       		.uleb128 0xa
 1844 008e 0F       		.uleb128 0xf
 1845 008f 00       		.byte	0
 1846 0090 0B       		.uleb128 0xb
 1847 0091 0B       		.uleb128 0xb
 1848 0092 49       		.uleb128 0x49
 1849 0093 13       		.uleb128 0x13
 1850 0094 00       		.byte	0
 1851 0095 00       		.byte	0
 1852 0096 0B       		.uleb128 0xb
 1853 0097 13       		.uleb128 0x13
 1854 0098 01       		.byte	0x1
 1855 0099 03       		.uleb128 0x3
 1856 009a 0E       		.uleb128 0xe
 1857 009b 0B       		.uleb128 0xb
 1858 009c 0B       		.uleb128 0xb
 1859 009d 3A       		.uleb128 0x3a
 1860 009e 0B       		.uleb128 0xb
 1861 009f 3B       		.uleb128 0x3b
 1862 00a0 05       		.uleb128 0x5
 1863 00a1 39       		.uleb128 0x39
 1864 00a2 0B       		.uleb128 0xb
 1865 00a3 01       		.uleb128 0x1
 1866 00a4 13       		.uleb128 0x13
 1867 00a5 00       		.byte	0
 1868 00a6 00       		.byte	0
 1869 00a7 0C       		.uleb128 0xc
 1870 00a8 15       		.uleb128 0x15
 1871 00a9 01       		.byte	0x1
 1872 00aa 27       		.uleb128 0x27
 1873 00ab 19       		.uleb128 0x19
 1874 00ac 01       		.uleb128 0x1
 1875 00ad 13       		.uleb128 0x13
 1876 00ae 00       		.byte	0
 1877 00af 00       		.byte	0
 1878 00b0 0D       		.uleb128 0xd
 1879 00b1 05       		.uleb128 0x5
 1880 00b2 00       		.byte	0
 1881 00b3 49       		.uleb128 0x49
ARM GAS  /tmp/ccomGlrN.s 			page 34


 1882 00b4 13       		.uleb128 0x13
 1883 00b5 00       		.byte	0
 1884 00b6 00       		.byte	0
 1885 00b7 0E       		.uleb128 0xe
 1886 00b8 0F       		.uleb128 0xf
 1887 00b9 00       		.byte	0
 1888 00ba 0B       		.uleb128 0xb
 1889 00bb 0B       		.uleb128 0xb
 1890 00bc 00       		.byte	0
 1891 00bd 00       		.byte	0
 1892 00be 0F       		.uleb128 0xf
 1893 00bf 13       		.uleb128 0x13
 1894 00c0 01       		.byte	0x1
 1895 00c1 0B       		.uleb128 0xb
 1896 00c2 0B       		.uleb128 0xb
 1897 00c3 3A       		.uleb128 0x3a
 1898 00c4 0B       		.uleb128 0xb
 1899 00c5 3B       		.uleb128 0x3b
 1900 00c6 0B       		.uleb128 0xb
 1901 00c7 39       		.uleb128 0x39
 1902 00c8 0B       		.uleb128 0xb
 1903 00c9 01       		.uleb128 0x1
 1904 00ca 13       		.uleb128 0x13
 1905 00cb 00       		.byte	0
 1906 00cc 00       		.byte	0
 1907 00cd 10       		.uleb128 0x10
 1908 00ce 17       		.uleb128 0x17
 1909 00cf 01       		.byte	0x1
 1910 00d0 0B       		.uleb128 0xb
 1911 00d1 0B       		.uleb128 0xb
 1912 00d2 3A       		.uleb128 0x3a
 1913 00d3 0B       		.uleb128 0xb
 1914 00d4 3B       		.uleb128 0x3b
 1915 00d5 0B       		.uleb128 0xb
 1916 00d6 39       		.uleb128 0x39
 1917 00d7 0B       		.uleb128 0xb
 1918 00d8 01       		.uleb128 0x1
 1919 00d9 13       		.uleb128 0x13
 1920 00da 00       		.byte	0
 1921 00db 00       		.byte	0
 1922 00dc 11       		.uleb128 0x11
 1923 00dd 0D       		.uleb128 0xd
 1924 00de 00       		.byte	0
 1925 00df 03       		.uleb128 0x3
 1926 00e0 0E       		.uleb128 0xe
 1927 00e1 3A       		.uleb128 0x3a
 1928 00e2 0B       		.uleb128 0xb
 1929 00e3 3B       		.uleb128 0x3b
 1930 00e4 0B       		.uleb128 0xb
 1931 00e5 39       		.uleb128 0x39
 1932 00e6 0B       		.uleb128 0xb
 1933 00e7 49       		.uleb128 0x49
 1934 00e8 13       		.uleb128 0x13
 1935 00e9 00       		.byte	0
 1936 00ea 00       		.byte	0
 1937 00eb 12       		.uleb128 0x12
 1938 00ec 0D       		.uleb128 0xd
ARM GAS  /tmp/ccomGlrN.s 			page 35


 1939 00ed 00       		.byte	0
 1940 00ee 03       		.uleb128 0x3
 1941 00ef 0E       		.uleb128 0xe
 1942 00f0 3A       		.uleb128 0x3a
 1943 00f1 0B       		.uleb128 0xb
 1944 00f2 3B       		.uleb128 0x3b
 1945 00f3 05       		.uleb128 0x5
 1946 00f4 39       		.uleb128 0x39
 1947 00f5 0B       		.uleb128 0xb
 1948 00f6 49       		.uleb128 0x49
 1949 00f7 13       		.uleb128 0x13
 1950 00f8 00       		.byte	0
 1951 00f9 00       		.byte	0
 1952 00fa 13       		.uleb128 0x13
 1953 00fb 35       		.uleb128 0x35
 1954 00fc 00       		.byte	0
 1955 00fd 49       		.uleb128 0x49
 1956 00fe 13       		.uleb128 0x13
 1957 00ff 00       		.byte	0
 1958 0100 00       		.byte	0
 1959 0101 14       		.uleb128 0x14
 1960 0102 26       		.uleb128 0x26
 1961 0103 00       		.byte	0
 1962 0104 49       		.uleb128 0x49
 1963 0105 13       		.uleb128 0x13
 1964 0106 00       		.byte	0
 1965 0107 00       		.byte	0
 1966 0108 15       		.uleb128 0x15
 1967 0109 34       		.uleb128 0x34
 1968 010a 00       		.byte	0
 1969 010b 03       		.uleb128 0x3
 1970 010c 08       		.uleb128 0x8
 1971 010d 3A       		.uleb128 0x3a
 1972 010e 0B       		.uleb128 0xb
 1973 010f 3B       		.uleb128 0x3b
 1974 0110 05       		.uleb128 0x5
 1975 0111 39       		.uleb128 0x39
 1976 0112 0B       		.uleb128 0xb
 1977 0113 49       		.uleb128 0x49
 1978 0114 13       		.uleb128 0x13
 1979 0115 3F       		.uleb128 0x3f
 1980 0116 19       		.uleb128 0x19
 1981 0117 3C       		.uleb128 0x3c
 1982 0118 19       		.uleb128 0x19
 1983 0119 00       		.byte	0
 1984 011a 00       		.byte	0
 1985 011b 16       		.uleb128 0x16
 1986 011c 2E       		.uleb128 0x2e
 1987 011d 01       		.byte	0x1
 1988 011e 3F       		.uleb128 0x3f
 1989 011f 19       		.uleb128 0x19
 1990 0120 03       		.uleb128 0x3
 1991 0121 0E       		.uleb128 0xe
 1992 0122 3A       		.uleb128 0x3a
 1993 0123 0B       		.uleb128 0xb
 1994 0124 3B       		.uleb128 0x3b
 1995 0125 0B       		.uleb128 0xb
ARM GAS  /tmp/ccomGlrN.s 			page 36


 1996 0126 39       		.uleb128 0x39
 1997 0127 0B       		.uleb128 0xb
 1998 0128 27       		.uleb128 0x27
 1999 0129 19       		.uleb128 0x19
 2000 012a 11       		.uleb128 0x11
 2001 012b 01       		.uleb128 0x1
 2002 012c 12       		.uleb128 0x12
 2003 012d 06       		.uleb128 0x6
 2004 012e 40       		.uleb128 0x40
 2005 012f 18       		.uleb128 0x18
 2006 0130 9742     		.uleb128 0x2117
 2007 0132 19       		.uleb128 0x19
 2008 0133 01       		.uleb128 0x1
 2009 0134 13       		.uleb128 0x13
 2010 0135 00       		.byte	0
 2011 0136 00       		.byte	0
 2012 0137 17       		.uleb128 0x17
 2013 0138 898201   		.uleb128 0x4109
 2014 013b 00       		.byte	0
 2015 013c 11       		.uleb128 0x11
 2016 013d 01       		.uleb128 0x1
 2017 013e 9542     		.uleb128 0x2115
 2018 0140 19       		.uleb128 0x19
 2019 0141 31       		.uleb128 0x31
 2020 0142 13       		.uleb128 0x13
 2021 0143 00       		.byte	0
 2022 0144 00       		.byte	0
 2023 0145 18       		.uleb128 0x18
 2024 0146 05       		.uleb128 0x5
 2025 0147 00       		.byte	0
 2026 0148 03       		.uleb128 0x3
 2027 0149 08       		.uleb128 0x8
 2028 014a 3A       		.uleb128 0x3a
 2029 014b 0B       		.uleb128 0xb
 2030 014c 3B       		.uleb128 0x3b
 2031 014d 0B       		.uleb128 0xb
 2032 014e 39       		.uleb128 0x39
 2033 014f 0B       		.uleb128 0xb
 2034 0150 49       		.uleb128 0x49
 2035 0151 13       		.uleb128 0x13
 2036 0152 02       		.uleb128 0x2
 2037 0153 17       		.uleb128 0x17
 2038 0154 B742     		.uleb128 0x2137
 2039 0156 17       		.uleb128 0x17
 2040 0157 00       		.byte	0
 2041 0158 00       		.byte	0
 2042 0159 19       		.uleb128 0x19
 2043 015a 898201   		.uleb128 0x4109
 2044 015d 01       		.byte	0x1
 2045 015e 11       		.uleb128 0x11
 2046 015f 01       		.uleb128 0x1
 2047 0160 9542     		.uleb128 0x2115
 2048 0162 19       		.uleb128 0x19
 2049 0163 31       		.uleb128 0x31
 2050 0164 13       		.uleb128 0x13
 2051 0165 00       		.byte	0
 2052 0166 00       		.byte	0
ARM GAS  /tmp/ccomGlrN.s 			page 37


 2053 0167 1A       		.uleb128 0x1a
 2054 0168 8A8201   		.uleb128 0x410a
 2055 016b 00       		.byte	0
 2056 016c 02       		.uleb128 0x2
 2057 016d 18       		.uleb128 0x18
 2058 016e 9142     		.uleb128 0x2111
 2059 0170 18       		.uleb128 0x18
 2060 0171 00       		.byte	0
 2061 0172 00       		.byte	0
 2062 0173 1B       		.uleb128 0x1b
 2063 0174 1D       		.uleb128 0x1d
 2064 0175 01       		.byte	0x1
 2065 0176 31       		.uleb128 0x31
 2066 0177 13       		.uleb128 0x13
 2067 0178 52       		.uleb128 0x52
 2068 0179 01       		.uleb128 0x1
 2069 017a B842     		.uleb128 0x2138
 2070 017c 0B       		.uleb128 0xb
 2071 017d 55       		.uleb128 0x55
 2072 017e 17       		.uleb128 0x17
 2073 017f 58       		.uleb128 0x58
 2074 0180 0B       		.uleb128 0xb
 2075 0181 59       		.uleb128 0x59
 2076 0182 0B       		.uleb128 0xb
 2077 0183 57       		.uleb128 0x57
 2078 0184 0B       		.uleb128 0xb
 2079 0185 01       		.uleb128 0x1
 2080 0186 13       		.uleb128 0x13
 2081 0187 00       		.byte	0
 2082 0188 00       		.byte	0
 2083 0189 1C       		.uleb128 0x1c
 2084 018a 1D       		.uleb128 0x1d
 2085 018b 01       		.byte	0x1
 2086 018c 31       		.uleb128 0x31
 2087 018d 13       		.uleb128 0x13
 2088 018e 52       		.uleb128 0x52
 2089 018f 01       		.uleb128 0x1
 2090 0190 B842     		.uleb128 0x2138
 2091 0192 0B       		.uleb128 0xb
 2092 0193 55       		.uleb128 0x55
 2093 0194 17       		.uleb128 0x17
 2094 0195 58       		.uleb128 0x58
 2095 0196 0B       		.uleb128 0xb
 2096 0197 59       		.uleb128 0x59
 2097 0198 05       		.uleb128 0x5
 2098 0199 57       		.uleb128 0x57
 2099 019a 0B       		.uleb128 0xb
 2100 019b 00       		.byte	0
 2101 019c 00       		.byte	0
 2102 019d 1D       		.uleb128 0x1d
 2103 019e 1D       		.uleb128 0x1d
 2104 019f 01       		.byte	0x1
 2105 01a0 31       		.uleb128 0x31
 2106 01a1 13       		.uleb128 0x13
 2107 01a2 52       		.uleb128 0x52
 2108 01a3 01       		.uleb128 0x1
 2109 01a4 B842     		.uleb128 0x2138
ARM GAS  /tmp/ccomGlrN.s 			page 38


 2110 01a6 0B       		.uleb128 0xb
 2111 01a7 11       		.uleb128 0x11
 2112 01a8 01       		.uleb128 0x1
 2113 01a9 12       		.uleb128 0x12
 2114 01aa 06       		.uleb128 0x6
 2115 01ab 58       		.uleb128 0x58
 2116 01ac 0B       		.uleb128 0xb
 2117 01ad 59       		.uleb128 0x59
 2118 01ae 05       		.uleb128 0x5
 2119 01af 57       		.uleb128 0x57
 2120 01b0 0B       		.uleb128 0xb
 2121 01b1 00       		.byte	0
 2122 01b2 00       		.byte	0
 2123 01b3 1E       		.uleb128 0x1e
 2124 01b4 05       		.uleb128 0x5
 2125 01b5 00       		.byte	0
 2126 01b6 31       		.uleb128 0x31
 2127 01b7 13       		.uleb128 0x13
 2128 01b8 02       		.uleb128 0x2
 2129 01b9 17       		.uleb128 0x17
 2130 01ba B742     		.uleb128 0x2137
 2131 01bc 17       		.uleb128 0x17
 2132 01bd 00       		.byte	0
 2133 01be 00       		.byte	0
 2134 01bf 1F       		.uleb128 0x1f
 2135 01c0 1D       		.uleb128 0x1d
 2136 01c1 01       		.byte	0x1
 2137 01c2 31       		.uleb128 0x31
 2138 01c3 13       		.uleb128 0x13
 2139 01c4 52       		.uleb128 0x52
 2140 01c5 01       		.uleb128 0x1
 2141 01c6 B842     		.uleb128 0x2138
 2142 01c8 0B       		.uleb128 0xb
 2143 01c9 55       		.uleb128 0x55
 2144 01ca 17       		.uleb128 0x17
 2145 01cb 58       		.uleb128 0x58
 2146 01cc 0B       		.uleb128 0xb
 2147 01cd 59       		.uleb128 0x59
 2148 01ce 0B       		.uleb128 0xb
 2149 01cf 57       		.uleb128 0x57
 2150 01d0 0B       		.uleb128 0xb
 2151 01d1 00       		.byte	0
 2152 01d2 00       		.byte	0
 2153 01d3 20       		.uleb128 0x20
 2154 01d4 898201   		.uleb128 0x4109
 2155 01d7 01       		.byte	0x1
 2156 01d8 11       		.uleb128 0x11
 2157 01d9 01       		.uleb128 0x1
 2158 01da 31       		.uleb128 0x31
 2159 01db 13       		.uleb128 0x13
 2160 01dc 01       		.uleb128 0x1
 2161 01dd 13       		.uleb128 0x13
 2162 01de 00       		.byte	0
 2163 01df 00       		.byte	0
 2164 01e0 21       		.uleb128 0x21
 2165 01e1 2E       		.uleb128 0x2e
 2166 01e2 00       		.byte	0
ARM GAS  /tmp/ccomGlrN.s 			page 39


 2167 01e3 03       		.uleb128 0x3
 2168 01e4 0E       		.uleb128 0xe
 2169 01e5 3A       		.uleb128 0x3a
 2170 01e6 0B       		.uleb128 0xb
 2171 01e7 3B       		.uleb128 0x3b
 2172 01e8 05       		.uleb128 0x5
 2173 01e9 39       		.uleb128 0x39
 2174 01ea 0B       		.uleb128 0xb
 2175 01eb 27       		.uleb128 0x27
 2176 01ec 19       		.uleb128 0x19
 2177 01ed 20       		.uleb128 0x20
 2178 01ee 0B       		.uleb128 0xb
 2179 01ef 00       		.byte	0
 2180 01f0 00       		.byte	0
 2181 01f1 22       		.uleb128 0x22
 2182 01f2 2E       		.uleb128 0x2e
 2183 01f3 01       		.byte	0x1
 2184 01f4 03       		.uleb128 0x3
 2185 01f5 0E       		.uleb128 0xe
 2186 01f6 3A       		.uleb128 0x3a
 2187 01f7 0B       		.uleb128 0xb
 2188 01f8 3B       		.uleb128 0x3b
 2189 01f9 05       		.uleb128 0x5
 2190 01fa 39       		.uleb128 0x39
 2191 01fb 0B       		.uleb128 0xb
 2192 01fc 27       		.uleb128 0x27
 2193 01fd 19       		.uleb128 0x19
 2194 01fe 20       		.uleb128 0x20
 2195 01ff 0B       		.uleb128 0xb
 2196 0200 01       		.uleb128 0x1
 2197 0201 13       		.uleb128 0x13
 2198 0202 00       		.byte	0
 2199 0203 00       		.byte	0
 2200 0204 23       		.uleb128 0x23
 2201 0205 05       		.uleb128 0x5
 2202 0206 00       		.byte	0
 2203 0207 03       		.uleb128 0x3
 2204 0208 0E       		.uleb128 0xe
 2205 0209 3A       		.uleb128 0x3a
 2206 020a 0B       		.uleb128 0xb
 2207 020b 3B       		.uleb128 0x3b
 2208 020c 05       		.uleb128 0x5
 2209 020d 39       		.uleb128 0x39
 2210 020e 0B       		.uleb128 0xb
 2211 020f 49       		.uleb128 0x49
 2212 0210 13       		.uleb128 0x13
 2213 0211 00       		.byte	0
 2214 0212 00       		.byte	0
 2215 0213 24       		.uleb128 0x24
 2216 0214 2E       		.uleb128 0x2e
 2217 0215 00       		.byte	0
 2218 0216 3F       		.uleb128 0x3f
 2219 0217 19       		.uleb128 0x19
 2220 0218 3C       		.uleb128 0x3c
 2221 0219 19       		.uleb128 0x19
 2222 021a 6E       		.uleb128 0x6e
 2223 021b 0E       		.uleb128 0xe
ARM GAS  /tmp/ccomGlrN.s 			page 40


 2224 021c 03       		.uleb128 0x3
 2225 021d 0E       		.uleb128 0xe
 2226 021e 3A       		.uleb128 0x3a
 2227 021f 0B       		.uleb128 0xb
 2228 0220 3B       		.uleb128 0x3b
 2229 0221 0B       		.uleb128 0xb
 2230 0222 39       		.uleb128 0x39
 2231 0223 0B       		.uleb128 0xb
 2232 0224 00       		.byte	0
 2233 0225 00       		.byte	0
 2234 0226 00       		.byte	0
 2235              		.section	.debug_loc,"",%progbits
 2236              	.Ldebug_loc0:
 2237              	.LVUS2:
 2238 0000 00       		.uleb128 0
 2239 0001 00       		.uleb128 .LVU38
 2240 0002 00       		.uleb128 .LVU38
 2241 0003 00       		.uleb128 .LVU41
 2242 0004 00       		.uleb128 .LVU41
 2243 0005 00       		.uleb128 0
 2244              	.LLST2:
 2245 0006 00000000 		.4byte	.LVL6
 2246 000a 14000000 		.4byte	.LVL8
 2247 000e 0100     		.2byte	0x1
 2248 0010 50       		.byte	0x50
 2249 0011 14000000 		.4byte	.LVL8
 2250 0015 1F000000 		.4byte	.LVL10-1
 2251 0019 0400     		.2byte	0x4
 2252 001b 71       		.byte	0x71
 2253 001c B87F     		.sleb128 -72
 2254 001e 9F       		.byte	0x9f
 2255 001f 1F000000 		.4byte	.LVL10-1
 2256 0023 24000000 		.4byte	.LFE303
 2257 0027 0400     		.2byte	0x4
 2258 0029 F3       		.byte	0xf3
 2259 002a 01       		.uleb128 0x1
 2260 002b 50       		.byte	0x50
 2261 002c 9F       		.byte	0x9f
 2262 002d 00000000 		.4byte	0
 2263 0031 00000000 		.4byte	0
 2264              	.LVUS3:
 2265 0035 00       		.uleb128 0
 2266 0036 00       		.uleb128 .LVU37
 2267 0037 00       		.uleb128 .LVU37
 2268 0038 00       		.uleb128 .LVU39
 2269 0039 00       		.uleb128 .LVU39
 2270 003a 00       		.uleb128 .LVU41
 2271 003b 00       		.uleb128 .LVU41
 2272 003c 00       		.uleb128 0
 2273              	.LLST3:
 2274 003d 00000000 		.4byte	.LVL6
 2275 0041 10000000 		.4byte	.LVL7
 2276 0045 0100     		.2byte	0x1
 2277 0047 51       		.byte	0x51
 2278 0048 10000000 		.4byte	.LVL7
 2279 004c 18000000 		.4byte	.LVL9
 2280 0050 0100     		.2byte	0x1
ARM GAS  /tmp/ccomGlrN.s 			page 41


 2281 0052 54       		.byte	0x54
 2282 0053 18000000 		.4byte	.LVL9
 2283 0057 1F000000 		.4byte	.LVL10-1
 2284 005b 0400     		.2byte	0x4
 2285 005d 70       		.byte	0x70
 2286 005e B87F     		.sleb128 -72
 2287 0060 9F       		.byte	0x9f
 2288 0061 1F000000 		.4byte	.LVL10-1
 2289 0065 24000000 		.4byte	.LFE303
 2290 0069 0400     		.2byte	0x4
 2291 006b F3       		.byte	0xf3
 2292 006c 01       		.uleb128 0x1
 2293 006d 51       		.byte	0x51
 2294 006e 9F       		.byte	0x9f
 2295 006f 00000000 		.4byte	0
 2296 0073 00000000 		.4byte	0
 2297              	.LVUS0:
 2298 0077 06       		.uleb128 .LVU16
 2299 0078 00       		.uleb128 .LVU18
 2300              	.LLST0:
 2301 0079 00000000 		.4byte	.LVL2
 2302 007d 06000000 		.4byte	.LVL3
 2303 0081 0300     		.2byte	0x3
 2304 0083 08       		.byte	0x8
 2305 0084 20       		.byte	0x20
 2306 0085 9F       		.byte	0x9f
 2307 0086 00000000 		.4byte	0
 2308 008a 00000000 		.4byte	0
 2309              	.LVUS1:
 2310 008e 05       		.uleb128 .LVU26
 2311 008f 00       		.uleb128 .LVU28
 2312              	.LLST1:
 2313 0090 12000000 		.4byte	.LVL4
 2314 0094 18000000 		.4byte	.LVL5
 2315 0098 0200     		.2byte	0x2
 2316 009a 30       		.byte	0x30
 2317 009b 9F       		.byte	0x9f
 2318 009c 00000000 		.4byte	0
 2319 00a0 00000000 		.4byte	0
 2320              		.section	.debug_aranges,"",%progbits
 2321 0000 4C000000 		.4byte	0x4c
 2322 0004 0200     		.2byte	0x2
 2323 0006 00000000 		.4byte	.Ldebug_info0
 2324 000a 04       		.byte	0x4
 2325 000b 00       		.byte	0
 2326 000c 0000     		.2byte	0
 2327 000e 0000     		.2byte	0
 2328 0010 00000000 		.4byte	.LFB301
 2329 0014 24000000 		.4byte	.LFE301-.LFB301
 2330 0018 00000000 		.4byte	.LFB302
 2331 001c 20000000 		.4byte	.LFE302-.LFB302
 2332 0020 00000000 		.4byte	.LFB303
 2333 0024 24000000 		.4byte	.LFE303-.LFB303
 2334 0028 00000000 		.4byte	.LFB304
 2335 002c 0C000000 		.4byte	.LFE304-.LFB304
 2336 0030 00000000 		.4byte	.LFB305
 2337 0034 0C000000 		.4byte	.LFE305-.LFB305
ARM GAS  /tmp/ccomGlrN.s 			page 42


 2338 0038 00000000 		.4byte	.LFB306
 2339 003c 0C000000 		.4byte	.LFE306-.LFB306
 2340 0040 00000000 		.4byte	.LFB307
 2341 0044 0C000000 		.4byte	.LFE307-.LFB307
 2342 0048 00000000 		.4byte	0
 2343 004c 00000000 		.4byte	0
 2344              		.section	.debug_ranges,"",%progbits
 2345              	.Ldebug_ranges0:
 2346 0000 00000000 		.4byte	.LBB24
 2347 0004 00000000 		.4byte	.LBE24
 2348 0008 00000000 		.4byte	.LBB29
 2349 000c 00000000 		.4byte	.LBE29
 2350 0010 00000000 		.4byte	.LBB30
 2351 0014 06000000 		.4byte	.LBE30
 2352 0018 00000000 		.4byte	0
 2353 001c 00000000 		.4byte	0
 2354 0020 12000000 		.4byte	.LBB31
 2355 0024 12000000 		.4byte	.LBE31
 2356 0028 12000000 		.4byte	.LBB36
 2357 002c 12000000 		.4byte	.LBE36
 2358 0030 12000000 		.4byte	.LBB37
 2359 0034 18000000 		.4byte	.LBE37
 2360 0038 00000000 		.4byte	0
 2361 003c 00000000 		.4byte	0
 2362 0040 00000000 		.4byte	.LFB301
 2363 0044 24000000 		.4byte	.LFE301
 2364 0048 00000000 		.4byte	.LFB302
 2365 004c 20000000 		.4byte	.LFE302
 2366 0050 00000000 		.4byte	.LFB303
 2367 0054 24000000 		.4byte	.LFE303
 2368 0058 00000000 		.4byte	.LFB304
 2369 005c 0C000000 		.4byte	.LFE304
 2370 0060 00000000 		.4byte	.LFB305
 2371 0064 0C000000 		.4byte	.LFE305
 2372 0068 00000000 		.4byte	.LFB306
 2373 006c 0C000000 		.4byte	.LFE306
 2374 0070 00000000 		.4byte	.LFB307
 2375 0074 0C000000 		.4byte	.LFE307
 2376 0078 00000000 		.4byte	0
 2377 007c 00000000 		.4byte	0
 2378              		.section	.debug_line,"",%progbits
 2379              	.Ldebug_line0:
 2380 0000 60030000 		.section	.debug_str,"MS",%progbits,1
 2380      03003D02 
 2380      00000201 
 2380      FB0E0D00 
 2380      01010101 
 2381              	.LASF53:
 2382 0000 72656164 		.ascii	"ready_list_t\000"
 2382      795F6C69 
 2382      73745F74 
 2382      00
 2383              	.LASF94:
 2384 000d 77747472 		.ascii	"wttrp\000"
 2384      7000
 2385              	.LASF59:
 2386 0013 64656C74 		.ascii	"delta\000"
ARM GAS  /tmp/ccomGlrN.s 			page 43


 2386      6100
 2387              	.LASF91:
 2388 0019 7264796D 		.ascii	"rdymsg\000"
 2388      736700
 2389              	.LASF17:
 2390 0020 75696E74 		.ascii	"uint64_t\000"
 2390      36345F74 
 2390      00
 2391              	.LASF72:
 2392 0029 6B65726E 		.ascii	"kernel_stats\000"
 2392      656C5F73 
 2392      74617473 
 2392      00
 2393              	.LASF7:
 2394 0036 5F5F7569 		.ascii	"__uint8_t\000"
 2394      6E74385F 
 2394      7400
 2395              	.LASF52:
 2396 0040 70726576 		.ascii	"prev\000"
 2396      00
 2397              	.LASF78:
 2398 0045 706F7274 		.ascii	"port_intctx\000"
 2398      5F696E74 
 2398      63747800 
 2399              	.LASF51:
 2400 0051 63685F74 		.ascii	"ch_threads_queue\000"
 2400      68726561 
 2400      64735F71 
 2400      75657565 
 2400      00
 2401              	.LASF64:
 2402 0062 73797374 		.ascii	"system_debug_t\000"
 2402      656D5F64 
 2402      65627567 
 2402      5F7400
 2403              	.LASF115:
 2404 0071 706F7274 		.ascii	"port_lock\000"
 2404      5F6C6F63 
 2404      6B00
 2405              	.LASF82:
 2406 007b 776F7273 		.ascii	"worst\000"
 2406      7400
 2407              	.LASF85:
 2408 0081 74696D65 		.ascii	"time_measurement_t\000"
 2408      5F6D6561 
 2408      73757265 
 2408      6D656E74 
 2408      5F7400
 2409              	.LASF13:
 2410 0094 6C6F6E67 		.ascii	"long long unsigned int\000"
 2410      206C6F6E 
 2410      6720756E 
 2410      7369676E 
 2410      65642069 
 2411              	.LASF92:
 2412 00ab 65786974 		.ascii	"exitcode\000"
 2412      636F6465 
ARM GAS  /tmp/ccomGlrN.s 			page 44


 2412      00
 2413              	.LASF71:
 2414 00b4 6D61696E 		.ascii	"mainthread\000"
 2414      74687265 
 2414      616400
 2415              	.LASF95:
 2416 00bf 73656E74 		.ascii	"sentmsg\000"
 2416      6D736700 
 2417              	.LASF61:
 2418 00c7 76697274 		.ascii	"virtual_timers_list_t\000"
 2418      75616C5F 
 2418      74696D65 
 2418      72735F6C 
 2418      6973745F 
 2419              	.LASF119:
 2420 00dd 6368544D 		.ascii	"chTMObjectInit\000"
 2420      4F626A65 
 2420      6374496E 
 2420      697400
 2421              	.LASF49:
 2422 00ec 6E657874 		.ascii	"next\000"
 2422      00
 2423              	.LASF19:
 2424 00f1 72747469 		.ascii	"rttime_t\000"
 2424      6D655F74 
 2424      00
 2425              	.LASF1:
 2426 00fa 6C6F6E67 		.ascii	"long long int\000"
 2426      206C6F6E 
 2426      6720696E 
 2426      7400
 2427              	.LASF3:
 2428 0108 7369676E 		.ascii	"signed char\000"
 2428      65642063 
 2428      68617200 
 2429              	.LASF124:
 2430 0114 62617365 		.ascii	"basePri\000"
 2430      50726900 
 2431              	.LASF70:
 2432 011c 76746C69 		.ascii	"vtlist\000"
 2432      737400
 2433              	.LASF114:
 2434 0123 706F7274 		.ascii	"port_unlock\000"
 2434      5F756E6C 
 2434      6F636B00 
 2435              	.LASF117:
 2436 012f 6368544D 		.ascii	"chTMStartMeasurementX\000"
 2436      53746172 
 2436      744D6561 
 2436      73757265 
 2436      6D656E74 
 2437              	.LASF35:
 2438 0145 73746174 		.ascii	"state\000"
 2438      6500
 2439              	.LASF116:
 2440 014b 6368544D 		.ascii	"chTMStopMeasurementX\000"
 2440      53746F70 
ARM GAS  /tmp/ccomGlrN.s 			page 45


 2440      4D656173 
 2440      7572656D 
 2440      656E7458 
 2441              	.LASF9:
 2442 0160 6C6F6E67 		.ascii	"long int\000"
 2442      20696E74 
 2442      00
 2443              	.LASF21:
 2444 0169 74737461 		.ascii	"tstate_t\000"
 2444      74655F74 
 2444      00
 2445              	.LASF60:
 2446 0172 66756E63 		.ascii	"func\000"
 2446      00
 2447              	.LASF44:
 2448 0177 73746174 		.ascii	"stats\000"
 2448      7300
 2449              	.LASF10:
 2450 017d 5F5F7569 		.ascii	"__uint32_t\000"
 2450      6E743332 
 2450      5F7400
 2451              	.LASF75:
 2452 0188 72656761 		.ascii	"regarm_t\000"
 2452      726D5F74 
 2452      00
 2453              	.LASF65:
 2454 0191 63685F73 		.ascii	"ch_system_debug\000"
 2454      79737465 
 2454      6D5F6465 
 2454      62756700 
 2455              	.LASF38:
 2456 01a1 77616974 		.ascii	"waiting\000"
 2456      696E6700 
 2457              	.LASF103:
 2458 01a9 6D757465 		.ascii	"mutex_t\000"
 2458      785F7400 
 2459              	.LASF74:
 2460 01b1 73797369 		.ascii	"sysinterval_t\000"
 2460      6E746572 
 2460      76616C5F 
 2460      7400
 2461              	.LASF26:
 2462 01bf 636E745F 		.ascii	"cnt_t\000"
 2462      7400
 2463              	.LASF39:
 2464 01c5 6D736771 		.ascii	"msgqueue\000"
 2464      75657565 
 2464      00
 2465              	.LASF0:
 2466 01ce 756E7369 		.ascii	"unsigned int\000"
 2466      676E6564 
 2466      20696E74 
 2466      00
 2467              	.LASF96:
 2468 01db 77747365 		.ascii	"wtsemp\000"
 2468      6D7000
 2469              	.LASF86:
ARM GAS  /tmp/ccomGlrN.s 			page 46


 2470 01e2 6E5F6972 		.ascii	"n_irq\000"
 2470      7100
 2471              	.LASF29:
 2472 01e8 71756575 		.ascii	"queue\000"
 2472      6500
 2473              	.LASF43:
 2474 01ee 6D706F6F 		.ascii	"mpool\000"
 2474      6C00
 2475              	.LASF6:
 2476 01f4 73686F72 		.ascii	"short unsigned int\000"
 2476      7420756E 
 2476      7369676E 
 2476      65642069 
 2476      6E7400
 2477              	.LASF90:
 2478 0207 6B65726E 		.ascii	"kernel_stats_t\000"
 2478      656C5F73 
 2478      74617473 
 2478      5F7400
 2479              	.LASF33:
 2480 0216 6E616D65 		.ascii	"name\000"
 2480      00
 2481              	.LASF47:
 2482 021b 63685F74 		.ascii	"ch_thread\000"
 2482      68726561 
 2482      6400
 2483              	.LASF24:
 2484 0225 6D73675F 		.ascii	"msg_t\000"
 2484      7400
 2485              	.LASF83:
 2486 022b 6C617374 		.ascii	"last\000"
 2486      00
 2487              	.LASF27:
 2488 0230 75636E74 		.ascii	"ucnt_t\000"
 2488      5F7400
 2489              	.LASF40:
 2490 0237 6570656E 		.ascii	"epending\000"
 2490      64696E67 
 2490      00
 2491              	.LASF67:
 2492 0240 63685F73 		.ascii	"ch_system_t\000"
 2492      79737465 
 2492      6D5F7400 
 2493              	.LASF20:
 2494 024c 746D6F64 		.ascii	"tmode_t\000"
 2494      655F7400 
 2495              	.LASF89:
 2496 0254 6D5F6372 		.ascii	"m_crit_isr\000"
 2496      69745F69 
 2496      737200
 2497              	.LASF54:
 2498 025f 63685F72 		.ascii	"ch_ready_list\000"
 2498      65616479 
 2498      5F6C6973 
 2498      7400
 2499              	.LASF25:
 2500 026d 6576656E 		.ascii	"eventmask_t\000"
ARM GAS  /tmp/ccomGlrN.s 			page 47


 2500      746D6173 
 2500      6B5F7400 
 2501              	.LASF118:
 2502 0279 6368544D 		.ascii	"chTMChainMeasurementToX\000"
 2502      43686169 
 2502      6E4D6561 
 2502      73757265 
 2502      6D656E74 
 2503              	.LASF76:
 2504 0291 73746B61 		.ascii	"stkalign_t\000"
 2504      6C69676E 
 2504      5F7400
 2505              	.LASF31:
 2506 029c 6E657765 		.ascii	"newer\000"
 2506      7200
 2507              	.LASF42:
 2508 02a2 7265616C 		.ascii	"realprio\000"
 2508      7072696F 
 2508      00
 2509              	.LASF107:
 2510 02ab 5F737461 		.ascii	"_stats_stop_measure_crit_thd\000"
 2510      74735F73 
 2510      746F705F 
 2510      6D656173 
 2510      7572655F 
 2511              	.LASF18:
 2512 02c8 7274636E 		.ascii	"rtcnt_t\000"
 2512      745F7400 
 2513              	.LASF45:
 2514 02d0 74687265 		.ascii	"thread_reference_t\000"
 2514      61645F72 
 2514      65666572 
 2514      656E6365 
 2514      5F7400
 2515              	.LASF62:
 2516 02e3 63685F76 		.ascii	"ch_virtual_timers_list\000"
 2516      69727475 
 2516      616C5F74 
 2516      696D6572 
 2516      735F6C69 
 2517              	.LASF2:
 2518 02fa 6C6F6E67 		.ascii	"long double\000"
 2518      20646F75 
 2518      626C6500 
 2519              	.LASF77:
 2520 0306 706F7274 		.ascii	"port_context\000"
 2520      5F636F6E 
 2520      74657874 
 2520      00
 2521              	.LASF80:
 2522 0313 746D5F63 		.ascii	"tm_calibration_t\000"
 2522      616C6962 
 2522      72617469 
 2522      6F6E5F74 
 2522      00
 2523              	.LASF30:
 2524 0324 7072696F 		.ascii	"prio\000"
ARM GAS  /tmp/ccomGlrN.s 			page 48


 2524      00
 2525              	.LASF106:
 2526 0329 5F737461 		.ascii	"_stats_start_measure_crit_isr\000"
 2526      74735F73 
 2526      74617274 
 2526      5F6D6561 
 2526      73757265 
 2527              	.LASF55:
 2528 0347 63757272 		.ascii	"current\000"
 2528      656E7400 
 2529              	.LASF12:
 2530 034f 5F5F7569 		.ascii	"__uint64_t\000"
 2530      6E743634 
 2530      5F7400
 2531              	.LASF84:
 2532 035a 63756D75 		.ascii	"cumulative\000"
 2532      6C617469 
 2532      766500
 2533              	.LASF22:
 2534 0365 74726566 		.ascii	"trefs_t\000"
 2534      735F7400 
 2535              	.LASF37:
 2536 036d 72656673 		.ascii	"refs\000"
 2536      00
 2537              	.LASF57:
 2538 0372 76697274 		.ascii	"virtual_timer_t\000"
 2538      75616C5F 
 2538      74696D65 
 2538      725F7400 
 2539              	.LASF23:
 2540 0382 74707269 		.ascii	"tprio_t\000"
 2540      6F5F7400 
 2541              	.LASF87:
 2542 038a 6E5F6374 		.ascii	"n_ctxswc\000"
 2542      78737763 
 2542      00
 2543              	.LASF104:
 2544 0393 5F426F6F 		.ascii	"_Bool\000"
 2544      6C00
 2545              	.LASF15:
 2546 0399 696E7433 		.ascii	"int32_t\000"
 2546      325F7400 
 2547              	.LASF4:
 2548 03a1 756E7369 		.ascii	"unsigned char\000"
 2548      676E6564 
 2548      20636861 
 2548      7200
 2549              	.LASF5:
 2550 03af 73686F72 		.ascii	"short int\000"
 2550      7420696E 
 2550      7400
 2551              	.LASF63:
 2552 03b9 6C617374 		.ascii	"lasttime\000"
 2552      74696D65 
 2552      00
 2553              	.LASF98:
 2554 03c2 65776D61 		.ascii	"ewmask\000"
ARM GAS  /tmp/ccomGlrN.s 			page 49


 2554      736B00
 2555              	.LASF68:
 2556 03c9 63685F73 		.ascii	"ch_system\000"
 2556      79737465 
 2556      6D00
 2557              	.LASF34:
 2558 03d3 77616261 		.ascii	"wabase\000"
 2558      736500
 2559              	.LASF58:
 2560 03da 63685F76 		.ascii	"ch_virtual_timer\000"
 2560      69727475 
 2560      616C5F74 
 2560      696D6572 
 2560      00
 2561              	.LASF99:
 2562 03eb 63685F73 		.ascii	"ch_semaphore\000"
 2562      656D6170 
 2562      686F7265 
 2562      00
 2563              	.LASF16:
 2564 03f8 75696E74 		.ascii	"uint32_t\000"
 2564      33325F74 
 2564      00
 2565              	.LASF110:
 2566 0401 5F737461 		.ascii	"_stats_increase_irq\000"
 2566      74735F69 
 2566      6E637265 
 2566      6173655F 
 2566      69727100 
 2567              	.LASF48:
 2568 0415 63685F74 		.ascii	"ch_threads_list\000"
 2568      68726561 
 2568      64735F6C 
 2568      69737400 
 2569              	.LASF101:
 2570 0425 6F776E65 		.ascii	"owner\000"
 2570      7200
 2571              	.LASF11:
 2572 042b 6C6F6E67 		.ascii	"long unsigned int\000"
 2572      20756E73 
 2572      69676E65 
 2572      6420696E 
 2572      7400
 2573              	.LASF122:
 2574 043d 2F686F6D 		.ascii	"/home/mahathi/mathur407_payload2/4.0.7/build/CUAVv5"
 2574      652F6D61 
 2574      68617468 
 2574      692F6D61 
 2574      74687572 
 2575 0470 00       		.ascii	"\000"
 2576              	.LASF102:
 2577 0471 63686172 		.ascii	"char\000"
 2577      00
 2578              	.LASF32:
 2579 0476 6F6C6465 		.ascii	"older\000"
 2579      7200
 2580              	.LASF8:
ARM GAS  /tmp/ccomGlrN.s 			page 50


 2581 047c 5F5F696E 		.ascii	"__int32_t\000"
 2581      7433325F 
 2581      7400
 2582              	.LASF97:
 2583 0486 77746D74 		.ascii	"wtmtxp\000"
 2583      787000
 2584              	.LASF112:
 2585 048d 706F7274 		.ascii	"port_unlock_from_isr\000"
 2585      5F756E6C 
 2585      6F636B5F 
 2585      66726F6D 
 2585      5F697372 
 2586              	.LASF28:
 2587 04a2 74687265 		.ascii	"thread_t\000"
 2587      61645F74 
 2587      00
 2588              	.LASF81:
 2589 04ab 62657374 		.ascii	"best\000"
 2589      00
 2590              	.LASF73:
 2591 04b0 73797374 		.ascii	"systime_t\000"
 2591      696D655F 
 2591      7400
 2592              	.LASF56:
 2593 04ba 76746675 		.ascii	"vtfunc_t\000"
 2593      6E635F74 
 2593      00
 2594              	.LASF123:
 2595 04c3 5F5F7365 		.ascii	"__set_BASEPRI\000"
 2595      745F4241 
 2595      53455052 
 2595      4900
 2596              	.LASF66:
 2597 04d1 70616E69 		.ascii	"panic_msg\000"
 2597      635F6D73 
 2597      6700
 2598              	.LASF79:
 2599 04db 6F666673 		.ascii	"offset\000"
 2599      657400
 2600              	.LASF113:
 2601 04e2 706F7274 		.ascii	"port_lock_from_isr\000"
 2601      5F6C6F63 
 2601      6B5F6672 
 2601      6F6D5F69 
 2601      737200
 2602              	.LASF50:
 2603 04f5 74687265 		.ascii	"threads_queue_t\000"
 2603      6164735F 
 2603      71756575 
 2603      655F7400 
 2604              	.LASF100:
 2605 0505 63685F6D 		.ascii	"ch_mutex\000"
 2605      75746578 
 2605      00
 2606              	.LASF69:
 2607 050e 726C6973 		.ascii	"rlist\000"
 2607      7400
ARM GAS  /tmp/ccomGlrN.s 			page 51


 2608              	.LASF120:
 2609 0514 474E5520 		.ascii	"GNU C17 10.2.1 20201103 (release) -mcpu=cortex-m7 -"
 2609      43313720 
 2609      31302E32 
 2609      2E312032 
 2609      30323031 
 2610 0547 6D666C6F 		.ascii	"mfloat-abi=hard -mfpu=fpv4-sp-d16 -mno-thumb-interw"
 2610      61742D61 
 2610      62693D68 
 2610      61726420 
 2610      2D6D6670 
 2611 057a 6F726B20 		.ascii	"ork -mthumb -march=armv7e-m+fp -g -Os -fomit-frame-"
 2611      2D6D7468 
 2611      756D6220 
 2611      2D6D6172 
 2611      63683D61 
 2612 05ad 706F696E 		.ascii	"pointer -falign-functions=16 -ffunction-sections -f"
 2612      74657220 
 2612      2D66616C 
 2612      69676E2D 
 2612      66756E63 
 2613 05e0 64617461 		.ascii	"data-sections -fno-common -fsingle-precision-consta"
 2613      2D736563 
 2613      74696F6E 
 2613      73202D66 
 2613      6E6F2D63 
 2614 0613 6E7400   		.ascii	"nt\000"
 2615              	.LASF14:
 2616 0616 75696E74 		.ascii	"uint8_t\000"
 2616      385F7400 
 2617              	.LASF36:
 2618 061e 666C6167 		.ascii	"flags\000"
 2618      7300
 2619              	.LASF108:
 2620 0624 5F737461 		.ascii	"_stats_start_measure_crit_thd\000"
 2620      74735F73 
 2620      74617274 
 2620      5F6D6561 
 2620      73757265 
 2621              	.LASF109:
 2622 0642 5F737461 		.ascii	"_stats_ctxswc\000"
 2622      74735F63 
 2622      74787377 
 2622      6300
 2623              	.LASF93:
 2624 0650 77746F62 		.ascii	"wtobjp\000"
 2624      6A7000
 2625              	.LASF46:
 2626 0657 74687265 		.ascii	"threads_list_t\000"
 2626      6164735F 
 2626      6C697374 
 2626      5F7400
 2627              	.LASF111:
 2628 0666 5F737461 		.ascii	"_stats_init\000"
 2628      74735F69 
 2628      6E697400 
 2629              	.LASF105:
ARM GAS  /tmp/ccomGlrN.s 			page 52


 2630 0672 5F737461 		.ascii	"_stats_stop_measure_crit_isr\000"
 2630      74735F73 
 2630      746F705F 
 2630      6D656173 
 2630      7572655F 
 2631              	.LASF121:
 2632 068f 2E2E2F2E 		.ascii	"../../modules/ChibiOS/os/rt/src/chstats.c\000"
 2632      2E2F6D6F 
 2632      64756C65 
 2632      732F4368 
 2632      6962694F 
 2633              	.LASF41:
 2634 06b9 6D74786C 		.ascii	"mtxlist\000"
 2634      69737400 
 2635              	.LASF88:
 2636 06c1 6D5F6372 		.ascii	"m_crit_thd\000"
 2636      69745F74 
 2636      686400
 2637              		.ident	"GCC: (GNU Arm Embedded Toolchain 10-2020-q4-major) 10.2.1 20201103 (release)"
ARM GAS  /tmp/ccomGlrN.s 			page 53


DEFINED SYMBOLS
                            *ABS*:0000000000000000 chstats.c
     /tmp/ccomGlrN.s:18     .text._stats_init:0000000000000000 $t
     /tmp/ccomGlrN.s:26     .text._stats_init:0000000000000000 _stats_init
     /tmp/ccomGlrN.s:62     .text._stats_init:0000000000000020 $d
     /tmp/ccomGlrN.s:67     .text._stats_increase_irq:0000000000000000 $t
     /tmp/ccomGlrN.s:74     .text._stats_increase_irq:0000000000000000 _stats_increase_irq
     /tmp/ccomGlrN.s:162    .text._stats_increase_irq:000000000000001c $d
     /tmp/ccomGlrN.s:167    .text._stats_ctxswc:0000000000000000 $t
     /tmp/ccomGlrN.s:174    .text._stats_ctxswc:0000000000000000 _stats_ctxswc
     /tmp/ccomGlrN.s:214    .text._stats_ctxswc:0000000000000020 $d
     /tmp/ccomGlrN.s:219    .text._stats_start_measure_crit_thd:0000000000000000 $t
     /tmp/ccomGlrN.s:226    .text._stats_start_measure_crit_thd:0000000000000000 _stats_start_measure_crit_thd
     /tmp/ccomGlrN.s:240    .text._stats_start_measure_crit_thd:0000000000000008 $d
     /tmp/ccomGlrN.s:245    .text._stats_stop_measure_crit_thd:0000000000000000 $t
     /tmp/ccomGlrN.s:252    .text._stats_stop_measure_crit_thd:0000000000000000 _stats_stop_measure_crit_thd
     /tmp/ccomGlrN.s:266    .text._stats_stop_measure_crit_thd:0000000000000008 $d
     /tmp/ccomGlrN.s:271    .text._stats_start_measure_crit_isr:0000000000000000 $t
     /tmp/ccomGlrN.s:278    .text._stats_start_measure_crit_isr:0000000000000000 _stats_start_measure_crit_isr
     /tmp/ccomGlrN.s:292    .text._stats_start_measure_crit_isr:0000000000000008 $d
     /tmp/ccomGlrN.s:297    .text._stats_stop_measure_crit_isr:0000000000000000 $t
     /tmp/ccomGlrN.s:304    .text._stats_stop_measure_crit_isr:0000000000000000 _stats_stop_measure_crit_isr
     /tmp/ccomGlrN.s:318    .text._stats_stop_measure_crit_isr:0000000000000008 $d

UNDEFINED SYMBOLS
chTMObjectInit
ch
chTMChainMeasurementToX
chTMStartMeasurementX
chTMStopMeasurementX
