ARM GAS  /tmp/ccomGlrN.s 			page 1


   1              		.cpu cortex-m7
   2              		.eabi_attribute 27, 1
   3              		.eabi_attribute 28, 1
   4              		.eabi_attribute 20, 1
   5              		.eabi_attribute 21, 1
   6              		.eabi_attribute 23, 3
   7              		.eabi_attribute 24, 1
   8              		.eabi_attribute 25, 1
   9              		.eabi_attribute 26, 1
  10              		.eabi_attribute 30, 4
  11              		.eabi_attribute 34, 1
  12              		.eabi_attribute 18, 4
  13              		.file	"chstats.c"
  14              		.text
  15              	.Ltext0:
  16              		.cfi_sections	.debug_frame
  17              		.section	.text._stats_init,"ax",%progbits
  18              		.align	1
  19              		.global	_stats_init
  20              		.arch armv7e-m
  21              		.syntax unified
  22              		.thumb
  23              		.thumb_func
  24              		.fpu fpv4-sp-d16
  25              		.type	_stats_init, %function
  26              	_stats_init:
  27              	.LFB301:
  28              		.file 1 "../../modules/ChibiOS/os/rt/src/chstats.c"
  29              		.loc 1 62 24 view -0
  30              		.cfi_startproc
  31              		@ args = 0, pretend = 0, frame = 0
  32              		@ frame_needed = 0, uses_anonymous_args = 0
  33              		.loc 1 64 3 view .LVU1
  34              		.loc 1 62 24 is_stmt 0 view .LVU2
  35 0000 10B5     		push	{r4, lr}
  36              		.cfi_def_cfa_offset 8
  37              		.cfi_offset 4, -8
  38              		.cfi_offset 14, -4
  39              		.loc 1 64 25 view .LVU3
  40 0002 074C     		ldr	r4, .L2
  41 0004 0023     		movs	r3, #0
  42              		.loc 1 66 3 view .LVU4
  43 0006 04F1A000 		add	r0, r4, #160
  44              		.loc 1 65 28 view .LVU5
  45 000a C4E92633 		strd	r3, r3, [r4, #152]
  46              		.loc 1 66 3 is_stmt 1 view .LVU6
  47 000e FFF7FEFF 		bl	chTMObjectInit
  48              	.LVL0:
  49              		.loc 1 67 3 view .LVU7
  50 0012 04F1B800 		add	r0, r4, #184
  51              		.loc 1 68 1 is_stmt 0 view .LVU8
  52 0016 BDE81040 		pop	{r4, lr}
  53              		.cfi_restore 14
  54              		.cfi_restore 4
  55              		.cfi_def_cfa_offset 0
  56              		.loc 1 67 3 view .LVU9
  57 001a FFF7FEBF 		b	chTMObjectInit
ARM GAS  /tmp/ccomGlrN.s 			page 2


  58              	.LVL1:
  59              	.L3:
  60 001e 00BF     		.align	2
  61              	.L2:
  62 0020 00000000 		.word	ch
  63              		.cfi_endproc
  64              	.LFE301:
  65              		.size	_stats_init, .-_stats_init
  66              		.section	.text._stats_increase_irq,"ax",%progbits
  67              		.align	1
  68              		.global	_stats_increase_irq
  69              		.syntax unified
  70              		.thumb
  71              		.thumb_func
  72              		.fpu fpv4-sp-d16
  73              		.type	_stats_increase_irq, %function
  74              	_stats_increase_irq:
  75              	.LFB302:
  76              		.loc 1 73 32 is_stmt 1 view -0
  77              		.cfi_startproc
  78              		@ args = 0, pretend = 0, frame = 0
  79              		@ frame_needed = 0, uses_anonymous_args = 0
  80              		@ link register save eliminated.
  81              		.loc 1 75 3 view .LVU11
  82              	.LBB24:
  83              	.LBI24:
  84              		.file 2 "../../modules/ChibiOS/os/common/ports/ARMCMx/chcore_v7m.h"
  85              		.loc 2 641 20 view .LVU12
  86              	.LBE24:
  87              		.loc 2 643 3 view .LVU13
  88              	.LBB29:
  89              	.LBB25:
  90              	.LBI25:
  91              		.loc 2 602 20 view .LVU14
  92              	.LBE25:
  93              	.LBE29:
  94              		.loc 2 610 3 view .LVU15
  95              	.LVL2:
  96              	.LBB30:
  97              	.LBB28:
  98              	.LBB26:
  99              	.LBI26:
 100              		.file 3 "../../modules/ChibiOS/os/common/ext/ARM/CMSIS/Core/Include/cmsis_gcc.h"
 101              		.loc 3 491 27 view .LVU16
 102              	.LBB27:
 103              		.loc 3 493 3 view .LVU17
 104 0000 2023     		movs	r3, #32
 105              		.syntax unified
 106              	@ 493 "../../modules/ChibiOS/os/common/ext/ARM/CMSIS/Core/Include/cmsis_gcc.h" 1
 107 0002 83F31188 		MSR basepri, r3
 108              	@ 0 "" 2
 109              	.LVL3:
 110              		.loc 3 493 3 is_stmt 0 view .LVU18
 111              		.thumb
 112              		.syntax unified
 113              	.LBE27:
 114              	.LBE26:
ARM GAS  /tmp/ccomGlrN.s 			page 3


 115              	.LBE28:
 116              	.LBE30:
 117              		.loc 1 76 3 is_stmt 1 view .LVU19
 118              		.loc 1 76 24 is_stmt 0 view .LVU20
 119 0006 054A     		ldr	r2, .L5
 120 0008 D2F89830 		ldr	r3, [r2, #152]
 121 000c 0133     		adds	r3, r3, #1
 122 000e C2F89830 		str	r3, [r2, #152]
 123              		.loc 1 77 3 is_stmt 1 view .LVU21
 124              	.LBB31:
 125              	.LBI31:
 126              		.loc 2 652 20 view .LVU22
 127              	.LBE31:
 128              		.loc 2 654 3 view .LVU23
 129              	.LBB36:
 130              	.LBB32:
 131              	.LBI32:
 132              		.loc 2 626 20 view .LVU24
 133              	.LBE32:
 134              	.LBE36:
 135              		.loc 2 629 3 view .LVU25
 136              	.LVL4:
 137              	.LBB37:
 138              	.LBB35:
 139              	.LBB33:
 140              	.LBI33:
 141              		.loc 3 491 27 view .LVU26
 142              	.LBB34:
 143              		.loc 3 493 3 view .LVU27
 144 0012 0023     		movs	r3, #0
 145              		.syntax unified
 146              	@ 493 "../../modules/ChibiOS/os/common/ext/ARM/CMSIS/Core/Include/cmsis_gcc.h" 1
 147 0014 83F31188 		MSR basepri, r3
 148              	@ 0 "" 2
 149              	.LVL5:
 150              		.loc 3 493 3 is_stmt 0 view .LVU28
 151              		.thumb
 152              		.syntax unified
 153              	.LBE34:
 154              	.LBE33:
 155              	.LBE35:
 156              	.LBE37:
 157              		.loc 1 78 1 view .LVU29
 158 0018 7047     		bx	lr
 159              	.L6:
 160 001a 00BF     		.align	2
 161              	.L5:
 162 001c 00000000 		.word	ch
 163              		.cfi_endproc
 164              	.LFE302:
 165              		.size	_stats_increase_irq, .-_stats_increase_irq
 166              		.section	.text._stats_ctxswc,"ax",%progbits
 167              		.align	1
 168              		.global	_stats_ctxswc
 169              		.syntax unified
 170              		.thumb
 171              		.thumb_func
ARM GAS  /tmp/ccomGlrN.s 			page 4


 172              		.fpu fpv4-sp-d16
 173              		.type	_stats_ctxswc, %function
 174              	_stats_ctxswc:
 175              	.LVL6:
 176              	.LFB303:
 177              		.loc 1 86 50 is_stmt 1 view -0
 178              		.cfi_startproc
 179              		@ args = 0, pretend = 0, frame = 0
 180              		@ frame_needed = 0, uses_anonymous_args = 0
 181              		@ link register save eliminated.
 182              		.loc 1 88 3 view .LVU31
 183              		.loc 1 88 27 is_stmt 0 view .LVU32
 184 0000 074A     		ldr	r2, .L8
 185 0002 D2F89C30 		ldr	r3, [r2, #156]
 186              		.loc 1 86 50 view .LVU33
 187 0006 10B4     		push	{r4}
 188              		.cfi_def_cfa_offset 4
 189              		.cfi_offset 4, -4
 190              		.loc 1 86 50 view .LVU34
 191 0008 0C46     		mov	r4, r1
 192              		.loc 1 88 27 view .LVU35
 193 000a 0133     		adds	r3, r3, #1
 194              		.loc 1 89 3 view .LVU36
 195 000c 00F14801 		add	r1, r0, #72
 196              	.LVL7:
 197              		.loc 1 89 3 view .LVU37
 198 0010 04F14800 		add	r0, r4, #72
 199              	.LVL8:
 200              		.loc 1 90 1 view .LVU38
 201 0014 5DF8044B 		ldr	r4, [sp], #4
 202              		.cfi_restore 4
 203              		.cfi_def_cfa_offset 0
 204              	.LVL9:
 205              		.loc 1 88 27 view .LVU39
 206 0018 C2F89C30 		str	r3, [r2, #156]
 207              		.loc 1 89 3 is_stmt 1 view .LVU40
 208 001c FFF7FEBF 		b	chTMChainMeasurementToX
 209              	.LVL10:
 210              	.L9:
 211              		.loc 1 89 3 is_stmt 0 view .LVU41
 212              		.align	2
 213              	.L8:
 214 0020 00000000 		.word	ch
 215              		.cfi_endproc
 216              	.LFE303:
 217              		.size	_stats_ctxswc, .-_stats_ctxswc
 218              		.section	.text._stats_start_measure_crit_thd,"ax",%progbits
 219              		.align	1
 220              		.global	_stats_start_measure_crit_thd
 221              		.syntax unified
 222              		.thumb
 223              		.thumb_func
 224              		.fpu fpv4-sp-d16
 225              		.type	_stats_start_measure_crit_thd, %function
 226              	_stats_start_measure_crit_thd:
 227              	.LFB304:
 228              		.loc 1 95 42 is_stmt 1 view -0
ARM GAS  /tmp/ccomGlrN.s 			page 5


 229              		.cfi_startproc
 230              		@ args = 0, pretend = 0, frame = 0
 231              		@ frame_needed = 0, uses_anonymous_args = 0
 232              		@ link register save eliminated.
 233              		.loc 1 97 3 view .LVU43
 234 0000 0148     		ldr	r0, .L11
 235 0002 FFF7FEBF 		b	chTMStartMeasurementX
 236              	.LVL11:
 237              	.L12:
 238 0006 00BF     		.align	2
 239              	.L11:
 240 0008 A0000000 		.word	ch+160
 241              		.cfi_endproc
 242              	.LFE304:
 243              		.size	_stats_start_measure_crit_thd, .-_stats_start_measure_crit_thd
 244              		.section	.text._stats_stop_measure_crit_thd,"ax",%progbits
 245              		.align	1
 246              		.global	_stats_stop_measure_crit_thd
 247              		.syntax unified
 248              		.thumb
 249              		.thumb_func
 250              		.fpu fpv4-sp-d16
 251              		.type	_stats_stop_measure_crit_thd, %function
 252              	_stats_stop_measure_crit_thd:
 253              	.LFB305:
 254              		.loc 1 103 41 view -0
 255              		.cfi_startproc
 256              		@ args = 0, pretend = 0, frame = 0
 257              		@ frame_needed = 0, uses_anonymous_args = 0
 258              		@ link register save eliminated.
 259              		.loc 1 105 3 view .LVU45
 260 0000 0148     		ldr	r0, .L14
 261 0002 FFF7FEBF 		b	chTMStopMeasurementX
 262              	.LVL12:
 263              	.L15:
 264 0006 00BF     		.align	2
 265              	.L14:
 266 0008 A0000000 		.word	ch+160
 267              		.cfi_endproc
 268              	.LFE305:
 269              		.size	_stats_stop_measure_crit_thd, .-_stats_stop_measure_crit_thd
 270              		.section	.text._stats_start_measure_crit_isr,"ax",%progbits
 271              		.align	1
 272              		.global	_stats_start_measure_crit_isr
 273              		.syntax unified
 274              		.thumb
 275              		.thumb_func
 276              		.fpu fpv4-sp-d16
 277              		.type	_stats_start_measure_crit_isr, %function
 278              	_stats_start_measure_crit_isr:
 279              	.LFB306:
 280              		.loc 1 111 42 view -0
 281              		.cfi_startproc
 282              		@ args = 0, pretend = 0, frame = 0
 283              		@ frame_needed = 0, uses_anonymous_args = 0
 284              		@ link register save eliminated.
 285              		.loc 1 113 3 view .LVU47
ARM GAS  /tmp/ccomGlrN.s 			page 6


 286 0000 0148     		ldr	r0, .L17
 287 0002 FFF7FEBF 		b	chTMStartMeasurementX
 288              	.LVL13:
 289              	.L18:
 290 0006 00BF     		.align	2
 291              	.L17:
 292 0008 B8000000 		.word	ch+184
 293              		.cfi_endproc
 294              	.LFE306:
 295              		.size	_stats_start_measure_crit_isr, .-_stats_start_measure_crit_isr
 296              		.section	.text._stats_stop_measure_crit_isr,"ax",%progbits
 297              		.align	1
 298              		.global	_stats_stop_measure_crit_isr
 299              		.syntax unified
 300              		.thumb
 301              		.thumb_func
 302              		.fpu fpv4-sp-d16
 303              		.type	_stats_stop_measure_crit_isr, %function
 304              	_stats_stop_measure_crit_isr:
 305              	.LFB307:
 306              		.loc 1 119 41 view -0
 307              		.cfi_startproc
 308              		@ args = 0, pretend = 0, frame = 0
 309              		@ frame_needed = 0, uses_anonymous_args = 0
 310              		@ link register save eliminated.
 311              		.loc 1 121 3 view .LVU49
 312 0000 0148     		ldr	r0, .L20
 313 0002 FFF7FEBF 		b	chTMStopMeasurementX
 314              	.LVL14:
 315              	.L21:
 316 0006 00BF     		.align	2
 317              	.L20:
 318 0008 B8000000 		.word	ch+184
 319              		.cfi_endproc
 320              	.LFE307:
 321              		.size	_stats_stop_measure_crit_isr, .-_stats_stop_measure_crit_isr
 322              		.text
 323              	.Letext0:
 324              		.file 4 "/opt/gcc-arm-none-eabi-10-2020-q4-major/arm-none-eabi/include/machine/_default_types.h"
 325              		.file 5 "/opt/gcc-arm-none-eabi-10-2020-q4-major/arm-none-eabi/include/sys/_stdint.h"
 326              		.file 6 "../../modules/ChibiOS/os/common/ports/ARMCMx/compilers/GCC/chtypes.h"
 327              		.file 7 "../../modules/ChibiOS/os/rt/include/chsystypes.h"
 328              		.file 8 "../../modules/ChibiOS/os/rt/include/chschd.h"
 329              		.file 9 "../../modules/ChibiOS/os/rt/include/chtime.h"
 330              		.file 10 "../../modules/ChibiOS/os/common/ports/ARMCMx/chcore.h"
 331              		.file 11 "../../modules/ChibiOS/os/rt/include/chtm.h"
 332              		.file 12 "../../modules/ChibiOS/os/rt/include/chstats.h"
 333              		.file 13 "../../modules/ChibiOS/os/rt/include/chsem.h"
 334              		.file 14 "../../modules/ChibiOS/os/rt/include/chmtx.h"