ARM GAS  /tmp/ccvkgzdO.s 			page 1


   1              		.cpu cortex-m7
   2              		.eabi_attribute 27, 1
   3              		.eabi_attribute 28, 1
   4              		.eabi_attribute 20, 1
   5              		.eabi_attribute 21, 1
   6              		.eabi_attribute 23, 3
   7              		.eabi_attribute 24, 1
   8              		.eabi_attribute 25, 1
   9              		.eabi_attribute 26, 1
  10              		.eabi_attribute 30, 4
  11              		.eabi_attribute 34, 1
  12              		.eabi_attribute 18, 4
  13              		.file	"chsys.c"
  14              		.text
  15              	.Ltext0:
  16              		.cfi_sections	.debug_frame
  17              		.section	.text._idle_thread,"ax",%progbits
  18              		.align	1
  19              		.arch armv7e-m
  20              		.syntax unified
  21              		.thumb
  22              		.thumb_func
  23              		.fpu fpv4-sp-d16
  24              		.type	_idle_thread, %function
  25              	_idle_thread:
  26              	.LFB301:
  27              		.file 1 "../../modules/ChibiOS/os/rt/src/chsys.c"
  28              		.loc 1 72 35 view -0
  29              		.cfi_startproc
  30              		@ Volatile: function does not return.
  31              		@ args = 0, pretend = 0, frame = 0
  32              		@ frame_needed = 0, uses_anonymous_args = 0
  33              		@ link register save eliminated.
  34              	.LVL0:
  35              	.L2:
  36              		.loc 1 74 3 discriminator 1 view .LVU1
  37              		.loc 1 76 3 discriminator 1 view .LVU2
  38              		.loc 1 79 5 discriminator 1 view .LVU3
  39              		.file 2 "../../modules/ChibiOS/os/common/ports/ARMCMx/chcore_v7m.h"
  40              		.loc 2 707 1 discriminator 1 view .LVU4
  41 0000 FEE7     		b	.L2
  42              		.cfi_endproc
  43              	.LFE301:
  44              		.size	_idle_thread, .-_idle_thread
  45              		.section	.text.chSysInit,"ax",%progbits
  46              		.align	1
  47              		.global	chSysInit
  48              		.syntax unified
  49              		.thumb
  50              		.thumb_func
  51              		.fpu fpv4-sp-d16
  52              		.type	chSysInit, %function
  53              	chSysInit:
  54              	.LFB302:
  55              		.loc 1 100 22 view -0
  56              		.cfi_startproc
  57              		@ args = 0, pretend = 0, frame = 0
ARM GAS  /tmp/ccvkgzdO.s 			page 2


  58              		@ frame_needed = 0, uses_anonymous_args = 0
  59              		.loc 1 102 3 view .LVU6
  60              		.loc 1 100 22 is_stmt 0 view .LVU7
  61 0000 10B5     		push	{r4, lr}
  62              		.cfi_def_cfa_offset 8
  63              		.cfi_offset 4, -8
  64              		.cfi_offset 14, -4
  65              		.loc 1 129 11 view .LVU8
  66 0002 214C     		ldr	r4, .L4
  67              		.loc 1 102 3 view .LVU9
  68 0004 FFF7FEFF 		bl	_scheduler_init
  69              	.LVL1:
  70              		.loc 1 103 3 is_stmt 1 view .LVU10
  71 0008 FFF7FEFF 		bl	_vt_init
  72              	.LVL2:
  73              		.loc 1 104 16 view .LVU11
  74              		.loc 1 111 3 view .LVU12
  75 000c FFF7FEFF 		bl	_tm_init
  76              	.LVL3:
  77              		.loc 1 114 3 view .LVU13
  78 0010 FFF7FEFF 		bl	_core_init
  79              	.LVL4:
  80              		.loc 1 117 3 view .LVU14
  81 0014 FFF7FEFF 		bl	_heap_init
  82              	.LVL5:
  83              		.loc 1 120 3 view .LVU15
  84 0018 FFF7FEFF 		bl	_factory_init
  85              	.LVL6:
  86              		.loc 1 123 3 view .LVU16
  87 001c FFF7FEFF 		bl	_stats_init
  88              	.LVL7:
  89              		.loc 1 129 3 view .LVU17
  90              		.loc 1 129 11 is_stmt 0 view .LVU18
  91 0020 8022     		movs	r2, #128
  92 0022 1A49     		ldr	r1, .L4+4
  93 0024 2046     		mov	r0, r4
  94 0026 FFF7FEFF 		bl	_thread_init
  95              	.LVL8:
  96              	.LBB113:
  97              		.loc 1 143 19 view .LVU19
  98 002a 194B     		ldr	r3, .L4+8
  99              	.LBE113:
 100              	.LBB114:
 101              	.LBB115:
 102              	.LBB116:
 103              	.LBB117:
 104              		.file 3 "../../modules/ChibiOS/os/common/ext/ARM/CMSIS/Core/Include/core_cm7.h"
 105              		.loc 3 1872 14 view .LVU20
 106 002c 194A     		ldr	r2, .L4+12
 107              	.LBE117:
 108              	.LBE116:
 109              	.LBE115:
 110              	.LBE114:
 111              	.LBB127:
 112              		.loc 1 143 19 view .LVU21
 113 002e C361     		str	r3, [r0, #28]
 114              	.LBE127:
ARM GAS  /tmp/ccvkgzdO.s 			page 3


 115              		.loc 1 150 16 view .LVU22
 116 0030 0123     		movs	r3, #1
 117              		.loc 1 129 9 view .LVU23
 118 0032 44F8180C 		str	r0, [r4, #-24]
 119              	.LBB128:
 120              		.loc 1 142 5 is_stmt 1 view .LVU24
 121              		.loc 1 143 5 view .LVU25
 122              	.LBE128:
 123              		.loc 1 150 3 view .LVU26
 124              		.loc 1 158 3 is_stmt 0 view .LVU27
 125 0036 4830     		adds	r0, r0, #72
 126              		.loc 1 150 16 view .LVU28
 127 0038 00F8283C 		strb	r3, [r0, #-40]
 128              		.loc 1 154 3 is_stmt 1 view .LVU29
 129              	.LBB129:
 130              	.LBI114:
 131              		.loc 2 514 20 view .LVU30
 132              	.LBB126:
 133              		.loc 2 517 3 view .LVU31
 134              	.LBB120:
 135              	.LBI116:
 136              		.loc 3 1865 22 view .LVU32
 137              	.LVL9:
 138              	.LBB118:
 139              		.loc 3 1867 3 view .LVU33
 140              		.loc 3 1868 3 view .LVU34
 141              		.loc 3 1870 3 view .LVU35
 142              		.loc 3 1870 14 is_stmt 0 view .LVU36
 143 003c 164B     		ldr	r3, .L4+16
 144 003e D968     		ldr	r1, [r3, #12]
 145              	.LVL10:
 146              		.loc 3 1871 3 is_stmt 1 view .LVU37
 147              		.loc 3 1871 13 is_stmt 0 view .LVU38
 148 0040 21F4E061 		bic	r1, r1, #1792
 149              	.LVL11:
 150              		.loc 3 1871 13 view .LVU39
 151 0044 0904     		lsls	r1, r1, #16
 152 0046 090C     		lsrs	r1, r1, #16
 153              	.LVL12:
 154              		.loc 3 1872 3 is_stmt 1 view .LVU40
 155              		.loc 3 1872 14 is_stmt 0 view .LVU41
 156 0048 0A43     		orrs	r2, r2, r1
 157              	.LVL13:
 158              		.loc 3 1875 3 is_stmt 1 view .LVU42
 159              	.LBE118:
 160              	.LBE120:
 161              		.loc 2 522 12 is_stmt 0 view .LVU43
 162 004a 1449     		ldr	r1, .L4+20
 163              	.LBB121:
 164              	.LBB119:
 165              		.loc 3 1875 14 view .LVU44
 166 004c DA60     		str	r2, [r3, #12]
 167              	.LVL14:
 168              		.loc 3 1875 14 view .LVU45
 169              	.LBE119:
 170              	.LBE121:
 171              		.loc 2 520 3 is_stmt 1 view .LVU46
ARM GAS  /tmp/ccvkgzdO.s 			page 4


 172              		.loc 2 520 20 is_stmt 0 view .LVU47
 173 004e D3F8FC20 		ldr	r2, [r3, #252]
 174 0052 42F08072 		orr	r2, r2, #16777216
 175 0056 C3F8FC20 		str	r2, [r3, #252]
 176              		.loc 2 522 3 is_stmt 1 view .LVU48
 177              		.loc 2 522 12 is_stmt 0 view .LVU49
 178 005a 114A     		ldr	r2, .L4+24
 179 005c C2F8B01F 		str	r1, [r2, #4016]
 180              		.loc 2 524 3 is_stmt 1 view .LVU50
 181              		.loc 2 524 13 is_stmt 0 view .LVU51
 182 0060 1168     		ldr	r1, [r2]
 183 0062 41F00101 		orr	r1, r1, #1
 184 0066 1160     		str	r1, [r2]
 185              		.loc 2 528 3 is_stmt 1 view .LVU52
 186              	.LVL15:
 187              	.LBB122:
 188              	.LBI122:
 189              		.loc 3 2024 22 view .LVU53
 190              	.LBB123:
 191              		.loc 3 2026 3 view .LVU54
 192              		.loc 3 2032 5 view .LVU55
 193              		.loc 3 2032 47 is_stmt 0 view .LVU56
 194 0068 1022     		movs	r2, #16
 195 006a DA77     		strb	r2, [r3, #31]
 196              	.LVL16:
 197              		.loc 3 2032 47 view .LVU57
 198              	.LBE123:
 199              	.LBE122:
 200              		.loc 2 530 3 is_stmt 1 view .LVU58
 201              	.LBB124:
 202              	.LBI124:
 203              		.loc 3 2024 22 view .LVU59
 204              	.LBB125:
 205              		.loc 3 2026 3 view .LVU60
 206              		.loc 3 2032 5 view .LVU61
 207              		.loc 3 2032 47 is_stmt 0 view .LVU62
 208 006c 2022     		movs	r2, #32
 209 006e 83F82220 		strb	r2, [r3, #34]
 210              	.LVL17:
 211              		.loc 3 2032 47 view .LVU63
 212              	.LBE125:
 213              	.LBE124:
 214              	.LBE126:
 215              	.LBE129:
 216              		.loc 1 158 3 is_stmt 1 view .LVU64
 217 0072 FFF7FEFF 		bl	chTMStartMeasurementX
 218              	.LVL18:
 219              		.loc 1 162 3 view .LVU65
 220              		.loc 1 162 28 view .LVU66
 221              		.loc 1 165 3 view .LVU67
 222              	.LBB130:
 223              	.LBI130:
 224              		.file 4 "../../modules/ChibiOS/os/rt/include/chsys.h"
 225              		.loc 4 342 20 view .LVU68
 226              	.LBE130:
 227              		.loc 4 344 22 view .LVU69
 228              		.loc 4 345 3 view .LVU70
ARM GAS  /tmp/ccvkgzdO.s 			page 5


 229              	.LBB138:
 230              	.LBB131:
 231              	.LBI131:
 232              		.loc 2 686 20 view .LVU71
 233              	.LBE131:
 234              	.LBE138:
 235              		.loc 2 689 3 view .LVU72
 236              	.LBB139:
 237              	.LBB136:
 238              	.LBB132:
 239              	.LBI132:
 240              		.file 5 "../../modules/ChibiOS/os/common/ext/ARM/CMSIS/Core/Include/cmsis_gcc.h"
 241              		.loc 5 491 27 view .LVU73
 242              	.LBB133:
 243              		.loc 5 493 3 view .LVU74
 244 0076 0023     		movs	r3, #0
 245              		.syntax unified
 246              	@ 493 "../../modules/ChibiOS/os/common/ext/ARM/CMSIS/Core/Include/cmsis_gcc.h" 1
 247 0078 83F31188 		MSR basepri, r3
 248              	@ 0 "" 2
 249              	.LVL19:
 250              		.loc 5 493 3 is_stmt 0 view .LVU75
 251              		.thumb
 252              		.syntax unified
 253              	.LBE133:
 254              	.LBE132:
 255              	.LBE136:
 256              	.LBE139:
 257              		.loc 2 691 3 is_stmt 1 view .LVU76
 258              	.LBB140:
 259              	.LBB137:
 260              	.LBB134:
 261              	.LBI134:
 262              		.loc 5 129 27 view .LVU77
 263              	.LBB135:
 264              		.loc 5 131 3 view .LVU78
 265              		.syntax unified
 266              	@ 131 "../../modules/ChibiOS/os/common/ext/ARM/CMSIS/Core/Include/cmsis_gcc.h" 1
 267 007c 62B6     		cpsie i
 268              	@ 0 "" 2
 269              		.thumb
 270              		.syntax unified
 271              	.LBE135:
 272              	.LBE134:
 273              	.LBE137:
 274              	.LBE140:
 275              	.LBB141:
 276              		.loc 1 169 5 view .LVU79
 277              		.loc 1 181 5 view .LVU80
 278              		.loc 1 181 12 is_stmt 0 view .LVU81
 279 007e 0948     		ldr	r0, .L4+28
 280              	.LBE141:
 281              		.loc 1 184 1 view .LVU82
 282 0080 BDE81040 		pop	{r4, lr}
 283              		.cfi_restore 14
 284              		.cfi_restore 4
 285              		.cfi_def_cfa_offset 0
ARM GAS  /tmp/ccvkgzdO.s 			page 6


 286              	.LBB142:
 287              		.loc 1 181 12 view .LVU83
 288 0084 FFF7FEBF 		b	chThdCreate
 289              	.LVL20:
 290              	.L5:
 291              		.align	2
 292              	.L4:
 293 0088 30000000 		.word	ch+48
 294 008c 00000000 		.word	ch_debug
 295 0090 00000000 		.word	__main_thread_stack_base__
 296 0094 0003FA05 		.word	100270848
 297 0098 00ED00E0 		.word	-536810240
 298 009c 55CEACC5 		.word	-978530731
 299 00a0 001000E0 		.word	-536866816
 300 00a4 00000000 		.word	.LANCHOR0
 301              	.LBE142:
 302              		.cfi_endproc
 303              	.LFE302:
 304              		.size	chSysInit, .-chSysInit
 305              		.section	.text.chSysHalt,"ax",%progbits
 306              		.align	1
 307              		.global	chSysHalt
 308              		.syntax unified
 309              		.thumb
 310              		.thumb_func
 311              		.fpu fpv4-sp-d16
 312              		.type	chSysHalt, %function
 313              	chSysHalt:
 314              	.LVL21:
 315              	.LFB303:
 316              		.loc 1 198 36 is_stmt 1 view -0
 317              		.cfi_startproc
 318              		@ Volatile: function does not return.
 319              		@ args = 0, pretend = 0, frame = 0
 320              		@ frame_needed = 0, uses_anonymous_args = 0
 321              		.loc 1 200 3 view .LVU85
 322              	.LBB143:
 323              	.LBI143:
 324              		.loc 2 662 20 view .LVU86
 325              	.LBE143:
 326              		.loc 2 664 3 view .LVU87
 327              	.LBB148:
 328              	.LBB144:
 329              	.LBI144:
 330              		.loc 5 140 27 view .LVU88
 331              	.LBB145:
 332              		.loc 5 142 3 view .LVU89
 333              	.LBE145:
 334              	.LBE144:
 335              	.LBE148:
 336              		.loc 1 198 36 is_stmt 0 view .LVU90
 337 0000 08B5     		push	{r3, lr}
 338              		.cfi_def_cfa_offset 8
 339              		.cfi_offset 3, -8
 340              		.cfi_offset 14, -4
 341              	.LBB149:
 342              	.LBB147:
ARM GAS  /tmp/ccvkgzdO.s 			page 7


 343              	.LBB146:
 344              		.loc 5 142 3 view .LVU91
 345              		.syntax unified
 346              	@ 142 "../../modules/ChibiOS/os/common/ext/ARM/CMSIS/Core/Include/cmsis_gcc.h" 1
 347 0002 72B6     		cpsid i
 348              	@ 0 "" 2
 349              		.thumb
 350              		.syntax unified
 351              	.LBE146:
 352              	.LBE147:
 353              	.LBE149:
 354              		.loc 1 203 22 is_stmt 1 view .LVU92
 355              		.loc 1 206 3 view .LVU93
 356              		.loc 1 206 20 is_stmt 0 view .LVU94
 357 0004 034B     		ldr	r3, .L8
 358 0006 D862     		str	r0, [r3, #44]
 359              		.loc 1 209 3 is_stmt 1 view .LVU95
 360              	.LBB150:
 361              		.loc 1 209 3 view .LVU96
 362              		.loc 1 209 3 view .LVU97
 363 0008 FFF7FEFF 		bl	memory_flush_all
 364              	.LVL22:
 365              		.loc 1 209 3 view .LVU98
 366              		.loc 1 209 3 view .LVU99
 367 000c FFF7FEFF 		bl	system_halt_hook
 368              	.LVL23:
 369              	.L7:
 370              	.LBE150:
 371              		.loc 1 209 3 discriminator 1 view .LVU100
 372              		.loc 1 212 3 discriminator 1 view .LVU101
 373              		.loc 1 213 3 discriminator 1 view .LVU102
 374              		.loc 1 212 9 discriminator 1 view .LVU103
 375 0010 FEE7     		b	.L7
 376              	.L9:
 377 0012 00BF     		.align	2
 378              	.L8:
 379 0014 00000000 		.word	ch
 380              		.cfi_endproc
 381              	.LFE303:
 382              		.size	chSysHalt, .-chSysHalt
 383              		.section	.text.chSysIntegrityCheckI,"ax",%progbits
 384              		.align	1
 385              		.global	chSysIntegrityCheckI
 386              		.syntax unified
 387              		.thumb
 388              		.thumb_func
 389              		.fpu fpv4-sp-d16
 390              		.type	chSysIntegrityCheckI, %function
 391              	chSysIntegrityCheckI:
 392              	.LVL24:
 393              	.LFB304:
 394              		.loc 1 240 46 view -0
 395              		.cfi_startproc
 396              		@ args = 0, pretend = 0, frame = 0
 397              		@ frame_needed = 0, uses_anonymous_args = 0
 398              		.loc 1 241 3 view .LVU105
 399              		.loc 1 243 21 view .LVU106
ARM GAS  /tmp/ccvkgzdO.s 			page 8


 400              		.loc 1 246 3 view .LVU107
 401              		.loc 1 246 6 is_stmt 0 view .LVU108
 402 0000 C207     		lsls	r2, r0, #31
 403              		.loc 1 240 46 view .LVU109
 404 0002 10B5     		push	{r4, lr}
 405              		.cfi_def_cfa_offset 8
 406              		.cfi_offset 4, -8
 407              		.cfi_offset 14, -4
 408              		.loc 1 246 6 view .LVU110
 409 0004 08D5     		bpl	.L11
 410              	.LBB151:
 411              		.loc 1 247 5 is_stmt 1 view .LVU111
 412              		.loc 1 250 5 view .LVU112
 413              	.LVL25:
 414              		.loc 1 251 5 view .LVU113
 415              		.loc 1 251 8 is_stmt 0 view .LVU114
 416 0006 1C4A     		ldr	r2, .L35
 417              		.loc 1 250 7 view .LVU115
 418 0008 0023     		movs	r3, #0
 419              		.loc 1 251 8 view .LVU116
 420 000a 1168     		ldr	r1, [r2]
 421              	.LVL26:
 422              		.loc 1 252 5 is_stmt 1 view .LVU117
 423              	.L12:
 424              		.loc 1 252 11 view .LVU118
 425 000c 9142     		cmp	r1, r2
 426 000e 1FD1     		bne	.L13
 427              		.loc 1 258 5 view .LVU119
 428              		.loc 1 258 8 is_stmt 0 view .LVU120
 429 0010 5168     		ldr	r1, [r2, #4]
 430              	.LVL27:
 431              		.loc 1 259 5 is_stmt 1 view .LVU121
 432              	.L14:
 433              		.loc 1 259 11 view .LVU122
 434 0012 9142     		cmp	r1, r2
 435 0014 1FD1     		bne	.L15
 436              		.loc 1 265 5 view .LVU123
 437              		.loc 1 265 8 is_stmt 0 view .LVU124
 438 0016 6BBB     		cbnz	r3, .L27
 439              	.LVL28:
 440              	.L11:
 441              		.loc 1 265 8 view .LVU125
 442              	.LBE151:
 443              		.loc 1 271 3 is_stmt 1 view .LVU126
 444              		.loc 1 271 6 is_stmt 0 view .LVU127
 445 0018 8307     		lsls	r3, r0, #30
 446 001a 0AD5     		bpl	.L17
 447              	.LBB152:
 448              		.loc 1 272 5 is_stmt 1 view .LVU128
 449              		.loc 1 275 5 view .LVU129
 450              	.LVL29:
 451              		.loc 1 276 5 view .LVU130
 452              		.loc 1 276 9 is_stmt 0 view .LVU131
 453 001c 164C     		ldr	r4, .L35
 454              		.loc 1 275 7 view .LVU132
 455 001e 0023     		movs	r3, #0
 456              		.loc 1 276 9 view .LVU133
ARM GAS  /tmp/ccvkgzdO.s 			page 9


 457 0020 2246     		mov	r2, r4
 458 0022 52F81C1F 		ldr	r1, [r2, #28]!
 459              	.LVL30:
 460              		.loc 1 277 5 is_stmt 1 view .LVU134
 461              	.L18:
 462              		.loc 1 277 11 view .LVU135
 463 0026 9142     		cmp	r1, r2
 464 0028 18D1     		bne	.L19
 465              		.loc 1 283 5 view .LVU136
 466              		.loc 1 283 9 is_stmt 0 view .LVU137
 467 002a 216A     		ldr	r1, [r4, #32]
 468              	.LVL31:
 469              		.loc 1 284 5 is_stmt 1 view .LVU138
 470              	.L20:
 471              		.loc 1 284 11 view .LVU139
 472 002c 9142     		cmp	r1, r2
 473 002e 18D1     		bne	.L21
 474              		.loc 1 290 5 view .LVU140
 475              		.loc 1 290 8 is_stmt 0 view .LVU141
 476 0030 03BB     		cbnz	r3, .L27
 477              	.LVL32:
 478              	.L17:
 479              		.loc 1 290 8 view .LVU142
 480              	.LBE152:
 481              		.loc 1 296 3 is_stmt 1 view .LVU143
 482              		.loc 1 296 6 is_stmt 0 view .LVU144
 483 0032 10F00400 		ands	r0, r0, #4
 484              	.LVL33:
 485              		.loc 1 296 6 view .LVU145
 486 0036 0AD0     		beq	.L16
 487              	.LBB153:
 488              		.loc 1 297 5 is_stmt 1 view .LVU146
 489              		.loc 1 300 5 view .LVU147
 490              	.LVL34:
 491              		.loc 1 301 5 view .LVU148
 492              		.loc 1 301 8 is_stmt 0 view .LVU149
 493 0038 0F4B     		ldr	r3, .L35
 494              		.loc 1 300 7 view .LVU150
 495 003a 0020     		movs	r0, #0
 496              		.loc 1 301 8 view .LVU151
 497 003c 1A69     		ldr	r2, [r3, #16]
 498              	.LVL35:
 499              		.loc 1 302 5 is_stmt 1 view .LVU152
 500              	.L22:
 501              		.loc 1 302 11 view .LVU153
 502 003e 9A42     		cmp	r2, r3
 503 0040 12D1     		bne	.L23
 504              		.loc 1 308 5 view .LVU154
 505              		.loc 1 308 8 is_stmt 0 view .LVU155
 506 0042 5A69     		ldr	r2, [r3, #20]
 507              	.LVL36:
 508              		.loc 1 309 5 is_stmt 1 view .LVU156
 509              	.L24:
 510              		.loc 1 309 11 view .LVU157
 511 0044 9A42     		cmp	r2, r3
 512 0046 12D1     		bne	.L25
 513              		.loc 1 315 5 view .LVU158
ARM GAS  /tmp/ccvkgzdO.s 			page 10


 514              		.loc 1 315 8 is_stmt 0 view .LVU159
 515 0048 0038     		subs	r0, r0, #0
 516              		.loc 1 315 8 view .LVU160
 517 004a 18BF     		it	ne
 518 004c 0120     		movne	r0, #1
 519              	.LVL37:
 520              	.L16:
 521              		.loc 1 315 8 view .LVU161
 522              	.LBE153:
 523              		.loc 1 328 1 view .LVU162
 524 004e 10BD     		pop	{r4, pc}
 525              	.LVL38:
 526              	.L13:
 527              	.LBB154:
 528              		.loc 1 253 7 is_stmt 1 view .LVU163
 529              		.loc 1 253 8 is_stmt 0 view .LVU164
 530 0050 0133     		adds	r3, r3, #1
 531              	.LVL39:
 532              		.loc 1 254 7 is_stmt 1 view .LVU165
 533              		.loc 1 254 10 is_stmt 0 view .LVU166
 534 0052 0968     		ldr	r1, [r1]
 535              	.LVL40:
 536              		.loc 1 254 10 view .LVU167
 537 0054 DAE7     		b	.L12
 538              	.L15:
 539              		.loc 1 260 7 is_stmt 1 view .LVU168
 540              		.loc 1 260 8 is_stmt 0 view .LVU169
 541 0056 013B     		subs	r3, r3, #1
 542              	.LVL41:
 543              		.loc 1 261 7 is_stmt 1 view .LVU170
 544              		.loc 1 261 10 is_stmt 0 view .LVU171
 545 0058 4968     		ldr	r1, [r1, #4]
 546              	.LVL42:
 547              		.loc 1 261 10 view .LVU172
 548 005a DAE7     		b	.L14
 549              	.LVL43:
 550              	.L19:
 551              		.loc 1 261 10 view .LVU173
 552              	.LBE154:
 553              	.LBB155:
 554              		.loc 1 278 7 is_stmt 1 view .LVU174
 555              		.loc 1 278 8 is_stmt 0 view .LVU175
 556 005c 0133     		adds	r3, r3, #1
 557              	.LVL44:
 558              		.loc 1 279 7 is_stmt 1 view .LVU176
 559              		.loc 1 279 11 is_stmt 0 view .LVU177
 560 005e 0968     		ldr	r1, [r1]
 561              	.LVL45:
 562              		.loc 1 279 11 view .LVU178
 563 0060 E1E7     		b	.L18
 564              	.L21:
 565              		.loc 1 285 7 is_stmt 1 view .LVU179
 566              		.loc 1 285 8 is_stmt 0 view .LVU180
 567 0062 013B     		subs	r3, r3, #1
 568              	.LVL46:
 569              		.loc 1 286 7 is_stmt 1 view .LVU181
 570              		.loc 1 286 11 is_stmt 0 view .LVU182
ARM GAS  /tmp/ccvkgzdO.s 			page 11


 571 0064 4968     		ldr	r1, [r1, #4]
 572              	.LVL47:
 573              		.loc 1 286 11 view .LVU183
 574 0066 E1E7     		b	.L20
 575              	.LVL48:
 576              	.L23:
 577              		.loc 1 286 11 view .LVU184
 578              	.LBE155:
 579              	.LBB156:
 580              		.loc 1 303 7 is_stmt 1 view .LVU185
 581              		.loc 1 303 8 is_stmt 0 view .LVU186
 582 0068 0130     		adds	r0, r0, #1
 583              	.LVL49:
 584              		.loc 1 304 7 is_stmt 1 view .LVU187
 585              		.loc 1 304 10 is_stmt 0 view .LVU188
 586 006a 1269     		ldr	r2, [r2, #16]
 587              	.LVL50:
 588              		.loc 1 304 10 view .LVU189
 589 006c E7E7     		b	.L22
 590              	.L25:
 591              		.loc 1 310 7 is_stmt 1 view .LVU190
 592              		.loc 1 310 8 is_stmt 0 view .LVU191
 593 006e 0138     		subs	r0, r0, #1
 594              	.LVL51:
 595              		.loc 1 311 7 is_stmt 1 view .LVU192
 596              		.loc 1 311 10 is_stmt 0 view .LVU193
 597 0070 5269     		ldr	r2, [r2, #20]
 598              	.LVL52:
 599              		.loc 1 311 10 view .LVU194
 600 0072 E7E7     		b	.L24
 601              	.LVL53:
 602              	.L27:
 603              		.loc 1 311 10 view .LVU195
 604              	.LBE156:
 605              	.LBB157:
 606              		.loc 1 266 14 view .LVU196
 607 0074 0120     		movs	r0, #1
 608              	.LVL54:
 609              		.loc 1 266 14 view .LVU197
 610 0076 EAE7     		b	.L16
 611              	.L36:
 612              		.align	2
 613              	.L35:
 614 0078 00000000 		.word	ch
 615              	.LBE157:
 616              		.cfi_endproc
 617              	.LFE304:
 618              		.size	chSysIntegrityCheckI, .-chSysIntegrityCheckI
 619              		.section	.text.chSysTimerHandlerI,"ax",%progbits
 620              		.align	1
 621              		.global	chSysTimerHandlerI
 622              		.syntax unified
 623              		.thumb
 624              		.thumb_func
 625              		.fpu fpv4-sp-d16
 626              		.type	chSysTimerHandlerI, %function
 627              	chSysTimerHandlerI:
ARM GAS  /tmp/ccvkgzdO.s 			page 12


 628              	.LFB305:
 629              		.loc 1 341 31 is_stmt 1 view -0
 630              		.cfi_startproc
 631              		@ args = 0, pretend = 0, frame = 0
 632              		@ frame_needed = 0, uses_anonymous_args = 0
 633              		.loc 1 343 21 view .LVU199
 634              		.loc 1 355 3 view .LVU200
 635              	.LBB185:
 636              	.LBI185:
 637              		.file 6 "../../modules/ChibiOS/os/rt/include/chvt.h"
 638              		.loc 6 370 20 view .LVU201
 639              	.LBB186:
 640              		.loc 6 372 21 view .LVU202
 641              		.loc 6 394 3 view .LVU203
 642              		.loc 6 395 3 view .LVU204
 643              		.loc 6 396 3 view .LVU205
 644              		.loc 6 399 3 view .LVU206
 645              	.LBE186:
 646              	.LBE185:
 647              		.loc 1 341 31 is_stmt 0 view .LVU207
 648 0000 2DE9F047 		push	{r4, r5, r6, r7, r8, r9, r10, lr}
 649              		.cfi_def_cfa_offset 32
 650              		.cfi_offset 4, -32
 651              		.cfi_offset 5, -28
 652              		.cfi_offset 6, -24
 653              		.cfi_offset 7, -20
 654              		.cfi_offset 8, -16
 655              		.cfi_offset 9, -12
 656              		.cfi_offset 10, -8
 657              		.cfi_offset 14, -4
 658              	.LBB258:
 659              	.LBB249:
 660              		.loc 6 399 7 view .LVU208
 661 0004 204D     		ldr	r5, .L44
 662              	.LBB187:
 663              		.loc 6 424 17 view .LVU209
 664 0006 4FF00008 		mov	r8, #0
 665              	.LBE187:
 666              		.loc 6 399 7 view .LVU210
 667 000a 2E46     		mov	r6, r5
 668 000c 56F81C4F 		ldr	r4, [r6, #28]!
 669              	.LVL55:
 670              	.L41:
 671              		.loc 6 400 3 is_stmt 1 view .LVU211
 672              		.loc 6 403 5 view .LVU212
 673              	.LBB222:
 674              	.LBI222:
 675              		.loc 6 115 25 view .LVU213
 676              	.LBE222:
 677              	.LBE249:
 678              	.LBE258:
 679              		.loc 6 120 3 view .LVU214
 680              	.LBB259:
 681              	.LBB250:
 682              	.LBB230:
 683              	.LBB223:
 684              	.LBI223:
ARM GAS  /tmp/ccvkgzdO.s 			page 13


 685              		.file 7 "../../modules/ChibiOS/os/common/ports/ARMCMx/chcore_timer.h"
 686              		.loc 7 105 25 view .LVU215
 687              	.LBE223:
 688              	.LBE230:
 689              	.LBE250:
 690              	.LBE259:
 691              		.loc 7 107 3 view .LVU216
 692              	.LBB260:
 693              	.LBB251:
 694              	.LBB231:
 695              	.LBB228:
 696              	.LBB224:
 697              	.LBI224:
 698              		.file 8 "../../modules/ChibiOS/os/hal/ports/STM32/LLD/TIMv1/hal_st_lld.h"
 699              		.loc 8 166 25 view .LVU217
 700              	.LBB225:
 701              		.loc 8 168 3 view .LVU218
 702              		.loc 8 168 10 is_stmt 0 view .LVU219
 703 0010 4FF08043 		mov	r3, #1073741824
 704              	.LBE225:
 705              	.LBE224:
 706              	.LBE228:
 707              	.LBE231:
 708              		.loc 6 409 8 view .LVU220
 709 0014 A268     		ldr	r2, [r4, #8]
 710              	.LBB232:
 711              	.LBB229:
 712              	.LBB227:
 713              	.LBB226:
 714              		.loc 8 168 10 view .LVU221
 715 0016 586A     		ldr	r0, [r3, #36]
 716              	.LVL56:
 717              		.loc 8 168 10 view .LVU222
 718              	.LBE226:
 719              	.LBE227:
 720              	.LBE229:
 721              	.LBE232:
 722              		.loc 6 404 5 is_stmt 1 view .LVU223
 723              		.loc 6 404 16 is_stmt 0 view .LVU224
 724 0018 AB6A     		ldr	r3, [r5, #40]
 725              	.LVL57:
 726              	.LBB233:
 727              	.LBI233:
 728              		.file 9 "../../modules/ChibiOS/os/rt/include/chtime.h"
 729              		.loc 9 510 29 is_stmt 1 view .LVU225
 730              	.LBB234:
 731              		.loc 9 514 3 view .LVU226
 732              		.loc 9 514 10 is_stmt 0 view .LVU227
 733 001a C71A     		subs	r7, r0, r3
 734              	.LVL58:
 735              		.loc 9 514 10 view .LVU228
 736              	.LBE234:
 737              	.LBE233:
 738              		.loc 6 409 5 is_stmt 1 view .LVU229
 739              		.loc 6 409 8 is_stmt 0 view .LVU230
 740 001c 9742     		cmp	r7, r2
 741 001e 20D3     		bcc	.L38
ARM GAS  /tmp/ccvkgzdO.s 			page 14


 742              	.LBB235:
 743              	.LBB188:
 744              	.LBB189:
 745              	.LBB190:
 746              	.LBB191:
 747              	.LBB192:
 748              	.LBB193:
 749              		.loc 5 493 3 view .LVU231
 750 0020 4FF02009 		mov	r9, #32
 751              	.LVL59:
 752              	.L40:
 753              		.loc 5 493 3 view .LVU232
 754              	.LBE193:
 755              	.LBE192:
 756              	.LBE191:
 757              	.LBE190:
 758              	.LBE189:
 759              	.LBE188:
 760              	.LBE235:
 761              		.loc 6 414 5 is_stmt 1 view .LVU233
 762              	.LBB236:
 763              		.loc 6 415 7 view .LVU234
 764              		.loc 6 418 7 view .LVU235
 765              		.loc 6 418 32 is_stmt 0 view .LVU236
 766 0024 A268     		ldr	r2, [r4, #8]
 767              		.loc 6 418 26 view .LVU237
 768 0026 AB6A     		ldr	r3, [r5, #40]
 769              		.loc 6 423 10 view .LVU238
 770 0028 D4F80CA0 		ldr	r10, [r4, #12]
 771              		.loc 6 419 16 view .LVU239
 772 002c BF1A     		subs	r7, r7, r2
 773              	.LVL60:
 774              		.loc 6 418 26 view .LVU240
 775 002e 1344     		add	r3, r3, r2
 776 0030 AB62     		str	r3, [r5, #40]
 777              		.loc 6 419 7 is_stmt 1 view .LVU241
 778              	.LVL61:
 779              		.loc 6 421 7 view .LVU242
 780              		.loc 6 421 10 is_stmt 0 view .LVU243
 781 0032 2368     		ldr	r3, [r4]
 782              		.loc 6 427 10 view .LVU244
 783 0034 B342     		cmp	r3, r6
 784              		.loc 6 421 23 view .LVU245
 785 0036 5E60     		str	r6, [r3, #4]
 786              		.loc 6 422 7 is_stmt 1 view .LVU246
 787              		.loc 6 422 22 is_stmt 0 view .LVU247
 788 0038 EB61     		str	r3, [r5, #28]
 789              		.loc 6 423 7 is_stmt 1 view .LVU248
 790              	.LVL62:
 791              		.loc 6 424 7 view .LVU249
 792              		.loc 6 424 17 is_stmt 0 view .LVU250
 793 003a C4F80C80 		str	r8, [r4, #12]
 794              		.loc 6 427 7 is_stmt 1 view .LVU251
 795              		.loc 6 427 10 is_stmt 0 view .LVU252
 796 003e 01D1     		bne	.L39
 797              		.loc 6 428 9 is_stmt 1 view .LVU253
 798              	.LBB204:
ARM GAS  /tmp/ccvkgzdO.s 			page 15


 799              	.LBI204:
 800              		.loc 7 81 20 view .LVU254
 801              	.LBB205:
 802              		.loc 7 83 3 view .LVU255
 803 0040 FFF7FEFF 		bl	stStopAlarm
 804              	.LVL63:
 805              	.L39:
 806              	.LBE205:
 807              	.LBE204:
 808              		.loc 6 432 7 view .LVU256
 809              	.LBB206:
 810              	.LBI206:
 811              		.loc 4 413 20 view .LVU257
 812              	.LBB207:
 813              		.loc 4 415 31 view .LVU258
 814              		.loc 4 416 3 view .LVU259
 815 0044 FFF7FEFF 		bl	_stats_stop_measure_crit_isr
 816              	.LVL64:
 817              		.loc 4 417 3 view .LVU260
 818              	.LBB208:
 819              	.LBI208:
 820              		.loc 2 652 20 view .LVU261
 821              	.LBE208:
 822              	.LBE207:
 823              	.LBE206:
 824              	.LBE236:
 825              	.LBE251:
 826              	.LBE260:
 827              		.loc 2 654 3 view .LVU262
 828              	.LBB261:
 829              	.LBB252:
 830              	.LBB237:
 831              	.LBB217:
 832              	.LBB215:
 833              	.LBB213:
 834              	.LBB209:
 835              	.LBI209:
 836              		.loc 2 626 20 view .LVU263
 837              	.LBE209:
 838              	.LBE213:
 839              	.LBE215:
 840              	.LBE217:
 841              	.LBE237:
 842              	.LBE252:
 843              	.LBE261:
 844              		.loc 2 629 3 view .LVU264
 845              	.LBB262:
 846              	.LBB253:
 847              	.LBB238:
 848              	.LBB218:
 849              	.LBB216:
 850              	.LBB214:
 851              	.LBB212:
 852              	.LBB210:
 853              	.LBI210:
 854              		.loc 5 491 27 view .LVU265
 855              	.LBB211:
ARM GAS  /tmp/ccvkgzdO.s 			page 16


 856              		.loc 5 493 3 view .LVU266
 857              		.syntax unified
 858              	@ 493 "../../modules/ChibiOS/os/common/ext/ARM/CMSIS/Core/Include/cmsis_gcc.h" 1
 859 0048 88F31188 		MSR basepri, r8
 860              	@ 0 "" 2
 861              	.LVL65:
 862              		.loc 5 493 3 is_stmt 0 view .LVU267
 863              		.thumb
 864              		.syntax unified
 865              	.LBE211:
 866              	.LBE210:
 867              	.LBE212:
 868              	.LBE214:
 869              	.LBE216:
 870              	.LBE218:
 871              		.loc 6 433 7 is_stmt 1 view .LVU268
 872 004c 2069     		ldr	r0, [r4, #16]
 873 004e D047     		blx	r10
 874              	.LVL66:
 875              		.loc 6 434 7 view .LVU269
 876              	.LBB219:
 877              	.LBI188:
 878              		.loc 4 393 20 view .LVU270
 879              	.LBB201:
 880              		.loc 4 395 3 view .LVU271
 881              	.LBB198:
 882              	.LBI190:
 883              		.loc 2 641 20 view .LVU272
 884              	.LBE198:
 885              	.LBE201:
 886              	.LBE219:
 887              	.LBE238:
 888              	.LBE253:
 889              	.LBE262:
 890              		.loc 2 643 3 view .LVU273
 891              	.LBB263:
 892              	.LBB254:
 893              	.LBB239:
 894              	.LBB220:
 895              	.LBB202:
 896              	.LBB199:
 897              	.LBB196:
 898              	.LBI191:
 899              		.loc 2 602 20 view .LVU274
 900              	.LBE196:
 901              	.LBE199:
 902              	.LBE202:
 903              	.LBE220:
 904              	.LBE239:
 905              	.LBE254:
 906              	.LBE263:
 907              		.loc 2 610 3 view .LVU275
 908              	.LBB264:
 909              	.LBB255:
 910              	.LBB240:
 911              	.LBB221:
 912              	.LBB203:
ARM GAS  /tmp/ccvkgzdO.s 			page 17


 913              	.LBB200:
 914              	.LBB197:
 915              	.LBB195:
 916              	.LBI192:
 917              		.loc 5 491 27 view .LVU276
 918              	.LBB194:
 919              		.loc 5 493 3 view .LVU277
 920              		.syntax unified
 921              	@ 493 "../../modules/ChibiOS/os/common/ext/ARM/CMSIS/Core/Include/cmsis_gcc.h" 1
 922 0050 89F31188 		MSR basepri, r9
 923              	@ 0 "" 2
 924              	.LVL67:
 925              		.loc 5 493 3 is_stmt 0 view .LVU278
 926              		.thumb
 927              		.syntax unified
 928              	.LBE194:
 929              	.LBE195:
 930              	.LBE197:
 931              	.LBE200:
 932              		.loc 4 396 3 is_stmt 1 view .LVU279
 933 0054 FFF7FEFF 		bl	_stats_start_measure_crit_isr
 934              	.LVL68:
 935              		.loc 4 397 29 view .LVU280
 936              	.LBE203:
 937              	.LBE221:
 938              		.loc 6 437 7 view .LVU281
 939              		.loc 6 437 11 is_stmt 0 view .LVU282
 940 0058 EC69     		ldr	r4, [r5, #28]
 941              	.LVL69:
 942              		.loc 6 437 11 view .LVU283
 943              	.LBE240:
 944              		.loc 6 439 11 is_stmt 1 view .LVU284
 945              		.loc 6 439 5 is_stmt 0 view .LVU285
 946 005a A368     		ldr	r3, [r4, #8]
 947 005c 9F42     		cmp	r7, r3
 948 005e E1D2     		bcs	.L40
 949 0060 D6E7     		b	.L41
 950              	.LVL70:
 951              	.L38:
 952              		.loc 6 443 3 is_stmt 1 view .LVU286
 953              		.loc 6 443 16 is_stmt 0 view .LVU287
 954 0062 EA69     		ldr	r2, [r5, #28]
 955              		.loc 6 443 6 view .LVU288
 956 0064 B242     		cmp	r2, r6
 957 0066 0DD0     		beq	.L37
 958              		.loc 6 449 3 is_stmt 1 view .LVU289
 959              		.loc 6 450 25 is_stmt 0 view .LVU290
 960 0068 9168     		ldr	r1, [r2, #8]
 961              		.loc 6 449 22 view .LVU291
 962 006a A862     		str	r0, [r5, #40]
 963              		.loc 6 450 3 is_stmt 1 view .LVU292
 964              		.loc 6 450 25 is_stmt 0 view .LVU293
 965 006c 0B44     		add	r3, r3, r1
 966 006e 1B1A     		subs	r3, r3, r0
 967 0070 9360     		str	r3, [r2, #8]
 968              		.loc 6 453 3 is_stmt 1 view .LVU294
 969              	.LVL71:
ARM GAS  /tmp/ccvkgzdO.s 			page 18


 970              		.loc 6 453 3 is_stmt 0 view .LVU295
 971              	.LBE255:
 972              	.LBE264:
 973              		.loc 9 498 3 is_stmt 1 view .LVU296
 974              		.loc 9 514 3 view .LVU297
 975              	.LBB265:
 976              	.LBB256:
 977              		.loc 6 454 3 view .LVU298
 978              		.loc 6 463 3 view .LVU299
 979              	.LBB241:
 980              	.LBI241:
 981              		.loc 9 491 25 view .LVU300
 982              	.LBB242:
 983              		.loc 9 498 3 view .LVU301
 984              		.loc 9 498 3 is_stmt 0 view .LVU302
 985              	.LBE242:
 986              	.LBE241:
 987              	.LBB244:
 988              	.LBI244:
 989              		.loc 7 93 20 is_stmt 1 view .LVU303
 990              	.LBB245:
 991              		.loc 7 95 3 view .LVU304
 992              	.LBE245:
 993              	.LBE244:
 994              	.LBB247:
 995              	.LBB243:
 996              		.loc 9 498 18 is_stmt 0 view .LVU305
 997 0072 A368     		ldr	r3, [r4, #8]
 998              	.LBE243:
 999              	.LBE247:
 1000              	.LBE256:
 1001              	.LBE265:
 1002              		.loc 1 357 1 view .LVU306
 1003 0074 BDE8F047 		pop	{r4, r5, r6, r7, r8, r9, r10, lr}
 1004              		.cfi_remember_state
 1005              		.cfi_restore 14
 1006              		.cfi_restore 10
 1007              		.cfi_restore 9
 1008              		.cfi_restore 8
 1009              		.cfi_restore 7
 1010              		.cfi_restore 6
 1011              		.cfi_restore 5
 1012              		.cfi_restore 4
 1013              		.cfi_def_cfa_offset 0
 1014              	.LVL72:
 1015              	.LBB266:
 1016              	.LBB257:
 1017              	.LBB248:
 1018              	.LBB246:
 1019              		.loc 7 95 3 view .LVU307
 1020 0078 022B     		cmp	r3, #2
 1021 007a 2CBF     		ite	cs
 1022 007c C018     		addcs	r0, r0, r3
 1023 007e 0230     		addcc	r0, r0, #2
 1024              	.LVL73:
 1025              		.loc 7 95 3 view .LVU308
 1026 0080 FFF7FEBF 		b	stSetAlarm
ARM GAS  /tmp/ccvkgzdO.s 			page 19


 1027              	.LVL74:
 1028              	.L37:
 1029              		.cfi_restore_state
 1030              		.loc 7 95 3 view .LVU309
 1031              	.LBE246:
 1032              	.LBE248:
 1033              	.LBE257:
 1034              	.LBE266:
 1035              		.loc 1 357 1 view .LVU310
 1036 0084 BDE8F087 		pop	{r4, r5, r6, r7, r8, r9, r10, pc}
 1037              	.LVL75:
 1038              	.L45:
 1039              		.loc 1 357 1 view .LVU311
 1040              		.align	2
 1041              	.L44:
 1042 0088 00000000 		.word	ch
 1043              		.cfi_endproc
 1044              	.LFE305:
 1045              		.size	chSysTimerHandlerI, .-chSysTimerHandlerI
 1046              		.section	.text.chSysGetStatusAndLockX,"ax",%progbits
 1047              		.align	1
 1048              		.global	chSysGetStatusAndLockX
 1049              		.syntax unified
 1050              		.thumb
 1051              		.thumb_func
 1052              		.fpu fpv4-sp-d16
 1053              		.type	chSysGetStatusAndLockX, %function
 1054              	chSysGetStatusAndLockX:
 1055              	.LFB306:
 1056              		.loc 1 372 39 is_stmt 1 view -0
 1057              		.cfi_startproc
 1058              		@ args = 0, pretend = 0, frame = 0
 1059              		@ frame_needed = 0, uses_anonymous_args = 0
 1060              		.loc 1 374 3 view .LVU313
 1061              	.LBB286:
 1062              	.LBI286:
 1063              		.loc 2 556 24 view .LVU314
 1064              	.LBB287:
 1065              		.loc 2 557 3 view .LVU315
 1066              		.loc 2 560 3 view .LVU316
 1067              	.LBB288:
 1068              	.LBI288:
 1069              		.loc 5 461 31 view .LVU317
 1070              	.LBB289:
 1071              		.loc 5 463 3 view .LVU318
 1072              		.loc 5 465 3 view .LVU319
 1073              	.LBE289:
 1074              	.LBE288:
 1075              	.LBE287:
 1076              	.LBE286:
 1077              		.loc 1 372 39 is_stmt 0 view .LVU320
 1078 0000 10B5     		push	{r4, lr}
 1079              		.cfi_def_cfa_offset 8
 1080              		.cfi_offset 4, -8
 1081              		.cfi_offset 14, -4
 1082              	.LBB293:
 1083              	.LBB292:
ARM GAS  /tmp/ccvkgzdO.s 			page 20


 1084              	.LBB291:
 1085              	.LBB290:
 1086              		.loc 5 465 3 view .LVU321
 1087              		.syntax unified
 1088              	@ 465 "../../modules/ChibiOS/os/common/ext/ARM/CMSIS/Core/Include/cmsis_gcc.h" 1
 1089 0002 EFF31184 		MRS r4, basepri
 1090              	@ 0 "" 2
 1091              	.LVL76:
 1092              		.loc 5 466 3 is_stmt 1 view .LVU322
 1093              		.loc 5 466 3 is_stmt 0 view .LVU323
 1094              		.thumb
 1095              		.syntax unified
 1096              	.LBE290:
 1097              	.LBE291:
 1098              		.loc 2 564 3 is_stmt 1 view .LVU324
 1099              		.loc 2 564 3 is_stmt 0 view .LVU325
 1100              	.LBE292:
 1101              	.LBE293:
 1102              		.loc 1 375 3 is_stmt 1 view .LVU326
 1103              		.loc 2 579 3 view .LVU327
 1104              		.loc 1 375 6 is_stmt 0 view .LVU328
 1105 0006 4CB9     		cbnz	r4, .L46
 1106              		.loc 1 376 5 is_stmt 1 view .LVU329
 1107              	.LBB294:
 1108              	.LBI294:
 1109              		.loc 2 592 20 view .LVU330
 1110              	.LBB295:
 1111              		.loc 2 594 3 view .LVU331
 1112              	.LBB296:
 1113              	.LBI296:
 1114              		.loc 5 205 31 view .LVU332
 1115              	.LBB297:
 1116              		.loc 5 207 3 view .LVU333
 1117              		.loc 5 209 3 view .LVU334
 1118              		.syntax unified
 1119              	@ 209 "../../modules/ChibiOS/os/common/ext/ARM/CMSIS/Core/Include/cmsis_gcc.h" 1
 1120 0008 EFF30583 		MRS r3, ipsr
 1121              	@ 0 "" 2
 1122              	.LVL77:
 1123              		.loc 5 210 3 view .LVU335
 1124              		.loc 5 210 3 is_stmt 0 view .LVU336
 1125              		.thumb
 1126              		.syntax unified
 1127              	.LBE297:
 1128              	.LBE296:
 1129              		.loc 2 594 31 view .LVU337
 1130 000c C3F30803 		ubfx	r3, r3, #0, #9
 1131 0010 2022     		movs	r2, #32
 1132              	.LBE295:
 1133              	.LBE294:
 1134              		.loc 1 376 8 view .LVU338
 1135 0012 2BB1     		cbz	r3, .L48
 1136              		.loc 1 377 7 is_stmt 1 view .LVU339
 1137              	.LBB298:
 1138              	.LBI298:
 1139              		.loc 4 393 20 view .LVU340
 1140              	.LBB299:
ARM GAS  /tmp/ccvkgzdO.s 			page 21


 1141              		.loc 4 395 3 view .LVU341
 1142              	.LBB300:
 1143              	.LBI300:
 1144              		.loc 2 641 20 view .LVU342
 1145              	.LBE300:
 1146              	.LBE299:
 1147              	.LBE298:
 1148              		.loc 2 643 3 view .LVU343
 1149              	.LBB309:
 1150              	.LBB307:
 1151              	.LBB305:
 1152              	.LBB301:
 1153              	.LBI301:
 1154              		.loc 2 602 20 view .LVU344
 1155              	.LBE301:
 1156              	.LBE305:
 1157              	.LBE307:
 1158              	.LBE309:
 1159              		.loc 2 610 3 view .LVU345
 1160              	.LVL78:
 1161              	.LBB310:
 1162              	.LBB308:
 1163              	.LBB306:
 1164              	.LBB304:
 1165              	.LBB302:
 1166              	.LBI302:
 1167              		.loc 5 491 27 view .LVU346
 1168              	.LBB303:
 1169              		.loc 5 493 3 view .LVU347
 1170              		.syntax unified
 1171              	@ 493 "../../modules/ChibiOS/os/common/ext/ARM/CMSIS/Core/Include/cmsis_gcc.h" 1
 1172 0014 82F31188 		MSR basepri, r2
 1173              	@ 0 "" 2
 1174              	.LVL79:
 1175              		.loc 5 493 3 is_stmt 0 view .LVU348
 1176              		.thumb
 1177              		.syntax unified
 1178              	.LBE303:
 1179              	.LBE302:
 1180              	.LBE304:
 1181              	.LBE306:
 1182              		.loc 4 396 3 is_stmt 1 view .LVU349
 1183 0018 FFF7FEFF 		bl	_stats_start_measure_crit_isr
 1184              	.LVL80:
 1185              		.loc 4 397 29 view .LVU350
 1186              	.L46:
 1187              	.LBE308:
 1188              	.LBE310:
 1189              		.loc 1 384 1 is_stmt 0 view .LVU351
 1190 001c 2046     		mov	r0, r4
 1191 001e 10BD     		pop	{r4, pc}
 1192              	.LVL81:
 1193              	.L48:
 1194              		.loc 1 380 7 is_stmt 1 view .LVU352
 1195              	.LBB311:
 1196              	.LBI311:
 1197              		.loc 4 353 20 view .LVU353
ARM GAS  /tmp/ccvkgzdO.s 			page 22


 1198              	.LBB312:
 1199              		.loc 4 355 3 view .LVU354
 1200              	.LBB313:
 1201              	.LBI313:
 1202              		.loc 2 602 20 view .LVU355
 1203              	.LBE313:
 1204              	.LBE312:
 1205              	.LBE311:
 1206              		.loc 2 610 3 view .LVU356
 1207              	.LBB318:
 1208              	.LBB317:
 1209              	.LBB316:
 1210              	.LBB314:
 1211              	.LBI314:
 1212              		.loc 5 491 27 view .LVU357
 1213              	.LBB315:
 1214              		.loc 5 493 3 view .LVU358
 1215              		.syntax unified
 1216              	@ 493 "../../modules/ChibiOS/os/common/ext/ARM/CMSIS/Core/Include/cmsis_gcc.h" 1
 1217 0020 82F31188 		MSR basepri, r2
 1218              	@ 0 "" 2
 1219              	.LVL82:
 1220              		.loc 5 493 3 is_stmt 0 view .LVU359
 1221              		.thumb
 1222              		.syntax unified
 1223              	.LBE315:
 1224              	.LBE314:
 1225              	.LBE316:
 1226              		.loc 4 356 3 is_stmt 1 view .LVU360
 1227 0024 FFF7FEFF 		bl	_stats_start_measure_crit_thd
 1228              	.LVL83:
 1229              		.loc 4 357 20 view .LVU361
 1230              	.LBE317:
 1231              	.LBE318:
 1232              		.loc 1 383 3 view .LVU362
 1233              		.loc 1 383 10 is_stmt 0 view .LVU363
 1234 0028 F8E7     		b	.L46
 1235              		.cfi_endproc
 1236              	.LFE306:
 1237              		.size	chSysGetStatusAndLockX, .-chSysGetStatusAndLockX
 1238              		.section	.text.chSysRestoreStatusX,"ax",%progbits
 1239              		.align	1
 1240              		.global	chSysRestoreStatusX
 1241              		.syntax unified
 1242              		.thumb
 1243              		.thumb_func
 1244              		.fpu fpv4-sp-d16
 1245              		.type	chSysRestoreStatusX, %function
 1246              	chSysRestoreStatusX:
 1247              	.LVL84:
 1248              	.LFB307:
 1249              		.loc 1 395 40 is_stmt 1 view -0
 1250              		.cfi_startproc
 1251              		@ args = 0, pretend = 0, frame = 0
 1252              		@ frame_needed = 0, uses_anonymous_args = 0
 1253              		.loc 1 397 3 view .LVU365
 1254              		.loc 2 579 3 view .LVU366
ARM GAS  /tmp/ccvkgzdO.s 			page 23


 1255              		.loc 1 395 40 is_stmt 0 view .LVU367
 1256 0000 38B5     		push	{r3, r4, r5, lr}
 1257              		.cfi_def_cfa_offset 16
 1258              		.cfi_offset 3, -16
 1259              		.cfi_offset 4, -12
 1260              		.cfi_offset 5, -8
 1261              		.cfi_offset 14, -4
 1262              		.loc 1 397 6 view .LVU368
 1263 0002 0546     		mov	r5, r0
 1264 0004 40B9     		cbnz	r0, .L49
 1265              		.loc 1 398 5 is_stmt 1 view .LVU369
 1266              	.LBB334:
 1267              	.LBI334:
 1268              		.loc 2 592 20 view .LVU370
 1269              	.LBB335:
 1270              		.loc 2 594 3 view .LVU371
 1271              	.LBB336:
 1272              	.LBI336:
 1273              		.loc 5 205 31 view .LVU372
 1274              	.LBB337:
 1275              		.loc 5 207 3 view .LVU373
 1276              		.loc 5 209 3 view .LVU374
 1277              		.syntax unified
 1278              	@ 209 "../../modules/ChibiOS/os/common/ext/ARM/CMSIS/Core/Include/cmsis_gcc.h" 1
 1279 0006 EFF30584 		MRS r4, ipsr
 1280              	@ 0 "" 2
 1281              	.LVL85:
 1282              		.loc 5 210 3 view .LVU375
 1283              		.loc 5 210 3 is_stmt 0 view .LVU376
 1284              		.thumb
 1285              		.syntax unified
 1286              	.LBE337:
 1287              	.LBE336:
 1288              		.loc 2 594 31 view .LVU377
 1289 000a C4F30804 		ubfx	r4, r4, #0, #9
 1290              	.LBE335:
 1291              	.LBE334:
 1292              		.loc 1 398 8 view .LVU378
 1293 000e 24B1     		cbz	r4, .L51
 1294              		.loc 1 399 7 is_stmt 1 view .LVU379
 1295              	.LBB338:
 1296              	.LBI338:
 1297              		.loc 4 413 20 view .LVU380
 1298              	.LBB339:
 1299              		.loc 4 415 31 view .LVU381
 1300              		.loc 4 416 3 view .LVU382
 1301 0010 FFF7FEFF 		bl	_stats_stop_measure_crit_isr
 1302              	.LVL86:
 1303              		.loc 4 417 3 view .LVU383
 1304              	.LBB340:
 1305              	.LBI340:
 1306              		.loc 2 652 20 view .LVU384
 1307              	.LBE340:
 1308              	.LBE339:
 1309              	.LBE338:
 1310              		.loc 2 654 3 view .LVU385
 1311              	.LBB349:
ARM GAS  /tmp/ccvkgzdO.s 			page 24


 1312              	.LBB347:
 1313              	.LBB345:
 1314              	.LBB341:
 1315              	.LBI341:
 1316              		.loc 2 626 20 view .LVU386
 1317              	.LBE341:
 1318              	.LBE345:
 1319              	.LBE347:
 1320              	.LBE349:
 1321              		.loc 2 629 3 view .LVU387
 1322              	.LBB350:
 1323              	.LBB348:
 1324              	.LBB346:
 1325              	.LBB344:
 1326              	.LBB342:
 1327              	.LBI342:
 1328              		.loc 5 491 27 view .LVU388
 1329              	.LBB343:
 1330              		.loc 5 493 3 view .LVU389
 1331              		.syntax unified
 1332              	@ 493 "../../modules/ChibiOS/os/common/ext/ARM/CMSIS/Core/Include/cmsis_gcc.h" 1
 1333 0014 85F31188 		MSR basepri, r5
 1334              	@ 0 "" 2
 1335              	.LVL87:
 1336              		.thumb
 1337              		.syntax unified
 1338              	.L49:
 1339              		.loc 5 493 3 is_stmt 0 view .LVU390
 1340              	.LBE343:
 1341              	.LBE342:
 1342              	.LBE344:
 1343              	.LBE346:
 1344              	.LBE348:
 1345              	.LBE350:
 1346              		.loc 1 406 1 view .LVU391
 1347 0018 38BD     		pop	{r3, r4, r5, pc}
 1348              	.LVL88:
 1349              	.L51:
 1350              		.loc 1 402 7 is_stmt 1 view .LVU392
 1351 001a FFF7FEFF 		bl	chSchRescheduleS
 1352              	.LVL89:
 1353              		.loc 1 403 7 view .LVU393
 1354              	.LBB351:
 1355              	.LBI351:
 1356              		.loc 4 365 20 view .LVU394
 1357              	.LBB352:
 1358              		.loc 4 367 22 view .LVU395
 1359              		.loc 4 368 3 view .LVU396
 1360 001e FFF7FEFF 		bl	_stats_stop_measure_crit_thd
 1361              	.LVL90:
 1362              		.loc 4 374 3 view .LVU397
 1363              		.loc 4 374 3 view .LVU398
 1364              		.loc 4 374 3 view .LVU399
 1365              		.loc 4 378 3 view .LVU400
 1366              	.LBB353:
 1367              	.LBI353:
 1368              		.loc 2 626 20 view .LVU401
ARM GAS  /tmp/ccvkgzdO.s 			page 25


 1369              	.LBE353:
 1370              	.LBE352:
 1371              	.LBE351:
 1372              		.loc 2 629 3 view .LVU402
 1373              	.LBB358:
 1374              	.LBB357:
 1375              	.LBB356:
 1376              	.LBB354:
 1377              	.LBI354:
 1378              		.loc 5 491 27 view .LVU403
 1379              	.LBB355:
 1380              		.loc 5 493 3 view .LVU404
 1381              		.syntax unified
 1382              	@ 493 "../../modules/ChibiOS/os/common/ext/ARM/CMSIS/Core/Include/cmsis_gcc.h" 1
 1383 0022 84F31188 		MSR basepri, r4
 1384              	@ 0 "" 2
 1385              	.LVL91:
 1386              		.loc 5 493 3 is_stmt 0 view .LVU405
 1387              		.thumb
 1388              		.syntax unified
 1389              	.LBE355:
 1390              	.LBE354:
 1391              	.LBE356:
 1392              	.LBE357:
 1393              	.LBE358:
 1394              		.loc 1 406 1 view .LVU406
 1395 0026 F7E7     		b	.L49
 1396              		.cfi_endproc
 1397              	.LFE307:
 1398              		.size	chSysRestoreStatusX, .-chSysRestoreStatusX
 1399              		.section	.text.chSysIsCounterWithinX,"ax",%progbits
 1400              		.align	1
 1401              		.global	chSysIsCounterWithinX
 1402              		.syntax unified
 1403              		.thumb
 1404              		.thumb_func
 1405              		.fpu fpv4-sp-d16
 1406              		.type	chSysIsCounterWithinX, %function
 1407              	chSysIsCounterWithinX:
 1408              	.LVL92:
 1409              	.LFB308:
 1410              		.loc 1 427 69 is_stmt 1 view -0
 1411              		.cfi_startproc
 1412              		@ args = 0, pretend = 0, frame = 0
 1413              		@ frame_needed = 0, uses_anonymous_args = 0
 1414              		@ link register save eliminated.
 1415              		.loc 1 429 3 view .LVU408
 1416              		.loc 1 429 22 is_stmt 0 view .LVU409
 1417 0000 401A     		subs	r0, r0, r1
 1418              	.LVL93:
 1419              		.loc 1 429 38 view .LVU410
 1420 0002 511A     		subs	r1, r2, r1
 1421              	.LVL94:
 1422              		.loc 1 430 1 view .LVU411
 1423 0004 8842     		cmp	r0, r1
 1424 0006 2CBF     		ite	cs
 1425 0008 0020     		movcs	r0, #0
ARM GAS  /tmp/ccvkgzdO.s 			page 26


 1426 000a 0120     		movcc	r0, #1
 1427 000c 7047     		bx	lr
 1428              		.cfi_endproc
 1429              	.LFE308:
 1430              		.size	chSysIsCounterWithinX, .-chSysIsCounterWithinX
 1431              		.section	.text.chSysPolledDelayX,"ax",%progbits
 1432              		.align	1
 1433              		.global	chSysPolledDelayX
 1434              		.syntax unified
 1435              		.thumb
 1436              		.thumb_func
 1437              		.fpu fpv4-sp-d16
 1438              		.type	chSysPolledDelayX, %function
 1439              	chSysPolledDelayX:
 1440              	.LVL95:
 1441              	.LFB309:
 1442              		.loc 1 443 40 is_stmt 1 view -0
 1443              		.cfi_startproc
 1444              		@ args = 0, pretend = 0, frame = 0
 1445              		@ frame_needed = 0, uses_anonymous_args = 0
 1446              		@ link register save eliminated.
 1447              		.loc 1 444 3 view .LVU413
 1448              	.LBB359:
 1449              	.LBI359:
 1450              		.loc 2 714 23 view .LVU414
 1451              	.LBB360:
 1452              		.loc 2 716 3 view .LVU415
 1453              		.loc 2 716 13 is_stmt 0 view .LVU416
 1454 0000 034A     		ldr	r2, .L56
 1455 0002 5168     		ldr	r1, [r2, #4]
 1456              	.LVL96:
 1457              		.loc 2 716 13 view .LVU417
 1458              	.LBE360:
 1459              	.LBE359:
 1460              		.loc 1 445 3 is_stmt 1 view .LVU418
 1461              		.loc 1 447 3 view .LVU419
 1462              	.L54:
 1463              		.loc 1 448 3 discriminator 1 view .LVU420
 1464              		.loc 1 447 9 discriminator 1 view .LVU421
 1465              	.LBB361:
 1466              	.LBI361:
 1467              		.loc 2 714 23 discriminator 1 view .LVU422
 1468              	.LBB362:
 1469              		.loc 2 716 3 discriminator 1 view .LVU423
 1470              		.loc 2 716 13 is_stmt 0 discriminator 1 view .LVU424
 1471 0004 5368     		ldr	r3, [r2, #4]
 1472              	.LVL97:
 1473              		.loc 2 716 13 discriminator 1 view .LVU425
 1474              	.LBE362:
 1475              	.LBE361:
 1476              	.LBB363:
 1477              	.LBI363:
 1478              		.loc 1 427 6 is_stmt 1 discriminator 1 view .LVU426
 1479              	.LBB364:
 1480              		.loc 1 429 3 discriminator 1 view .LVU427
 1481              		.loc 1 429 22 is_stmt 0 discriminator 1 view .LVU428
 1482 0006 5B1A     		subs	r3, r3, r1
ARM GAS  /tmp/ccvkgzdO.s 			page 27


 1483              	.LBE364:
 1484              	.LBE363:
 1485              		.loc 1 447 9 discriminator 1 view .LVU429
 1486 0008 9842     		cmp	r0, r3
 1487 000a FBD8     		bhi	.L54
 1488              		.loc 1 449 1 view .LVU430
 1489 000c 7047     		bx	lr
 1490              	.L57:
 1491 000e 00BF     		.align	2
 1492              	.L56:
 1493 0010 001000E0 		.word	-536866816
 1494              		.cfi_endproc
 1495              	.LFE309:
 1496              		.size	chSysPolledDelayX, .-chSysPolledDelayX
 1497              		.section	.rodata.str1.1,"aMS",%progbits,1
 1498              	.LC0:
 1499 0000 69646C65 		.ascii	"idle\000"
 1499      00
 1500              		.global	ch_idle_thread_wa
 1501              		.section	.bss.ch_idle_thread_wa,"aw",%nobits
 1502              		.align	3
 1503              		.type	ch_idle_thread_wa, %object
 1504              		.size	ch_idle_thread_wa, 576
 1505              	ch_idle_thread_wa:
 1506 0000 00000000 		.space	576
 1506      00000000 
 1506      00000000 
 1506      00000000 
 1506      00000000 
 1507              		.section	.rodata.idle_descriptor.0,"a"
 1508              		.align	2
 1509              		.set	.LANCHOR0,. + 0
 1510              		.type	idle_descriptor.0, %object
 1511              		.size	idle_descriptor.0, 24
 1512              	idle_descriptor.0:
 1513 0000 00000000 		.word	.LC0
 1514 0004 00000000 		.word	ch_idle_thread_wa
 1515 0008 40020000 		.word	ch_idle_thread_wa+576
 1516 000c 01000000 		.word	1
 1517 0010 00000000 		.word	_idle_thread
 1518 0014 00000000 		.word	0
 1519              		.text
 1520              	.Letext0:
 1521              		.file 10 "/opt/gcc-arm-none-eabi-10-2020-q4-major/lib/gcc/arm-none-eabi/10.2.1/include/stddef.h"
 1522              		.file 11 "/opt/gcc-arm-none-eabi-10-2020-q4-major/arm-none-eabi/include/machine/_default_types.h"
 1523              		.file 12 "/opt/gcc-arm-none-eabi-10-2020-q4-major/arm-none-eabi/include/sys/_stdint.h"
 1524              		.file 13 "../../modules/ChibiOS/os/common/ports/ARMCMx/compilers/GCC/chtypes.h"
 1525              		.file 14 "../../modules/ChibiOS/os/rt/include/chsystypes.h"
 1526              		.file 15 "../../modules/ChibiOS/os/rt/include/chschd.h"
 1527              		.file 16 "../../modules/ChibiOS/os/common/ext/ST/STM32F7xx/stm32f767xx.h"
 1528              		.file 17 "../../modules/ChibiOS/os/common/ports/ARMCMx/chcore.h"
 1529              		.file 18 "../../modules/ChibiOS/os/hal/ports/STM32/LLD/TIMv1/stm32_tim.h"
 1530              		.file 19 "../../modules/ChibiOS/os/rt/include/chtm.h"
 1531              		.file 20 "../../modules/ChibiOS/os/rt/include/chstats.h"
 1532              		.file 21 "../../modules/ChibiOS/os/rt/include/chsem.h"
 1533              		.file 22 "../../modules/ChibiOS/os/rt/include/chmtx.h"
 1534              		.file 23 "../../modules/ChibiOS/os/rt/include/chthreads.h"
ARM GAS  /tmp/ccvkgzdO.s 			page 28


 1535              		.file 24 "../../modules/ChibiOS/os/rt/include/chregistry.h"
 1536              		.file 25 "../../modules/ChibiOS/os/hal/include/hal_st.h"
 1537              		.file 26 "../../modules/ChibiOS/os/oslib/include/chmemcore.h"
 1538              		.file 27 "../../modules/ChibiOS/os/oslib/include/chmemheaps.h"
 1539              		.file 28 "../../modules/ChibiOS/os/oslib/include/chfactory.h"