ARM GAS  /tmp/ccPRo3UM.s 			page 1


   1              		.cpu cortex-m7
   2              		.eabi_attribute 27, 1
   3              		.eabi_attribute 28, 1
   4              		.eabi_attribute 20, 1
   5              		.eabi_attribute 21, 1
   6              		.eabi_attribute 23, 3
   7              		.eabi_attribute 24, 1
   8              		.eabi_attribute 25, 1
   9              		.eabi_attribute 26, 1
  10              		.eabi_attribute 30, 4
  11              		.eabi_attribute 34, 1
  12              		.eabi_attribute 18, 4
  13              		.file	"chthreads.c"
  14              		.text
  15              	.Ltext0:
  16              		.cfi_sections	.debug_frame
  17              		.section	.text.chSysLock,"ax",%progbits
  18              		.align	1
  19              		.arch armv7e-m
  20              		.syntax unified
  21              		.thumb
  22              		.thumb_func
  23              		.fpu fpv4-sp-d16
  24              		.type	chSysLock, %function
  25              	chSysLock:
  26              	.LFB195:
  27              		.file 1 "../../modules/ChibiOS/os/rt/include/chsys.h"
  28              		.loc 1 353 36 view -0
  29              		.cfi_startproc
  30              		@ args = 0, pretend = 0, frame = 0
  31              		@ frame_needed = 0, uses_anonymous_args = 0
  32              		@ link register save eliminated.
  33              		.loc 1 355 3 view .LVU1
  34              	.LBB74:
  35              	.LBI74:
  36              		.file 2 "../../modules/ChibiOS/os/common/ports/ARMCMx/chcore_v7m.h"
  37              		.loc 2 602 20 view .LVU2
  38              	.LBE74:
  39              		.loc 2 610 3 view .LVU3
  40              	.LVL0:
  41              	.LBB77:
  42              	.LBB75:
  43              	.LBI75:
  44              		.file 3 "../../modules/ChibiOS/os/common/ext/ARM/CMSIS/Core/Include/cmsis_gcc.h"
  45              		.loc 3 491 27 view .LVU4
  46              	.LBB76:
  47              		.loc 3 493 3 view .LVU5
  48 0000 2023     		movs	r3, #32
  49              		.syntax unified
  50              	@ 493 "../../modules/ChibiOS/os/common/ext/ARM/CMSIS/Core/Include/cmsis_gcc.h" 1
  51 0002 83F31188 		MSR basepri, r3
  52              	@ 0 "" 2
  53              	.LVL1:
  54              		.loc 3 493 3 is_stmt 0 view .LVU6
  55              		.thumb
  56              		.syntax unified
  57              	.LBE76:
ARM GAS  /tmp/ccPRo3UM.s 			page 2


  58              	.LBE75:
  59              	.LBE77:
  60              		.loc 1 356 3 is_stmt 1 view .LVU7
  61 0006 FFF7FEBF 		b	_stats_start_measure_crit_thd
  62              	.LVL2:
  63              		.cfi_endproc
  64              	.LFE195:
  65              		.size	chSysLock, .-chSysLock
  66              		.section	.text.chSysUnlock,"ax",%progbits
  67              		.align	1
  68              		.syntax unified
  69              		.thumb
  70              		.thumb_func
  71              		.fpu fpv4-sp-d16
  72              		.type	chSysUnlock, %function
  73              	chSysUnlock:
  74              	.LFB196:
  75              		.loc 1 365 38 view -0
  76              		.cfi_startproc
  77              		@ args = 0, pretend = 0, frame = 0
  78              		@ frame_needed = 0, uses_anonymous_args = 0
  79              		.loc 1 367 22 view .LVU9
  80              		.loc 1 368 3 view .LVU10
  81              		.loc 1 365 38 is_stmt 0 view .LVU11
  82 0000 08B5     		push	{r3, lr}
  83              		.cfi_def_cfa_offset 8
  84              		.cfi_offset 3, -8
  85              		.cfi_offset 14, -4
  86              		.loc 1 368 3 view .LVU12
  87 0002 FFF7FEFF 		bl	_stats_stop_measure_crit_thd
  88              	.LVL3:
  89              		.loc 1 374 3 is_stmt 1 view .LVU13
  90              		.loc 1 374 3 view .LVU14
  91              		.loc 1 374 3 view .LVU15
  92              		.loc 1 378 3 view .LVU16
  93              	.LBB78:
  94              	.LBI78:
  95              		.loc 2 626 20 view .LVU17
  96              	.LBE78:
  97              		.loc 2 629 3 view .LVU18
  98              	.LBB81:
  99              	.LBB79:
 100              	.LBI79:
 101              		.loc 3 491 27 view .LVU19
 102              	.LBB80:
 103              		.loc 3 493 3 view .LVU20
 104 0006 0023     		movs	r3, #0
 105              		.syntax unified
 106              	@ 493 "../../modules/ChibiOS/os/common/ext/ARM/CMSIS/Core/Include/cmsis_gcc.h" 1
 107 0008 83F31188 		MSR basepri, r3
 108              	@ 0 "" 2
 109              	.LVL4:
 110              		.loc 3 493 3 is_stmt 0 view .LVU21
 111              		.thumb
 112              		.syntax unified
 113              	.LBE80:
 114              	.LBE79:
ARM GAS  /tmp/ccPRo3UM.s 			page 3


 115              	.LBE81:
 116              		.loc 1 379 1 view .LVU22
 117 000c 08BD     		pop	{r3, pc}
 118              		.cfi_endproc
 119              	.LFE196:
 120              		.size	chSysUnlock, .-chSysUnlock
 121              		.section	.text._thread_init,"ax",%progbits
 122              		.align	1
 123              		.global	_thread_init
 124              		.syntax unified
 125              		.thumb
 126              		.thumb_func
 127              		.fpu fpv4-sp-d16
 128              		.type	_thread_init, %function
 129              	_thread_init:
 130              	.LVL5:
 131              	.LFB301:
 132              		.file 4 "../../modules/ChibiOS/os/rt/src/chthreads.c"
 133              		.loc 4 88 70 is_stmt 1 view -0
 134              		.cfi_startproc
 135              		@ args = 0, pretend = 0, frame = 0
 136              		@ frame_needed = 0, uses_anonymous_args = 0
 137              		.loc 4 90 3 view .LVU24
 138              		.loc 4 98 17 is_stmt 0 view .LVU25
 139 0000 0023     		movs	r3, #0
 140              		.loc 4 88 70 view .LVU26
 141 0002 10B5     		push	{r4, lr}
 142              		.cfi_def_cfa_offset 8
 143              		.cfi_offset 4, -8
 144              		.cfi_offset 14, -4
 145              		.loc 4 101 17 view .LVU27
 146 0004 C0E90D33 		strd	r3, r3, [r0, #52]
 147              		.loc 4 91 17 view .LVU28
 148 0008 0223     		movs	r3, #2
 149              		.loc 4 90 17 view .LVU29
 150 000a 8260     		str	r2, [r0, #8]
 151              		.loc 4 91 3 is_stmt 1 view .LVU30
 152              		.loc 4 92 3 view .LVU31
 153              		.loc 4 97 3 view .LVU32
 154              		.loc 4 97 17 is_stmt 0 view .LVU33
 155 000c C263     		str	r2, [r0, #60]
 156              		.loc 4 98 3 is_stmt 1 view .LVU34
 157              		.loc 4 107 3 view .LVU35
 158              		.loc 4 88 70 is_stmt 0 view .LVU36
 159 000e 0446     		mov	r4, r0
 160              		.loc 4 91 17 view .LVU37
 161 0010 0384     		strh	r3, [r0, #32]	@ movhi
 162              		.loc 4 107 17 view .LVU38
 163 0012 0123     		movs	r3, #1
 164              		.loc 4 108 17 view .LVU39
 165 0014 8161     		str	r1, [r0, #24]
 166              		.loc 4 107 17 view .LVU40
 167 0016 80F82230 		strb	r3, [r0, #34]
 168              		.loc 4 108 3 is_stmt 1 view .LVU41
 169              		.loc 4 109 3 view .LVU42
 170 001a 094B     		ldr	r3, .L4
 171 001c 5A69     		ldr	r2, [r3, #20]
ARM GAS  /tmp/ccPRo3UM.s 			page 4


 172              	.LVL6:
 173              		.loc 4 109 3 is_stmt 0 view .LVU43
 174 001e 0361     		str	r3, [r0, #16]
 175              		.loc 4 109 3 is_stmt 1 view .LVU44
 176 0020 4261     		str	r2, [r0, #20]
 177              		.loc 4 109 3 view .LVU45
 178 0022 1061     		str	r0, [r2, #16]
 179              		.loc 4 109 3 view .LVU46
 180 0024 5861     		str	r0, [r3, #20]
 181              		.loc 4 109 17 view .LVU47
 182              		.loc 4 114 3 view .LVU48
 183              	.LVL7:
 184              	.LBB82:
 185              	.LBI82:
 186              		.file 5 "../../modules/ChibiOS/os/rt/include/chschd.h"
 187              		.loc 5 499 20 view .LVU49
 188              	.LBB83:
 189              		.loc 5 501 3 view .LVU50
 190              	.LBE83:
 191              	.LBE82:
 192              		.loc 4 114 3 is_stmt 0 view .LVU51
 193 0026 00F12803 		add	r3, r0, #40
 194              	.LVL8:
 195              	.LBB85:
 196              	.LBB84:
 197              		.loc 5 501 13 view .LVU52
 198 002a 8362     		str	r3, [r0, #40]
 199              	.LVL9:
 200              		.loc 5 501 13 view .LVU53
 201              	.LBE84:
 202              	.LBE85:
 203              		.loc 4 117 3 is_stmt 1 view .LVU54
 204 002c 00F12C03 		add	r3, r0, #44
 205              	.LVL10:
 206              	.LBB86:
 207              	.LBI86:
 208              		.loc 5 537 20 view .LVU55
 209              	.LBB87:
 210              		.loc 5 539 3 view .LVU56
 211              		.loc 5 540 13 is_stmt 0 view .LVU57
 212 0030 C0E90B33 		strd	r3, r3, [r0, #44]
 213              	.LVL11:
 214              		.loc 5 540 13 view .LVU58
 215              	.LBE87:
 216              	.LBE86:
 217              		.loc 4 120 3 is_stmt 1 view .LVU59
 218 0034 4830     		adds	r0, r0, #72
 219              	.LVL12:
 220              		.loc 4 120 3 is_stmt 0 view .LVU60
 221 0036 FFF7FEFF 		bl	chTMObjectInit
 222              	.LVL13:
 223              		.loc 4 122 3 is_stmt 1 view .LVU61
 224              		.loc 4 122 30 view .LVU62
 225              		.loc 4 123 3 view .LVU63
 226              		.loc 4 124 1 is_stmt 0 view .LVU64
 227 003a 2046     		mov	r0, r4
 228 003c 10BD     		pop	{r4, pc}
ARM GAS  /tmp/ccPRo3UM.s 			page 5


 229              	.LVL14:
 230              	.L5:
 231              		.loc 4 124 1 view .LVU65
 232 003e 00BF     		.align	2
 233              	.L4:
 234 0040 00000000 		.word	ch
 235              		.cfi_endproc
 236              	.LFE301:
 237              		.size	_thread_init, .-_thread_init
 238              		.section	.text._thread_memfill,"ax",%progbits
 239              		.align	1
 240              		.global	_thread_memfill
 241              		.syntax unified
 242              		.thumb
 243              		.thumb_func
 244              		.fpu fpv4-sp-d16
 245              		.type	_thread_memfill, %function
 246              	_thread_memfill:
 247              	.LVL15:
 248              	.LFB302:
 249              		.loc 4 136 65 is_stmt 1 view -0
 250              		.cfi_startproc
 251              		@ args = 0, pretend = 0, frame = 0
 252              		@ frame_needed = 0, uses_anonymous_args = 0
 253              		@ link register save eliminated.
 254              		.loc 4 138 3 view .LVU67
 255              		.loc 4 136 65 is_stmt 0 view .LVU68
 256 0000 0B46     		mov	r3, r1
 257 0002 1146     		mov	r1, r2
 258              	.LVL16:
 259              		.loc 4 139 15 view .LVU69
 260 0004 1A1A     		subs	r2, r3, r0
 261              	.LVL17:
 262              		.loc 4 139 15 view .LVU70
 263 0006 8342     		cmp	r3, r0
 264 0008 38BF     		it	cc
 265 000a 0022     		movcc	r2, #0
 266 000c FFF7FEBF 		b	memset
 267              	.LVL18:
 268              		.loc 4 139 15 view .LVU71
 269              		.cfi_endproc
 270              	.LFE302:
 271              		.size	_thread_memfill, .-_thread_memfill
 272              		.section	.text.chThdCreateSuspendedI,"ax",%progbits
 273              		.align	1
 274              		.global	chThdCreateSuspendedI
 275              		.syntax unified
 276              		.thumb
 277              		.thumb_func
 278              		.fpu fpv4-sp-d16
 279              		.type	chThdCreateSuspendedI, %function
 280              	chThdCreateSuspendedI:
 281              	.LVL19:
 282              	.LFB303:
 283              		.loc 4 167 65 is_stmt 1 view -0
 284              		.cfi_startproc
 285              		@ args = 0, pretend = 0, frame = 0
ARM GAS  /tmp/ccPRo3UM.s 			page 6


 286              		@ frame_needed = 0, uses_anonymous_args = 0
 287              		@ link register save eliminated.
 288              		.loc 4 168 3 view .LVU73
 289              		.loc 4 170 21 view .LVU74
 290              		.loc 4 171 3 view .LVU75
 291              		.loc 4 171 3 view .LVU76
 292              		.loc 4 171 3 view .LVU77
 293              		.loc 4 172 3 view .LVU78
 294              		.loc 4 172 3 view .LVU79
 295              		.loc 4 172 3 view .LVU80
 296              		.loc 4 176 3 view .LVU81
 297              		.loc 4 176 3 view .LVU82
 298              		.loc 4 176 3 view .LVU83
 299              		.loc 4 181 3 view .LVU84
 300              		.loc 4 186 14 is_stmt 0 view .LVU85
 301 0000 D0E90123 		ldrd	r2, r3, [r0, #4]
 302              		.loc 4 193 10 view .LVU86
 303 0004 0168     		ldr	r1, [r0]
 304              		.loc 4 186 14 view .LVU87
 305 0006 43F8442C 		str	r2, [r3, #-68]
 306              		.loc 4 190 3 is_stmt 1 view .LVU88
 307 000a A3F1C402 		sub	r2, r3, #196
 308 000e 43F8542C 		str	r2, [r3, #-84]
 309              		.loc 4 190 3 view .LVU89
 310 0012 0269     		ldr	r2, [r0, #16]
 311 0014 43F8842C 		str	r2, [r3, #-132]
 312              		.loc 4 190 3 view .LVU90
 313 0018 4269     		ldr	r2, [r0, #20]
 314 001a 43F8802C 		str	r2, [r3, #-128]
 315              		.loc 4 190 3 view .LVU91
 316 001e 044A     		ldr	r2, .L8
 317 0020 43F8642C 		str	r2, [r3, #-100]
 318              		.loc 4 190 63 view .LVU92
 319              		.loc 4 193 3 view .LVU93
 320              		.loc 4 193 10 is_stmt 0 view .LVU94
 321 0024 C268     		ldr	r2, [r0, #12]
 322 0026 A3F16000 		sub	r0, r3, #96
 323              	.LVL20:
 324              		.loc 4 193 10 view .LVU95
 325 002a FFF7FEBF 		b	_thread_init
 326              	.LVL21:
 327              	.L9:
 328 002e 00BF     		.align	2
 329              	.L8:
 330 0030 00000000 		.word	_port_thread_start
 331              		.cfi_endproc
 332              	.LFE303:
 333              		.size	chThdCreateSuspendedI, .-chThdCreateSuspendedI
 334              		.section	.text.chThdCreateSuspended,"ax",%progbits
 335              		.align	1
 336              		.global	chThdCreateSuspended
 337              		.syntax unified
 338              		.thumb
 339              		.thumb_func
 340              		.fpu fpv4-sp-d16
 341              		.type	chThdCreateSuspended, %function
 342              	chThdCreateSuspended:
ARM GAS  /tmp/ccPRo3UM.s 			page 7


 343              	.LVL22:
 344              	.LFB304:
 345              		.loc 4 216 64 is_stmt 1 view -0
 346              		.cfi_startproc
 347              		@ args = 0, pretend = 0, frame = 8
 348              		@ frame_needed = 0, uses_anonymous_args = 0
 349              		.loc 4 217 3 view .LVU97
 350              		.loc 4 220 3 view .LVU98
 351              		.loc 4 220 3 view .LVU99
 352              		.loc 4 220 3 view .LVU100
 353              		.loc 4 225 3 view .LVU101
 354              		.loc 4 216 64 is_stmt 0 view .LVU102
 355 0000 13B5     		push	{r0, r1, r4, lr}
 356              		.cfi_def_cfa_offset 16
 357              		.cfi_offset 4, -8
 358              		.cfi_offset 14, -4
 359              		.loc 4 216 64 view .LVU103
 360 0002 0446     		mov	r4, r0
 361              	.LBB88:
 362              	.LBB89:
 363              		.loc 4 139 15 view .LVU104
 364 0004 5521     		movs	r1, #85
 365              	.LBE89:
 366              	.LBE88:
 367              		.loc 4 226 33 view .LVU105
 368 0006 D0E90103 		ldrd	r0, r3, [r0, #4]
 369              	.LVL23:
 370              	.LBB91:
 371              	.LBI88:
 372              		.loc 4 136 6 is_stmt 1 view .LVU106
 373              	.LBB90:
 374              		.loc 4 138 3 view .LVU107
 375              		.loc 4 139 15 is_stmt 0 view .LVU108
 376 000a 1A1A     		subs	r2, r3, r0
 377 000c 9842     		cmp	r0, r3
 378 000e 88BF     		it	hi
 379 0010 0022     		movhi	r2, #0
 380 0012 FFF7FEFF 		bl	memset
 381              	.LVL24:
 382              		.loc 4 139 15 view .LVU109
 383              	.LBE90:
 384              	.LBE91:
 385              		.loc 4 230 3 is_stmt 1 view .LVU110
 386 0016 FFF7FEFF 		bl	chSysLock
 387              	.LVL25:
 388              		.loc 4 231 3 view .LVU111
 389              		.loc 4 231 8 is_stmt 0 view .LVU112
 390 001a 2046     		mov	r0, r4
 391 001c FFF7FEFF 		bl	chThdCreateSuspendedI
 392              	.LVL26:
 393 0020 0190     		str	r0, [sp, #4]
 394              	.LVL27:
 395              		.loc 4 232 3 is_stmt 1 view .LVU113
 396 0022 FFF7FEFF 		bl	chSysUnlock
 397              	.LVL28:
 398              		.loc 4 234 3 view .LVU114
 399              		.loc 4 235 1 is_stmt 0 view .LVU115
ARM GAS  /tmp/ccPRo3UM.s 			page 8


 400 0026 0198     		ldr	r0, [sp, #4]
 401 0028 02B0     		add	sp, sp, #8
 402              		.cfi_def_cfa_offset 8
 403              		@ sp needed
 404 002a 10BD     		pop	{r4, pc}
 405              		.loc 4 235 1 view .LVU116
 406              		.cfi_endproc
 407              	.LFE304:
 408              		.size	chThdCreateSuspended, .-chThdCreateSuspended
 409              		.section	.text.chThdCreateI,"ax",%progbits
 410              		.align	1
 411              		.global	chThdCreateI
 412              		.syntax unified
 413              		.thumb
 414              		.thumb_func
 415              		.fpu fpv4-sp-d16
 416              		.type	chThdCreateI, %function
 417              	chThdCreateI:
 418              	.LVL29:
 419              	.LFB305:
 420              		.loc 4 259 56 is_stmt 1 view -0
 421              		.cfi_startproc
 422              		@ args = 0, pretend = 0, frame = 0
 423              		@ frame_needed = 0, uses_anonymous_args = 0
 424              		.loc 4 261 3 view .LVU118
 425              		.loc 4 259 56 is_stmt 0 view .LVU119
 426 0000 08B5     		push	{r3, lr}
 427              		.cfi_def_cfa_offset 8
 428              		.cfi_offset 3, -8
 429              		.cfi_offset 14, -4
 430              		.loc 4 261 10 view .LVU120
 431 0002 FFF7FEFF 		bl	chThdCreateSuspendedI
 432              	.LVL30:
 433              		.loc 4 262 1 view .LVU121
 434 0006 BDE80840 		pop	{r3, lr}
 435              		.cfi_restore 14
 436              		.cfi_restore 3
 437              		.cfi_def_cfa_offset 0
 438              		.loc 4 261 10 view .LVU122
 439 000a FFF7FEBF 		b	chSchReadyI
 440              	.LVL31:
 441              		.cfi_endproc
 442              	.LFE305:
 443              		.size	chThdCreateI, .-chThdCreateI
 444              		.section	.text.chThdCreate,"ax",%progbits
 445              		.align	1
 446              		.global	chThdCreate
 447              		.syntax unified
 448              		.thumb
 449              		.thumb_func
 450              		.fpu fpv4-sp-d16
 451              		.type	chThdCreate, %function
 452              	chThdCreate:
 453              	.LVL32:
 454              	.LFB306:
 455              		.loc 4 280 55 is_stmt 1 view -0
 456              		.cfi_startproc
ARM GAS  /tmp/ccPRo3UM.s 			page 9


 457              		@ args = 0, pretend = 0, frame = 0
 458              		@ frame_needed = 0, uses_anonymous_args = 0
 459              		.loc 4 281 3 view .LVU124
 460              		.loc 4 285 3 view .LVU125
 461              		.loc 4 285 3 view .LVU126
 462              		.loc 4 285 3 view .LVU127
 463              		.loc 4 290 3 view .LVU128
 464              		.loc 4 280 55 is_stmt 0 view .LVU129
 465 0000 10B5     		push	{r4, lr}
 466              		.cfi_def_cfa_offset 8
 467              		.cfi_offset 4, -8
 468              		.cfi_offset 14, -4
 469              		.loc 4 280 55 view .LVU130
 470 0002 0446     		mov	r4, r0
 471              	.LBB92:
 472              	.LBB93:
 473              		.loc 4 139 15 view .LVU131
 474 0004 5521     		movs	r1, #85
 475              	.LBE93:
 476              	.LBE92:
 477              		.loc 4 291 33 view .LVU132
 478 0006 D0E90103 		ldrd	r0, r3, [r0, #4]
 479              	.LVL33:
 480              	.LBB95:
 481              	.LBI92:
 482              		.loc 4 136 6 is_stmt 1 view .LVU133
 483              	.LBB94:
 484              		.loc 4 138 3 view .LVU134
 485              		.loc 4 139 15 is_stmt 0 view .LVU135
 486 000a 1A1A     		subs	r2, r3, r0
 487 000c 9842     		cmp	r0, r3
 488 000e 88BF     		it	hi
 489 0010 0022     		movhi	r2, #0
 490 0012 FFF7FEFF 		bl	memset
 491              	.LVL34:
 492              		.loc 4 139 15 view .LVU136
 493              	.LBE94:
 494              	.LBE95:
 495              		.loc 4 295 3 is_stmt 1 view .LVU137
 496 0016 FFF7FEFF 		bl	chSysLock
 497              	.LVL35:
 498              		.loc 4 296 3 view .LVU138
 499              		.loc 4 296 8 is_stmt 0 view .LVU139
 500 001a 2046     		mov	r0, r4
 501 001c FFF7FEFF 		bl	chThdCreateSuspendedI
 502              	.LVL36:
 503 0020 0446     		mov	r4, r0
 504              	.LVL37:
 505              		.loc 4 297 3 is_stmt 1 view .LVU140
 506 0022 0021     		movs	r1, #0
 507 0024 FFF7FEFF 		bl	chSchWakeupS
 508              	.LVL38:
 509              		.loc 4 298 3 view .LVU141
 510 0028 FFF7FEFF 		bl	chSysUnlock
 511              	.LVL39:
 512              		.loc 4 300 3 view .LVU142
 513              		.loc 4 301 1 is_stmt 0 view .LVU143
ARM GAS  /tmp/ccPRo3UM.s 			page 10


 514 002c 2046     		mov	r0, r4
 515 002e 10BD     		pop	{r4, pc}
 516              		.loc 4 301 1 view .LVU144
 517              		.cfi_endproc
 518              	.LFE306:
 519              		.size	chThdCreate, .-chThdCreate
 520              		.section	.rodata.chThdCreateStatic.str1.1,"aMS",%progbits,1
 521              	.LC0:
 522 0000 6E6F6E61 		.ascii	"noname\000"
 522      6D6500
 523              		.section	.text.chThdCreateStatic,"ax",%progbits
 524              		.align	1
 525              		.global	chThdCreateStatic
 526              		.syntax unified
 527              		.thumb
 528              		.thumb_func
 529              		.fpu fpv4-sp-d16
 530              		.type	chThdCreateStatic, %function
 531              	chThdCreateStatic:
 532              	.LVL40:
 533              	.LFB307:
 534              		.loc 4 324 66 is_stmt 1 view -0
 535              		.cfi_startproc
 536              		@ args = 4, pretend = 0, frame = 0
 537              		@ frame_needed = 0, uses_anonymous_args = 0
 538              		.loc 4 325 3 view .LVU146
 539              		.loc 4 327 3 view .LVU147
 540              		.loc 4 327 3 view .LVU148
 541              		.loc 4 327 3 view .LVU149
 542              		.loc 4 335 3 view .LVU150
 543              		.loc 4 335 3 view .LVU151
 544              		.loc 4 335 3 view .LVU152
 545              		.loc 4 340 3 view .LVU153
 546              	.LBB96:
 547              	.LBI96:
 548              		.loc 4 136 6 view .LVU154
 549              	.LBB97:
 550              		.loc 4 138 3 view .LVU155
 551              	.LBE97:
 552              	.LBE96:
 553              		.loc 4 324 66 is_stmt 0 view .LVU156
 554 0000 F8B5     		push	{r3, r4, r5, r6, r7, lr}
 555              		.cfi_def_cfa_offset 24
 556              		.cfi_offset 3, -24
 557              		.cfi_offset 4, -20
 558              		.cfi_offset 5, -16
 559              		.cfi_offset 6, -12
 560              		.cfi_offset 7, -8
 561              		.cfi_offset 14, -4
 562              		.loc 4 324 66 view .LVU157
 563 0002 0C46     		mov	r4, r1
 564              	.LBB101:
 565              	.LBB98:
 566              		.loc 4 139 15 view .LVU158
 567 0004 C842     		cmn	r0, r1
 568              	.LBE98:
 569              	.LBE101:
ARM GAS  /tmp/ccPRo3UM.s 			page 11


 570              		.loc 4 324 66 view .LVU159
 571 0006 0546     		mov	r5, r0
 572 0008 1646     		mov	r6, r2
 573              		.loc 4 350 43 view .LVU160
 574 000a A4F16004 		sub	r4, r4, #96
 575              	.LBB102:
 576              	.LBB99:
 577              		.loc 4 139 15 view .LVU161
 578 000e 34BF     		ite	cc
 579 0010 0A46     		movcc	r2, r1
 580              	.LVL41:
 581              		.loc 4 139 15 view .LVU162
 582 0012 0022     		movcs	r2, #0
 583 0014 5521     		movs	r1, #85
 584              	.LVL42:
 585              		.loc 4 139 15 view .LVU163
 586              	.LBE99:
 587              	.LBE102:
 588              		.loc 4 324 66 view .LVU164
 589 0016 1F46     		mov	r7, r3
 590              	.LBB103:
 591              	.LBB100:
 592              		.loc 4 139 15 view .LVU165
 593 0018 FFF7FEFF 		bl	memset
 594              	.LVL43:
 595              		.loc 4 139 15 view .LVU166
 596              	.LBE100:
 597              	.LBE103:
 598              		.loc 4 345 3 is_stmt 1 view .LVU167
 599 001c FFF7FEFF 		bl	chSysLock
 600              	.LVL44:
 601              		.loc 4 350 3 view .LVU168
 602              		.loc 4 350 6 is_stmt 0 view .LVU169
 603 0020 2819     		adds	r0, r5, r4
 604              	.LVL45:
 605              		.loc 4 355 3 is_stmt 1 view .LVU170
 606              		.loc 4 361 8 is_stmt 0 view .LVU171
 607 0022 3246     		mov	r2, r6
 608 0024 0B49     		ldr	r1, .L14
 609              		.loc 4 359 3 view .LVU172
 610 0026 A0F16403 		sub	r3, r0, #100
 611              		.loc 4 355 14 view .LVU173
 612 002a C561     		str	r5, [r0, #28]
 613              		.loc 4 359 3 is_stmt 1 view .LVU174
 614 002c 40F8247C 		str	r7, [r0, #-36]
 615 0030 C360     		str	r3, [r0, #12]
 616              		.loc 4 359 3 view .LVU175
 617              		.loc 4 359 3 view .LVU176
 618 0032 069B     		ldr	r3, [sp, #24]
 619 0034 40F8203C 		str	r3, [r0, #-32]
 620              		.loc 4 359 3 view .LVU177
 621 0038 074B     		ldr	r3, .L14+4
 622 003a 40F8043C 		str	r3, [r0, #-4]
 623              		.loc 4 359 43 view .LVU178
 624              		.loc 4 361 3 view .LVU179
 625              		.loc 4 361 8 is_stmt 0 view .LVU180
 626 003e FFF7FEFF 		bl	_thread_init
ARM GAS  /tmp/ccPRo3UM.s 			page 12


 627              	.LVL46:
 628              		.loc 4 361 8 view .LVU181
 629 0042 0446     		mov	r4, r0
 630              	.LVL47:
 631              		.loc 4 364 3 is_stmt 1 view .LVU182
 632 0044 0021     		movs	r1, #0
 633 0046 FFF7FEFF 		bl	chSchWakeupS
 634              	.LVL48:
 635              		.loc 4 365 3 view .LVU183
 636 004a FFF7FEFF 		bl	chSysUnlock
 637              	.LVL49:
 638              		.loc 4 367 3 view .LVU184
 639              		.loc 4 368 1 is_stmt 0 view .LVU185
 640 004e 2046     		mov	r0, r4
 641 0050 F8BD     		pop	{r3, r4, r5, r6, r7, pc}
 642              	.LVL50:
 643              	.L15:
 644              		.loc 4 368 1 view .LVU186
 645 0052 00BF     		.align	2
 646              	.L14:
 647 0054 00000000 		.word	.LC0
 648 0058 00000000 		.word	_port_thread_start
 649              		.cfi_endproc
 650              	.LFE307:
 651              		.size	chThdCreateStatic, .-chThdCreateStatic
 652              		.section	.text.chThdStart,"ax",%progbits
 653              		.align	1
 654              		.global	chThdStart
 655              		.syntax unified
 656              		.thumb
 657              		.thumb_func
 658              		.fpu fpv4-sp-d16
 659              		.type	chThdStart, %function
 660              	chThdStart:
 661              	.LVL51:
 662              	.LFB308:
 663              		.loc 4 379 36 is_stmt 1 view -0
 664              		.cfi_startproc
 665              		@ args = 0, pretend = 0, frame = 8
 666              		@ frame_needed = 0, uses_anonymous_args = 0
 667              		.loc 4 381 3 view .LVU188
 668              		.loc 4 379 36 is_stmt 0 view .LVU189
 669 0000 07B5     		push	{r0, r1, r2, lr}
 670              		.cfi_def_cfa_offset 16
 671              		.cfi_offset 14, -4
 672              		.loc 4 379 36 view .LVU190
 673 0002 0190     		str	r0, [sp, #4]
 674              		.loc 4 381 3 view .LVU191
 675 0004 FFF7FEFF 		bl	chSysLock
 676              	.LVL52:
 677              		.loc 4 382 3 is_stmt 1 view .LVU192
 678              		.loc 4 382 3 view .LVU193
 679              		.loc 4 382 3 view .LVU194
 680              		.loc 4 383 3 view .LVU195
 681 0008 0198     		ldr	r0, [sp, #4]
 682 000a 0021     		movs	r1, #0
 683 000c FFF7FEFF 		bl	chSchWakeupS
ARM GAS  /tmp/ccPRo3UM.s 			page 13


 684              	.LVL53:
 685              		.loc 4 384 3 view .LVU196
 686 0010 FFF7FEFF 		bl	chSysUnlock
 687              	.LVL54:
 688              		.loc 4 386 3 view .LVU197
 689              		.loc 4 387 1 is_stmt 0 view .LVU198
 690 0014 0198     		ldr	r0, [sp, #4]
 691 0016 03B0     		add	sp, sp, #12
 692              		.cfi_def_cfa_offset 4
 693              		@ sp needed
 694 0018 5DF804FB 		ldr	pc, [sp], #4
 695              		.loc 4 387 1 view .LVU199
 696              		.cfi_endproc
 697              	.LFE308:
 698              		.size	chThdStart, .-chThdStart
 699              		.section	.text.chThdAddRef,"ax",%progbits
 700              		.align	1
 701              		.global	chThdAddRef
 702              		.syntax unified
 703              		.thumb
 704              		.thumb_func
 705              		.fpu fpv4-sp-d16
 706              		.type	chThdAddRef, %function
 707              	chThdAddRef:
 708              	.LVL55:
 709              	.LFB309:
 710              		.loc 4 401 37 is_stmt 1 view -0
 711              		.cfi_startproc
 712              		@ args = 0, pretend = 0, frame = 0
 713              		@ frame_needed = 0, uses_anonymous_args = 0
 714              		.loc 4 403 3 view .LVU201
 715              		.loc 4 401 37 is_stmt 0 view .LVU202
 716 0000 10B5     		push	{r4, lr}
 717              		.cfi_def_cfa_offset 8
 718              		.cfi_offset 4, -8
 719              		.cfi_offset 14, -4
 720              		.loc 4 401 37 view .LVU203
 721 0002 0446     		mov	r4, r0
 722              		.loc 4 403 3 view .LVU204
 723 0004 FFF7FEFF 		bl	chSysLock
 724              	.LVL56:
 725              		.loc 4 404 3 is_stmt 1 view .LVU205
 726              		.loc 4 404 3 view .LVU206
 727              		.loc 4 404 3 view .LVU207
 728              		.loc 4 405 3 view .LVU208
 729              		.loc 4 405 11 is_stmt 0 view .LVU209
 730 0008 94F82230 		ldrb	r3, [r4, #34]	@ zero_extendqisi2
 731 000c 0133     		adds	r3, r3, #1
 732 000e 84F82230 		strb	r3, [r4, #34]
 733              		.loc 4 406 3 is_stmt 1 view .LVU210
 734 0012 FFF7FEFF 		bl	chSysUnlock
 735              	.LVL57:
 736              		.loc 4 408 3 view .LVU211
 737              		.loc 4 409 1 is_stmt 0 view .LVU212
 738 0016 2046     		mov	r0, r4
 739 0018 10BD     		pop	{r4, pc}
 740              		.loc 4 409 1 view .LVU213
ARM GAS  /tmp/ccPRo3UM.s 			page 14


 741              		.cfi_endproc
 742              	.LFE309:
 743              		.size	chThdAddRef, .-chThdAddRef
 744              		.section	.text.chThdRelease,"ax",%progbits
 745              		.align	1
 746              		.global	chThdRelease
 747              		.syntax unified
 748              		.thumb
 749              		.thumb_func
 750              		.fpu fpv4-sp-d16
 751              		.type	chThdRelease, %function
 752              	chThdRelease:
 753              	.LVL58:
 754              	.LFB310:
 755              		.loc 4 427 33 is_stmt 1 view -0
 756              		.cfi_startproc
 757              		@ args = 0, pretend = 0, frame = 0
 758              		@ frame_needed = 0, uses_anonymous_args = 0
 759              		.loc 4 429 3 view .LVU215
 760              		.loc 4 427 33 is_stmt 0 view .LVU216
 761 0000 10B5     		push	{r4, lr}
 762              		.cfi_def_cfa_offset 8
 763              		.cfi_offset 4, -8
 764              		.cfi_offset 14, -4
 765              		.loc 4 427 33 view .LVU217
 766 0002 0446     		mov	r4, r0
 767              		.loc 4 429 3 view .LVU218
 768 0004 FFF7FEFF 		bl	chSysLock
 769              	.LVL59:
 770              		.loc 4 430 3 is_stmt 1 view .LVU219
 771              		.loc 4 430 3 view .LVU220
 772              		.loc 4 430 3 view .LVU221
 773              		.loc 4 431 3 view .LVU222
 774              		.loc 4 431 11 is_stmt 0 view .LVU223
 775 0008 94F82230 		ldrb	r3, [r4, #34]	@ zero_extendqisi2
 776 000c 013B     		subs	r3, r3, #1
 777 000e 84F82230 		strb	r3, [r4, #34]
 778              		.loc 4 436 3 is_stmt 1 view .LVU224
 779              		.loc 4 436 32 is_stmt 0 view .LVU225
 780 0012 236A     		ldr	r3, [r4, #32]
 781 0014 03F0FF13 		and	r3, r3, #16711935
 782              		.loc 4 436 6 view .LVU226
 783 0018 0F2B     		cmp	r3, #15
 784 001a 1AD1     		bne	.L19
 785              	.LVL60:
 786              	.LBB110:
 787              	.LBI110:
 788              		.loc 4 427 6 is_stmt 1 view .LVU227
 789              	.LBB111:
 790              		.loc 4 437 5 view .LVU228
 791 001c D4E90423 		ldrd	r2, r3, [r4, #16]
 792 0020 1A61     		str	r2, [r3, #16]
 793              		.loc 4 437 5 view .LVU229
 794 0022 2269     		ldr	r2, [r4, #16]
 795 0024 5361     		str	r3, [r2, #20]
 796              		.loc 4 437 19 view .LVU230
 797              		.loc 4 438 5 view .LVU231
ARM GAS  /tmp/ccPRo3UM.s 			page 15


 798 0026 FFF7FEFF 		bl	chSysUnlock
 799              	.LVL61:
 800              		.loc 4 441 5 view .LVU232
 801 002a 94F82130 		ldrb	r3, [r4, #33]	@ zero_extendqisi2
 802 002e 03F00303 		and	r3, r3, #3
 803 0032 012B     		cmp	r3, #1
 804 0034 02D0     		beq	.L20
 805 0036 022B     		cmp	r3, #2
 806 0038 05D0     		beq	.L21
 807              	.LBE111:
 808              	.LBE110:
 809              		.loc 4 460 1 is_stmt 0 view .LVU233
 810 003a 10BD     		pop	{r4, pc}
 811              	.LVL62:
 812              	.L20:
 813              	.LBB119:
 814              	.LBB116:
 815              		.loc 4 444 7 is_stmt 1 view .LVU234
 816              	.LBB112:
 817              	.LBI112:
 818              		.file 6 "../../modules/ChibiOS/os/rt/include/chthreads.h"
 819              		.loc 6 317 27 view .LVU235
 820              	.LBB113:
 821              		.loc 6 319 3 view .LVU236
 822              		.loc 6 319 3 is_stmt 0 view .LVU237
 823              	.LBE113:
 824              	.LBE112:
 825              		.loc 4 444 7 view .LVU238
 826 003c E069     		ldr	r0, [r4, #28]
 827              	.LBE116:
 828              	.LBE119:
 829              		.loc 4 460 1 view .LVU239
 830 003e BDE81040 		pop	{r4, lr}
 831              		.cfi_remember_state
 832              		.cfi_restore 14
 833              		.cfi_restore 4
 834              		.cfi_def_cfa_offset 0
 835              	.LVL63:
 836              	.LBB120:
 837              	.LBB117:
 838              		.loc 4 444 7 view .LVU240
 839 0042 FFF7FEBF 		b	chHeapFree
 840              	.LVL64:
 841              	.L21:
 842              		.cfi_restore_state
 843              		.loc 4 449 7 is_stmt 1 view .LVU241
 844              	.LBB114:
 845              	.LBI114:
 846              		.loc 6 317 27 view .LVU242
 847              	.LBB115:
 848              		.loc 6 319 3 view .LVU243
 849              		.loc 6 319 3 is_stmt 0 view .LVU244
 850              	.LBE115:
 851              	.LBE114:
 852              		.loc 4 449 7 view .LVU245
 853 0046 E169     		ldr	r1, [r4, #28]
 854 0048 206C     		ldr	r0, [r4, #64]
ARM GAS  /tmp/ccPRo3UM.s 			page 16


 855              	.LBE117:
 856              	.LBE120:
 857              		.loc 4 460 1 view .LVU246
 858 004a BDE81040 		pop	{r4, lr}
 859              		.cfi_remember_state
 860              		.cfi_restore 14
 861              		.cfi_restore 4
 862              		.cfi_def_cfa_offset 0
 863              	.LVL65:
 864              	.LBB121:
 865              	.LBB118:
 866              		.loc 4 449 7 view .LVU247
 867 004e FFF7FEBF 		b	chPoolFree
 868              	.LVL66:
 869              	.L19:
 870              		.cfi_restore_state
 871              		.loc 4 449 7 view .LVU248
 872              	.LBE118:
 873              	.LBE121:
 874              		.loc 4 459 3 is_stmt 1 view .LVU249
 875              		.loc 4 460 1 is_stmt 0 view .LVU250
 876 0052 BDE81040 		pop	{r4, lr}
 877              		.cfi_restore 14
 878              		.cfi_restore 4
 879              		.cfi_def_cfa_offset 0
 880              	.LVL67:
 881              		.loc 4 459 3 view .LVU251
 882 0056 FFF7FEBF 		b	chSysUnlock
 883              	.LVL68:
 884              		.cfi_endproc
 885              	.LFE310:
 886              		.size	chThdRelease, .-chThdRelease
 887              		.section	.text.chThdExitS,"ax",%progbits
 888              		.align	1
 889              		.global	chThdExitS
 890              		.syntax unified
 891              		.thumb
 892              		.thumb_func
 893              		.fpu fpv4-sp-d16
 894              		.type	chThdExitS, %function
 895              	chThdExitS:
 896              	.LVL69:
 897              	.LFB312:
 898              		.loc 4 501 28 is_stmt 1 view -0
 899              		.cfi_startproc
 900              		@ args = 0, pretend = 0, frame = 0
 901              		@ frame_needed = 0, uses_anonymous_args = 0
 902              		.loc 4 502 3 view .LVU253
 903              		.loc 4 501 28 is_stmt 0 view .LVU254
 904 0000 38B5     		push	{r3, r4, r5, lr}
 905              		.cfi_def_cfa_offset 16
 906              		.cfi_offset 3, -16
 907              		.cfi_offset 4, -12
 908              		.cfi_offset 5, -8
 909              		.cfi_offset 14, -4
 910              		.loc 4 502 13 view .LVU255
 911 0002 0E4B     		ldr	r3, .L28
ARM GAS  /tmp/ccPRo3UM.s 			page 17


 912 0004 9C69     		ldr	r4, [r3, #24]
 913              	.LVL70:
 914              		.loc 4 505 3 is_stmt 1 view .LVU256
 915              		.loc 4 512 10 is_stmt 0 view .LVU257
 916 0006 04F12805 		add	r5, r4, #40
 917              		.loc 4 505 18 view .LVU258
 918 000a 6062     		str	r0, [r4, #36]
 919              		.loc 4 508 3 is_stmt 1 view .LVU259
 920              		.loc 4 508 30 view .LVU260
 921              		.loc 4 512 3 view .LVU261
 922              	.LVL71:
 923              	.L25:
 924              		.loc 4 512 9 view .LVU262
 925              	.LBB122:
 926              	.LBI122:
 927              		.loc 5 525 20 view .LVU263
 928              	.LBB123:
 929              		.loc 5 527 3 view .LVU264
 930              		.loc 5 527 20 is_stmt 0 view .LVU265
 931 000c A06A     		ldr	r0, [r4, #40]
 932              	.LVL72:
 933              		.loc 5 527 20 view .LVU266
 934              	.LBE123:
 935              	.LBE122:
 936              		.loc 4 512 9 view .LVU267
 937 000e A842     		cmp	r0, r5
 938 0010 0FD1     		bne	.L26
 939              		.loc 4 521 3 is_stmt 1 view .LVU268
 940              		.loc 4 521 6 is_stmt 0 view .LVU269
 941 0012 94F82230 		ldrb	r3, [r4, #34]	@ zero_extendqisi2
 942 0016 3BB9     		cbnz	r3, .L27
 943              		.loc 4 521 32 discriminator 1 view .LVU270
 944 0018 94F82130 		ldrb	r3, [r4, #33]	@ zero_extendqisi2
 945 001c 9B07     		lsls	r3, r3, #30
 946              		.loc 4 523 5 is_stmt 1 discriminator 1 view .LVU271
 947 001e 02BF     		ittt	eq
 948 0020 D4E90432 		ldrdeq	r3, r2, [r4, #16]
 949 0024 1361     		streq	r3, [r2, #16]
 950              		.loc 4 523 5 discriminator 1 view .LVU272
 951 0026 5A61     		streq	r2, [r3, #20]
 952              	.L27:
 953              		.loc 4 523 19 discriminator 1 view .LVU273
 954              		.loc 4 533 3 discriminator 1 view .LVU274
 955 0028 0F20     		movs	r0, #15
 956              		.loc 4 537 1 is_stmt 0 discriminator 1 view .LVU275
 957 002a BDE83840 		pop	{r3, r4, r5, lr}
 958              		.cfi_remember_state
 959              		.cfi_restore 14
 960              		.cfi_restore 5
 961              		.cfi_restore 4
 962              		.cfi_restore 3
 963              		.cfi_def_cfa_offset 0
 964              	.LVL73:
 965              		.loc 4 533 3 discriminator 1 view .LVU276
 966 002e FFF7FEBF 		b	chSchGoSleepS
 967              	.LVL74:
 968              	.L26:
ARM GAS  /tmp/ccPRo3UM.s 			page 18


 969              		.cfi_restore_state
 970              		.loc 4 513 5 is_stmt 1 view .LVU277
 971              	.LBB124:
 972              	.LBI124:
 973              		.loc 5 578 25 view .LVU278
 974              	.LBB125:
 975              		.loc 5 580 3 view .LVU279
 976              		.loc 5 581 3 view .LVU280
 977              		.loc 5 581 13 is_stmt 0 view .LVU281
 978 0032 0368     		ldr	r3, [r0]
 979 0034 A362     		str	r3, [r4, #40]
 980              		.loc 5 583 3 is_stmt 1 view .LVU282
 981              	.LVL75:
 982              		.loc 5 583 3 is_stmt 0 view .LVU283
 983              	.LBE125:
 984              	.LBE124:
 985              		.loc 4 513 12 view .LVU284
 986 0036 FFF7FEFF 		bl	chSchReadyI
 987              	.LVL76:
 988 003a E7E7     		b	.L25
 989              	.L29:
 990              		.align	2
 991              	.L28:
 992 003c 00000000 		.word	ch
 993              		.cfi_endproc
 994              	.LFE312:
 995              		.size	chThdExitS, .-chThdExitS
 996              		.section	.text.chThdExit,"ax",%progbits
 997              		.align	1
 998              		.global	chThdExit
 999              		.syntax unified
 1000              		.thumb
 1001              		.thumb_func
 1002              		.fpu fpv4-sp-d16
 1003              		.type	chThdExit, %function
 1004              	chThdExit:
 1005              	.LVL77:
 1006              	.LFB311:
 1007              		.loc 4 477 27 is_stmt 1 view -0
 1008              		.cfi_startproc
 1009              		@ args = 0, pretend = 0, frame = 8
 1010              		@ frame_needed = 0, uses_anonymous_args = 0
 1011              		.loc 4 479 3 view .LVU286
 1012              		.loc 4 477 27 is_stmt 0 view .LVU287
 1013 0000 07B5     		push	{r0, r1, r2, lr}
 1014              		.cfi_def_cfa_offset 16
 1015              		.cfi_offset 14, -4
 1016              		.loc 4 477 27 view .LVU288
 1017 0002 0190     		str	r0, [sp, #4]
 1018              		.loc 4 479 3 view .LVU289
 1019 0004 FFF7FEFF 		bl	chSysLock
 1020              	.LVL78:
 1021              		.loc 4 480 3 is_stmt 1 view .LVU290
 1022 0008 0198     		ldr	r0, [sp, #4]
 1023              		.loc 4 482 1 is_stmt 0 view .LVU291
 1024 000a 03B0     		add	sp, sp, #12
 1025              		.cfi_def_cfa_offset 4
ARM GAS  /tmp/ccPRo3UM.s 			page 19


 1026              		@ sp needed
 1027 000c 5DF804EB 		ldr	lr, [sp], #4
 1028              		.cfi_restore 14
 1029              		.cfi_def_cfa_offset 0
 1030              	.LVL79:
 1031              		.loc 4 480 3 view .LVU292
 1032 0010 FFF7FEBF 		b	chThdExitS
 1033              	.LVL80:
 1034              		.cfi_endproc
 1035              	.LFE311:
 1036              		.size	chThdExit, .-chThdExit
 1037              		.section	.text.chThdWait,"ax",%progbits
 1038              		.align	1
 1039              		.global	chThdWait
 1040              		.syntax unified
 1041              		.thumb
 1042              		.thumb_func
 1043              		.fpu fpv4-sp-d16
 1044              		.type	chThdWait, %function
 1045              	chThdWait:
 1046              	.LVL81:
 1047              	.LFB313:
 1048              		.loc 4 559 31 is_stmt 1 view -0
 1049              		.cfi_startproc
 1050              		@ args = 0, pretend = 0, frame = 0
 1051              		@ frame_needed = 0, uses_anonymous_args = 0
 1052              		.loc 4 560 3 view .LVU294
 1053              		.loc 4 562 3 view .LVU295
 1054              		.loc 4 562 3 view .LVU296
 1055              		.loc 4 562 3 view .LVU297
 1056              		.loc 4 564 3 view .LVU298
 1057              		.loc 4 559 31 is_stmt 0 view .LVU299
 1058 0000 38B5     		push	{r3, r4, r5, lr}
 1059              		.cfi_def_cfa_offset 16
 1060              		.cfi_offset 3, -16
 1061              		.cfi_offset 4, -12
 1062              		.cfi_offset 5, -8
 1063              		.cfi_offset 14, -4
 1064              		.loc 4 559 31 view .LVU300
 1065 0002 0446     		mov	r4, r0
 1066              		.loc 4 564 3 view .LVU301
 1067 0004 FFF7FEFF 		bl	chSysLock
 1068              	.LVL82:
 1069              		.loc 4 565 3 is_stmt 1 view .LVU302
 1070              		.loc 4 565 3 view .LVU303
 1071              		.loc 4 565 3 view .LVU304
 1072              		.loc 4 567 3 view .LVU305
 1073              		.loc 4 567 3 view .LVU306
 1074              		.loc 4 567 3 view .LVU307
 1075              		.loc 4 570 3 view .LVU308
 1076              		.loc 4 570 6 is_stmt 0 view .LVU309
 1077 0008 94F82030 		ldrb	r3, [r4, #32]	@ zero_extendqisi2
 1078 000c 0F2B     		cmp	r3, #15
 1079 000e 07D0     		beq	.L32
 1080              		.loc 4 571 5 is_stmt 1 view .LVU310
 1081 0010 074B     		ldr	r3, .L36
 1082              		.loc 4 572 5 is_stmt 0 view .LVU311
ARM GAS  /tmp/ccPRo3UM.s 			page 20


 1083 0012 0920     		movs	r0, #9
 1084              	.LBB126:
 1085              	.LBB127:
 1086              		.loc 5 574 18 view .LVU312
 1087 0014 A26A     		ldr	r2, [r4, #40]
 1088              	.LBE127:
 1089              	.LBE126:
 1090              		.loc 4 571 5 view .LVU313
 1091 0016 9B69     		ldr	r3, [r3, #24]
 1092              	.LVL83:
 1093              	.LBB129:
 1094              	.LBI126:
 1095              		.loc 5 572 20 is_stmt 1 view .LVU314
 1096              	.LBB128:
 1097              		.loc 5 574 3 view .LVU315
 1098              		.loc 5 574 18 is_stmt 0 view .LVU316
 1099 0018 1A60     		str	r2, [r3]
 1100              		.loc 5 575 3 is_stmt 1 view .LVU317
 1101              		.loc 5 575 13 is_stmt 0 view .LVU318
 1102 001a A362     		str	r3, [r4, #40]
 1103              	.LVL84:
 1104              		.loc 5 575 13 view .LVU319
 1105              	.LBE128:
 1106              	.LBE129:
 1107              		.loc 4 572 5 is_stmt 1 view .LVU320
 1108 001c FFF7FEFF 		bl	chSchGoSleepS
 1109              	.LVL85:
 1110              	.L32:
 1111              		.loc 4 574 3 view .LVU321
 1112              		.loc 4 574 7 is_stmt 0 view .LVU322
 1113 0020 656A     		ldr	r5, [r4, #36]
 1114              	.LVL86:
 1115              		.loc 4 575 3 is_stmt 1 view .LVU323
 1116 0022 FFF7FEFF 		bl	chSysUnlock
 1117              	.LVL87:
 1118              		.loc 4 579 3 view .LVU324
 1119 0026 2046     		mov	r0, r4
 1120 0028 FFF7FEFF 		bl	chThdRelease
 1121              	.LVL88:
 1122              		.loc 4 582 3 view .LVU325
 1123              		.loc 4 583 1 is_stmt 0 view .LVU326
 1124 002c 2846     		mov	r0, r5
 1125 002e 38BD     		pop	{r3, r4, r5, pc}
 1126              	.LVL89:
 1127              	.L37:
 1128              		.loc 4 583 1 view .LVU327
 1129              		.align	2
 1130              	.L36:
 1131 0030 00000000 		.word	ch
 1132              		.cfi_endproc
 1133              	.LFE313:
 1134              		.size	chThdWait, .-chThdWait
 1135              		.section	.text.chThdSetPriority,"ax",%progbits
 1136              		.align	1
 1137              		.global	chThdSetPriority
 1138              		.syntax unified
 1139              		.thumb
ARM GAS  /tmp/ccPRo3UM.s 			page 21


 1140              		.thumb_func
 1141              		.fpu fpv4-sp-d16
 1142              		.type	chThdSetPriority, %function
 1143              	chThdSetPriority:
 1144              	.LVL90:
 1145              	.LFB314:
 1146              		.loc 4 598 43 is_stmt 1 view -0
 1147              		.cfi_startproc
 1148              		@ args = 0, pretend = 0, frame = 0
 1149              		@ frame_needed = 0, uses_anonymous_args = 0
 1150              		.loc 4 599 3 view .LVU329
 1151              		.loc 4 601 3 view .LVU330
 1152              		.loc 4 601 3 view .LVU331
 1153              		.loc 4 601 3 view .LVU332
 1154              		.loc 4 603 3 view .LVU333
 1155              		.loc 4 598 43 is_stmt 0 view .LVU334
 1156 0000 38B5     		push	{r3, r4, r5, lr}
 1157              		.cfi_def_cfa_offset 16
 1158              		.cfi_offset 3, -16
 1159              		.cfi_offset 4, -12
 1160              		.cfi_offset 5, -8
 1161              		.cfi_offset 14, -4
 1162              		.loc 4 598 43 view .LVU335
 1163 0002 0446     		mov	r4, r0
 1164              		.loc 4 603 3 view .LVU336
 1165 0004 FFF7FEFF 		bl	chSysLock
 1166              	.LVL91:
 1167              		.loc 4 605 3 is_stmt 1 view .LVU337
 1168              		.loc 4 605 13 is_stmt 0 view .LVU338
 1169 0008 074B     		ldr	r3, .L41
 1170 000a 9B69     		ldr	r3, [r3, #24]
 1171              		.loc 4 605 11 view .LVU339
 1172 000c DD6B     		ldr	r5, [r3, #60]
 1173              	.LVL92:
 1174              		.loc 4 606 3 is_stmt 1 view .LVU340
 1175              		.loc 4 606 13 is_stmt 0 view .LVU341
 1176 000e 9A68     		ldr	r2, [r3, #8]
 1177              		.loc 4 606 6 view .LVU342
 1178 0010 AA42     		cmp	r2, r5
 1179 0012 01D0     		beq	.L39
 1180              		.loc 4 606 40 discriminator 1 view .LVU343
 1181 0014 A242     		cmp	r2, r4
 1182 0016 00D2     		bcs	.L40
 1183              	.L39:
 1184              		.loc 4 607 5 is_stmt 1 view .LVU344
 1185              		.loc 4 607 17 is_stmt 0 view .LVU345
 1186 0018 9C60     		str	r4, [r3, #8]
 1187              	.L40:
 1188              		.loc 4 609 3 is_stmt 1 view .LVU346
 1189              		.loc 4 609 19 is_stmt 0 view .LVU347
 1190 001a DC63     		str	r4, [r3, #60]
 1191              		.loc 4 614 3 is_stmt 1 view .LVU348
 1192 001c FFF7FEFF 		bl	chSchRescheduleS
 1193              	.LVL93:
 1194              		.loc 4 615 3 view .LVU349
 1195 0020 FFF7FEFF 		bl	chSysUnlock
 1196              	.LVL94:
ARM GAS  /tmp/ccPRo3UM.s 			page 22


 1197              		.loc 4 617 3 view .LVU350
 1198              		.loc 4 618 1 is_stmt 0 view .LVU351
 1199 0024 2846     		mov	r0, r5
 1200 0026 38BD     		pop	{r3, r4, r5, pc}
 1201              	.LVL95:
 1202              	.L42:
 1203              		.loc 4 618 1 view .LVU352
 1204              		.align	2
 1205              	.L41:
 1206 0028 00000000 		.word	ch
 1207              		.cfi_endproc
 1208              	.LFE314:
 1209              		.size	chThdSetPriority, .-chThdSetPriority
 1210              		.section	.text.chThdTerminate,"ax",%progbits
 1211              		.align	1
 1212              		.global	chThdTerminate
 1213              		.syntax unified
 1214              		.thumb
 1215              		.thumb_func
 1216              		.fpu fpv4-sp-d16
 1217              		.type	chThdTerminate, %function
 1218              	chThdTerminate:
 1219              	.LVL96:
 1220              	.LFB315:
 1221              		.loc 4 632 35 is_stmt 1 view -0
 1222              		.cfi_startproc
 1223              		@ args = 0, pretend = 0, frame = 0
 1224              		@ frame_needed = 0, uses_anonymous_args = 0
 1225              		.loc 4 634 3 view .LVU354
 1226              		.loc 4 632 35 is_stmt 0 view .LVU355
 1227 0000 10B5     		push	{r4, lr}
 1228              		.cfi_def_cfa_offset 8
 1229              		.cfi_offset 4, -8
 1230              		.cfi_offset 14, -4
 1231              		.loc 4 632 35 view .LVU356
 1232 0002 0446     		mov	r4, r0
 1233              		.loc 4 634 3 view .LVU357
 1234 0004 FFF7FEFF 		bl	chSysLock
 1235              	.LVL97:
 1236              		.loc 4 635 3 is_stmt 1 view .LVU358
 1237              		.loc 4 635 13 is_stmt 0 view .LVU359
 1238 0008 94F82130 		ldrb	r3, [r4, #33]	@ zero_extendqisi2
 1239 000c 43F00403 		orr	r3, r3, #4
 1240 0010 84F82130 		strb	r3, [r4, #33]
 1241              		.loc 4 636 3 is_stmt 1 view .LVU360
 1242              		.loc 4 637 1 is_stmt 0 view .LVU361
 1243 0014 BDE81040 		pop	{r4, lr}
 1244              		.cfi_restore 14
 1245              		.cfi_restore 4
 1246              		.cfi_def_cfa_offset 0
 1247              	.LVL98:
 1248              		.loc 4 636 3 view .LVU362
 1249 0018 FFF7FEBF 		b	chSysUnlock
 1250              	.LVL99:
 1251              		.cfi_endproc
 1252              	.LFE315:
 1253              		.size	chThdTerminate, .-chThdTerminate
ARM GAS  /tmp/ccPRo3UM.s 			page 23


 1254              		.section	.text.chThdSleep,"ax",%progbits
 1255              		.align	1
 1256              		.global	chThdSleep
 1257              		.syntax unified
 1258              		.thumb
 1259              		.thumb_func
 1260              		.fpu fpv4-sp-d16
 1261              		.type	chThdSleep, %function
 1262              	chThdSleep:
 1263              	.LVL100:
 1264              	.LFB316:
 1265              		.loc 4 651 37 is_stmt 1 view -0
 1266              		.cfi_startproc
 1267              		@ args = 0, pretend = 0, frame = 8
 1268              		@ frame_needed = 0, uses_anonymous_args = 0
 1269              		.loc 4 653 3 view .LVU364
 1270              		.loc 4 651 37 is_stmt 0 view .LVU365
 1271 0000 07B5     		push	{r0, r1, r2, lr}
 1272              		.cfi_def_cfa_offset 16
 1273              		.cfi_offset 14, -4
 1274              		.loc 4 651 37 view .LVU366
 1275 0002 0190     		str	r0, [sp, #4]
 1276              		.loc 4 653 3 view .LVU367
 1277 0004 FFF7FEFF 		bl	chSysLock
 1278              	.LVL101:
 1279              		.loc 4 654 3 is_stmt 1 view .LVU368
 1280              	.LBB132:
 1281              	.LBI132:
 1282              		.loc 6 378 20 view .LVU369
 1283              	.LBB133:
 1284              		.loc 6 380 3 view .LVU370
 1285              		.loc 6 380 3 view .LVU371
 1286              		.loc 6 380 3 view .LVU372
 1287              		.loc 6 382 3 view .LVU373
 1288              		.loc 6 382 10 is_stmt 0 view .LVU374
 1289 0008 0199     		ldr	r1, [sp, #4]
 1290 000a 0820     		movs	r0, #8
 1291 000c FFF7FEFF 		bl	chSchGoSleepTimeoutS
 1292              	.LVL102:
 1293              		.loc 6 382 10 view .LVU375
 1294              	.LBE133:
 1295              	.LBE132:
 1296              		.loc 4 655 3 is_stmt 1 view .LVU376
 1297              		.loc 4 656 1 is_stmt 0 view .LVU377
 1298 0010 03B0     		add	sp, sp, #12
 1299              		.cfi_def_cfa_offset 4
 1300              		@ sp needed
 1301 0012 5DF804EB 		ldr	lr, [sp], #4
 1302              		.cfi_restore 14
 1303              		.cfi_def_cfa_offset 0
 1304              	.LVL103:
 1305              		.loc 4 655 3 view .LVU378
 1306 0016 FFF7FEBF 		b	chSysUnlock
 1307              	.LVL104:
 1308              		.cfi_endproc
 1309              	.LFE316:
 1310              		.size	chThdSleep, .-chThdSleep
ARM GAS  /tmp/ccPRo3UM.s 			page 24


 1311              		.section	.text.chThdSleepUntil,"ax",%progbits
 1312              		.align	1
 1313              		.global	chThdSleepUntil
 1314              		.syntax unified
 1315              		.thumb
 1316              		.thumb_func
 1317              		.fpu fpv4-sp-d16
 1318              		.type	chThdSleepUntil, %function
 1319              	chThdSleepUntil:
 1320              	.LVL105:
 1321              	.LFB317:
 1322              		.loc 4 671 38 is_stmt 1 view -0
 1323              		.cfi_startproc
 1324              		@ args = 0, pretend = 0, frame = 0
 1325              		@ frame_needed = 0, uses_anonymous_args = 0
 1326              		.loc 4 672 3 view .LVU380
 1327              		.loc 4 674 3 view .LVU381
 1328              		.loc 4 671 38 is_stmt 0 view .LVU382
 1329 0000 10B5     		push	{r4, lr}
 1330              		.cfi_def_cfa_offset 8
 1331              		.cfi_offset 4, -8
 1332              		.cfi_offset 14, -4
 1333              		.loc 4 671 38 view .LVU383
 1334 0002 0446     		mov	r4, r0
 1335              		.loc 4 674 3 view .LVU384
 1336 0004 FFF7FEFF 		bl	chSysLock
 1337              	.LVL106:
 1338              		.loc 4 675 3 is_stmt 1 view .LVU385
 1339              	.LBB142:
 1340              	.LBI142:
 1341              		.file 7 "../../modules/ChibiOS/os/rt/include/chvt.h"
 1342              		.loc 7 115 25 view .LVU386
 1343              	.LBE142:
 1344              		.loc 7 120 3 view .LVU387
 1345              	.LBB147:
 1346              	.LBB143:
 1347              	.LBI143:
 1348              		.file 8 "../../modules/ChibiOS/os/common/ports/ARMCMx/chcore_timer.h"
 1349              		.loc 8 105 25 view .LVU388
 1350              	.LBE143:
 1351              	.LBE147:
 1352              		.loc 8 107 3 view .LVU389
 1353              	.LBB148:
 1354              	.LBB146:
 1355              	.LBB144:
 1356              	.LBI144:
 1357              		.file 9 "../../modules/ChibiOS/os/hal/ports/STM32/LLD/TIMv1/hal_st_lld.h"
 1358              		.loc 9 166 25 view .LVU390
 1359              	.LBB145:
 1360              		.loc 9 168 3 view .LVU391
 1361              		.loc 9 168 10 is_stmt 0 view .LVU392
 1362 0008 4FF08043 		mov	r3, #1073741824
 1363 000c 596A     		ldr	r1, [r3, #36]
 1364              	.LVL107:
 1365              		.loc 9 168 10 view .LVU393
 1366              	.LBE145:
 1367              	.LBE144:
ARM GAS  /tmp/ccPRo3UM.s 			page 25


 1368              	.LBE146:
 1369              	.LBE148:
 1370              	.LBB149:
 1371              	.LBI149:
 1372              		.file 10 "../../modules/ChibiOS/os/rt/include/chtime.h"
 1373              		.loc 10 510 29 is_stmt 1 view .LVU394
 1374              	.LBB150:
 1375              		.loc 10 514 3 view .LVU395
 1376              		.loc 10 514 3 is_stmt 0 view .LVU396
 1377              	.LBE150:
 1378              	.LBE149:
 1379              		.loc 4 676 3 is_stmt 1 view .LVU397
 1380              		.loc 4 676 6 is_stmt 0 view .LVU398
 1381 000e 611A     		subs	r1, r4, r1
 1382              	.LVL108:
 1383              		.loc 4 676 6 view .LVU399
 1384 0010 02D0     		beq	.L46
 1385              		.loc 4 677 5 is_stmt 1 view .LVU400
 1386              	.LVL109:
 1387              	.LBB151:
 1388              	.LBI151:
 1389              		.loc 6 378 20 view .LVU401
 1390              	.LBB152:
 1391              		.loc 6 380 3 view .LVU402
 1392              		.loc 6 380 3 view .LVU403
 1393              		.loc 6 380 3 view .LVU404
 1394              		.loc 6 382 3 view .LVU405
 1395              		.loc 6 382 10 is_stmt 0 view .LVU406
 1396 0012 0820     		movs	r0, #8
 1397 0014 FFF7FEFF 		bl	chSchGoSleepTimeoutS
 1398              	.LVL110:
 1399              	.L46:
 1400              		.loc 6 382 10 view .LVU407
 1401              	.LBE152:
 1402              	.LBE151:
 1403              		.loc 4 679 3 is_stmt 1 view .LVU408
 1404              		.loc 4 680 1 is_stmt 0 view .LVU409
 1405 0018 BDE81040 		pop	{r4, lr}
 1406              		.cfi_restore 14
 1407              		.cfi_restore 4
 1408              		.cfi_def_cfa_offset 0
 1409              	.LVL111:
 1410              		.loc 4 679 3 view .LVU410
 1411 001c FFF7FEBF 		b	chSysUnlock
 1412              	.LVL112:
 1413              		.cfi_endproc
 1414              	.LFE317:
 1415              		.size	chThdSleepUntil, .-chThdSleepUntil
 1416              		.section	.text.chThdSleepUntilWindowed,"ax",%progbits
 1417              		.align	1
 1418              		.global	chThdSleepUntilWindowed
 1419              		.syntax unified
 1420              		.thumb
 1421              		.thumb_func
 1422              		.fpu fpv4-sp-d16
 1423              		.type	chThdSleepUntilWindowed, %function
 1424              	chThdSleepUntilWindowed:
ARM GAS  /tmp/ccPRo3UM.s 			page 26


 1425              	.LVL113:
 1426              	.LFB318:
 1427              		.loc 4 696 67 is_stmt 1 view -0
 1428              		.cfi_startproc
 1429              		@ args = 0, pretend = 0, frame = 0
 1430              		@ frame_needed = 0, uses_anonymous_args = 0
 1431              		.loc 4 697 3 view .LVU412
 1432              		.loc 4 699 3 view .LVU413
 1433              		.loc 4 696 67 is_stmt 0 view .LVU414
 1434 0000 38B5     		push	{r3, r4, r5, lr}
 1435              		.cfi_def_cfa_offset 16
 1436              		.cfi_offset 3, -16
 1437              		.cfi_offset 4, -12
 1438              		.cfi_offset 5, -8
 1439              		.cfi_offset 14, -4
 1440              		.loc 4 696 67 view .LVU415
 1441 0002 0446     		mov	r4, r0
 1442 0004 0D46     		mov	r5, r1
 1443              		.loc 4 699 3 view .LVU416
 1444 0006 FFF7FEFF 		bl	chSysLock
 1445              	.LVL114:
 1446              		.loc 4 700 3 is_stmt 1 view .LVU417
 1447              	.LBB163:
 1448              	.LBI163:
 1449              		.loc 7 115 25 view .LVU418
 1450              	.LBE163:
 1451              		.loc 7 120 3 view .LVU419
 1452              	.LBB168:
 1453              	.LBB164:
 1454              	.LBI164:
 1455              		.loc 8 105 25 view .LVU420
 1456              	.LBE164:
 1457              	.LBE168:
 1458              		.loc 8 107 3 view .LVU421
 1459              	.LBB169:
 1460              	.LBB167:
 1461              	.LBB165:
 1462              	.LBI165:
 1463              		.loc 9 166 25 view .LVU422
 1464              	.LBB166:
 1465              		.loc 9 168 3 view .LVU423
 1466              		.loc 9 168 10 is_stmt 0 view .LVU424
 1467 000a 4FF08043 		mov	r3, #1073741824
 1468 000e 596A     		ldr	r1, [r3, #36]
 1469              	.LVL115:
 1470              		.loc 9 168 10 view .LVU425
 1471              	.LBE166:
 1472              	.LBE165:
 1473              	.LBE167:
 1474              	.LBE169:
 1475              		.loc 4 701 3 is_stmt 1 view .LVU426
 1476              	.LBB170:
 1477              	.LBI170:
 1478              		.loc 10 531 20 view .LVU427
 1479              	.LBB171:
 1480              		.loc 10 535 3 view .LVU428
 1481              		.loc 10 535 39 is_stmt 0 view .LVU429
ARM GAS  /tmp/ccPRo3UM.s 			page 27


 1482 0010 2B1B     		subs	r3, r5, r4
 1483              		.loc 10 535 23 view .LVU430
 1484 0012 0C1B     		subs	r4, r1, r4
 1485              	.LVL116:
 1486              		.loc 10 535 23 view .LVU431
 1487              	.LBE171:
 1488              	.LBE170:
 1489              		.loc 4 701 6 view .LVU432
 1490 0014 A342     		cmp	r3, r4
 1491 0016 03D9     		bls	.L51
 1492              		.loc 4 702 5 is_stmt 1 view .LVU433
 1493              	.LVL117:
 1494              	.LBB172:
 1495              	.LBI172:
 1496              		.loc 10 510 29 view .LVU434
 1497              	.LBB173:
 1498              		.loc 10 514 3 view .LVU435
 1499              		.loc 10 514 3 is_stmt 0 view .LVU436
 1500              	.LBE173:
 1501              	.LBE172:
 1502              	.LBB174:
 1503              	.LBI174:
 1504              		.loc 6 378 20 is_stmt 1 view .LVU437
 1505              	.LBB175:
 1506              		.loc 6 380 3 view .LVU438
 1507              		.loc 6 380 3 view .LVU439
 1508              		.loc 6 380 3 view .LVU440
 1509              		.loc 6 382 3 view .LVU441
 1510              		.loc 6 382 10 is_stmt 0 view .LVU442
 1511 0018 691A     		subs	r1, r5, r1
 1512              	.LVL118:
 1513              		.loc 6 382 10 view .LVU443
 1514 001a 0820     		movs	r0, #8
 1515 001c FFF7FEFF 		bl	chSchGoSleepTimeoutS
 1516              	.LVL119:
 1517              	.L51:
 1518              		.loc 6 382 10 view .LVU444
 1519              	.LBE175:
 1520              	.LBE174:
 1521              		.loc 4 704 3 is_stmt 1 view .LVU445
 1522 0020 FFF7FEFF 		bl	chSysUnlock
 1523              	.LVL120:
 1524              		.loc 4 706 3 view .LVU446
 1525              		.loc 4 707 1 is_stmt 0 view .LVU447
 1526 0024 2846     		mov	r0, r5
 1527 0026 38BD     		pop	{r3, r4, r5, pc}
 1528              		.loc 4 707 1 view .LVU448
 1529              		.cfi_endproc
 1530              	.LFE318:
 1531              		.size	chThdSleepUntilWindowed, .-chThdSleepUntilWindowed
 1532              		.section	.text.chThdYield,"ax",%progbits
 1533              		.align	1
 1534              		.global	chThdYield
 1535              		.syntax unified
 1536              		.thumb
 1537              		.thumb_func
 1538              		.fpu fpv4-sp-d16
ARM GAS  /tmp/ccPRo3UM.s 			page 28


 1539              		.type	chThdYield, %function
 1540              	chThdYield:
 1541              	.LFB319:
 1542              		.loc 4 716 23 is_stmt 1 view -0
 1543              		.cfi_startproc
 1544              		@ args = 0, pretend = 0, frame = 0
 1545              		@ frame_needed = 0, uses_anonymous_args = 0
 1546              		.loc 4 718 3 view .LVU450
 1547              		.loc 4 716 23 is_stmt 0 view .LVU451
 1548 0000 08B5     		push	{r3, lr}
 1549              		.cfi_def_cfa_offset 8
 1550              		.cfi_offset 3, -8
 1551              		.cfi_offset 14, -4
 1552              		.loc 4 718 3 view .LVU452
 1553 0002 FFF7FEFF 		bl	chSysLock
 1554              	.LVL121:
 1555              		.loc 4 719 3 is_stmt 1 view .LVU453
 1556              	.LBB180:
 1557              	.LBI180:
 1558              		.loc 5 676 20 view .LVU454
 1559              	.LBB181:
 1560              		.loc 5 678 21 view .LVU455
 1561              		.loc 5 680 3 view .LVU456
 1562              	.LBB182:
 1563              	.LBI182:
 1564              		.loc 5 662 20 view .LVU457
 1565              	.LBB183:
 1566              		.loc 5 664 21 view .LVU458
 1567              		.loc 5 666 3 view .LVU459
 1568              		.loc 5 666 10 is_stmt 0 view .LVU460
 1569 0006 064B     		ldr	r3, .L54
 1570 0008 1A68     		ldr	r2, [r3]
 1571              		.loc 5 666 45 view .LVU461
 1572 000a 9B69     		ldr	r3, [r3, #24]
 1573              	.LBE183:
 1574              	.LBE182:
 1575              		.loc 5 680 6 view .LVU462
 1576 000c 9268     		ldr	r2, [r2, #8]
 1577 000e 9B68     		ldr	r3, [r3, #8]
 1578 0010 9A42     		cmp	r2, r3
 1579 0012 01D3     		bcc	.L53
 1580              		.loc 5 681 5 is_stmt 1 view .LVU463
 1581 0014 FFF7FEFF 		bl	chSchDoRescheduleBehind
 1582              	.LVL122:
 1583              	.L53:
 1584              	.LBE181:
 1585              	.LBE180:
 1586              		.loc 4 720 3 view .LVU464
 1587              		.loc 4 721 1 is_stmt 0 view .LVU465
 1588 0018 BDE80840 		pop	{r3, lr}
 1589              		.cfi_restore 14
 1590              		.cfi_restore 3
 1591              		.cfi_def_cfa_offset 0
 1592              		.loc 4 720 3 view .LVU466
 1593 001c FFF7FEBF 		b	chSysUnlock
 1594              	.LVL123:
 1595              	.L55:
ARM GAS  /tmp/ccPRo3UM.s 			page 29


 1596              		.align	2
 1597              	.L54:
 1598 0020 00000000 		.word	ch
 1599              		.cfi_endproc
 1600              	.LFE319:
 1601              		.size	chThdYield, .-chThdYield
 1602              		.section	.text.chThdSuspendS,"ax",%progbits
 1603              		.align	1
 1604              		.global	chThdSuspendS
 1605              		.syntax unified
 1606              		.thumb
 1607              		.thumb_func
 1608              		.fpu fpv4-sp-d16
 1609              		.type	chThdSuspendS, %function
 1610              	chThdSuspendS:
 1611              	.LVL124:
 1612              	.LFB320:
 1613              		.loc 4 733 46 is_stmt 1 view -0
 1614              		.cfi_startproc
 1615              		@ args = 0, pretend = 0, frame = 0
 1616              		@ frame_needed = 0, uses_anonymous_args = 0
 1617              		.loc 4 734 3 view .LVU468
 1618              	.LBB184:
 1619              	.LBI184:
 1620              		.loc 6 272 25 view .LVU469
 1621              	.LBB185:
 1622              		.loc 6 274 3 view .LVU470
 1623              	.LBE185:
 1624              	.LBE184:
 1625              		.loc 4 733 46 is_stmt 0 view .LVU471
 1626 0000 10B5     		push	{r4, lr}
 1627              		.cfi_def_cfa_offset 8
 1628              		.cfi_offset 4, -8
 1629              		.cfi_offset 14, -4
 1630              	.LBB187:
 1631              	.LBB186:
 1632              		.loc 6 274 18 view .LVU472
 1633 0002 054C     		ldr	r4, .L57
 1634 0004 A369     		ldr	r3, [r4, #24]
 1635              	.LVL125:
 1636              		.loc 6 274 18 view .LVU473
 1637              	.LBE186:
 1638              	.LBE187:
 1639              		.loc 4 736 3 is_stmt 1 view .LVU474
 1640              		.loc 4 736 3 view .LVU475
 1641              		.loc 4 736 3 view .LVU476
 1642              		.loc 4 738 3 view .LVU477
 1643              		.loc 4 738 8 is_stmt 0 view .LVU478
 1644 0006 0360     		str	r3, [r0]
 1645              		.loc 4 739 3 is_stmt 1 view .LVU479
 1646              		.loc 4 739 15 is_stmt 0 view .LVU480
 1647 0008 5862     		str	r0, [r3, #36]
 1648              		.loc 4 740 3 is_stmt 1 view .LVU481
 1649 000a 0320     		movs	r0, #3
 1650              	.LVL126:
 1651              		.loc 4 740 3 is_stmt 0 view .LVU482
 1652 000c FFF7FEFF 		bl	chSchGoSleepS
ARM GAS  /tmp/ccPRo3UM.s 			page 30


 1653              	.LVL127:
 1654              		.loc 4 742 3 is_stmt 1 view .LVU483
 1655              	.LBB188:
 1656              	.LBI188:
 1657              		.loc 6 272 25 view .LVU484
 1658              	.LBB189:
 1659              		.loc 6 274 3 view .LVU485
 1660              	.LBE189:
 1661              	.LBE188:
 1662              		.loc 4 742 28 is_stmt 0 view .LVU486
 1663 0010 A369     		ldr	r3, [r4, #24]
 1664              		.loc 4 743 1 view .LVU487
 1665 0012 586A     		ldr	r0, [r3, #36]
 1666 0014 10BD     		pop	{r4, pc}
 1667              	.L58:
 1668 0016 00BF     		.align	2
 1669              	.L57:
 1670 0018 00000000 		.word	ch
 1671              		.cfi_endproc
 1672              	.LFE320:
 1673              		.size	chThdSuspendS, .-chThdSuspendS
 1674              		.section	.text.chThdSuspendTimeoutS,"ax",%progbits
 1675              		.align	1
 1676              		.global	chThdSuspendTimeoutS
 1677              		.syntax unified
 1678              		.thumb
 1679              		.thumb_func
 1680              		.fpu fpv4-sp-d16
 1681              		.type	chThdSuspendTimeoutS, %function
 1682              	chThdSuspendTimeoutS:
 1683              	.LVL128:
 1684              	.LFB321:
 1685              		.loc 4 764 76 is_stmt 1 view -0
 1686              		.cfi_startproc
 1687              		@ args = 0, pretend = 0, frame = 0
 1688              		@ frame_needed = 0, uses_anonymous_args = 0
 1689              		@ link register save eliminated.
 1690              		.loc 4 765 3 view .LVU489
 1691              	.LBB190:
 1692              	.LBI190:
 1693              		.loc 6 272 25 view .LVU490
 1694              	.LBB191:
 1695              		.loc 6 274 3 view .LVU491
 1696              		.loc 6 274 18 is_stmt 0 view .LVU492
 1697 0000 054B     		ldr	r3, .L61
 1698 0002 9B69     		ldr	r3, [r3, #24]
 1699              	.LVL129:
 1700              		.loc 6 274 18 view .LVU493
 1701              	.LBE191:
 1702              	.LBE190:
 1703              		.loc 4 767 3 is_stmt 1 view .LVU494
 1704              		.loc 4 767 3 view .LVU495
 1705              		.loc 4 767 3 view .LVU496
 1706              		.loc 4 769 3 view .LVU497
 1707              		.loc 4 769 6 is_stmt 0 view .LVU498
 1708 0004 21B1     		cbz	r1, .L60
 1709              		.loc 4 773 3 is_stmt 1 view .LVU499
ARM GAS  /tmp/ccPRo3UM.s 			page 31


 1710              		.loc 4 773 8 is_stmt 0 view .LVU500
 1711 0006 0360     		str	r3, [r0]
 1712              		.loc 4 774 3 is_stmt 1 view .LVU501
 1713              		.loc 4 774 15 is_stmt 0 view .LVU502
 1714 0008 5862     		str	r0, [r3, #36]
 1715              		.loc 4 776 3 is_stmt 1 view .LVU503
 1716              		.loc 4 776 10 is_stmt 0 view .LVU504
 1717 000a 0320     		movs	r0, #3
 1718              	.LVL130:
 1719              		.loc 4 776 10 view .LVU505
 1720 000c FFF7FEBF 		b	chSchGoSleepTimeoutS
 1721              	.LVL131:
 1722              	.L60:
 1723              		.loc 4 777 1 view .LVU506
 1724 0010 4FF0FF30 		mov	r0, #-1
 1725              	.LVL132:
 1726              		.loc 4 777 1 view .LVU507
 1727 0014 7047     		bx	lr
 1728              	.L62:
 1729 0016 00BF     		.align	2
 1730              	.L61:
 1731 0018 00000000 		.word	ch
 1732              		.cfi_endproc
 1733              	.LFE321:
 1734              		.size	chThdSuspendTimeoutS, .-chThdSuspendTimeoutS
 1735              		.section	.text.chThdResumeI,"ax",%progbits
 1736              		.align	1
 1737              		.global	chThdResumeI
 1738              		.syntax unified
 1739              		.thumb
 1740              		.thumb_func
 1741              		.fpu fpv4-sp-d16
 1742              		.type	chThdResumeI, %function
 1743              	chThdResumeI:
 1744              	.LVL133:
 1745              	.LFB322:
 1746              		.loc 4 789 55 is_stmt 1 view -0
 1747              		.cfi_startproc
 1748              		@ args = 0, pretend = 0, frame = 0
 1749              		@ frame_needed = 0, uses_anonymous_args = 0
 1750              		@ link register save eliminated.
 1751              		.loc 4 791 3 view .LVU509
 1752              		.loc 4 791 7 is_stmt 0 view .LVU510
 1753 0000 0368     		ldr	r3, [r0]
 1754              		.loc 4 791 6 view .LVU511
 1755 0002 2BB1     		cbz	r3, .L63
 1756              	.LBB192:
 1757              		.loc 4 792 5 is_stmt 1 view .LVU512
 1758              	.LVL134:
 1759              		.loc 4 794 5 view .LVU513
 1760              		.loc 4 794 5 view .LVU514
 1761              		.loc 4 794 5 view .LVU515
 1762              		.loc 4 796 5 view .LVU516
 1763              		.loc 4 796 10 is_stmt 0 view .LVU517
 1764 0004 0022     		movs	r2, #0
 1765 0006 0260     		str	r2, [r0]
 1766              		.loc 4 797 5 is_stmt 1 view .LVU518
ARM GAS  /tmp/ccPRo3UM.s 			page 32


 1767              		.loc 4 798 12 is_stmt 0 view .LVU519
 1768 0008 1846     		mov	r0, r3
 1769              	.LVL135:
 1770              		.loc 4 797 18 view .LVU520
 1771 000a 5962     		str	r1, [r3, #36]
 1772              		.loc 4 798 5 is_stmt 1 view .LVU521
 1773              		.loc 4 798 12 is_stmt 0 view .LVU522
 1774 000c FFF7FEBF 		b	chSchReadyI
 1775              	.LVL136:
 1776              	.L63:
 1777              		.loc 4 798 12 view .LVU523
 1778              	.LBE192:
 1779              		.loc 4 800 1 view .LVU524
 1780 0010 7047     		bx	lr
 1781              		.cfi_endproc
 1782              	.LFE322:
 1783              		.size	chThdResumeI, .-chThdResumeI
 1784              		.section	.text.chThdResumeS,"ax",%progbits
 1785              		.align	1
 1786              		.global	chThdResumeS
 1787              		.syntax unified
 1788              		.thumb
 1789              		.thumb_func
 1790              		.fpu fpv4-sp-d16
 1791              		.type	chThdResumeS, %function
 1792              	chThdResumeS:
 1793              	.LVL137:
 1794              	.LFB323:
 1795              		.loc 4 812 55 is_stmt 1 view -0
 1796              		.cfi_startproc
 1797              		@ args = 0, pretend = 0, frame = 0
 1798              		@ frame_needed = 0, uses_anonymous_args = 0
 1799              		@ link register save eliminated.
 1800              		.loc 4 814 3 view .LVU526
 1801              		.loc 4 814 7 is_stmt 0 view .LVU527
 1802 0000 0368     		ldr	r3, [r0]
 1803              		.loc 4 814 6 view .LVU528
 1804 0002 23B1     		cbz	r3, .L65
 1805              	.LBB193:
 1806              		.loc 4 815 5 is_stmt 1 view .LVU529
 1807              	.LVL138:
 1808              		.loc 4 817 5 view .LVU530
 1809              		.loc 4 817 5 view .LVU531
 1810              		.loc 4 817 5 view .LVU532
 1811              		.loc 4 819 5 view .LVU533
 1812              		.loc 4 819 10 is_stmt 0 view .LVU534
 1813 0004 0022     		movs	r2, #0
 1814 0006 0260     		str	r2, [r0]
 1815              		.loc 4 820 5 is_stmt 1 view .LVU535
 1816 0008 1846     		mov	r0, r3
 1817              	.LVL139:
 1818              		.loc 4 820 5 is_stmt 0 view .LVU536
 1819 000a FFF7FEBF 		b	chSchWakeupS
 1820              	.LVL140:
 1821              	.L65:
 1822              		.loc 4 820 5 view .LVU537
 1823              	.LBE193:
ARM GAS  /tmp/ccPRo3UM.s 			page 33


 1824              		.loc 4 822 1 view .LVU538
 1825 000e 7047     		bx	lr
 1826              		.cfi_endproc
 1827              	.LFE323:
 1828              		.size	chThdResumeS, .-chThdResumeS
 1829              		.section	.text.chThdResume,"ax",%progbits
 1830              		.align	1
 1831              		.global	chThdResume
 1832              		.syntax unified
 1833              		.thumb
 1834              		.thumb_func
 1835              		.fpu fpv4-sp-d16
 1836              		.type	chThdResume, %function
 1837              	chThdResume:
 1838              	.LVL141:
 1839              	.LFB324:
 1840              		.loc 4 834 54 is_stmt 1 view -0
 1841              		.cfi_startproc
 1842              		@ args = 0, pretend = 0, frame = 8
 1843              		@ frame_needed = 0, uses_anonymous_args = 0
 1844              		.loc 4 836 3 view .LVU540
 1845              		.loc 4 834 54 is_stmt 0 view .LVU541
 1846 0000 07B5     		push	{r0, r1, r2, lr}
 1847              		.cfi_def_cfa_offset 16
 1848              		.cfi_offset 14, -4
 1849              		.loc 4 834 54 view .LVU542
 1850 0002 CDE90010 		strd	r1, r0, [sp]
 1851              		.loc 4 836 3 view .LVU543
 1852 0006 FFF7FEFF 		bl	chSysLock
 1853              	.LVL142:
 1854              		.loc 4 837 3 is_stmt 1 view .LVU544
 1855 000a DDE90010 		ldrd	r1, r0, [sp]
 1856 000e FFF7FEFF 		bl	chThdResumeS
 1857              	.LVL143:
 1858              		.loc 4 838 3 view .LVU545
 1859              		.loc 4 839 1 is_stmt 0 view .LVU546
 1860 0012 03B0     		add	sp, sp, #12
 1861              		.cfi_def_cfa_offset 4
 1862              	.LVL144:
 1863              		.loc 4 839 1 view .LVU547
 1864              		@ sp needed
 1865 0014 5DF804EB 		ldr	lr, [sp], #4
 1866              		.cfi_restore 14
 1867              		.cfi_def_cfa_offset 0
 1868              	.LVL145:
 1869              		.loc 4 838 3 view .LVU548
 1870 0018 FFF7FEBF 		b	chSysUnlock
 1871              	.LVL146:
 1872              		.cfi_endproc
 1873              	.LFE324:
 1874              		.size	chThdResume, .-chThdResume
 1875              		.section	.text.chThdEnqueueTimeoutS,"ax",%progbits
 1876              		.align	1
 1877              		.global	chThdEnqueueTimeoutS
 1878              		.syntax unified
 1879              		.thumb
 1880              		.thumb_func
ARM GAS  /tmp/ccPRo3UM.s 			page 34


 1881              		.fpu fpv4-sp-d16
 1882              		.type	chThdEnqueueTimeoutS, %function
 1883              	chThdEnqueueTimeoutS:
 1884              	.LVL147:
 1885              	.LFB325:
 1886              		.loc 4 864 73 is_stmt 1 view -0
 1887              		.cfi_startproc
 1888              		@ args = 0, pretend = 0, frame = 0
 1889              		@ frame_needed = 0, uses_anonymous_args = 0
 1890              		@ link register save eliminated.
 1891              		.loc 4 866 3 view .LVU550
 1892              		.loc 4 866 6 is_stmt 0 view .LVU551
 1893 0000 49B1     		cbz	r1, .L69
 1894              		.loc 4 870 3 is_stmt 1 view .LVU552
 1895 0002 064B     		ldr	r3, .L70
 1896              	.LBB194:
 1897              	.LBB195:
 1898              		.loc 5 601 35 is_stmt 0 view .LVU553
 1899 0004 4268     		ldr	r2, [r0, #4]
 1900              	.LBE195:
 1901              	.LBE194:
 1902              		.loc 4 870 3 view .LVU554
 1903 0006 9B69     		ldr	r3, [r3, #24]
 1904              	.LVL148:
 1905              	.LBB197:
 1906              	.LBI194:
 1907              		.loc 5 598 20 is_stmt 1 view .LVU555
 1908              	.LBB196:
 1909              		.loc 5 600 3 view .LVU556
 1910              		.loc 5 600 30 is_stmt 0 view .LVU557
 1911 0008 1860     		str	r0, [r3]
 1912              		.loc 5 601 3 is_stmt 1 view .LVU558
 1913              		.loc 5 601 30 is_stmt 0 view .LVU559
 1914 000a 5A60     		str	r2, [r3, #4]
 1915              		.loc 5 602 3 is_stmt 1 view .LVU560
 1916              		.loc 5 602 30 is_stmt 0 view .LVU561
 1917 000c 1360     		str	r3, [r2]
 1918              		.loc 5 603 3 is_stmt 1 view .LVU562
 1919              		.loc 5 603 30 is_stmt 0 view .LVU563
 1920 000e 4360     		str	r3, [r0, #4]
 1921              	.LVL149:
 1922              		.loc 5 603 30 view .LVU564
 1923              	.LBE196:
 1924              	.LBE197:
 1925              		.loc 4 872 3 is_stmt 1 view .LVU565
 1926              		.loc 4 872 10 is_stmt 0 view .LVU566
 1927 0010 0420     		movs	r0, #4
 1928              	.LVL150:
 1929              		.loc 4 872 10 view .LVU567
 1930 0012 FFF7FEBF 		b	chSchGoSleepTimeoutS
 1931              	.LVL151:
 1932              	.L69:
 1933              		.loc 4 873 1 view .LVU568
 1934 0016 4FF0FF30 		mov	r0, #-1
 1935              	.LVL152:
 1936              		.loc 4 873 1 view .LVU569
 1937 001a 7047     		bx	lr
ARM GAS  /tmp/ccPRo3UM.s 			page 35


 1938              	.L71:
 1939              		.align	2
 1940              	.L70:
 1941 001c 00000000 		.word	ch
 1942              		.cfi_endproc
 1943              	.LFE325:
 1944              		.size	chThdEnqueueTimeoutS, .-chThdEnqueueTimeoutS
 1945              		.section	.text.chThdDequeueNextI,"ax",%progbits
 1946              		.align	1
 1947              		.global	chThdDequeueNextI
 1948              		.syntax unified
 1949              		.thumb
 1950              		.thumb_func
 1951              		.fpu fpv4-sp-d16
 1952              		.type	chThdDequeueNextI, %function
 1953              	chThdDequeueNextI:
 1954              	.LVL153:
 1955              	.LFB326:
 1956              		.loc 4 884 57 is_stmt 1 view -0
 1957              		.cfi_startproc
 1958              		@ args = 0, pretend = 0, frame = 0
 1959              		@ frame_needed = 0, uses_anonymous_args = 0
 1960              		@ link register save eliminated.
 1961              		.loc 4 886 3 view .LVU571
 1962              	.LBB204:
 1963              	.LBI204:
 1964              		.loc 5 564 20 view .LVU572
 1965              	.LBB205:
 1966              		.loc 5 566 3 view .LVU573
 1967              		.loc 5 566 20 is_stmt 0 view .LVU574
 1968 0000 0368     		ldr	r3, [r0]
 1969              	.LVL154:
 1970              		.loc 5 566 20 view .LVU575
 1971              	.LBE205:
 1972              	.LBE204:
 1973              		.loc 4 886 6 view .LVU576
 1974 0002 9842     		cmp	r0, r3
 1975 0004 06D0     		beq	.L72
 1976              		.loc 4 887 5 is_stmt 1 view .LVU577
 1977              	.LVL155:
 1978              	.LBB206:
 1979              	.LBI206:
 1980              		.loc 6 425 20 view .LVU578
 1981              	.LBB207:
 1982              		.loc 6 426 3 view .LVU579
 1983              		.loc 6 428 3 view .LVU580
 1984              		.loc 6 428 3 view .LVU581
 1985              		.loc 6 428 3 view .LVU582
 1986              		.loc 6 430 3 view .LVU583
 1987              	.LBB208:
 1988              	.LBI208:
 1989              		.loc 5 606 25 view .LVU584
 1990              	.LBB209:
 1991              		.loc 5 607 3 view .LVU585
 1992              		.loc 5 609 3 view .LVU586
 1993              		.loc 5 609 36 is_stmt 0 view .LVU587
 1994 0006 1A68     		ldr	r2, [r3]
ARM GAS  /tmp/ccPRo3UM.s 			page 36


 1995              		.loc 5 609 25 view .LVU588
 1996 0008 0260     		str	r2, [r0]
 1997              		.loc 5 610 3 is_stmt 1 view .LVU589
 1998              		.loc 5 610 25 is_stmt 0 view .LVU590
 1999 000a 5060     		str	r0, [r2, #4]
 2000              		.loc 5 612 3 is_stmt 1 view .LVU591
 2001              	.LVL156:
 2002              		.loc 5 612 3 is_stmt 0 view .LVU592
 2003              	.LBE209:
 2004              	.LBE208:
 2005              		.loc 6 432 3 is_stmt 1 view .LVU593
 2006              		.loc 6 432 3 view .LVU594
 2007              		.loc 6 432 3 view .LVU595
 2008              		.loc 6 434 3 view .LVU596
 2009              		.loc 6 435 10 is_stmt 0 view .LVU597
 2010 000c 1846     		mov	r0, r3
 2011              	.LVL157:
 2012              		.loc 6 434 16 view .LVU598
 2013 000e 5962     		str	r1, [r3, #36]
 2014              		.loc 6 435 3 is_stmt 1 view .LVU599
 2015              		.loc 6 435 10 is_stmt 0 view .LVU600
 2016 0010 FFF7FEBF 		b	chSchReadyI
 2017              	.LVL158:
 2018              	.L72:
 2019              		.loc 6 435 10 view .LVU601
 2020              	.LBE207:
 2021              	.LBE206:
 2022              		.loc 4 889 1 view .LVU602
 2023 0014 7047     		bx	lr
 2024              		.cfi_endproc
 2025              	.LFE326:
 2026              		.size	chThdDequeueNextI, .-chThdDequeueNextI
 2027              		.section	.text.chThdDequeueAllI,"ax",%progbits
 2028              		.align	1
 2029              		.global	chThdDequeueAllI
 2030              		.syntax unified
 2031              		.thumb
 2032              		.thumb_func
 2033              		.fpu fpv4-sp-d16
 2034              		.type	chThdDequeueAllI, %function
 2035              	chThdDequeueAllI:
 2036              	.LVL159:
 2037              	.LFB327:
 2038              		.loc 4 899 56 is_stmt 1 view -0
 2039              		.cfi_startproc
 2040              		@ args = 0, pretend = 0, frame = 0
 2041              		@ frame_needed = 0, uses_anonymous_args = 0
 2042              		.loc 4 899 56 is_stmt 0 view .LVU604
 2043 0000 38B5     		push	{r3, r4, r5, lr}
 2044              		.cfi_def_cfa_offset 16
 2045              		.cfi_offset 3, -16
 2046              		.cfi_offset 4, -12
 2047              		.cfi_offset 5, -8
 2048              		.cfi_offset 14, -4
 2049 0002 0446     		mov	r4, r0
 2050 0004 0D46     		mov	r5, r1
 2051              		.loc 4 901 3 is_stmt 1 view .LVU605
ARM GAS  /tmp/ccPRo3UM.s 			page 37


 2052              	.LVL160:
 2053              	.L75:
 2054              		.loc 4 901 9 view .LVU606
 2055              	.LBB216:
 2056              	.LBI216:
 2057              		.loc 5 564 20 view .LVU607
 2058              	.LBB217:
 2059              		.loc 5 566 3 view .LVU608
 2060              		.loc 5 566 20 is_stmt 0 view .LVU609
 2061 0006 2068     		ldr	r0, [r4]
 2062              	.LVL161:
 2063              		.loc 5 566 20 view .LVU610
 2064              	.LBE217:
 2065              	.LBE216:
 2066              		.loc 4 901 9 view .LVU611
 2067 0008 8442     		cmp	r4, r0
 2068 000a 00D1     		bne	.L76
 2069              		.loc 4 904 1 view .LVU612
 2070 000c 38BD     		pop	{r3, r4, r5, pc}
 2071              	.LVL162:
 2072              	.L76:
 2073              		.loc 4 902 5 is_stmt 1 view .LVU613
 2074              	.LBB218:
 2075              	.LBI218:
 2076              		.loc 6 425 20 view .LVU614
 2077              	.LBB219:
 2078              		.loc 6 426 3 view .LVU615
 2079              		.loc 6 428 3 view .LVU616
 2080              		.loc 6 428 3 view .LVU617
 2081              		.loc 6 428 3 view .LVU618
 2082              		.loc 6 430 3 view .LVU619
 2083              	.LBB220:
 2084              	.LBI220:
 2085              		.loc 5 606 25 view .LVU620
 2086              	.LBB221:
 2087              		.loc 5 607 3 view .LVU621
 2088              		.loc 5 609 3 view .LVU622
 2089              		.loc 5 609 36 is_stmt 0 view .LVU623
 2090 000e 0368     		ldr	r3, [r0]
 2091              		.loc 5 609 25 view .LVU624
 2092 0010 2360     		str	r3, [r4]
 2093              		.loc 5 610 3 is_stmt 1 view .LVU625
 2094              		.loc 5 610 25 is_stmt 0 view .LVU626
 2095 0012 5C60     		str	r4, [r3, #4]
 2096              		.loc 5 612 3 is_stmt 1 view .LVU627
 2097              	.LVL163:
 2098              		.loc 5 612 3 is_stmt 0 view .LVU628
 2099              	.LBE221:
 2100              	.LBE220:
 2101              		.loc 6 432 3 is_stmt 1 view .LVU629
 2102              		.loc 6 432 3 view .LVU630
 2103              		.loc 6 432 3 view .LVU631
 2104              		.loc 6 434 3 view .LVU632
 2105              		.loc 6 434 16 is_stmt 0 view .LVU633
 2106 0014 4562     		str	r5, [r0, #36]
 2107              		.loc 6 435 3 is_stmt 1 view .LVU634
 2108              		.loc 6 435 10 is_stmt 0 view .LVU635
ARM GAS  /tmp/ccPRo3UM.s 			page 38


 2109 0016 FFF7FEFF 		bl	chSchReadyI
 2110              	.LVL164:
 2111              		.loc 6 436 1 view .LVU636
 2112 001a F4E7     		b	.L75
 2113              	.LBE219:
 2114              	.LBE218:
 2115              		.cfi_endproc
 2116              	.LFE327:
 2117              		.size	chThdDequeueAllI, .-chThdDequeueAllI
 2118              		.text
 2119              	.Letext0:
 2120              		.file 11 "/opt/gcc-arm-none-eabi-10-2020-q4-major/lib/gcc/arm-none-eabi/10.2.1/include/stddef.h"
 2121              		.file 12 "/opt/gcc-arm-none-eabi-10-2020-q4-major/arm-none-eabi/include/machine/_default_types.h"
 2122              		.file 13 "/opt/gcc-arm-none-eabi-10-2020-q4-major/arm-none-eabi/include/sys/_stdint.h"
 2123              		.file 14 "../../modules/ChibiOS/os/common/ports/ARMCMx/compilers/GCC/chtypes.h"
 2124              		.file 15 "../../modules/ChibiOS/os/rt/include/chsystypes.h"
 2125              		.file 16 "../../modules/ChibiOS/os/common/ports/ARMCMx/chcore.h"
 2126              		.file 17 "../../modules/ChibiOS/os/hal/ports/STM32/LLD/TIMv1/stm32_tim.h"
 2127              		.file 18 "../../modules/ChibiOS/os/rt/include/chtm.h"
 2128              		.file 19 "../../modules/ChibiOS/os/rt/include/chstats.h"
 2129              		.file 20 "../../modules/ChibiOS/os/rt/include/chsem.h"
 2130              		.file 21 "../../modules/ChibiOS/os/rt/include/chmtx.h"
 2131              		.file 22 "../../modules/ChibiOS/os/oslib/include/chmemheaps.h"
 2132              		.file 23 "../../modules/ChibiOS/os/oslib/include/chmempools.h"
 2133              		.file 24 "<built-in>"