ARM GAS  /tmp/ccWJTDeQ.s 			page 1


   1              		.cpu cortex-m7
   2              		.eabi_attribute 27, 1
   3              		.eabi_attribute 28, 1
   4              		.eabi_attribute 20, 1
   5              		.eabi_attribute 21, 1
   6              		.eabi_attribute 23, 3
   7              		.eabi_attribute 24, 1
   8              		.eabi_attribute 25, 1
   9              		.eabi_attribute 26, 1
  10              		.eabi_attribute 30, 4
  11              		.eabi_attribute 34, 1
  12              		.eabi_attribute 18, 4
  13              		.file	"chvt.c"
  14              		.text
  15              	.Ltext0:
  16              		.cfi_sections	.debug_frame
  17              		.section	.text._vt_init,"ax",%progbits
  18              		.align	1
  19              		.global	_vt_init
  20              		.arch armv7e-m
  21              		.syntax unified
  22              		.thumb
  23              		.thumb_func
  24              		.fpu fpv4-sp-d16
  25              		.type	_vt_init, %function
  26              	_vt_init:
  27              	.LFB301:
  28              		.file 1 "../../modules/ChibiOS/os/rt/src/chvt.c"
  29              		.loc 1 61 21 view -0
  30              		.cfi_startproc
  31              		@ args = 0, pretend = 0, frame = 0
  32              		@ frame_needed = 0, uses_anonymous_args = 0
  33              		@ link register save eliminated.
  34              		.loc 1 63 3 view .LVU1
  35              		.loc 1 63 18 is_stmt 0 view .LVU2
  36 0000 054B     		ldr	r3, .L2
  37              		.loc 1 69 22 view .LVU3
  38 0002 4FF0FF31 		mov	r1, #-1
  39              		.loc 1 63 18 view .LVU4
  40 0006 03F11C02 		add	r2, r3, #28
  41              		.loc 1 64 18 view .LVU5
  42 000a C3E90722 		strd	r2, r2, [r3, #28]
  43              		.loc 1 65 3 is_stmt 1 view .LVU6
  44              		.loc 1 69 22 is_stmt 0 view .LVU7
  45 000e 0022     		movs	r2, #0
  46 0010 C3E90912 		strd	r1, r2, [r3, #36]
  47              		.loc 1 71 1 view .LVU8
  48 0014 7047     		bx	lr
  49              	.L3:
  50 0016 00BF     		.align	2
  51              	.L2:
  52 0018 00000000 		.word	ch
  53              		.cfi_endproc
  54              	.LFE301:
  55              		.size	_vt_init, .-_vt_init
  56              		.section	.text.chVTDoSetI,"ax",%progbits
  57              		.align	1
ARM GAS  /tmp/ccWJTDeQ.s 			page 2


  58              		.global	chVTDoSetI
  59              		.syntax unified
  60              		.thumb
  61              		.thumb_func
  62              		.fpu fpv4-sp-d16
  63              		.type	chVTDoSetI, %function
  64              	chVTDoSetI:
  65              	.LVL0:
  66              	.LFB302:
  67              		.loc 1 96 45 is_stmt 1 view -0
  68              		.cfi_startproc
  69              		@ args = 0, pretend = 0, frame = 0
  70              		@ frame_needed = 0, uses_anonymous_args = 0
  71              		.loc 1 97 3 view .LVU10
  72              		.loc 1 98 3 view .LVU11
  73              		.loc 1 100 21 view .LVU12
  74              		.loc 1 101 3 view .LVU13
  75              		.loc 1 101 3 view .LVU14
  76              		.loc 1 101 3 view .LVU15
  77              		.loc 1 103 3 view .LVU16
  78              		.loc 1 96 45 is_stmt 0 view .LVU17
  79 0000 F8B5     		push	{r3, r4, r5, r6, r7, lr}
  80              		.cfi_def_cfa_offset 24
  81              		.cfi_offset 3, -24
  82              		.cfi_offset 4, -20
  83              		.cfi_offset 5, -16
  84              		.cfi_offset 6, -12
  85              		.cfi_offset 7, -8
  86              		.cfi_offset 14, -4
  87              	.LBB40:
  88              		.loc 1 117 57 view .LVU18
  89 0002 1B4F     		ldr	r7, .L12
  90 0004 0229     		cmp	r1, #2
  91              	.LBE40:
  92              		.loc 1 96 45 view .LVU19
  93 0006 0646     		mov	r6, r0
  94 0008 38BF     		it	cc
  95 000a 0221     		movcc	r1, #2
  96              	.LVL1:
  97              		.loc 1 104 13 view .LVU20
  98 000c C0E90323 		strd	r2, r3, [r0, #12]
  99              	.LBB63:
 100              		.loc 1 108 5 is_stmt 1 view .LVU21
 101              	.LBB41:
 102              	.LBI41:
 103              		.file 2 "../../modules/ChibiOS/os/rt/include/chvt.h"
 104              		.loc 2 115 25 view .LVU22
 105              	.LBE41:
 106              	.LBE63:
 107              		.loc 2 120 3 view .LVU23
 108              	.LBB64:
 109              	.LBB46:
 110              	.LBB42:
 111              	.LBI42:
 112              		.file 3 "../../modules/ChibiOS/os/common/ports/ARMCMx/chcore_timer.h"
 113              		.loc 3 105 25 view .LVU24
 114              	.LBE42:
ARM GAS  /tmp/ccWJTDeQ.s 			page 3


 115              	.LBE46:
 116              	.LBE64:
 117              		.loc 3 107 3 view .LVU25
 118              	.LBB65:
 119              	.LBB47:
 120              	.LBB45:
 121              	.LBB43:
 122              	.LBI43:
 123              		.file 4 "../../modules/ChibiOS/os/hal/ports/STM32/LLD/TIMv1/hal_st_lld.h"
 124              		.loc 4 166 25 view .LVU26
 125              	.LBB44:
 126              		.loc 4 168 3 view .LVU27
 127              		.loc 4 168 10 is_stmt 0 view .LVU28
 128 0010 4FF08043 		mov	r3, #1073741824
 129              	.LVL2:
 130              		.loc 4 168 10 view .LVU29
 131 0014 5C6A     		ldr	r4, [r3, #36]
 132              	.LVL3:
 133              		.loc 4 168 10 view .LVU30
 134              	.LBE44:
 135              	.LBE43:
 136              	.LBE45:
 137              	.LBE47:
 138              		.loc 1 112 5 is_stmt 1 view .LVU31
 139              		.loc 1 117 5 view .LVU32
 140              		.loc 1 117 57 is_stmt 0 view .LVU33
 141 0016 3B46     		mov	r3, r7
 142 0018 53F81C5F 		ldr	r5, [r3, #28]!
 143              		.loc 1 117 8 view .LVU34
 144 001c 9D42     		cmp	r5, r3
 145 001e 0AD1     		bne	.L5
 146              		.loc 1 121 7 is_stmt 1 view .LVU35
 147              		.loc 1 123 22 is_stmt 0 view .LVU36
 148 0020 C7E90700 		strd	r0, r0, [r7, #28]
 149              		.loc 1 121 26 view .LVU37
 150 0024 BC62     		str	r4, [r7, #40]
 151              		.loc 1 122 7 is_stmt 1 view .LVU38
 152              		.loc 1 124 7 view .LVU39
 153              		.loc 1 126 18 is_stmt 0 view .LVU40
 154 0026 8160     		str	r1, [r0, #8]
 155              		.loc 1 125 17 view .LVU41
 156 0028 C0E90055 		strd	r5, r5, [r0]
 157              		.loc 1 126 7 is_stmt 1 view .LVU42
 158              		.loc 1 136 7 view .LVU43
 159              	.LVL4:
 160              	.LBB48:
 161              	.LBI48:
 162              		.file 5 "../../modules/ChibiOS/os/rt/include/chtime.h"
 163              		.loc 5 491 25 view .LVU44
 164              	.LBB49:
 165              		.loc 5 498 3 view .LVU45
 166              		.loc 5 498 3 is_stmt 0 view .LVU46
 167              	.LBE49:
 168              	.LBE48:
 169              	.LBB50:
 170              	.LBI50:
 171              		.loc 3 71 20 is_stmt 1 view .LVU47
ARM GAS  /tmp/ccWJTDeQ.s 			page 4


 172              	.LBB51:
 173              		.loc 3 73 3 view .LVU48
 174 002c 0819     		adds	r0, r1, r4
 175              	.LVL5:
 176              		.loc 3 73 3 is_stmt 0 view .LVU49
 177              	.LBE51:
 178              	.LBE50:
 179              	.LBE65:
 180              		.loc 1 201 1 view .LVU50
 181 002e BDE8F840 		pop	{r3, r4, r5, r6, r7, lr}
 182              		.cfi_remember_state
 183              		.cfi_restore 14
 184              		.cfi_restore 7
 185              		.cfi_restore 6
 186              		.cfi_restore 5
 187              		.cfi_restore 4
 188              		.cfi_restore 3
 189              		.cfi_def_cfa_offset 0
 190              	.LVL6:
 191              	.LBB66:
 192              	.LBB53:
 193              	.LBB52:
 194              		.loc 3 73 3 view .LVU51
 195 0032 FFF7FEBF 		b	stStartAlarm
 196              	.LVL7:
 197              	.L5:
 198              		.cfi_restore_state
 199              		.loc 3 73 3 view .LVU52
 200              	.LBE52:
 201              	.LBE53:
 202              		.loc 1 142 5 is_stmt 1 view .LVU53
 203              		.loc 1 146 5 view .LVU54
 204              		.loc 1 146 13 is_stmt 0 view .LVU55
 205 0036 B86A     		ldr	r0, [r7, #40]
 206              	.LVL8:
 207              	.LBB54:
 208              	.LBI54:
 209              		.loc 5 510 29 is_stmt 1 view .LVU56
 210              	.LBB55:
 211              		.loc 5 514 3 view .LVU57
 212              		.loc 5 514 3 is_stmt 0 view .LVU58
 213              	.LBE55:
 214              	.LBE54:
 215              		.loc 1 152 17 view .LVU59
 216 0038 AB68     		ldr	r3, [r5, #8]
 217              	.LBB57:
 218              	.LBB56:
 219              		.loc 5 514 10 view .LVU60
 220 003a 241A     		subs	r4, r4, r0
 221 003c 0C19     		adds	r4, r1, r4
 222              	.LVL9:
 223              		.loc 5 514 10 view .LVU61
 224              	.LBE56:
 225              	.LBE57:
 226              		.loc 1 148 5 is_stmt 1 view .LVU62
 227              		.loc 1 148 5 is_stmt 0 view .LVU63
 228              	.LBE66:
ARM GAS  /tmp/ccWJTDeQ.s 			page 5


 229              		.loc 5 514 3 is_stmt 1 view .LVU64
 230              	.LBB67:
 231              		.loc 1 148 8 is_stmt 0 view .LVU65
 232 003e 02D3     		bcc	.L8
 233              	.LVL10:
 234              	.L11:
 235              		.loc 1 148 8 view .LVU66
 236              	.LBE67:
 237              		.loc 1 182 5 is_stmt 1 discriminator 5 view .LVU67
 238              		.loc 1 182 5 discriminator 5 view .LVU68
 239              		.loc 1 182 5 discriminator 5 view .LVU69
 240              		.loc 1 184 5 discriminator 5 view .LVU70
 241              		.loc 1 184 11 is_stmt 0 discriminator 5 view .LVU71
 242 0040 E41A     		subs	r4, r4, r3
 243              	.LVL11:
 244              		.loc 1 185 5 is_stmt 1 discriminator 5 view .LVU72
 245              		.loc 1 185 7 is_stmt 0 discriminator 5 view .LVU73
 246 0042 2D68     		ldr	r5, [r5]
 247              	.LVL12:
 248              		.loc 1 185 7 discriminator 5 view .LVU74
 249 0044 04E0     		b	.L9
 250              	.LVL13:
 251              	.L8:
 252              	.LBB68:
 253              		.loc 1 155 10 is_stmt 1 view .LVU75
 254              		.loc 1 155 13 is_stmt 0 view .LVU76
 255 0046 A342     		cmp	r3, r4
 256 0048 02D9     		bls	.L9
 257              	.LBB58:
 258              		.loc 1 156 7 is_stmt 1 view .LVU77
 259              		.loc 1 160 7 view .LVU78
 260              	.LVL14:
 261              		.loc 1 167 7 view .LVU79
 262              	.LBB59:
 263              	.LBI59:
 264              		.loc 5 491 25 view .LVU80
 265              	.LBB60:
 266              		.loc 5 498 3 view .LVU81
 267              		.loc 5 498 3 is_stmt 0 view .LVU82
 268              	.LBE60:
 269              	.LBE59:
 270              	.LBB61:
 271              	.LBI61:
 272              		.loc 3 93 20 is_stmt 1 view .LVU83
 273              	.LBB62:
 274              		.loc 3 95 3 view .LVU84
 275 004a 2044     		add	r0, r0, r4
 276              	.LVL15:
 277              		.loc 3 95 3 is_stmt 0 view .LVU85
 278 004c FFF7FEFF 		bl	stSetAlarm
 279              	.LVL16:
 280              	.L9:
 281              		.loc 3 95 3 view .LVU86
 282              	.LBE62:
 283              	.LBE61:
 284              	.LBE58:
 285              	.LBE68:
ARM GAS  /tmp/ccWJTDeQ.s 			page 6


 286              		.loc 1 180 9 is_stmt 1 view .LVU87
 287              		.loc 1 180 11 is_stmt 0 view .LVU88
 288 0050 AB68     		ldr	r3, [r5, #8]
 289              		.loc 1 180 9 view .LVU89
 290 0052 A342     		cmp	r3, r4
 291 0054 F4D3     		bcc	.L11
 292              		.loc 1 189 3 is_stmt 1 view .LVU90
 293              		.loc 1 190 24 is_stmt 0 view .LVU91
 294 0056 6B68     		ldr	r3, [r5, #4]
 295              		.loc 1 189 13 view .LVU92
 296 0058 3560     		str	r5, [r6]
 297              		.loc 1 190 3 is_stmt 1 view .LVU93
 298              		.loc 1 190 13 is_stmt 0 view .LVU94
 299 005a 7360     		str	r3, [r6, #4]
 300              		.loc 1 191 3 is_stmt 1 view .LVU95
 301              		.loc 1 191 19 is_stmt 0 view .LVU96
 302 005c 1E60     		str	r6, [r3]
 303              		.loc 1 192 3 is_stmt 1 view .LVU97
 304              		.loc 1 192 11 is_stmt 0 view .LVU98
 305 005e 6E60     		str	r6, [r5, #4]
 306              		.loc 1 193 3 is_stmt 1 view .LVU99
 307              		.loc 1 193 14 is_stmt 0 view .LVU100
 308 0060 B460     		str	r4, [r6, #8]
 309              		.loc 1 196 3 is_stmt 1 view .LVU101
 310              		.loc 1 196 12 is_stmt 0 view .LVU102
 311 0062 AB68     		ldr	r3, [r5, #8]
 312 0064 1B1B     		subs	r3, r3, r4
 313 0066 AB60     		str	r3, [r5, #8]
 314              		.loc 1 200 3 is_stmt 1 view .LVU103
 315              		.loc 1 200 19 is_stmt 0 view .LVU104
 316 0068 4FF0FF33 		mov	r3, #-1
 317 006c 7B62     		str	r3, [r7, #36]
 318              		.loc 1 201 1 view .LVU105
 319 006e F8BD     		pop	{r3, r4, r5, r6, r7, pc}
 320              	.LVL17:
 321              	.L13:
 322              		.loc 1 201 1 view .LVU106
 323              		.align	2
 324              	.L12:
 325 0070 00000000 		.word	ch
 326              		.cfi_endproc
 327              	.LFE302:
 328              		.size	chVTDoSetI, .-chVTDoSetI
 329              		.section	.text.chVTDoResetI,"ax",%progbits
 330              		.align	1
 331              		.global	chVTDoResetI
 332              		.syntax unified
 333              		.thumb
 334              		.thumb_func
 335              		.fpu fpv4-sp-d16
 336              		.type	chVTDoResetI, %function
 337              	chVTDoResetI:
 338              	.LVL18:
 339              	.LFB303:
 340              		.loc 1 211 41 is_stmt 1 view -0
 341              		.cfi_startproc
 342              		@ args = 0, pretend = 0, frame = 0
ARM GAS  /tmp/ccWJTDeQ.s 			page 7


 343              		@ frame_needed = 0, uses_anonymous_args = 0
 344              		@ link register save eliminated.
 345              		.loc 1 213 21 view .LVU108
 346              		.loc 1 214 3 view .LVU109
 347              		.loc 1 214 3 view .LVU110
 348              		.loc 1 214 3 view .LVU111
 349              		.loc 1 215 3 view .LVU112
 350              		.loc 1 215 3 view .LVU113
 351              		.loc 1 215 3 view .LVU114
 352              		.loc 1 231 3 view .LVU115
 353              		.loc 1 235 3 view .LVU116
 354              		.loc 1 235 16 is_stmt 0 view .LVU117
 355 0000 1849     		ldr	r1, .L21
 356              		.loc 1 237 26 view .LVU118
 357 0002 0368     		ldr	r3, [r0]
 358              		.loc 1 235 6 view .LVU119
 359 0004 0A46     		mov	r2, r1
 360              		.loc 1 211 41 view .LVU120
 361 0006 30B4     		push	{r4, r5}
 362              		.cfi_def_cfa_offset 8
 363              		.cfi_offset 4, -8
 364              		.cfi_offset 5, -4
 365              		.loc 1 235 6 view .LVU121
 366 0008 52F81C4F 		ldr	r4, [r2, #28]!
 367 000c 0025     		movs	r5, #0
 368 000e 8442     		cmp	r4, r0
 369 0010 0BD0     		beq	.L15
 370              		.loc 1 237 5 is_stmt 1 view .LVU122
 371              		.loc 1 237 8 is_stmt 0 view .LVU123
 372 0012 4168     		ldr	r1, [r0, #4]
 373              		.loc 1 242 8 view .LVU124
 374 0014 9342     		cmp	r3, r2
 375              		.loc 1 237 21 view .LVU125
 376 0016 0B60     		str	r3, [r1]
 377              		.loc 1 238 5 is_stmt 1 view .LVU126
 378              		.loc 1 238 21 is_stmt 0 view .LVU127
 379 0018 5960     		str	r1, [r3, #4]
 380              		.loc 1 239 5 is_stmt 1 view .LVU128
 381              		.loc 1 239 15 is_stmt 0 view .LVU129
 382 001a C560     		str	r5, [r0, #12]
 383              		.loc 1 242 5 is_stmt 1 view .LVU130
 384              		.loc 1 242 8 is_stmt 0 view .LVU131
 385 001c 03D0     		beq	.L14
 386              		.loc 1 243 7 is_stmt 1 view .LVU132
 387              		.loc 1 243 24 is_stmt 0 view .LVU133
 388 001e 9A68     		ldr	r2, [r3, #8]
 389 0020 8168     		ldr	r1, [r0, #8]
 390 0022 0A44     		add	r2, r2, r1
 391 0024 9A60     		str	r2, [r3, #8]
 392              	.LVL19:
 393              	.L14:
 394              		.loc 1 297 1 view .LVU134
 395 0026 30BC     		pop	{r4, r5}
 396              		.cfi_remember_state
 397              		.cfi_restore 5
 398              		.cfi_restore 4
 399              		.cfi_def_cfa_offset 0
ARM GAS  /tmp/ccWJTDeQ.s 			page 8


 400 0028 7047     		bx	lr
 401              	.LVL20:
 402              	.L15:
 403              		.cfi_restore_state
 404              		.loc 1 249 3 is_stmt 1 view .LVU135
 405              		.loc 1 254 6 is_stmt 0 view .LVU136
 406 002a 9342     		cmp	r3, r2
 407              		.loc 1 249 18 view .LVU137
 408 002c CB61     		str	r3, [r1, #28]
 409              		.loc 1 250 3 is_stmt 1 view .LVU138
 410              		.loc 1 250 24 is_stmt 0 view .LVU139
 411 002e 5A60     		str	r2, [r3, #4]
 412              		.loc 1 251 3 is_stmt 1 view .LVU140
 413              		.loc 1 251 13 is_stmt 0 view .LVU141
 414 0030 E560     		str	r5, [r4, #12]
 415              		.loc 1 254 3 is_stmt 1 view .LVU142
 416              		.loc 1 254 6 is_stmt 0 view .LVU143
 417 0032 02D1     		bne	.L18
 418              		.loc 1 255 5 is_stmt 1 view .LVU144
 419              	.LBB69:
 420              	.LBI69:
 421              		.loc 3 81 20 view .LVU145
 422              	.LBB70:
 423              		.loc 3 83 3 view .LVU146
 424              	.LBE70:
 425              	.LBE69:
 426              		.loc 1 297 1 is_stmt 0 view .LVU147
 427 0034 30BC     		pop	{r4, r5}
 428              		.cfi_remember_state
 429              		.cfi_restore 5
 430              		.cfi_restore 4
 431              		.cfi_def_cfa_offset 0
 432              	.LBB72:
 433              	.LBB71:
 434              		.loc 3 83 3 view .LVU148
 435 0036 FFF7FEBF 		b	stStopAlarm
 436              	.LVL21:
 437              	.L18:
 438              		.cfi_restore_state
 439              		.loc 3 83 3 view .LVU149
 440              	.LBE71:
 441              	.LBE72:
 442              		.loc 1 261 3 is_stmt 1 view .LVU150
 443              		.loc 1 261 25 is_stmt 0 view .LVU151
 444 003a 9A68     		ldr	r2, [r3, #8]
 445 003c A068     		ldr	r0, [r4, #8]
 446              	.LVL22:
 447              		.loc 1 261 25 view .LVU152
 448 003e 0244     		add	r2, r2, r0
 449              		.loc 1 270 14 view .LVU153
 450 0040 886A     		ldr	r0, [r1, #40]
 451              		.loc 1 261 25 view .LVU154
 452 0042 9A60     		str	r2, [r3, #8]
 453              		.loc 1 270 3 is_stmt 1 view .LVU155
 454              	.LBB73:
 455              	.LBI73:
 456              		.loc 2 115 25 view .LVU156
ARM GAS  /tmp/ccWJTDeQ.s 			page 9


 457              	.LBE73:
 458              		.loc 2 120 3 view .LVU157
 459              	.LBB78:
 460              	.LBB74:
 461              	.LBI74:
 462              		.loc 3 105 25 view .LVU158
 463              	.LBE74:
 464              	.LBE78:
 465              		.loc 3 107 3 view .LVU159
 466              	.LBB79:
 467              	.LBB77:
 468              	.LBB75:
 469              	.LBI75:
 470              		.loc 4 166 25 view .LVU160
 471              	.LBB76:
 472              		.loc 4 168 3 view .LVU161
 473              		.loc 4 168 10 is_stmt 0 view .LVU162
 474 0044 4FF08043 		mov	r3, #1073741824
 475 0048 5B6A     		ldr	r3, [r3, #36]
 476              	.LVL23:
 477              		.loc 4 168 10 view .LVU163
 478              	.LBE76:
 479              	.LBE75:
 480              	.LBE77:
 481              	.LBE79:
 482              	.LBB80:
 483              	.LBI80:
 484              		.loc 5 510 29 is_stmt 1 view .LVU164
 485              	.LBB81:
 486              		.loc 5 514 3 view .LVU165
 487              		.loc 5 514 10 is_stmt 0 view .LVU166
 488 004a 191A     		subs	r1, r3, r0
 489              	.LVL24:
 490              		.loc 5 514 10 view .LVU167
 491              	.LBE81:
 492              	.LBE80:
 493              		.loc 1 274 3 is_stmt 1 view .LVU168
 494              		.loc 1 274 6 is_stmt 0 view .LVU169
 495 004c 8A42     		cmp	r2, r1
 496 004e EAD9     		bls	.L14
 497              		.loc 1 279 3 is_stmt 1 view .LVU170
 498              	.LVL25:
 499              		.loc 1 283 3 view .LVU171
 500              		.loc 1 279 9 is_stmt 0 view .LVU172
 501 0050 C31A     		subs	r3, r0, r3
 502              	.LVL26:
 503              		.loc 1 279 9 view .LVU173
 504 0052 1344     		add	r3, r3, r2
 505              	.LVL27:
 506              		.loc 1 283 6 view .LVU174
 507 0054 012B     		cmp	r3, #1
 508              		.loc 1 284 5 is_stmt 1 view .LVU175
 509              		.loc 1 284 11 is_stmt 0 view .LVU176
 510 0056 98BF     		it	ls
 511 0058 8A1C     		addls	r2, r1, #2
 512              	.LVL28:
 513              		.loc 1 295 3 is_stmt 1 view .LVU177
ARM GAS  /tmp/ccWJTDeQ.s 			page 10


 514              	.LBB82:
 515              	.LBI82:
 516              		.loc 5 491 25 view .LVU178
 517              	.LBB83:
 518              		.loc 5 498 3 view .LVU179
 519              		.loc 5 498 3 is_stmt 0 view .LVU180
 520              	.LBE83:
 521              	.LBE82:
 522              	.LBB84:
 523              	.LBI84:
 524              		.loc 3 93 20 is_stmt 1 view .LVU181
 525              	.LBB85:
 526              		.loc 3 95 3 view .LVU182
 527              	.LBE85:
 528              	.LBE84:
 529              		.loc 1 297 1 is_stmt 0 view .LVU183
 530 005a 30BC     		pop	{r4, r5}
 531              		.cfi_restore 5
 532              		.cfi_restore 4
 533              		.cfi_def_cfa_offset 0
 534              	.LBB87:
 535              	.LBB86:
 536              		.loc 3 95 3 view .LVU184
 537 005c 1044     		add	r0, r0, r2
 538              	.LVL29:
 539              		.loc 3 95 3 view .LVU185
 540 005e FFF7FEBF 		b	stSetAlarm
 541              	.LVL30:
 542              	.L22:
 543              		.loc 3 95 3 view .LVU186
 544 0062 00BF     		.align	2
 545              	.L21:
 546 0064 00000000 		.word	ch
 547              	.LBE86:
 548              	.LBE87:
 549              		.cfi_endproc
 550              	.LFE303:
 551              		.size	chVTDoResetI, .-chVTDoResetI
 552              		.text
 553              	.Letext0:
 554              		.file 6 "/opt/gcc-arm-none-eabi-10-2020-q4-major/arm-none-eabi/include/machine/_default_types.h"
 555              		.file 7 "/opt/gcc-arm-none-eabi-10-2020-q4-major/arm-none-eabi/include/sys/_stdint.h"
 556              		.file 8 "../../modules/ChibiOS/os/common/ports/ARMCMx/compilers/GCC/chtypes.h"
 557              		.file 9 "../../modules/ChibiOS/os/rt/include/chsystypes.h"
 558              		.file 10 "../../modules/ChibiOS/os/rt/include/chschd.h"
 559              		.file 11 "../../modules/ChibiOS/os/common/ports/ARMCMx/chcore.h"
 560              		.file 12 "../../modules/ChibiOS/os/common/ports/ARMCMx/chcore_v7m.h"
 561              		.file 13 "../../modules/ChibiOS/os/hal/ports/STM32/LLD/TIMv1/stm32_tim.h"
 562              		.file 14 "../../modules/ChibiOS/os/rt/include/chtm.h"
 563              		.file 15 "../../modules/ChibiOS/os/rt/include/chstats.h"
 564              		.file 16 "../../modules/ChibiOS/os/rt/include/chsem.h"
 565              		.file 17 "../../modules/ChibiOS/os/rt/include/chmtx.h"
 566              		.file 18 "../../modules/ChibiOS/os/hal/include/hal_st.h"