ARM GAS  /tmp/ccWJTDeQ.s 			page 1


   1              		.cpu cortex-m7
   2              		.eabi_attribute 27, 1
   3              		.eabi_attribute 28, 1
   4              		.eabi_attribute 20, 1
   5              		.eabi_attribute 21, 1
   6              		.eabi_attribute 23, 3
   7              		.eabi_attribute 24, 1
   8              		.eabi_attribute 25, 1
   9              		.eabi_attribute 26, 1
  10              		.eabi_attribute 30, 4
  11              		.eabi_attribute 34, 1
  12              		.eabi_attribute 18, 4
  13              		.file	"chvt.c"
  14              		.text
  15              	.Ltext0:
  16              		.cfi_sections	.debug_frame
  17              		.section	.text._vt_init,"ax",%progbits
  18              		.align	1
  19              		.global	_vt_init
  20              		.arch armv7e-m
  21              		.syntax unified
  22              		.thumb
  23              		.thumb_func
  24              		.fpu fpv4-sp-d16
  25              		.type	_vt_init, %function
  26              	_vt_init:
  27              	.LFB301:
  28              		.file 1 "../../modules/ChibiOS/os/rt/src/chvt.c"
  29              		.loc 1 61 21 view -0
  30              		.cfi_startproc
  31              		@ args = 0, pretend = 0, frame = 0
  32              		@ frame_needed = 0, uses_anonymous_args = 0
  33              		@ link register save eliminated.
  34              		.loc 1 63 3 view .LVU1
  35              		.loc 1 63 18 is_stmt 0 view .LVU2
  36 0000 054B     		ldr	r3, .L2
  37              		.loc 1 69 22 view .LVU3
  38 0002 4FF0FF31 		mov	r1, #-1
  39              		.loc 1 63 18 view .LVU4
  40 0006 03F11C02 		add	r2, r3, #28
  41              		.loc 1 64 18 view .LVU5
  42 000a C3E90722 		strd	r2, r2, [r3, #28]
  43              		.loc 1 65 3 is_stmt 1 view .LVU6
  44              		.loc 1 69 22 is_stmt 0 view .LVU7
  45 000e 0022     		movs	r2, #0
  46 0010 C3E90912 		strd	r1, r2, [r3, #36]
  47              		.loc 1 71 1 view .LVU8
  48 0014 7047     		bx	lr
  49              	.L3:
  50 0016 00BF     		.align	2
  51              	.L2:
  52 0018 00000000 		.word	ch
  53              		.cfi_endproc
  54              	.LFE301:
  55              		.size	_vt_init, .-_vt_init
  56              		.section	.text.chVTDoSetI,"ax",%progbits
  57              		.align	1
ARM GAS  /tmp/ccWJTDeQ.s 			page 2


  58              		.global	chVTDoSetI
  59              		.syntax unified
  60              		.thumb
  61              		.thumb_func
  62              		.fpu fpv4-sp-d16
  63              		.type	chVTDoSetI, %function
  64              	chVTDoSetI:
  65              	.LVL0:
  66              	.LFB302:
  67              		.loc 1 96 45 is_stmt 1 view -0
  68              		.cfi_startproc
  69              		@ args = 0, pretend = 0, frame = 0
  70              		@ frame_needed = 0, uses_anonymous_args = 0
  71              		.loc 1 97 3 view .LVU10
  72              		.loc 1 98 3 view .LVU11
  73              		.loc 1 100 21 view .LVU12
  74              		.loc 1 101 3 view .LVU13
  75              		.loc 1 101 3 view .LVU14
  76              		.loc 1 101 3 view .LVU15
  77              		.loc 1 103 3 view .LVU16
  78              		.loc 1 96 45 is_stmt 0 view .LVU17
  79 0000 F8B5     		push	{r3, r4, r5, r6, r7, lr}
  80              		.cfi_def_cfa_offset 24
  81              		.cfi_offset 3, -24
  82              		.cfi_offset 4, -20
  83              		.cfi_offset 5, -16
  84              		.cfi_offset 6, -12
  85              		.cfi_offset 7, -8
  86              		.cfi_offset 14, -4
  87              	.LBB40:
  88              		.loc 1 117 57 view .LVU18
  89 0002 1B4F     		ldr	r7, .L12
  90 0004 0229     		cmp	r1, #2
  91              	.LBE40:
  92              		.loc 1 96 45 view .LVU19
  93 0006 0646     		mov	r6, r0
  94 0008 38BF     		it	cc
  95 000a 0221     		movcc	r1, #2
  96              	.LVL1:
  97              		.loc 1 104 13 view .LVU20
  98 000c C0E90323 		strd	r2, r3, [r0, #12]
  99              	.LBB63:
 100              		.loc 1 108 5 is_stmt 1 view .LVU21
 101              	.LBB41:
 102              	.LBI41:
 103              		.file 2 "../../modules/ChibiOS/os/rt/include/chvt.h"
 104              		.loc 2 115 25 view .LVU22
 105              	.LBE41:
 106              	.LBE63:
 107              		.loc 2 120 3 view .LVU23
 108              	.LBB64:
 109              	.LBB46:
 110              	.LBB42:
 111              	.LBI42:
 112              		.file 3 "../../modules/ChibiOS/os/common/ports/ARMCMx/chcore_timer.h"
 113              		.loc 3 105 25 view .LVU24
 114              	.LBE42:
ARM GAS  /tmp/ccWJTDeQ.s 			page 3


 115              	.LBE46:
 116              	.LBE64:
 117              		.loc 3 107 3 view .LVU25
 118              	.LBB65:
 119              	.LBB47:
 120              	.LBB45:
 121              	.LBB43:
 122              	.LBI43:
 123              		.file 4 "../../modules/ChibiOS/os/hal/ports/STM32/LLD/TIMv1/hal_st_lld.h"
 124              		.loc 4 166 25 view .LVU26
 125              	.LBB44:
 126              		.loc 4 168 3 view .LVU27
 127              		.loc 4 168 10 is_stmt 0 view .LVU28
 128 0010 4FF08043 		mov	r3, #1073741824
 129              	.LVL2:
 130              		.loc 4 168 10 view .LVU29
 131 0014 5C6A     		ldr	r4, [r3, #36]
 132              	.LVL3:
 133              		.loc 4 168 10 view .LVU30
 134              	.LBE44:
 135              	.LBE43:
 136              	.LBE45:
 137              	.LBE47:
 138              		.loc 1 112 5 is_stmt 1 view .LVU31
 139              		.loc 1 117 5 view .LVU32
 140              		.loc 1 117 57 is_stmt 0 view .LVU33
 141 0016 3B46     		mov	r3, r7
 142 0018 53F81C5F 		ldr	r5, [r3, #28]!
 143              		.loc 1 117 8 view .LVU34
 144 001c 9D42     		cmp	r5, r3
 145 001e 0AD1     		bne	.L5
 146              		.loc 1 121 7 is_stmt 1 view .LVU35
 147              		.loc 1 123 22 is_stmt 0 view .LVU36
 148 0020 C7E90700 		strd	r0, r0, [r7, #28]
 149              		.loc 1 121 26 view .LVU37
 150 0024 BC62     		str	r4, [r7, #40]
 151              		.loc 1 122 7 is_stmt 1 view .LVU38
 152              		.loc 1 124 7 view .LVU39
 153              		.loc 1 126 18 is_stmt 0 view .LVU40
 154 0026 8160     		str	r1, [r0, #8]
 155              		.loc 1 125 17 view .LVU41
 156 0028 C0E90055 		strd	r5, r5, [r0]
 157              		.loc 1 126 7 is_stmt 1 view .LVU42
 158              		.loc 1 136 7 view .LVU43
 159              	.LVL4:
 160              	.LBB48:
 161              	.LBI48:
 162              		.file 5 "../../modules/ChibiOS/os/rt/include/chtime.h"
 163              		.loc 5 491 25 view .LVU44
 164              	.LBB49:
 165              		.loc 5 498 3 view .LVU45
 166              		.loc 5 498 3 is_stmt 0 view .LVU46
 167              	.LBE49:
 168              	.LBE48:
 169              	.LBB50:
 170              	.LBI50:
 171              		.loc 3 71 20 is_stmt 1 view .LVU47
ARM GAS  /tmp/ccWJTDeQ.s 			page 4


 172              	.LBB51:
 173              		.loc 3 73 3 view .LVU48
 174 002c 0819     		adds	r0, r1, r4
 175              	.LVL5:
 176              		.loc 3 73 3 is_stmt 0 view .LVU49
 177              	.LBE51:
 178              	.LBE50:
 179              	.LBE65:
 180              		.loc 1 201 1 view .LVU50
 181 002e BDE8F840 		pop	{r3, r4, r5, r6, r7, lr}
 182              		.cfi_remember_state
 183              		.cfi_restore 14
 184              		.cfi_restore 7
 185              		.cfi_restore 6
 186              		.cfi_restore 5
 187              		.cfi_restore 4
 188              		.cfi_restore 3
 189              		.cfi_def_cfa_offset 0
 190              	.LVL6:
 191              	.LBB66:
 192              	.LBB53:
 193              	.LBB52:
 194              		.loc 3 73 3 view .LVU51
 195 0032 FFF7FEBF 		b	stStartAlarm
 196              	.LVL7:
 197              	.L5:
 198              		.cfi_restore_state
 199              		.loc 3 73 3 view .LVU52
 200              	.LBE52:
 201              	.LBE53:
 202              		.loc 1 142 5 is_stmt 1 view .LVU53
 203              		.loc 1 146 5 view .LVU54
 204              		.loc 1 146 13 is_stmt 0 view .LVU55
 205 0036 B86A     		ldr	r0, [r7, #40]
 206              	.LVL8:
 207              	.LBB54:
 208              	.LBI54:
 209              		.loc 5 510 29 is_stmt 1 view .LVU56
 210              	.LBB55:
 211              		.loc 5 514 3 view .LVU57
 212              		.loc 5 514 3 is_stmt 0 view .LVU58
 213              	.LBE55:
 214              	.LBE54:
 215              		.loc 1 152 17 view .LVU59
 216 0038 AB68     		ldr	r3, [r5, #8]
 217              	.LBB57:
 218              	.LBB56:
 219              		.loc 5 514 10 view .LVU60
 220 003a 241A     		subs	r4, r4, r0
 221 003c 0C19     		adds	r4, r1, r4
 222              	.LVL9:
 223              		.loc 5 514 10 view .LVU61
 224              	.LBE56:
 225              	.LBE57:
 226              		.loc 1 148 5 is_stmt 1 view .LVU62
 227              		.loc 1 148 5 is_stmt 0 view .LVU63
 228              	.LBE66:
ARM GAS  /tmp/ccWJTDeQ.s 			page 5


 229              		.loc 5 514 3 is_stmt 1 view .LVU64
 230              	.LBB67:
 231              		.loc 1 148 8 is_stmt 0 view .LVU65
 232 003e 02D3     		bcc	.L8
 233              	.LVL10:
 234              	.L11:
 235              		.loc 1 148 8 view .LVU66
 236              	.LBE67:
 237              		.loc 1 182 5 is_stmt 1 discriminator 5 view .LVU67
 238              		.loc 1 182 5 discriminator 5 view .LVU68
 239              		.loc 1 182 5 discriminator 5 view .LVU69
 240              		.loc 1 184 5 discriminator 5 view .LVU70
 241              		.loc 1 184 11 is_stmt 0 discriminator 5 view .LVU71
 242 0040 E41A     		subs	r4, r4, r3
 243              	.LVL11:
 244              		.loc 1 185 5 is_stmt 1 discriminator 5 view .LVU72
 245              		.loc 1 185 7 is_stmt 0 discriminator 5 view .LVU73
 246 0042 2D68     		ldr	r5, [r5]
 247              	.LVL12:
 248              		.loc 1 185 7 discriminator 5 view .LVU74
 249 0044 04E0     		b	.L9
 250              	.LVL13:
 251              	.L8:
 252              	.LBB68:
 253              		.loc 1 155 10 is_stmt 1 view .LVU75
 254              		.loc 1 155 13 is_stmt 0 view .LVU76
 255 0046 A342     		cmp	r3, r4
 256 0048 02D9     		bls	.L9
 257              	.LBB58:
 258              		.loc 1 156 7 is_stmt 1 view .LVU77
 259              		.loc 1 160 7 view .LVU78
 260              	.LVL14:
 261              		.loc 1 167 7 view .LVU79
 262              	.LBB59:
 263              	.LBI59:
 264              		.loc 5 491 25 view .LVU80
 265              	.LBB60:
 266              		.loc 5 498 3 view .LVU81
 267              		.loc 5 498 3 is_stmt 0 view .LVU82
 268              	.LBE60:
 269              	.LBE59:
 270              	.LBB61:
 271              	.LBI61:
 272              		.loc 3 93 20 is_stmt 1 view .LVU83
 273              	.LBB62:
 274              		.loc 3 95 3 view .LVU84
 275 004a 2044     		add	r0, r0, r4
 276              	.LVL15:
 277              		.loc 3 95 3 is_stmt 0 view .LVU85
 278 004c FFF7FEFF 		bl	stSetAlarm
 279              	.LVL16:
 280              	.L9:
 281              		.loc 3 95 3 view .LVU86
 282              	.LBE62:
 283              	.LBE61:
 284              	.LBE58:
 285              	.LBE68:
ARM GAS  /tmp/ccWJTDeQ.s 			page 6


 286              		.loc 1 180 9 is_stmt 1 view .LVU87
 287              		.loc 1 180 11 is_stmt 0 view .LVU88
 288 0050 AB68     		ldr	r3, [r5, #8]
 289              		.loc 1 180 9 view .LVU89
 290 0052 A342     		cmp	r3, r4
 291 0054 F4D3     		bcc	.L11
 292              		.loc 1 189 3 is_stmt 1 view .LVU90
 293              		.loc 1 190 24 is_stmt 0 view .LVU91
 294 0056 6B68     		ldr	r3, [r5, #4]
 295              		.loc 1 189 13 view .LVU92
 296 0058 3560     		str	r5, [r6]
 297              		.loc 1 190 3 is_stmt 1 view .LVU93
 298              		.loc 1 190 13 is_stmt 0 view .LVU94
 299 005a 7360     		str	r3, [r6, #4]
 300              		.loc 1 191 3 is_stmt 1 view .LVU95
 301              		.loc 1 191 19 is_stmt 0 view .LVU96
 302 005c 1E60     		str	r6, [r3]
 303              		.loc 1 192 3 is_stmt 1 view .LVU97
 304              		.loc 1 192 11 is_stmt 0 view .LVU98
 305 005e 6E60     		str	r6, [r5, #4]
 306              		.loc 1 193 3 is_stmt 1 view .LVU99
 307              		.loc 1 193 14 is_stmt 0 view .LVU100
 308 0060 B460     		str	r4, [r6, #8]
 309              		.loc 1 196 3 is_stmt 1 view .LVU101
 310              		.loc 1 196 12 is_stmt 0 view .LVU102
 311 0062 AB68     		ldr	r3, [r5, #8]
 312 0064 1B1B     		subs	r3, r3, r4
 313 0066 AB60     		str	r3, [r5, #8]
 314              		.loc 1 200 3 is_stmt 1 view .LVU103
 315              		.loc 1 200 19 is_stmt 0 view .LVU104
 316 0068 4FF0FF33 		mov	r3, #-1
 317 006c 7B62     		str	r3, [r7, #36]
 318              		.loc 1 201 1 view .LVU105
 319 006e F8BD     		pop	{r3, r4, r5, r6, r7, pc}
 320              	.LVL17:
 321              	.L13:
 322              		.loc 1 201 1 view .LVU106
 323              		.align	2
 324              	.L12:
 325 0070 00000000 		.word	ch
 326              		.cfi_endproc
 327              	.LFE302:
 328              		.size	chVTDoSetI, .-chVTDoSetI
 329              		.section	.text.chVTDoResetI,"ax",%progbits
 330              		.align	1
 331              		.global	chVTDoResetI
 332              		.syntax unified
 333              		.thumb
 334              		.thumb_func
 335              		.fpu fpv4-sp-d16
 336              		.type	chVTDoResetI, %function
 337              	chVTDoResetI:
 338              	.LVL18:
 339              	.LFB303:
 340              		.loc 1 211 41 is_stmt 1 view -0
 341              		.cfi_startproc
 342              		@ args = 0, pretend = 0, frame = 0
ARM GAS  /tmp/ccWJTDeQ.s 			page 7


 343              		@ frame_needed = 0, uses_anonymous_args = 0
 344              		@ link register save eliminated.
 345              		.loc 1 213 21 view .LVU108
 346              		.loc 1 214 3 view .LVU109
 347              		.loc 1 214 3 view .LVU110
 348              		.loc 1 214 3 view .LVU111
 349              		.loc 1 215 3 view .LVU112
 350              		.loc 1 215 3 view .LVU113
 351              		.loc 1 215 3 view .LVU114
 352              		.loc 1 231 3 view .LVU115
 353              		.loc 1 235 3 view .LVU116
 354              		.loc 1 235 16 is_stmt 0 view .LVU117
 355 0000 1849     		ldr	r1, .L21
 356              		.loc 1 237 26 view .LVU118
 357 0002 0368     		ldr	r3, [r0]
 358              		.loc 1 235 6 view .LVU119
 359 0004 0A46     		mov	r2, r1
 360              		.loc 1 211 41 view .LVU120
 361 0006 30B4     		push	{r4, r5}
 362              		.cfi_def_cfa_offset 8
 363              		.cfi_offset 4, -8
 364              		.cfi_offset 5, -4
 365              		.loc 1 235 6 view .LVU121
 366 0008 52F81C4F 		ldr	r4, [r2, #28]!
 367 000c 0025     		movs	r5, #0
 368 000e 8442     		cmp	r4, r0
 369 0010 0BD0     		beq	.L15
 370              		.loc 1 237 5 is_stmt 1 view .LVU122
 371              		.loc 1 237 8 is_stmt 0 view .LVU123
 372 0012 4168     		ldr	r1, [r0, #4]
 373              		.loc 1 242 8 view .LVU124
 374 0014 9342     		cmp	r3, r2
 375              		.loc 1 237 21 view .LVU125
 376 0016 0B60     		str	r3, [r1]
 377              		.loc 1 238 5 is_stmt 1 view .LVU126
 378              		.loc 1 238 21 is_stmt 0 view .LVU127
 379 0018 5960     		str	r1, [r3, #4]
 380              		.loc 1 239 5 is_stmt 1 view .LVU128
 381              		.loc 1 239 15 is_stmt 0 view .LVU129
 382 001a C560     		str	r5, [r0, #12]
 383              		.loc 1 242 5 is_stmt 1 view .LVU130
 384              		.loc 1 242 8 is_stmt 0 view .LVU131
 385 001c 03D0     		beq	.L14
 386              		.loc 1 243 7 is_stmt 1 view .LVU132
 387              		.loc 1 243 24 is_stmt 0 view .LVU133
 388 001e 9A68     		ldr	r2, [r3, #8]
 389 0020 8168     		ldr	r1, [r0, #8]
 390 0022 0A44     		add	r2, r2, r1
 391 0024 9A60     		str	r2, [r3, #8]
 392              	.LVL19:
 393              	.L14:
 394              		.loc 1 297 1 view .LVU134
 395 0026 30BC     		pop	{r4, r5}
 396              		.cfi_remember_state
 397              		.cfi_restore 5
 398              		.cfi_restore 4
 399              		.cfi_def_cfa_offset 0
ARM GAS  /tmp/ccWJTDeQ.s 			page 8


 400 0028 7047     		bx	lr
 401              	.LVL20:
 402              	.L15:
 403              		.cfi_restore_state
 404              		.loc 1 249 3 is_stmt 1 view .LVU135
 405              		.loc 1 254 6 is_stmt 0 view .LVU136
 406 002a 9342     		cmp	r3, r2
 407              		.loc 1 249 18 view .LVU137
 408 002c CB61     		str	r3, [r1, #28]
 409              		.loc 1 250 3 is_stmt 1 view .LVU138
 410              		.loc 1 250 24 is_stmt 0 view .LVU139
 411 002e 5A60     		str	r2, [r3, #4]
 412              		.loc 1 251 3 is_stmt 1 view .LVU140
 413              		.loc 1 251 13 is_stmt 0 view .LVU141
 414 0030 E560     		str	r5, [r4, #12]
 415              		.loc 1 254 3 is_stmt 1 view .LVU142
 416              		.loc 1 254 6 is_stmt 0 view .LVU143
 417 0032 02D1     		bne	.L18
 418              		.loc 1 255 5 is_stmt 1 view .LVU144
 419              	.LBB69:
 420              	.LBI69:
 421              		.loc 3 81 20 view .LVU145
 422              	.LBB70:
 423              		.loc 3 83 3 view .LVU146
 424              	.LBE70:
 425              	.LBE69:
 426              		.loc 1 297 1 is_stmt 0 view .LVU147
 427 0034 30BC     		pop	{r4, r5}
 428              		.cfi_remember_state
 429              		.cfi_restore 5
 430              		.cfi_restore 4
 431              		.cfi_def_cfa_offset 0
 432              	.LBB72:
 433              	.LBB71:
 434              		.loc 3 83 3 view .LVU148
 435 0036 FFF7FEBF 		b	stStopAlarm
 436              	.LVL21:
 437              	.L18:
 438              		.cfi_restore_state
 439              		.loc 3 83 3 view .LVU149
 440              	.LBE71:
 441              	.LBE72:
 442              		.loc 1 261 3 is_stmt 1 view .LVU150
 443              		.loc 1 261 25 is_stmt 0 view .LVU151
 444 003a 9A68     		ldr	r2, [r3, #8]
 445 003c A068     		ldr	r0, [r4, #8]
 446              	.LVL22:
 447              		.loc 1 261 25 view .LVU152
 448 003e 0244     		add	r2, r2, r0
 449              		.loc 1 270 14 view .LVU153
 450 0040 886A     		ldr	r0, [r1, #40]
 451              		.loc 1 261 25 view .LVU154
 452 0042 9A60     		str	r2, [r3, #8]
 453              		.loc 1 270 3 is_stmt 1 view .LVU155
 454              	.LBB73:
 455              	.LBI73:
 456              		.loc 2 115 25 view .LVU156
ARM GAS  /tmp/ccWJTDeQ.s 			page 9


 457              	.LBE73:
 458              		.loc 2 120 3 view .LVU157
 459              	.LBB78:
 460              	.LBB74:
 461              	.LBI74:
 462              		.loc 3 105 25 view .LVU158
 463              	.LBE74:
 464              	.LBE78:
 465              		.loc 3 107 3 view .LVU159
 466              	.LBB79:
 467              	.LBB77:
 468              	.LBB75:
 469              	.LBI75:
 470              		.loc 4 166 25 view .LVU160
 471              	.LBB76:
 472              		.loc 4 168 3 view .LVU161
 473              		.loc 4 168 10 is_stmt 0 view .LVU162
 474 0044 4FF08043 		mov	r3, #1073741824
 475 0048 5B6A     		ldr	r3, [r3, #36]
 476              	.LVL23:
 477              		.loc 4 168 10 view .LVU163
 478              	.LBE76:
 479              	.LBE75:
 480              	.LBE77:
 481              	.LBE79:
 482              	.LBB80:
 483              	.LBI80:
 484              		.loc 5 510 29 is_stmt 1 view .LVU164
 485              	.LBB81:
 486              		.loc 5 514 3 view .LVU165
 487              		.loc 5 514 10 is_stmt 0 view .LVU166
 488 004a 191A     		subs	r1, r3, r0
 489              	.LVL24:
 490              		.loc 5 514 10 view .LVU167
 491              	.LBE81:
 492              	.LBE80:
 493              		.loc 1 274 3 is_stmt 1 view .LVU168
 494              		.loc 1 274 6 is_stmt 0 view .LVU169
 495 004c 8A42     		cmp	r2, r1
 496 004e EAD9     		bls	.L14
 497              		.loc 1 279 3 is_stmt 1 view .LVU170
 498              	.LVL25:
 499              		.loc 1 283 3 view .LVU171
 500              		.loc 1 279 9 is_stmt 0 view .LVU172
 501 0050 C31A     		subs	r3, r0, r3
 502              	.LVL26:
 503              		.loc 1 279 9 view .LVU173
 504 0052 1344     		add	r3, r3, r2
 505              	.LVL27:
 506              		.loc 1 283 6 view .LVU174
 507 0054 012B     		cmp	r3, #1
 508              		.loc 1 284 5 is_stmt 1 view .LVU175
 509              		.loc 1 284 11 is_stmt 0 view .LVU176
 510 0056 98BF     		it	ls
 511 0058 8A1C     		addls	r2, r1, #2
 512              	.LVL28:
 513              		.loc 1 295 3 is_stmt 1 view .LVU177
ARM GAS  /tmp/ccWJTDeQ.s 			page 10


 514              	.LBB82:
 515              	.LBI82:
 516              		.loc 5 491 25 view .LVU178
 517              	.LBB83:
 518              		.loc 5 498 3 view .LVU179
 519              		.loc 5 498 3 is_stmt 0 view .LVU180
 520              	.LBE83:
 521              	.LBE82:
 522              	.LBB84:
 523              	.LBI84:
 524              		.loc 3 93 20 is_stmt 1 view .LVU181
 525              	.LBB85:
 526              		.loc 3 95 3 view .LVU182
 527              	.LBE85:
 528              	.LBE84:
 529              		.loc 1 297 1 is_stmt 0 view .LVU183
 530 005a 30BC     		pop	{r4, r5}
 531              		.cfi_restore 5
 532              		.cfi_restore 4
 533              		.cfi_def_cfa_offset 0
 534              	.LBB87:
 535              	.LBB86:
 536              		.loc 3 95 3 view .LVU184
 537 005c 1044     		add	r0, r0, r2
 538              	.LVL29:
 539              		.loc 3 95 3 view .LVU185
 540 005e FFF7FEBF 		b	stSetAlarm
 541              	.LVL30:
 542              	.L22:
 543              		.loc 3 95 3 view .LVU186
 544 0062 00BF     		.align	2
 545              	.L21:
 546 0064 00000000 		.word	ch
 547              	.LBE86:
 548              	.LBE87:
 549              		.cfi_endproc
 550              	.LFE303:
 551              		.size	chVTDoResetI, .-chVTDoResetI
 552              		.text
 553              	.Letext0:
 554              		.file 6 "/opt/gcc-arm-none-eabi-10-2020-q4-major/arm-none-eabi/include/machine/_default_types.h"
 555              		.file 7 "/opt/gcc-arm-none-eabi-10-2020-q4-major/arm-none-eabi/include/sys/_stdint.h"
 556              		.file 8 "../../modules/ChibiOS/os/common/ports/ARMCMx/compilers/GCC/chtypes.h"
 557              		.file 9 "../../modules/ChibiOS/os/rt/include/chsystypes.h"
 558              		.file 10 "../../modules/ChibiOS/os/rt/include/chschd.h"
 559              		.file 11 "../../modules/ChibiOS/os/common/ports/ARMCMx/chcore.h"
 560              		.file 12 "../../modules/ChibiOS/os/common/ports/ARMCMx/chcore_v7m.h"
 561              		.file 13 "../../modules/ChibiOS/os/hal/ports/STM32/LLD/TIMv1/stm32_tim.h"
 562              		.file 14 "../../modules/ChibiOS/os/rt/include/chtm.h"
 563              		.file 15 "../../modules/ChibiOS/os/rt/include/chstats.h"
 564              		.file 16 "../../modules/ChibiOS/os/rt/include/chsem.h"
 565              		.file 17 "../../modules/ChibiOS/os/rt/include/chmtx.h"
 566              		.file 18 "../../modules/ChibiOS/os/hal/include/hal_st.h"
 567              		.section	.debug_info,"",%progbits
 568              	.Ldebug_info0:
 569 0000 E00D0000 		.4byte	0xde0
 570 0004 0400     		.2byte	0x4
ARM GAS  /tmp/ccWJTDeQ.s 			page 11


 571 0006 00000000 		.4byte	.Ldebug_abbrev0
 572 000a 04       		.byte	0x4
 573 000b 01       		.uleb128 0x1
 574 000c 60050000 		.4byte	.LASF136
 575 0010 0C       		.byte	0xc
 576 0011 11030000 		.4byte	.LASF137
 577 0015 71040000 		.4byte	.LASF138
 578 0019 E0000000 		.4byte	.Ldebug_ranges0+0xe0
 579 001d 00000000 		.4byte	0
 580 0021 00000000 		.4byte	.Ldebug_line0
 581 0025 02       		.uleb128 0x2
 582 0026 04       		.byte	0x4
 583 0027 05       		.byte	0x5
 584 0028 696E7400 		.ascii	"int\000"
 585 002c 03       		.uleb128 0x3
 586 002d 04       		.byte	0x4
 587 002e 07       		.byte	0x7
 588 002f BC040000 		.4byte	.LASF0
 589 0033 03       		.uleb128 0x3
 590 0034 08       		.byte	0x8
 591 0035 05       		.byte	0x5
 592 0036 93010000 		.4byte	.LASF1
 593 003a 03       		.uleb128 0x3
 594 003b 08       		.byte	0x8
 595 003c 04       		.byte	0x4
 596 003d E7020000 		.4byte	.LASF2
 597 0041 03       		.uleb128 0x3
 598 0042 01       		.byte	0x1
 599 0043 06       		.byte	0x6
 600 0044 1F010000 		.4byte	.LASF3
 601 0048 04       		.uleb128 0x4
 602 0049 4C000000 		.4byte	.LASF7
 603 004d 06       		.byte	0x6
 604 004e 2B       		.byte	0x2b
 605 004f 18       		.byte	0x18
 606 0050 54000000 		.4byte	0x54
 607 0054 03       		.uleb128 0x3
 608 0055 01       		.byte	0x1
 609 0056 08       		.byte	0x8
 610 0057 B3030000 		.4byte	.LASF4
 611 005b 03       		.uleb128 0x3
 612 005c 02       		.byte	0x2
 613 005d 05       		.byte	0x5
 614 005e C7030000 		.4byte	.LASF5
 615 0062 03       		.uleb128 0x3
 616 0063 02       		.byte	0x2
 617 0064 07       		.byte	0x7
 618 0065 0D050000 		.4byte	.LASF6
 619 0069 04       		.uleb128 0x4
 620 006a 91020000 		.4byte	.LASF8
 621 006e 06       		.byte	0x6
 622 006f 4D       		.byte	0x4d
 623 0070 18       		.byte	0x18
 624 0071 75000000 		.4byte	0x75
 625 0075 03       		.uleb128 0x3
 626 0076 04       		.byte	0x4
 627 0077 05       		.byte	0x5
ARM GAS  /tmp/ccWJTDeQ.s 			page 12


 628 0078 41010000 		.4byte	.LASF9
 629 007c 04       		.uleb128 0x4
 630 007d 67010000 		.4byte	.LASF10
 631 0081 06       		.byte	0x6
 632 0082 4F       		.byte	0x4f
 633 0083 19       		.byte	0x19
 634 0084 88000000 		.4byte	0x88
 635 0088 03       		.uleb128 0x3
 636 0089 04       		.byte	0x4
 637 008a 07       		.byte	0x7
 638 008b 5F040000 		.4byte	.LASF11
 639 008f 04       		.uleb128 0x4
 640 0090 55030000 		.4byte	.LASF12
 641 0094 06       		.byte	0x6
 642 0095 69       		.byte	0x69
 643 0096 19       		.byte	0x19
 644 0097 9B000000 		.4byte	0x9b
 645 009b 03       		.uleb128 0x3
 646 009c 08       		.byte	0x8
 647 009d 07       		.byte	0x7
 648 009e A6000000 		.4byte	.LASF13
 649 00a2 04       		.uleb128 0x4
 650 00a3 EB030000 		.4byte	.LASF14
 651 00a7 07       		.byte	0x7
 652 00a8 18       		.byte	0x18
 653 00a9 13       		.byte	0x13
 654 00aa 48000000 		.4byte	0x48
 655 00ae 04       		.uleb128 0x4
 656 00af AB030000 		.4byte	.LASF15
 657 00b3 07       		.byte	0x7
 658 00b4 2C       		.byte	0x2c
 659 00b5 13       		.byte	0x13
 660 00b6 69000000 		.4byte	0x69
 661 00ba 04       		.uleb128 0x4
 662 00bb 39040000 		.4byte	.LASF16
 663 00bf 07       		.byte	0x7
 664 00c0 30       		.byte	0x30
 665 00c1 14       		.byte	0x14
 666 00c2 7C000000 		.4byte	0x7c
 667 00c6 05       		.uleb128 0x5
 668 00c7 BA000000 		.4byte	0xba
 669 00cb 04       		.uleb128 0x4
 670 00cc 2A000000 		.4byte	.LASF17
 671 00d0 07       		.byte	0x7
 672 00d1 3C       		.byte	0x3c
 673 00d2 14       		.byte	0x14
 674 00d3 8F000000 		.4byte	0x8f
 675 00d7 04       		.uleb128 0x4
 676 00d8 B5020000 		.4byte	.LASF18
 677 00dc 08       		.byte	0x8
 678 00dd 27       		.byte	0x27
 679 00de 1D       		.byte	0x1d
 680 00df BA000000 		.4byte	0xba
 681 00e3 04       		.uleb128 0x4
 682 00e4 01010000 		.4byte	.LASF19
 683 00e8 08       		.byte	0x8
 684 00e9 28       		.byte	0x28
ARM GAS  /tmp/ccWJTDeQ.s 			page 13


 685 00ea 1D       		.byte	0x1d
 686 00eb CB000000 		.4byte	0xcb
 687 00ef 04       		.uleb128 0x4
 688 00f0 B4060000 		.4byte	.LASF20
 689 00f4 08       		.byte	0x8
 690 00f5 2A       		.byte	0x2a
 691 00f6 1D       		.byte	0x1d
 692 00f7 A2000000 		.4byte	0xa2
 693 00fb 04       		.uleb128 0x4
 694 00fc 4A010000 		.4byte	.LASF21
 695 0100 08       		.byte	0x8
 696 0101 2B       		.byte	0x2b
 697 0102 1D       		.byte	0x1d
 698 0103 A2000000 		.4byte	0xa2
 699 0107 04       		.uleb128 0x4
 700 0108 6B030000 		.4byte	.LASF22
 701 010c 08       		.byte	0x8
 702 010d 2C       		.byte	0x2c
 703 010e 1D       		.byte	0x1d
 704 010f A2000000 		.4byte	0xa2
 705 0113 04       		.uleb128 0x4
 706 0114 94030000 		.4byte	.LASF23
 707 0118 08       		.byte	0x8
 708 0119 2E       		.byte	0x2e
 709 011a 1D       		.byte	0x1d
 710 011b BA000000 		.4byte	0xba
 711 011f 04       		.uleb128 0x4
 712 0120 34050000 		.4byte	.LASF24
 713 0124 08       		.byte	0x8
 714 0125 2F       		.byte	0x2f
 715 0126 1D       		.byte	0x1d
 716 0127 AE000000 		.4byte	0xae
 717 012b 04       		.uleb128 0x4
 718 012c 40000000 		.4byte	.LASF25
 719 0130 08       		.byte	0x8
 720 0131 31       		.byte	0x31
 721 0132 1D       		.byte	0x1d
 722 0133 BA000000 		.4byte	0xba
 723 0137 04       		.uleb128 0x4
 724 0138 AF010000 		.4byte	.LASF26
 725 013c 08       		.byte	0x8
 726 013d 33       		.byte	0x33
 727 013e 1D       		.byte	0x1d
 728 013f AE000000 		.4byte	0xae
 729 0143 04       		.uleb128 0x4
 730 0144 3D020000 		.4byte	.LASF27
 731 0148 08       		.byte	0x8
 732 0149 34       		.byte	0x34
 733 014a 1D       		.byte	0x1d
 734 014b BA000000 		.4byte	0xba
 735 014f 04       		.uleb128 0x4
 736 0150 CE040000 		.4byte	.LASF28
 737 0154 09       		.byte	0x9
 738 0155 34       		.byte	0x34
 739 0156 1A       		.byte	0x1a
 740 0157 5B010000 		.4byte	0x15b
 741 015b 06       		.uleb128 0x6
ARM GAS  /tmp/ccWJTDeQ.s 			page 14


 742 015c 17020000 		.4byte	.LASF47
 743 0160 60       		.byte	0x60
 744 0161 0A       		.byte	0xa
 745 0162 8E       		.byte	0x8e
 746 0163 08       		.byte	0x8
 747 0164 59020000 		.4byte	0x259
 748 0168 07       		.uleb128 0x7
 749 0169 ED010000 		.4byte	.LASF29
 750 016d 0A       		.byte	0xa
 751 016e 8F       		.byte	0x8f
 752 016f 19       		.byte	0x19
 753 0170 92020000 		.4byte	0x292
 754 0174 00       		.byte	0
 755 0175 07       		.uleb128 0x7
 756 0176 3D030000 		.4byte	.LASF30
 757 017a 0A       		.byte	0xa
 758 017b 90       		.byte	0x90
 759 017c 19       		.byte	0x19
 760 017d 13010000 		.4byte	0x113
 761 0181 08       		.byte	0x8
 762 0182 08       		.uleb128 0x8
 763 0183 63747800 		.ascii	"ctx\000"
 764 0187 0A       		.byte	0xa
 765 0188 91       		.byte	0x91
 766 0189 19       		.byte	0x19
 767 018a F9040000 		.4byte	0x4f9
 768 018e 0C       		.byte	0xc
 769 018f 07       		.uleb128 0x7
 770 0190 A6020000 		.4byte	.LASF31
 771 0194 0A       		.byte	0xa
 772 0195 93       		.byte	0x93
 773 0196 1A       		.byte	0x1a
 774 0197 65020000 		.4byte	0x265
 775 019b 10       		.byte	0x10
 776 019c 07       		.uleb128 0x7
 777 019d B6040000 		.4byte	.LASF32
 778 01a1 0A       		.byte	0xa
 779 01a2 94       		.byte	0x94
 780 01a3 1A       		.byte	0x1a
 781 01a4 65020000 		.4byte	0x265
 782 01a8 14       		.byte	0x14
 783 01a9 07       		.uleb128 0x7
 784 01aa 12020000 		.4byte	.LASF33
 785 01ae 0A       		.byte	0xa
 786 01af 9B       		.byte	0x9b
 787 01b0 1A       		.byte	0x1a
 788 01b1 56090000 		.4byte	0x956
 789 01b5 18       		.byte	0x18
 790 01b6 07       		.uleb128 0x7
 791 01b7 FC030000 		.4byte	.LASF34
 792 01bb 0A       		.byte	0xa
 793 01bc A4       		.byte	0xa4
 794 01bd 1A       		.byte	0x1a
 795 01be 6D090000 		.4byte	0x96d
 796 01c2 1C       		.byte	0x1c
 797 01c3 07       		.uleb128 0x7
 798 01c4 3B010000 		.4byte	.LASF35
ARM GAS  /tmp/ccWJTDeQ.s 			page 15


 799 01c8 0A       		.byte	0xa
 800 01c9 A9       		.byte	0xa9
 801 01ca 19       		.byte	0x19
 802 01cb FB000000 		.4byte	0xfb
 803 01cf 20       		.byte	0x20
 804 01d0 07       		.uleb128 0x7
 805 01d1 6D060000 		.4byte	.LASF36
 806 01d5 0A       		.byte	0xa
 807 01d6 AD       		.byte	0xad
 808 01d7 19       		.byte	0x19
 809 01d8 EF000000 		.4byte	0xef
 810 01dc 21       		.byte	0x21
 811 01dd 07       		.uleb128 0x7
 812 01de 73030000 		.4byte	.LASF37
 813 01e2 0A       		.byte	0xa
 814 01e3 B2       		.byte	0xb2
 815 01e4 19       		.byte	0x19
 816 01e5 07010000 		.4byte	0x107
 817 01e9 22       		.byte	0x22
 818 01ea 09       		.uleb128 0x9
 819 01eb 7500     		.ascii	"u\000"
 820 01ed 0A       		.byte	0xa
 821 01ee 0301     		.2byte	0x103
 822 01f0 19       		.byte	0x19
 823 01f1 6F080000 		.4byte	0x86f
 824 01f5 24       		.byte	0x24
 825 01f6 0A       		.uleb128 0xa
 826 01f7 8B010000 		.4byte	.LASF38
 827 01fb 0A       		.byte	0xa
 828 01fc 0801     		.2byte	0x108
 829 01fe 19       		.byte	0x19
 830 01ff 6B020000 		.4byte	0x26b
 831 0203 28       		.byte	0x28
 832 0204 0A       		.uleb128 0xa
 833 0205 32010000 		.4byte	.LASF39
 834 0209 0A       		.byte	0xa
 835 020a 0E01     		.2byte	0x10e
 836 020c 19       		.byte	0x19
 837 020d 92020000 		.4byte	0x292
 838 0211 2C       		.byte	0x2c
 839 0212 0A       		.uleb128 0xa
 840 0213 44020000 		.4byte	.LASF40
 841 0217 0A       		.byte	0xa
 842 0218 1401     		.2byte	0x114
 843 021a 19       		.byte	0x19
 844 021b 2B010000 		.4byte	0x12b
 845 021f 34       		.byte	0x34
 846 0220 0A       		.uleb128 0xa
 847 0221 C2060000 		.4byte	.LASF41
 848 0225 0A       		.byte	0xa
 849 0226 1B01     		.2byte	0x11b
 850 0228 1A       		.byte	0x1a
 851 0229 50090000 		.4byte	0x950
 852 022d 38       		.byte	0x38
 853 022e 0A       		.uleb128 0xa
 854 022f AC020000 		.4byte	.LASF42
 855 0233 0A       		.byte	0xa
ARM GAS  /tmp/ccWJTDeQ.s 			page 16


 856 0234 1F01     		.2byte	0x11f
 857 0236 19       		.byte	0x19
 858 0237 13010000 		.4byte	0x113
 859 023b 3C       		.byte	0x3c
 860 023c 0A       		.uleb128 0xa
 861 023d F3010000 		.4byte	.LASF43
 862 0241 0A       		.byte	0xa
 863 0242 2601     		.2byte	0x126
 864 0244 1A       		.byte	0x1a
 865 0245 52030000 		.4byte	0x352
 866 0249 40       		.byte	0x40
 867 024a 0A       		.uleb128 0xa
 868 024b 58010000 		.4byte	.LASF44
 869 024f 0A       		.byte	0xa
 870 0250 2C01     		.2byte	0x12c
 871 0252 19       		.byte	0x19
 872 0253 19080000 		.4byte	0x819
 873 0257 48       		.byte	0x48
 874 0258 00       		.byte	0
 875 0259 04       		.uleb128 0x4
 876 025a BD020000 		.4byte	.LASF45
 877 025e 09       		.byte	0x9
 878 025f 39       		.byte	0x39
 879 0260 14       		.byte	0x14
 880 0261 65020000 		.4byte	0x265
 881 0265 0B       		.uleb128 0xb
 882 0266 04       		.byte	0x4
 883 0267 4F010000 		.4byte	0x14f
 884 026b 04       		.uleb128 0x4
 885 026c A5060000 		.4byte	.LASF46
 886 0270 09       		.byte	0x9
 887 0271 3E       		.byte	0x3e
 888 0272 20       		.byte	0x20
 889 0273 77020000 		.4byte	0x277
 890 0277 06       		.uleb128 0x6
 891 0278 49040000 		.4byte	.LASF48
 892 027c 04       		.byte	0x4
 893 027d 0A       		.byte	0xa
 894 027e 7C       		.byte	0x7c
 895 027f 08       		.byte	0x8
 896 0280 92020000 		.4byte	0x292
 897 0284 07       		.uleb128 0x7
 898 0285 18000000 		.4byte	.LASF49
 899 0289 0A       		.byte	0xa
 900 028a 7D       		.byte	0x7d
 901 028b 1A       		.byte	0x1a
 902 028c 65020000 		.4byte	0x265
 903 0290 00       		.byte	0
 904 0291 00       		.byte	0
 905 0292 04       		.uleb128 0x4
 906 0293 41050000 		.4byte	.LASF50
 907 0297 09       		.byte	0x9
 908 0298 45       		.byte	0x45
 909 0299 21       		.byte	0x21
 910 029a 9E020000 		.4byte	0x29e
 911 029e 06       		.uleb128 0x6
 912 029f 67000000 		.4byte	.LASF51
ARM GAS  /tmp/ccWJTDeQ.s 			page 17


 913 02a3 08       		.byte	0x8
 914 02a4 0A       		.byte	0xa
 915 02a5 83       		.byte	0x83
 916 02a6 08       		.byte	0x8
 917 02a7 C6020000 		.4byte	0x2c6
 918 02ab 07       		.uleb128 0x7
 919 02ac 18000000 		.4byte	.LASF49
 920 02b0 0A       		.byte	0xa
 921 02b1 84       		.byte	0x84
 922 02b2 1A       		.byte	0x1a
 923 02b3 65020000 		.4byte	0x265
 924 02b7 00       		.byte	0
 925 02b8 07       		.uleb128 0x7
 926 02b9 56000000 		.4byte	.LASF52
 927 02bd 0A       		.byte	0xa
 928 02be 85       		.byte	0x85
 929 02bf 1A       		.byte	0x1a
 930 02c0 65020000 		.4byte	0x265
 931 02c4 04       		.byte	0x4
 932 02c5 00       		.byte	0
 933 02c6 04       		.uleb128 0x4
 934 02c7 00000000 		.4byte	.LASF53
 935 02cb 09       		.byte	0x9
 936 02cc 4C       		.byte	0x4c
 937 02cd 1E       		.byte	0x1e
 938 02ce D2020000 		.4byte	0x2d2
 939 02d2 0C       		.uleb128 0xc
 940 02d3 78020000 		.4byte	.LASF54
 941 02d7 1C       		.byte	0x1c
 942 02d8 0A       		.byte	0xa
 943 02d9 5E01     		.2byte	0x15e
 944 02db 08       		.byte	0x8
 945 02dc 35030000 		.4byte	0x335
 946 02e0 0A       		.uleb128 0xa
 947 02e1 ED010000 		.4byte	.LASF29
 948 02e5 0A       		.byte	0xa
 949 02e6 5F01     		.2byte	0x15f
 950 02e8 19       		.byte	0x19
 951 02e9 92020000 		.4byte	0x292
 952 02ed 00       		.byte	0
 953 02ee 0A       		.uleb128 0xa
 954 02ef 3D030000 		.4byte	.LASF30
 955 02f3 0A       		.byte	0xa
 956 02f4 6001     		.2byte	0x160
 957 02f6 19       		.byte	0x19
 958 02f7 13010000 		.4byte	0x113
 959 02fb 08       		.byte	0x8
 960 02fc 09       		.uleb128 0x9
 961 02fd 63747800 		.ascii	"ctx\000"
 962 0301 0A       		.byte	0xa
 963 0302 6201     		.2byte	0x162
 964 0304 19       		.byte	0x19
 965 0305 F9040000 		.4byte	0x4f9
 966 0309 0C       		.byte	0xc
 967 030a 0A       		.uleb128 0xa
 968 030b A6020000 		.4byte	.LASF31
 969 030f 0A       		.byte	0xa
ARM GAS  /tmp/ccWJTDeQ.s 			page 18


 970 0310 6501     		.2byte	0x165
 971 0312 1A       		.byte	0x1a
 972 0313 65020000 		.4byte	0x265
 973 0317 10       		.byte	0x10
 974 0318 0A       		.uleb128 0xa
 975 0319 B6040000 		.4byte	.LASF32
 976 031d 0A       		.byte	0xa
 977 031e 6601     		.2byte	0x166
 978 0320 1A       		.byte	0x1a
 979 0321 65020000 		.4byte	0x265
 980 0325 14       		.byte	0x14
 981 0326 0A       		.uleb128 0xa
 982 0327 42030000 		.4byte	.LASF55
 983 032b 0A       		.byte	0xa
 984 032c 6901     		.2byte	0x169
 985 032e 1A       		.byte	0x1a
 986 032f 65020000 		.4byte	0x265
 987 0333 18       		.byte	0x18
 988 0334 00       		.byte	0
 989 0335 04       		.uleb128 0x4
 990 0336 E6040000 		.4byte	.LASF56
 991 033a 09       		.byte	0x9
 992 033b 51       		.byte	0x51
 993 033c 10       		.byte	0x10
 994 033d 41030000 		.4byte	0x341
 995 0341 0B       		.uleb128 0xb
 996 0342 04       		.byte	0x4
 997 0343 47030000 		.4byte	0x347
 998 0347 0D       		.uleb128 0xd
 999 0348 52030000 		.4byte	0x352
 1000 034c 0E       		.uleb128 0xe
 1001 034d 52030000 		.4byte	0x352
 1002 0351 00       		.byte	0
 1003 0352 0F       		.uleb128 0xf
 1004 0353 04       		.byte	0x4
 1005 0354 04       		.uleb128 0x4
 1006 0355 78030000 		.4byte	.LASF57
 1007 0359 09       		.byte	0x9
 1008 035a 56       		.byte	0x56
 1009 035b 21       		.byte	0x21
 1010 035c 60030000 		.4byte	0x360
 1011 0360 0C       		.uleb128 0xc
 1012 0361 03040000 		.4byte	.LASF58
 1013 0365 14       		.byte	0x14
 1014 0366 0A       		.byte	0xa
 1015 0367 3901     		.2byte	0x139
 1016 0369 08       		.byte	0x8
 1017 036a B5030000 		.4byte	0x3b5
 1018 036e 0A       		.uleb128 0xa
 1019 036f 18000000 		.4byte	.LASF49
 1020 0373 0A       		.byte	0xa
 1021 0374 3A01     		.2byte	0x13a
 1022 0376 1A       		.byte	0x1a
 1023 0377 73090000 		.4byte	0x973
 1024 037b 00       		.byte	0
 1025 037c 0A       		.uleb128 0xa
 1026 037d 56000000 		.4byte	.LASF52
ARM GAS  /tmp/ccWJTDeQ.s 			page 19


 1027 0381 0A       		.byte	0xa
 1028 0382 3B01     		.2byte	0x13b
 1029 0384 1A       		.byte	0x1a
 1030 0385 73090000 		.4byte	0x973
 1031 0389 04       		.byte	0x4
 1032 038a 0A       		.uleb128 0xa
 1033 038b 1D000000 		.4byte	.LASF59
 1034 038f 0A       		.byte	0xa
 1035 0390 3C01     		.2byte	0x13c
 1036 0392 19       		.byte	0x19
 1037 0393 AB040000 		.4byte	0x4ab
 1038 0397 08       		.byte	0x8
 1039 0398 0A       		.uleb128 0xa
 1040 0399 53010000 		.4byte	.LASF60
 1041 039d 0A       		.byte	0xa
 1042 039e 3D01     		.2byte	0x13d
 1043 03a0 19       		.byte	0x19
 1044 03a1 35030000 		.4byte	0x335
 1045 03a5 0C       		.byte	0xc
 1046 03a6 09       		.uleb128 0x9
 1047 03a7 70617200 		.ascii	"par\000"
 1048 03ab 0A       		.byte	0xa
 1049 03ac 3F01     		.2byte	0x13f
 1050 03ae 1A       		.byte	0x1a
 1051 03af 52030000 		.4byte	0x352
 1052 03b3 10       		.byte	0x10
 1053 03b4 00       		.byte	0
 1054 03b5 04       		.uleb128 0x4
 1055 03b6 E6000000 		.4byte	.LASF61
 1056 03ba 09       		.byte	0x9
 1057 03bb 5B       		.byte	0x5b
 1058 03bc 28       		.byte	0x28
 1059 03bd C1030000 		.4byte	0x3c1
 1060 03c1 0C       		.uleb128 0xc
 1061 03c2 D0020000 		.4byte	.LASF62
 1062 03c6 10       		.byte	0x10
 1063 03c7 0A       		.byte	0xa
 1064 03c8 4901     		.2byte	0x149
 1065 03ca 08       		.byte	0x8
 1066 03cb 08040000 		.4byte	0x408
 1067 03cf 0A       		.uleb128 0xa
 1068 03d0 18000000 		.4byte	.LASF49
 1069 03d4 0A       		.byte	0xa
 1070 03d5 4A01     		.2byte	0x14a
 1071 03d7 1A       		.byte	0x1a
 1072 03d8 73090000 		.4byte	0x973
 1073 03dc 00       		.byte	0
 1074 03dd 0A       		.uleb128 0xa
 1075 03de 56000000 		.4byte	.LASF52
 1076 03e2 0A       		.byte	0xa
 1077 03e3 4C01     		.2byte	0x14c
 1078 03e5 1A       		.byte	0x1a
 1079 03e6 73090000 		.4byte	0x973
 1080 03ea 04       		.byte	0x4
 1081 03eb 0A       		.uleb128 0xa
 1082 03ec 1D000000 		.4byte	.LASF59
 1083 03f0 0A       		.byte	0xa
ARM GAS  /tmp/ccWJTDeQ.s 			page 20


 1084 03f1 4E01     		.2byte	0x14e
 1085 03f3 19       		.byte	0x19
 1086 03f4 AB040000 		.4byte	0x4ab
 1087 03f8 08       		.byte	0x8
 1088 03f9 0A       		.uleb128 0xa
 1089 03fa D1030000 		.4byte	.LASF63
 1090 03fe 0A       		.byte	0xa
 1091 03ff 5601     		.2byte	0x156
 1092 0401 19       		.byte	0x19
 1093 0402 9F040000 		.4byte	0x49f
 1094 0406 0C       		.byte	0xc
 1095 0407 00       		.byte	0
 1096 0408 04       		.uleb128 0x4
 1097 0409 78000000 		.4byte	.LASF64
 1098 040d 09       		.byte	0x9
 1099 040e 60       		.byte	0x60
 1100 040f 20       		.byte	0x20
 1101 0410 14040000 		.4byte	0x414
 1102 0414 0C       		.uleb128 0xc
 1103 0415 7B010000 		.4byte	.LASF65
 1104 0419 04       		.byte	0x4
 1105 041a 0A       		.byte	0xa
 1106 041b 7001     		.2byte	0x170
 1107 041d 08       		.byte	0x8
 1108 041e 31040000 		.4byte	0x431
 1109 0422 0A       		.uleb128 0xa
 1110 0423 EF040000 		.4byte	.LASF66
 1111 0427 0A       		.byte	0xa
 1112 0428 7801     		.2byte	0x178
 1113 042a 24       		.byte	0x24
 1114 042b 5C090000 		.4byte	0x95c
 1115 042f 00       		.byte	0
 1116 0430 00       		.byte	0
 1117 0431 04       		.uleb128 0x4
 1118 0432 4D020000 		.4byte	.LASF67
 1119 0436 09       		.byte	0x9
 1120 0437 65       		.byte	0x65
 1121 0438 1A       		.byte	0x1a
 1122 0439 3D040000 		.4byte	0x43d
 1123 043d 0C       		.uleb128 0xc
 1124 043e E1030000 		.4byte	.LASF68
 1125 0442 D0       		.byte	0xd0
 1126 0443 0A       		.byte	0xa
 1127 0444 9001     		.2byte	0x190
 1128 0446 08       		.byte	0x8
 1129 0447 9F040000 		.4byte	0x49f
 1130 044b 0A       		.uleb128 0xa
 1131 044c 5A050000 		.4byte	.LASF69
 1132 0450 0A       		.byte	0xa
 1133 0451 9401     		.2byte	0x194
 1134 0453 19       		.byte	0x19
 1135 0454 C6020000 		.4byte	0x2c6
 1136 0458 00       		.byte	0
 1137 0459 0A       		.uleb128 0xa
 1138 045a 2B010000 		.4byte	.LASF70
 1139 045e 0A       		.byte	0xa
 1140 045f 9801     		.2byte	0x198
ARM GAS  /tmp/ccWJTDeQ.s 			page 21


 1141 0461 19       		.byte	0x19
 1142 0462 B5030000 		.4byte	0x3b5
 1143 0466 1C       		.byte	0x1c
 1144 0467 09       		.uleb128 0x9
 1145 0468 64626700 		.ascii	"dbg\000"
 1146 046c 0A       		.byte	0xa
 1147 046d 9C01     		.2byte	0x19c
 1148 046f 19       		.byte	0x19
 1149 0470 08040000 		.4byte	0x408
 1150 0474 2C       		.byte	0x2c
 1151 0475 0A       		.uleb128 0xa
 1152 0476 D3000000 		.4byte	.LASF71
 1153 047a 0A       		.byte	0xa
 1154 047b A001     		.2byte	0x1a0
 1155 047d 19       		.byte	0x19
 1156 047e 4F010000 		.4byte	0x14f
 1157 0482 30       		.byte	0x30
 1158 0483 09       		.uleb128 0x9
 1159 0484 746D00   		.ascii	"tm\000"
 1160 0487 0A       		.byte	0xa
 1161 0488 A501     		.2byte	0x1a5
 1162 048a 19       		.byte	0x19
 1163 048b C4070000 		.4byte	0x7c4
 1164 048f 90       		.byte	0x90
 1165 0490 0A       		.uleb128 0xa
 1166 0491 33000000 		.4byte	.LASF72
 1167 0495 0A       		.byte	0xa
 1168 0496 AB01     		.2byte	0x1ab
 1169 0498 19       		.byte	0x19
 1170 0499 63080000 		.4byte	0x863
 1171 049d 98       		.byte	0x98
 1172 049e 00       		.byte	0
 1173 049f 04       		.uleb128 0x4
 1174 04a0 DC040000 		.4byte	.LASF73
 1175 04a4 05       		.byte	0x5
 1176 04a5 6D       		.byte	0x6d
 1177 04a6 12       		.byte	0x12
 1178 04a7 BA000000 		.4byte	0xba
 1179 04ab 04       		.uleb128 0x4
 1180 04ac A1010000 		.4byte	.LASF74
 1181 04b0 05       		.byte	0x5
 1182 04b1 79       		.byte	0x79
 1183 04b2 12       		.byte	0x12
 1184 04b3 BA000000 		.4byte	0xba
 1185 04b7 10       		.uleb128 0x10
 1186 04b8 C6000000 		.4byte	0xc6
 1187 04bc C7040000 		.4byte	0x4c7
 1188 04c0 11       		.uleb128 0x11
 1189 04c1 2C000000 		.4byte	0x2c
 1190 04c5 01       		.byte	0x1
 1191 04c6 00       		.byte	0
 1192 04c7 05       		.uleb128 0x5
 1193 04c8 B7040000 		.4byte	0x4b7
 1194 04cc 10       		.uleb128 0x10
 1195 04cd C6000000 		.4byte	0xc6
 1196 04d1 DC040000 		.4byte	0x4dc
 1197 04d5 11       		.uleb128 0x11
ARM GAS  /tmp/ccWJTDeQ.s 			page 22


 1198 04d6 2C000000 		.4byte	0x2c
 1199 04da 03       		.byte	0x3
 1200 04db 00       		.byte	0
 1201 04dc 05       		.uleb128 0x5
 1202 04dd CC040000 		.4byte	0x4cc
 1203 04e1 04       		.uleb128 0x4
 1204 04e2 72010000 		.4byte	.LASF75
 1205 04e6 0B       		.byte	0xb
 1206 04e7 65       		.byte	0x65
 1207 04e8 0F       		.byte	0xf
 1208 04e9 52030000 		.4byte	0x352
 1209 04ed 04       		.uleb128 0x4
 1210 04ee 9B020000 		.4byte	.LASF76
 1211 04f2 0B       		.byte	0xb
 1212 04f3 6D       		.byte	0x6d
 1213 04f4 12       		.byte	0x12
 1214 04f5 CB000000 		.4byte	0xcb
 1215 04f9 06       		.uleb128 0x6
 1216 04fa F3020000 		.4byte	.LASF77
 1217 04fe 04       		.byte	0x4
 1218 04ff 0B       		.byte	0xb
 1219 0500 89       		.byte	0x89
 1220 0501 08       		.byte	0x8
 1221 0502 13050000 		.4byte	0x513
 1222 0506 08       		.uleb128 0x8
 1223 0507 737000   		.ascii	"sp\000"
 1224 050a 0B       		.byte	0xb
 1225 050b 8A       		.byte	0x8a
 1226 050c 17       		.byte	0x17
 1227 050d 79060000 		.4byte	0x679
 1228 0511 00       		.byte	0
 1229 0512 00       		.byte	0
 1230 0513 0C       		.uleb128 0xc
 1231 0514 5B000000 		.4byte	.LASF78
 1232 0518 64       		.byte	0x64
 1233 0519 0C       		.byte	0xc
 1234 051a 5901     		.2byte	0x159
 1235 051c 08       		.byte	0x8
 1236 051d 79060000 		.4byte	0x679
 1237 0521 09       		.uleb128 0x9
 1238 0522 73313600 		.ascii	"s16\000"
 1239 0526 0C       		.byte	0xc
 1240 0527 5B01     		.2byte	0x15b
 1241 0529 11       		.byte	0x11
 1242 052a E1040000 		.4byte	0x4e1
 1243 052e 00       		.byte	0
 1244 052f 09       		.uleb128 0x9
 1245 0530 73313700 		.ascii	"s17\000"
 1246 0534 0C       		.byte	0xc
 1247 0535 5C01     		.2byte	0x15c
 1248 0537 11       		.byte	0x11
 1249 0538 E1040000 		.4byte	0x4e1
 1250 053c 04       		.byte	0x4
 1251 053d 09       		.uleb128 0x9
 1252 053e 73313800 		.ascii	"s18\000"
 1253 0542 0C       		.byte	0xc
 1254 0543 5D01     		.2byte	0x15d
ARM GAS  /tmp/ccWJTDeQ.s 			page 23


 1255 0545 11       		.byte	0x11
 1256 0546 E1040000 		.4byte	0x4e1
 1257 054a 08       		.byte	0x8
 1258 054b 09       		.uleb128 0x9
 1259 054c 73313900 		.ascii	"s19\000"
 1260 0550 0C       		.byte	0xc
 1261 0551 5E01     		.2byte	0x15e
 1262 0553 11       		.byte	0x11
 1263 0554 E1040000 		.4byte	0x4e1
 1264 0558 0C       		.byte	0xc
 1265 0559 09       		.uleb128 0x9
 1266 055a 73323000 		.ascii	"s20\000"
 1267 055e 0C       		.byte	0xc
 1268 055f 5F01     		.2byte	0x15f
 1269 0561 11       		.byte	0x11
 1270 0562 E1040000 		.4byte	0x4e1
 1271 0566 10       		.byte	0x10
 1272 0567 09       		.uleb128 0x9
 1273 0568 73323100 		.ascii	"s21\000"
 1274 056c 0C       		.byte	0xc
 1275 056d 6001     		.2byte	0x160
 1276 056f 11       		.byte	0x11
 1277 0570 E1040000 		.4byte	0x4e1
 1278 0574 14       		.byte	0x14
 1279 0575 09       		.uleb128 0x9
 1280 0576 73323200 		.ascii	"s22\000"
 1281 057a 0C       		.byte	0xc
 1282 057b 6101     		.2byte	0x161
 1283 057d 11       		.byte	0x11
 1284 057e E1040000 		.4byte	0x4e1
 1285 0582 18       		.byte	0x18
 1286 0583 09       		.uleb128 0x9
 1287 0584 73323300 		.ascii	"s23\000"
 1288 0588 0C       		.byte	0xc
 1289 0589 6201     		.2byte	0x162
 1290 058b 11       		.byte	0x11
 1291 058c E1040000 		.4byte	0x4e1
 1292 0590 1C       		.byte	0x1c
 1293 0591 09       		.uleb128 0x9
 1294 0592 73323400 		.ascii	"s24\000"
 1295 0596 0C       		.byte	0xc
 1296 0597 6301     		.2byte	0x163
 1297 0599 11       		.byte	0x11
 1298 059a E1040000 		.4byte	0x4e1
 1299 059e 20       		.byte	0x20
 1300 059f 09       		.uleb128 0x9
 1301 05a0 73323500 		.ascii	"s25\000"
 1302 05a4 0C       		.byte	0xc
 1303 05a5 6401     		.2byte	0x164
 1304 05a7 11       		.byte	0x11
 1305 05a8 E1040000 		.4byte	0x4e1
 1306 05ac 24       		.byte	0x24
 1307 05ad 09       		.uleb128 0x9
 1308 05ae 73323600 		.ascii	"s26\000"
 1309 05b2 0C       		.byte	0xc
 1310 05b3 6501     		.2byte	0x165
 1311 05b5 11       		.byte	0x11
ARM GAS  /tmp/ccWJTDeQ.s 			page 24


 1312 05b6 E1040000 		.4byte	0x4e1
 1313 05ba 28       		.byte	0x28
 1314 05bb 09       		.uleb128 0x9
 1315 05bc 73323700 		.ascii	"s27\000"
 1316 05c0 0C       		.byte	0xc
 1317 05c1 6601     		.2byte	0x166
 1318 05c3 11       		.byte	0x11
 1319 05c4 E1040000 		.4byte	0x4e1
 1320 05c8 2C       		.byte	0x2c
 1321 05c9 09       		.uleb128 0x9
 1322 05ca 73323800 		.ascii	"s28\000"
 1323 05ce 0C       		.byte	0xc
 1324 05cf 6701     		.2byte	0x167
 1325 05d1 11       		.byte	0x11
 1326 05d2 E1040000 		.4byte	0x4e1
 1327 05d6 30       		.byte	0x30
 1328 05d7 09       		.uleb128 0x9
 1329 05d8 73323900 		.ascii	"s29\000"
 1330 05dc 0C       		.byte	0xc
 1331 05dd 6801     		.2byte	0x168
 1332 05df 11       		.byte	0x11
 1333 05e0 E1040000 		.4byte	0x4e1
 1334 05e4 34       		.byte	0x34
 1335 05e5 09       		.uleb128 0x9
 1336 05e6 73333000 		.ascii	"s30\000"
 1337 05ea 0C       		.byte	0xc
 1338 05eb 6901     		.2byte	0x169
 1339 05ed 11       		.byte	0x11
 1340 05ee E1040000 		.4byte	0x4e1
 1341 05f2 38       		.byte	0x38
 1342 05f3 09       		.uleb128 0x9
 1343 05f4 73333100 		.ascii	"s31\000"
 1344 05f8 0C       		.byte	0xc
 1345 05f9 6A01     		.2byte	0x16a
 1346 05fb 11       		.byte	0x11
 1347 05fc E1040000 		.4byte	0x4e1
 1348 0600 3C       		.byte	0x3c
 1349 0601 09       		.uleb128 0x9
 1350 0602 723400   		.ascii	"r4\000"
 1351 0605 0C       		.byte	0xc
 1352 0606 6C01     		.2byte	0x16c
 1353 0608 11       		.byte	0x11
 1354 0609 E1040000 		.4byte	0x4e1
 1355 060d 40       		.byte	0x40
 1356 060e 09       		.uleb128 0x9
 1357 060f 723500   		.ascii	"r5\000"
 1358 0612 0C       		.byte	0xc
 1359 0613 6D01     		.2byte	0x16d
 1360 0615 11       		.byte	0x11
 1361 0616 E1040000 		.4byte	0x4e1
 1362 061a 44       		.byte	0x44
 1363 061b 09       		.uleb128 0x9
 1364 061c 723600   		.ascii	"r6\000"
 1365 061f 0C       		.byte	0xc
 1366 0620 6E01     		.2byte	0x16e
 1367 0622 11       		.byte	0x11
 1368 0623 E1040000 		.4byte	0x4e1
ARM GAS  /tmp/ccWJTDeQ.s 			page 25


 1369 0627 48       		.byte	0x48
 1370 0628 09       		.uleb128 0x9
 1371 0629 723700   		.ascii	"r7\000"
 1372 062c 0C       		.byte	0xc
 1373 062d 6F01     		.2byte	0x16f
 1374 062f 11       		.byte	0x11
 1375 0630 E1040000 		.4byte	0x4e1
 1376 0634 4C       		.byte	0x4c
 1377 0635 09       		.uleb128 0x9
 1378 0636 723800   		.ascii	"r8\000"
 1379 0639 0C       		.byte	0xc
 1380 063a 7001     		.2byte	0x170
 1381 063c 11       		.byte	0x11
 1382 063d E1040000 		.4byte	0x4e1
 1383 0641 50       		.byte	0x50
 1384 0642 09       		.uleb128 0x9
 1385 0643 723900   		.ascii	"r9\000"
 1386 0646 0C       		.byte	0xc
 1387 0647 7101     		.2byte	0x171
 1388 0649 11       		.byte	0x11
 1389 064a E1040000 		.4byte	0x4e1
 1390 064e 54       		.byte	0x54
 1391 064f 09       		.uleb128 0x9
 1392 0650 72313000 		.ascii	"r10\000"
 1393 0654 0C       		.byte	0xc
 1394 0655 7201     		.2byte	0x172
 1395 0657 11       		.byte	0x11
 1396 0658 E1040000 		.4byte	0x4e1
 1397 065c 58       		.byte	0x58
 1398 065d 09       		.uleb128 0x9
 1399 065e 72313100 		.ascii	"r11\000"
 1400 0662 0C       		.byte	0xc
 1401 0663 7301     		.2byte	0x173
 1402 0665 11       		.byte	0x11
 1403 0666 E1040000 		.4byte	0x4e1
 1404 066a 5C       		.byte	0x5c
 1405 066b 09       		.uleb128 0x9
 1406 066c 6C7200   		.ascii	"lr\000"
 1407 066f 0C       		.byte	0xc
 1408 0670 7401     		.2byte	0x174
 1409 0672 11       		.byte	0x11
 1410 0673 E1040000 		.4byte	0x4e1
 1411 0677 60       		.byte	0x60
 1412 0678 00       		.byte	0
 1413 0679 0B       		.uleb128 0xb
 1414 067a 04       		.byte	0x4
 1415 067b 13050000 		.4byte	0x513
 1416 067f 12       		.uleb128 0x12
 1417 0680 60       		.byte	0x60
 1418 0681 0D       		.byte	0xd
 1419 0682 F501     		.2byte	0x1f5
 1420 0684 09       		.byte	0x9
 1421 0685 A0070000 		.4byte	0x7a0
 1422 0689 09       		.uleb128 0x9
 1423 068a 43523100 		.ascii	"CR1\000"
 1424 068e 0D       		.byte	0xd
 1425 068f F601     		.2byte	0x1f6
ARM GAS  /tmp/ccWJTDeQ.s 			page 26


 1426 0691 19       		.byte	0x19
 1427 0692 C6000000 		.4byte	0xc6
 1428 0696 00       		.byte	0
 1429 0697 09       		.uleb128 0x9
 1430 0698 43523200 		.ascii	"CR2\000"
 1431 069c 0D       		.byte	0xd
 1432 069d F701     		.2byte	0x1f7
 1433 069f 19       		.byte	0x19
 1434 06a0 C6000000 		.4byte	0xc6
 1435 06a4 04       		.byte	0x4
 1436 06a5 0A       		.uleb128 0xa
 1437 06a6 FE010000 		.4byte	.LASF79
 1438 06aa 0D       		.byte	0xd
 1439 06ab F801     		.2byte	0x1f8
 1440 06ad 19       		.byte	0x19
 1441 06ae C6000000 		.4byte	0xc6
 1442 06b2 08       		.byte	0x8
 1443 06b3 0A       		.uleb128 0xa
 1444 06b4 0D000000 		.4byte	.LASF80
 1445 06b8 0D       		.byte	0xd
 1446 06b9 F901     		.2byte	0x1f9
 1447 06bb 19       		.byte	0x19
 1448 06bc C6000000 		.4byte	0xc6
 1449 06c0 0C       		.byte	0xc
 1450 06c1 09       		.uleb128 0x9
 1451 06c2 535200   		.ascii	"SR\000"
 1452 06c5 0D       		.byte	0xd
 1453 06c6 FA01     		.2byte	0x1fa
 1454 06c8 19       		.byte	0x19
 1455 06c9 C6000000 		.4byte	0xc6
 1456 06cd 10       		.byte	0x10
 1457 06ce 09       		.uleb128 0x9
 1458 06cf 45475200 		.ascii	"EGR\000"
 1459 06d3 0D       		.byte	0xd
 1460 06d4 FB01     		.2byte	0x1fb
 1461 06d6 19       		.byte	0x19
 1462 06d7 C6000000 		.4byte	0xc6
 1463 06db 14       		.byte	0x14
 1464 06dc 0A       		.uleb128 0xa
 1465 06dd 0A010000 		.4byte	.LASF81
 1466 06e1 0D       		.byte	0xd
 1467 06e2 FC01     		.2byte	0x1fc
 1468 06e4 19       		.byte	0x19
 1469 06e5 C6000000 		.4byte	0xc6
 1470 06e9 18       		.byte	0x18
 1471 06ea 0A       		.uleb128 0xa
 1472 06eb 87000000 		.4byte	.LASF82
 1473 06ef 0D       		.byte	0xd
 1474 06f0 FD01     		.2byte	0x1fd
 1475 06f2 19       		.byte	0x19
 1476 06f3 C6000000 		.4byte	0xc6
 1477 06f7 1C       		.byte	0x1c
 1478 06f8 0A       		.uleb128 0xa
 1479 06f9 D7040000 		.4byte	.LASF83
 1480 06fd 0D       		.byte	0xd
 1481 06fe FE01     		.2byte	0x1fe
 1482 0700 19       		.byte	0x19
ARM GAS  /tmp/ccWJTDeQ.s 			page 27


 1483 0701 C6000000 		.4byte	0xc6
 1484 0705 20       		.byte	0x20
 1485 0706 09       		.uleb128 0x9
 1486 0707 434E5400 		.ascii	"CNT\000"
 1487 070b 0D       		.byte	0xd
 1488 070c FF01     		.2byte	0x1ff
 1489 070e 19       		.byte	0x19
 1490 070f C6000000 		.4byte	0xc6
 1491 0713 24       		.byte	0x24
 1492 0714 09       		.uleb128 0x9
 1493 0715 50534300 		.ascii	"PSC\000"
 1494 0719 0D       		.byte	0xd
 1495 071a 0002     		.2byte	0x200
 1496 071c 19       		.byte	0x19
 1497 071d C6000000 		.4byte	0xc6
 1498 0721 28       		.byte	0x28
 1499 0722 09       		.uleb128 0x9
 1500 0723 41525200 		.ascii	"ARR\000"
 1501 0727 0D       		.byte	0xd
 1502 0728 0102     		.2byte	0x201
 1503 072a 19       		.byte	0x19
 1504 072b C6000000 		.4byte	0xc6
 1505 072f 2C       		.byte	0x2c
 1506 0730 09       		.uleb128 0x9
 1507 0731 52435200 		.ascii	"RCR\000"
 1508 0735 0D       		.byte	0xd
 1509 0736 0202     		.2byte	0x202
 1510 0738 19       		.byte	0x19
 1511 0739 C6000000 		.4byte	0xc6
 1512 073d 30       		.byte	0x30
 1513 073e 09       		.uleb128 0x9
 1514 073f 43435200 		.ascii	"CCR\000"
 1515 0743 0D       		.byte	0xd
 1516 0744 0302     		.2byte	0x203
 1517 0746 19       		.byte	0x19
 1518 0747 DC040000 		.4byte	0x4dc
 1519 074b 34       		.byte	0x34
 1520 074c 0A       		.uleb128 0xa
 1521 074d FC000000 		.4byte	.LASF84
 1522 0751 0D       		.byte	0xd
 1523 0752 0402     		.2byte	0x204
 1524 0754 19       		.byte	0x19
 1525 0755 C6000000 		.4byte	0xc6
 1526 0759 44       		.byte	0x44
 1527 075a 09       		.uleb128 0x9
 1528 075b 44435200 		.ascii	"DCR\000"
 1529 075f 0D       		.byte	0xd
 1530 0760 0502     		.2byte	0x205
 1531 0762 19       		.byte	0x19
 1532 0763 C6000000 		.4byte	0xc6
 1533 0767 48       		.byte	0x48
 1534 0768 0A       		.uleb128 0xa
 1535 0769 C9040000 		.4byte	.LASF85
 1536 076d 0D       		.byte	0xd
 1537 076e 0602     		.2byte	0x206
 1538 0770 19       		.byte	0x19
 1539 0771 C6000000 		.4byte	0xc6
ARM GAS  /tmp/ccWJTDeQ.s 			page 28


 1540 0775 4C       		.byte	0x4c
 1541 0776 09       		.uleb128 0x9
 1542 0777 4F5200   		.ascii	"OR\000"
 1543 077a 0D       		.byte	0xd
 1544 077b 0702     		.2byte	0x207
 1545 077d 19       		.byte	0x19
 1546 077e C6000000 		.4byte	0xc6
 1547 0782 50       		.byte	0x50
 1548 0783 0A       		.uleb128 0xa
 1549 0784 19010000 		.4byte	.LASF86
 1550 0788 0D       		.byte	0xd
 1551 0789 0802     		.2byte	0x208
 1552 078b 19       		.byte	0x19
 1553 078c C6000000 		.4byte	0xc6
 1554 0790 54       		.byte	0x54
 1555 0791 0A       		.uleb128 0xa
 1556 0792 21040000 		.4byte	.LASF87
 1557 0796 0D       		.byte	0xd
 1558 0797 0902     		.2byte	0x209
 1559 0799 19       		.byte	0x19
 1560 079a C7040000 		.4byte	0x4c7
 1561 079e 58       		.byte	0x58
 1562 079f 00       		.byte	0
 1563 07a0 13       		.uleb128 0x13
 1564 07a1 59020000 		.4byte	.LASF88
 1565 07a5 0D       		.byte	0xd
 1566 07a6 0A02     		.2byte	0x20a
 1567 07a8 03       		.byte	0x3
 1568 07a9 7F060000 		.4byte	0x67f
 1569 07ad 14       		.uleb128 0x14
 1570 07ae 04       		.byte	0x4
 1571 07af 0E       		.byte	0xe
 1572 07b0 38       		.byte	0x38
 1573 07b1 09       		.byte	0x9
 1574 07b2 C4070000 		.4byte	0x7c4
 1575 07b6 07       		.uleb128 0x7
 1576 07b7 F9040000 		.4byte	.LASF89
 1577 07bb 0E       		.byte	0xe
 1578 07bc 3C       		.byte	0x3c
 1579 07bd 19       		.byte	0x19
 1580 07be D7000000 		.4byte	0xd7
 1581 07c2 00       		.byte	0
 1582 07c3 00       		.byte	0
 1583 07c4 04       		.uleb128 0x4
 1584 07c5 00030000 		.4byte	.LASF90
 1585 07c9 0E       		.byte	0xe
 1586 07ca 3D       		.byte	0x3d
 1587 07cb 03       		.byte	0x3
 1588 07cc AD070000 		.4byte	0x7ad
 1589 07d0 14       		.uleb128 0x14
 1590 07d1 18       		.byte	0x18
 1591 07d2 0E       		.byte	0xe
 1592 07d3 48       		.byte	0x48
 1593 07d4 09       		.byte	0x9
 1594 07d5 19080000 		.4byte	0x819
 1595 07d9 07       		.uleb128 0x7
 1596 07da F9010000 		.4byte	.LASF91
ARM GAS  /tmp/ccWJTDeQ.s 			page 29


 1597 07de 0E       		.byte	0xe
 1598 07df 49       		.byte	0x49
 1599 07e0 19       		.byte	0x19
 1600 07e1 D7000000 		.4byte	0xd7
 1601 07e5 00       		.byte	0
 1602 07e6 07       		.uleb128 0x7
 1603 07e7 8D000000 		.4byte	.LASF92
 1604 07eb 0E       		.byte	0xe
 1605 07ec 4A       		.byte	0x4a
 1606 07ed 19       		.byte	0x19
 1607 07ee D7000000 		.4byte	0xd7
 1608 07f2 04       		.byte	0x4
 1609 07f3 07       		.uleb128 0x7
 1610 07f4 38020000 		.4byte	.LASF93
 1611 07f8 0E       		.byte	0xe
 1612 07f9 4B       		.byte	0x4b
 1613 07fa 19       		.byte	0x19
 1614 07fb D7000000 		.4byte	0xd7
 1615 07ff 08       		.byte	0x8
 1616 0800 08       		.uleb128 0x8
 1617 0801 6E00     		.ascii	"n\000"
 1618 0803 0E       		.byte	0xe
 1619 0804 4C       		.byte	0x4c
 1620 0805 19       		.byte	0x19
 1621 0806 43010000 		.4byte	0x143
 1622 080a 0C       		.byte	0xc
 1623 080b 07       		.uleb128 0x7
 1624 080c 60030000 		.4byte	.LASF94
 1625 0810 0E       		.byte	0xe
 1626 0811 4D       		.byte	0x4d
 1627 0812 19       		.byte	0x19
 1628 0813 E3000000 		.4byte	0xe3
 1629 0817 10       		.byte	0x10
 1630 0818 00       		.byte	0
 1631 0819 04       		.uleb128 0x4
 1632 081a 93000000 		.4byte	.LASF95
 1633 081e 0E       		.byte	0xe
 1634 081f 4E       		.byte	0x4e
 1635 0820 03       		.byte	0x3
 1636 0821 D0070000 		.4byte	0x7d0
 1637 0825 14       		.uleb128 0x14
 1638 0826 38       		.byte	0x38
 1639 0827 0F       		.byte	0xf
 1640 0828 38       		.byte	0x38
 1641 0829 09       		.byte	0x9
 1642 082a 63080000 		.4byte	0x863
 1643 082e 07       		.uleb128 0x7
 1644 082f E7010000 		.4byte	.LASF96
 1645 0833 0F       		.byte	0xf
 1646 0834 39       		.byte	0x39
 1647 0835 19       		.byte	0x19
 1648 0836 43010000 		.4byte	0x143
 1649 083a 00       		.byte	0
 1650 083b 07       		.uleb128 0x7
 1651 083c 9C030000 		.4byte	.LASF97
 1652 0840 0F       		.byte	0xf
 1653 0841 3A       		.byte	0x3a
ARM GAS  /tmp/ccWJTDeQ.s 			page 30


 1654 0842 19       		.byte	0x19
 1655 0843 43010000 		.4byte	0x143
 1656 0847 04       		.byte	0x4
 1657 0848 07       		.uleb128 0x7
 1658 0849 D2060000 		.4byte	.LASF98
 1659 084d 0F       		.byte	0xf
 1660 084e 3B       		.byte	0x3b
 1661 084f 19       		.byte	0x19
 1662 0850 19080000 		.4byte	0x819
 1663 0854 08       		.byte	0x8
 1664 0855 07       		.uleb128 0x7
 1665 0856 6D020000 		.4byte	.LASF99
 1666 085a 0F       		.byte	0xf
 1667 085b 3D       		.byte	0x3d
 1668 085c 19       		.byte	0x19
 1669 085d 19080000 		.4byte	0x819
 1670 0861 20       		.byte	0x20
 1671 0862 00       		.byte	0
 1672 0863 04       		.uleb128 0x4
 1673 0864 03020000 		.4byte	.LASF100
 1674 0868 0F       		.byte	0xf
 1675 0869 3F       		.byte	0x3f
 1676 086a 03       		.byte	0x3
 1677 086b 25080000 		.4byte	0x825
 1678 086f 15       		.uleb128 0x15
 1679 0870 04       		.byte	0x4
 1680 0871 0A       		.byte	0xa
 1681 0872 C6       		.byte	0xc6
 1682 0873 03       		.byte	0x3
 1683 0874 DA080000 		.4byte	0x8da
 1684 0878 16       		.uleb128 0x16
 1685 0879 23000000 		.4byte	.LASF101
 1686 087d 0A       		.byte	0xa
 1687 087e CD       		.byte	0xcd
 1688 087f 19       		.byte	0x19
 1689 0880 1F010000 		.4byte	0x11f
 1690 0884 16       		.uleb128 0x16
 1691 0885 CA000000 		.4byte	.LASF102
 1692 0889 0A       		.byte	0xa
 1693 088a D4       		.byte	0xd4
 1694 088b 19       		.byte	0x19
 1695 088c 1F010000 		.4byte	0x11f
 1696 0890 16       		.uleb128 0x16
 1697 0891 9E060000 		.4byte	.LASF103
 1698 0895 0A       		.byte	0xa
 1699 0896 DB       		.byte	0xdb
 1700 0897 1A       		.byte	0x1a
 1701 0898 52030000 		.4byte	0x352
 1702 089c 16       		.uleb128 0x16
 1703 089d 12000000 		.4byte	.LASF104
 1704 08a1 0A       		.byte	0xa
 1705 08a2 E2       		.byte	0xe2
 1706 08a3 1A       		.byte	0x1a
 1707 08a4 DA080000 		.4byte	0x8da
 1708 08a8 16       		.uleb128 0x16
 1709 08a9 DE000000 		.4byte	.LASF105
 1710 08ad 0A       		.byte	0xa
ARM GAS  /tmp/ccWJTDeQ.s 			page 31


 1711 08ae E7       		.byte	0xe7
 1712 08af 19       		.byte	0x19
 1713 08b0 1F010000 		.4byte	0x11f
 1714 08b4 16       		.uleb128 0x16
 1715 08b5 D1010000 		.4byte	.LASF106
 1716 08b9 0A       		.byte	0xa
 1717 08ba F0       		.byte	0xf0
 1718 08bb 1A       		.byte	0x1a
 1719 08bc 08090000 		.4byte	0x908
 1720 08c0 16       		.uleb128 0x16
 1721 08c1 42040000 		.4byte	.LASF107
 1722 08c5 0A       		.byte	0xa
 1723 08c6 F9       		.byte	0xf9
 1724 08c7 1A       		.byte	0x1a
 1725 08c8 50090000 		.4byte	0x950
 1726 08cc 17       		.uleb128 0x17
 1727 08cd DA030000 		.4byte	.LASF108
 1728 08d1 0A       		.byte	0xa
 1729 08d2 0101     		.2byte	0x101
 1730 08d4 19       		.byte	0x19
 1731 08d5 2B010000 		.4byte	0x12b
 1732 08d9 00       		.byte	0
 1733 08da 0B       		.uleb128 0xb
 1734 08db 04       		.byte	0x4
 1735 08dc 59020000 		.4byte	0x259
 1736 08e0 06       		.uleb128 0x6
 1737 08e1 14040000 		.4byte	.LASF109
 1738 08e5 0C       		.byte	0xc
 1739 08e6 10       		.byte	0x10
 1740 08e7 34       		.byte	0x34
 1741 08e8 10       		.byte	0x10
 1742 08e9 08090000 		.4byte	0x908
 1743 08ed 07       		.uleb128 0x7
 1744 08ee ED010000 		.4byte	.LASF29
 1745 08f2 10       		.byte	0x10
 1746 08f3 35       		.byte	0x35
 1747 08f4 19       		.byte	0x19
 1748 08f5 92020000 		.4byte	0x292
 1749 08f9 00       		.byte	0
 1750 08fa 08       		.uleb128 0x8
 1751 08fb 636E7400 		.ascii	"cnt\000"
 1752 08ff 10       		.byte	0x10
 1753 0900 37       		.byte	0x37
 1754 0901 19       		.byte	0x19
 1755 0902 37010000 		.4byte	0x137
 1756 0906 08       		.byte	0x8
 1757 0907 00       		.byte	0
 1758 0908 0B       		.uleb128 0xb
 1759 0909 04       		.byte	0x4
 1760 090a E0080000 		.4byte	0x8e0
 1761 090e 06       		.uleb128 0x6
 1762 090f 51050000 		.4byte	.LASF110
 1763 0913 14       		.byte	0x14
 1764 0914 11       		.byte	0x11
 1765 0915 39       		.byte	0x39
 1766 0916 08       		.byte	0x8
 1767 0917 50090000 		.4byte	0x950
ARM GAS  /tmp/ccWJTDeQ.s 			page 32


 1768 091b 07       		.uleb128 0x7
 1769 091c ED010000 		.4byte	.LASF29
 1770 0920 11       		.byte	0x11
 1771 0921 3A       		.byte	0x3a
 1772 0922 19       		.byte	0x19
 1773 0923 92020000 		.4byte	0x292
 1774 0927 00       		.byte	0
 1775 0928 07       		.uleb128 0x7
 1776 0929 59040000 		.4byte	.LASF111
 1777 092d 11       		.byte	0x11
 1778 092e 3C       		.byte	0x3c
 1779 092f 1A       		.byte	0x1a
 1780 0930 65020000 		.4byte	0x265
 1781 0934 08       		.byte	0x8
 1782 0935 07       		.uleb128 0x7
 1783 0936 18000000 		.4byte	.LASF49
 1784 093a 11       		.byte	0x11
 1785 093b 3E       		.byte	0x3e
 1786 093c 1A       		.byte	0x1a
 1787 093d 91090000 		.4byte	0x991
 1788 0941 0C       		.byte	0xc
 1789 0942 08       		.uleb128 0x8
 1790 0943 636E7400 		.ascii	"cnt\000"
 1791 0947 11       		.byte	0x11
 1792 0948 41       		.byte	0x41
 1793 0949 19       		.byte	0x19
 1794 094a 37010000 		.4byte	0x137
 1795 094e 10       		.byte	0x10
 1796 094f 00       		.byte	0
 1797 0950 0B       		.uleb128 0xb
 1798 0951 04       		.byte	0x4
 1799 0952 0E090000 		.4byte	0x90e
 1800 0956 0B       		.uleb128 0xb
 1801 0957 04       		.byte	0x4
 1802 0958 68090000 		.4byte	0x968
 1803 095c 05       		.uleb128 0x5
 1804 095d 56090000 		.4byte	0x956
 1805 0961 03       		.uleb128 0x3
 1806 0962 01       		.byte	0x1
 1807 0963 08       		.byte	0x8
 1808 0964 B1040000 		.4byte	.LASF112
 1809 0968 18       		.uleb128 0x18
 1810 0969 61090000 		.4byte	0x961
 1811 096d 0B       		.uleb128 0xb
 1812 096e 04       		.byte	0x4
 1813 096f ED040000 		.4byte	0x4ed
 1814 0973 0B       		.uleb128 0xb
 1815 0974 04       		.byte	0x4
 1816 0975 54030000 		.4byte	0x354
 1817 0979 19       		.uleb128 0x19
 1818 097a 636800   		.ascii	"ch\000"
 1819 097d 0A       		.byte	0xa
 1820 097e C701     		.2byte	0x1c7
 1821 0980 14       		.byte	0x14
 1822 0981 31040000 		.4byte	0x431
 1823 0985 04       		.uleb128 0x4
 1824 0986 CA060000 		.4byte	.LASF113
ARM GAS  /tmp/ccWJTDeQ.s 			page 33


 1825 098a 11       		.byte	0x11
 1826 098b 34       		.byte	0x34
 1827 098c 19       		.byte	0x19
 1828 098d 0E090000 		.4byte	0x90e
 1829 0991 0B       		.uleb128 0xb
 1830 0992 04       		.byte	0x4
 1831 0993 85090000 		.4byte	0x985
 1832 0997 03       		.uleb128 0x3
 1833 0998 01       		.byte	0x1
 1834 0999 02       		.byte	0x2
 1835 099a A5030000 		.4byte	.LASF114
 1836 099e 1A       		.uleb128 0x1a
 1837 099f BD000000 		.4byte	.LASF116
 1838 09a3 01       		.byte	0x1
 1839 09a4 D3       		.byte	0xd3
 1840 09a5 06       		.byte	0x6
 1841 09a6 00000000 		.4byte	.LFB303
 1842 09aa 68000000 		.4byte	.LFE303-.LFB303
 1843 09ae 01       		.uleb128 0x1
 1844 09af 9C       		.byte	0x9c
 1845 09b0 EA0A0000 		.4byte	0xaea
 1846 09b4 1B       		.uleb128 0x1b
 1847 09b5 76747000 		.ascii	"vtp\000"
 1848 09b9 01       		.byte	0x1
 1849 09ba D3       		.byte	0xd3
 1850 09bb 24       		.byte	0x24
 1851 09bc 73090000 		.4byte	0x973
 1852 09c0 0C000000 		.4byte	.LLST12
 1853 09c4 00000000 		.4byte	.LVUS12
 1854 09c8 1C       		.uleb128 0x1c
 1855 09c9 F3030000 		.4byte	.LASF120
 1856 09cd FA0A0000 		.4byte	0xafa
 1857 09d1 1D       		.uleb128 0x1d
 1858 09d2 C8010000 		.4byte	.LASF115
 1859 09d6 01       		.byte	0x1
 1860 09d7 E7       		.byte	0xe7
 1861 09d8 11       		.byte	0x11
 1862 09d9 AB040000 		.4byte	0x4ab
 1863 09dd 61000000 		.4byte	.LLST13
 1864 09e1 5F000000 		.4byte	.LVUS13
 1865 09e5 1D       		.uleb128 0x1d
 1866 09e6 1D000000 		.4byte	.LASF59
 1867 09ea 01       		.byte	0x1
 1868 09eb E7       		.byte	0xe7
 1869 09ec 1B       		.byte	0x1b
 1870 09ed AB040000 		.4byte	0x4ab
 1871 09f1 7A000000 		.4byte	.LLST14
 1872 09f5 74000000 		.4byte	.LVUS14
 1873 09f9 1E       		.uleb128 0x1e
 1874 09fa 350D0000 		.4byte	0xd35
 1875 09fe 34000000 		.4byte	.LBI69
 1876 0a02 01       		.byte	.LVU145
 1877 0a03 90000000 		.4byte	.Ldebug_ranges0+0x90
 1878 0a07 01       		.byte	0x1
 1879 0a08 FF       		.byte	0xff
 1880 0a09 05       		.byte	0x5
 1881 0a0a 180A0000 		.4byte	0xa18
ARM GAS  /tmp/ccWJTDeQ.s 			page 34


 1882 0a0e 1F       		.uleb128 0x1f
 1883 0a0f 3A000000 		.4byte	.LVL21
 1884 0a13 BF0D0000 		.4byte	0xdbf
 1885 0a17 00       		.byte	0
 1886 0a18 20       		.uleb128 0x20
 1887 0a19 010D0000 		.4byte	0xd01
 1888 0a1d 44000000 		.4byte	.LBI73
 1889 0a21 01       		.byte	.LVU156
 1890 0a22 A8000000 		.4byte	.Ldebug_ranges0+0xa8
 1891 0a26 01       		.byte	0x1
 1892 0a27 0E01     		.2byte	0x10e
 1893 0a29 0E       		.byte	0xe
 1894 0a2a 560A0000 		.4byte	0xa56
 1895 0a2e 21       		.uleb128 0x21
 1896 0a2f 0E0D0000 		.4byte	0xd0e
 1897 0a33 44000000 		.4byte	.LBI74
 1898 0a37 03       		.byte	.LVU158
 1899 0a38 B0000000 		.4byte	.Ldebug_ranges0+0xb0
 1900 0a3c 02       		.byte	0x2
 1901 0a3d 78       		.byte	0x78
 1902 0a3e 0A       		.byte	0xa
 1903 0a3f 22       		.uleb128 0x22
 1904 0a40 580D0000 		.4byte	0xd58
 1905 0a44 44000000 		.4byte	.LBI75
 1906 0a48 05       		.byte	.LVU160
 1907 0a49 44000000 		.4byte	.LBB75
 1908 0a4d 06000000 		.4byte	.LBE75-.LBB75
 1909 0a51 03       		.byte	0x3
 1910 0a52 6B       		.byte	0x6b
 1911 0a53 0A       		.byte	0xa
 1912 0a54 00       		.byte	0
 1913 0a55 00       		.byte	0
 1914 0a56 23       		.uleb128 0x23
 1915 0a57 650D0000 		.4byte	0xd65
 1916 0a5b 4A000000 		.4byte	.LBI80
 1917 0a5f 01       		.byte	.LVU164
 1918 0a60 4A000000 		.4byte	.LBB80
 1919 0a64 02000000 		.4byte	.LBE80-.LBB80
 1920 0a68 01       		.byte	0x1
 1921 0a69 0E01     		.2byte	0x10e
 1922 0a6b 0E       		.byte	0xe
 1923 0a6c 8B0A0000 		.4byte	0xa8b
 1924 0a70 24       		.uleb128 0x24
 1925 0a71 840D0000 		.4byte	0xd84
 1926 0a75 AD000000 		.4byte	.LLST15
 1927 0a79 AB000000 		.4byte	.LVUS15
 1928 0a7d 24       		.uleb128 0x24
 1929 0a7e 770D0000 		.4byte	0xd77
 1930 0a82 C2000000 		.4byte	.LLST16
 1931 0a86 C0000000 		.4byte	.LVUS16
 1932 0a8a 00       		.byte	0
 1933 0a8b 23       		.uleb128 0x23
 1934 0a8c 920D0000 		.4byte	0xd92
 1935 0a90 5A000000 		.4byte	.LBI82
 1936 0a94 01       		.byte	.LVU178
 1937 0a95 5A000000 		.4byte	.LBB82
 1938 0a99 00000000 		.4byte	.LBE82-.LBB82
ARM GAS  /tmp/ccWJTDeQ.s 			page 35


 1939 0a9d 01       		.byte	0x1
 1940 0a9e 2701     		.2byte	0x127
 1941 0aa0 03       		.byte	0x3
 1942 0aa1 C00A0000 		.4byte	0xac0
 1943 0aa5 24       		.uleb128 0x24
 1944 0aa6 B10D0000 		.4byte	0xdb1
 1945 0aaa D7000000 		.4byte	.LLST17
 1946 0aae D5000000 		.4byte	.LVUS17
 1947 0ab2 24       		.uleb128 0x24
 1948 0ab3 A40D0000 		.4byte	0xda4
 1949 0ab7 EC000000 		.4byte	.LLST18
 1950 0abb EA000000 		.4byte	.LVUS18
 1951 0abf 00       		.byte	0
 1952 0ac0 25       		.uleb128 0x25
 1953 0ac1 1B0D0000 		.4byte	0xd1b
 1954 0ac5 5A000000 		.4byte	.LBI84
 1955 0ac9 04       		.byte	.LVU181
 1956 0aca C8000000 		.4byte	.Ldebug_ranges0+0xc8
 1957 0ace 01       		.byte	0x1
 1958 0acf 2701     		.2byte	0x127
 1959 0ad1 03       		.byte	0x3
 1960 0ad2 24       		.uleb128 0x24
 1961 0ad3 280D0000 		.4byte	0xd28
 1962 0ad7 03010000 		.4byte	.LLST19
 1963 0adb FF000000 		.4byte	.LVUS19
 1964 0adf 1F       		.uleb128 0x1f
 1965 0ae0 62000000 		.4byte	.LVL30
 1966 0ae4 CB0D0000 		.4byte	0xdcb
 1967 0ae8 00       		.byte	0
 1968 0ae9 00       		.byte	0
 1969 0aea 10       		.uleb128 0x10
 1970 0aeb 68090000 		.4byte	0x968
 1971 0aef FA0A0000 		.4byte	0xafa
 1972 0af3 11       		.uleb128 0x11
 1973 0af4 2C000000 		.4byte	0x2c
 1974 0af8 0C       		.byte	0xc
 1975 0af9 00       		.byte	0
 1976 0afa 18       		.uleb128 0x18
 1977 0afb EA0A0000 		.4byte	0xaea
 1978 0aff 1A       		.uleb128 0x1a
 1979 0b00 86020000 		.4byte	.LASF117
 1980 0b04 01       		.byte	0x1
 1981 0b05 5F       		.byte	0x5f
 1982 0b06 06       		.byte	0x6
 1983 0b07 00000000 		.4byte	.LFB302
 1984 0b0b 74000000 		.4byte	.LFE302-.LFB302
 1985 0b0f 01       		.uleb128 0x1
 1986 0b10 9C       		.byte	0x9c
 1987 0b11 DA0C0000 		.4byte	0xcda
 1988 0b15 1B       		.uleb128 0x1b
 1989 0b16 76747000 		.ascii	"vtp\000"
 1990 0b1a 01       		.byte	0x1
 1991 0b1b 5F       		.byte	0x5f
 1992 0b1c 22       		.byte	0x22
 1993 0b1d 73090000 		.4byte	0x973
 1994 0b21 32010000 		.4byte	.LLST0
 1995 0b25 26010000 		.4byte	.LVUS0
ARM GAS  /tmp/ccWJTDeQ.s 			page 36


 1996 0b29 26       		.uleb128 0x26
 1997 0b2a C1030000 		.4byte	.LASF118
 1998 0b2e 01       		.byte	0x1
 1999 0b2f 5F       		.byte	0x5f
 2000 0b30 35       		.byte	0x35
 2001 0b31 AB040000 		.4byte	0x4ab
 2002 0b35 92010000 		.4byte	.LLST1
 2003 0b39 82010000 		.4byte	.LVUS1
 2004 0b3d 26       		.uleb128 0x26
 2005 0b3e 3A050000 		.4byte	.LASF119
 2006 0b42 01       		.byte	0x1
 2007 0b43 60       		.byte	0x60
 2008 0b44 1A       		.byte	0x1a
 2009 0b45 35030000 		.4byte	0x335
 2010 0b49 43020000 		.4byte	.LLST2
 2011 0b4d 37020000 		.4byte	.LVUS2
 2012 0b51 1B       		.uleb128 0x1b
 2013 0b52 70617200 		.ascii	"par\000"
 2014 0b56 01       		.byte	0x1
 2015 0b57 60       		.byte	0x60
 2016 0b58 28       		.byte	0x28
 2017 0b59 52030000 		.4byte	0x352
 2018 0b5d A8020000 		.4byte	.LLST3
 2019 0b61 96020000 		.4byte	.LVUS3
 2020 0b65 27       		.uleb128 0x27
 2021 0b66 7000     		.ascii	"p\000"
 2022 0b68 01       		.byte	0x1
 2023 0b69 61       		.byte	0x61
 2024 0b6a 14       		.byte	0x14
 2025 0b6b 73090000 		.4byte	0x973
 2026 0b6f 23030000 		.4byte	.LLST4
 2027 0b73 21030000 		.4byte	.LVUS4
 2028 0b77 1D       		.uleb128 0x1d
 2029 0b78 1D000000 		.4byte	.LASF59
 2030 0b7c 01       		.byte	0x1
 2031 0b7d 62       		.byte	0x62
 2032 0b7e 11       		.byte	0x11
 2033 0b7f AB040000 		.4byte	0x4ab
 2034 0b83 38030000 		.4byte	.LLST5
 2035 0b87 36030000 		.4byte	.LVUS5
 2036 0b8b 1C       		.uleb128 0x1c
 2037 0b8c F3030000 		.4byte	.LASF120
 2038 0b90 EA0C0000 		.4byte	0xcea
 2039 0b94 28       		.uleb128 0x28
 2040 0b95 00000000 		.4byte	.Ldebug_ranges0+0
 2041 0b99 29       		.uleb128 0x29
 2042 0b9a 6E6F7700 		.ascii	"now\000"
 2043 0b9e 01       		.byte	0x1
 2044 0b9f 6C       		.byte	0x6c
 2045 0ba0 0F       		.byte	0xf
 2046 0ba1 9F040000 		.4byte	0x49f
 2047 0ba5 2A       		.uleb128 0x2a
 2048 0ba6 4A000000 		.4byte	.LBB58
 2049 0baa 06000000 		.4byte	.LBE58-.LBB58
 2050 0bae 270C0000 		.4byte	0xc27
 2051 0bb2 1D       		.uleb128 0x1d
 2052 0bb3 D8010000 		.4byte	.LASF121
ARM GAS  /tmp/ccWJTDeQ.s 			page 37


 2053 0bb7 01       		.byte	0x1
 2054 0bb8 9C       		.byte	0x9c
 2055 0bb9 15       		.byte	0x15
 2056 0bba AB040000 		.4byte	0x4ab
 2057 0bbe 4D030000 		.4byte	.LLST8
 2058 0bc2 4B030000 		.4byte	.LVUS8
 2059 0bc6 2B       		.uleb128 0x2b
 2060 0bc7 920D0000 		.4byte	0xd92
 2061 0bcb 4A000000 		.4byte	.LBI59
 2062 0bcf 03       		.byte	.LVU80
 2063 0bd0 4A000000 		.4byte	.LBB59
 2064 0bd4 00000000 		.4byte	.LBE59-.LBB59
 2065 0bd8 01       		.byte	0x1
 2066 0bd9 A7       		.byte	0xa7
 2067 0bda 07       		.byte	0x7
 2068 0bdb FA0B0000 		.4byte	0xbfa
 2069 0bdf 24       		.uleb128 0x24
 2070 0be0 B10D0000 		.4byte	0xdb1
 2071 0be4 62030000 		.4byte	.LLST9
 2072 0be8 60030000 		.4byte	.LVUS9
 2073 0bec 24       		.uleb128 0x24
 2074 0bed A40D0000 		.4byte	0xda4
 2075 0bf1 77030000 		.4byte	.LLST10
 2076 0bf5 75030000 		.4byte	.LVUS10
 2077 0bf9 00       		.byte	0
 2078 0bfa 2C       		.uleb128 0x2c
 2079 0bfb 1B0D0000 		.4byte	0xd1b
 2080 0bff 4A000000 		.4byte	.LBI61
 2081 0c03 06       		.byte	.LVU83
 2082 0c04 4A000000 		.4byte	.LBB61
 2083 0c08 06000000 		.4byte	.LBE61-.LBB61
 2084 0c0c 01       		.byte	0x1
 2085 0c0d A7       		.byte	0xa7
 2086 0c0e 07       		.byte	0x7
 2087 0c0f 24       		.uleb128 0x24
 2088 0c10 280D0000 		.4byte	0xd28
 2089 0c14 8E030000 		.4byte	.LLST11
 2090 0c18 8A030000 		.4byte	.LVUS11
 2091 0c1c 2D       		.uleb128 0x2d
 2092 0c1d 50000000 		.4byte	.LVL16
 2093 0c21 CB0D0000 		.4byte	0xdcb
 2094 0c25 00       		.byte	0
 2095 0c26 00       		.byte	0
 2096 0c27 1E       		.uleb128 0x1e
 2097 0c28 010D0000 		.4byte	0xd01
 2098 0c2c 10000000 		.4byte	.LBI41
 2099 0c30 01       		.byte	.LVU22
 2100 0c31 40000000 		.4byte	.Ldebug_ranges0+0x40
 2101 0c35 01       		.byte	0x1
 2102 0c36 6C       		.byte	0x6c
 2103 0c37 15       		.byte	0x15
 2104 0c38 640C0000 		.4byte	0xc64
 2105 0c3c 21       		.uleb128 0x21
 2106 0c3d 0E0D0000 		.4byte	0xd0e
 2107 0c41 10000000 		.4byte	.LBI42
 2108 0c45 03       		.byte	.LVU24
 2109 0c46 48000000 		.4byte	.Ldebug_ranges0+0x48
ARM GAS  /tmp/ccWJTDeQ.s 			page 38


 2110 0c4a 02       		.byte	0x2
 2111 0c4b 78       		.byte	0x78
 2112 0c4c 0A       		.byte	0xa
 2113 0c4d 22       		.uleb128 0x22
 2114 0c4e 580D0000 		.4byte	0xd58
 2115 0c52 10000000 		.4byte	.LBI43
 2116 0c56 05       		.byte	.LVU26
 2117 0c57 10000000 		.4byte	.LBB43
 2118 0c5b 06000000 		.4byte	.LBE43-.LBB43
 2119 0c5f 03       		.byte	0x3
 2120 0c60 6B       		.byte	0x6b
 2121 0c61 0A       		.byte	0xa
 2122 0c62 00       		.byte	0
 2123 0c63 00       		.byte	0
 2124 0c64 2B       		.uleb128 0x2b
 2125 0c65 920D0000 		.4byte	0xd92
 2126 0c69 2C000000 		.4byte	.LBI48
 2127 0c6d 02       		.byte	.LVU44
 2128 0c6e 2C000000 		.4byte	.LBB48
 2129 0c72 00000000 		.4byte	.LBE48-.LBB48
 2130 0c76 01       		.byte	0x1
 2131 0c77 88       		.byte	0x88
 2132 0c78 07       		.byte	0x7
 2133 0c79 900C0000 		.4byte	0xc90
 2134 0c7d 24       		.uleb128 0x24
 2135 0c7e B10D0000 		.4byte	0xdb1
 2136 0c82 B3030000 		.4byte	.LLST6
 2137 0c86 B1030000 		.4byte	.LVUS6
 2138 0c8a 2E       		.uleb128 0x2e
 2139 0c8b A40D0000 		.4byte	0xda4
 2140 0c8f 00       		.byte	0
 2141 0c90 1E       		.uleb128 0x1e
 2142 0c91 3E0D0000 		.4byte	0xd3e
 2143 0c95 2C000000 		.4byte	.LBI50
 2144 0c99 05       		.byte	.LVU47
 2145 0c9a 60000000 		.4byte	.Ldebug_ranges0+0x60
 2146 0c9e 01       		.byte	0x1
 2147 0c9f 88       		.byte	0x88
 2148 0ca0 07       		.byte	0x7
 2149 0ca1 B40C0000 		.4byte	0xcb4
 2150 0ca5 2E       		.uleb128 0x2e
 2151 0ca6 4B0D0000 		.4byte	0xd4b
 2152 0caa 1F       		.uleb128 0x1f
 2153 0cab 36000000 		.4byte	.LVL7
 2154 0caf D70D0000 		.4byte	0xdd7
 2155 0cb3 00       		.byte	0
 2156 0cb4 21       		.uleb128 0x21
 2157 0cb5 650D0000 		.4byte	0xd65
 2158 0cb9 38000000 		.4byte	.LBI54
 2159 0cbd 00       		.byte	.LVU56
 2160 0cbe 78000000 		.4byte	.Ldebug_ranges0+0x78
 2161 0cc2 01       		.byte	0x1
 2162 0cc3 92       		.byte	0x92
 2163 0cc4 0D       		.byte	0xd
 2164 0cc5 2E       		.uleb128 0x2e
 2165 0cc6 840D0000 		.4byte	0xd84
 2166 0cca 24       		.uleb128 0x24
ARM GAS  /tmp/ccWJTDeQ.s 			page 39


 2167 0ccb 770D0000 		.4byte	0xd77
 2168 0ccf C8030000 		.4byte	.LLST7
 2169 0cd3 C6030000 		.4byte	.LVUS7
 2170 0cd7 00       		.byte	0
 2171 0cd8 00       		.byte	0
 2172 0cd9 00       		.byte	0
 2173 0cda 10       		.uleb128 0x10
 2174 0cdb 68090000 		.4byte	0x968
 2175 0cdf EA0C0000 		.4byte	0xcea
 2176 0ce3 11       		.uleb128 0x11
 2177 0ce4 2C000000 		.4byte	0x2c
 2178 0ce8 0A       		.byte	0xa
 2179 0ce9 00       		.byte	0
 2180 0cea 18       		.uleb128 0x18
 2181 0ceb DA0C0000 		.4byte	0xcda
 2182 0cef 2F       		.uleb128 0x2f
 2183 0cf0 10010000 		.4byte	.LASF139
 2184 0cf4 01       		.byte	0x1
 2185 0cf5 3D       		.byte	0x3d
 2186 0cf6 06       		.byte	0x6
 2187 0cf7 00000000 		.4byte	.LFB301
 2188 0cfb 1C000000 		.4byte	.LFE301-.LFB301
 2189 0cff 01       		.uleb128 0x1
 2190 0d00 9C       		.byte	0x9c
 2191 0d01 30       		.uleb128 0x30
 2192 0d02 B5010000 		.4byte	.LASF122
 2193 0d06 02       		.byte	0x2
 2194 0d07 73       		.byte	0x73
 2195 0d08 19       		.byte	0x19
 2196 0d09 9F040000 		.4byte	0x49f
 2197 0d0d 03       		.byte	0x3
 2198 0d0e 30       		.uleb128 0x30
 2199 0d0f 20050000 		.4byte	.LASF123
 2200 0d13 03       		.byte	0x3
 2201 0d14 69       		.byte	0x69
 2202 0d15 19       		.byte	0x19
 2203 0d16 9F040000 		.4byte	0x49f
 2204 0d1a 03       		.byte	0x3
 2205 0d1b 31       		.uleb128 0x31
 2206 0d1c 89060000 		.4byte	.LASF124
 2207 0d20 03       		.byte	0x3
 2208 0d21 5D       		.byte	0x5d
 2209 0d22 14       		.byte	0x14
 2210 0d23 03       		.byte	0x3
 2211 0d24 350D0000 		.4byte	0xd35
 2212 0d28 32       		.uleb128 0x32
 2213 0d29 38030000 		.4byte	.LASF126
 2214 0d2d 03       		.byte	0x3
 2215 0d2e 5D       		.byte	0x5d
 2216 0d2f 33       		.byte	0x33
 2217 0d30 9F040000 		.4byte	0x49f
 2218 0d34 00       		.byte	0
 2219 0d35 33       		.uleb128 0x33
 2220 0d36 73060000 		.4byte	.LASF140
 2221 0d3a 03       		.byte	0x3
 2222 0d3b 51       		.byte	0x51
 2223 0d3c 14       		.byte	0x14
ARM GAS  /tmp/ccWJTDeQ.s 			page 40


 2224 0d3d 03       		.byte	0x3
 2225 0d3e 31       		.uleb128 0x31
 2226 0d3f 21020000 		.4byte	.LASF125
 2227 0d43 03       		.byte	0x3
 2228 0d44 47       		.byte	0x47
 2229 0d45 14       		.byte	0x14
 2230 0d46 03       		.byte	0x3
 2231 0d47 580D0000 		.4byte	0xd58
 2232 0d4b 32       		.uleb128 0x32
 2233 0d4c 38030000 		.4byte	.LASF126
 2234 0d50 03       		.byte	0x3
 2235 0d51 47       		.byte	0x47
 2236 0d52 35       		.byte	0x35
 2237 0d53 9F040000 		.4byte	0x49f
 2238 0d57 00       		.byte	0
 2239 0d58 30       		.uleb128 0x30
 2240 0d59 26040000 		.4byte	.LASF127
 2241 0d5d 04       		.byte	0x4
 2242 0d5e A6       		.byte	0xa6
 2243 0d5f 19       		.byte	0x19
 2244 0d60 9F040000 		.4byte	0x49f
 2245 0d64 03       		.byte	0x3
 2246 0d65 34       		.uleb128 0x34
 2247 0d66 88030000 		.4byte	.LASF129
 2248 0d6a 05       		.byte	0x5
 2249 0d6b FE01     		.2byte	0x1fe
 2250 0d6d 1D       		.byte	0x1d
 2251 0d6e AB040000 		.4byte	0x4ab
 2252 0d72 03       		.byte	0x3
 2253 0d73 920D0000 		.4byte	0xd92
 2254 0d77 35       		.uleb128 0x35
 2255 0d78 BC060000 		.4byte	.LASF128
 2256 0d7c 05       		.byte	0x5
 2257 0d7d FE01     		.2byte	0x1fe
 2258 0d7f 33       		.byte	0x33
 2259 0d80 9F040000 		.4byte	0x49f
 2260 0d84 36       		.uleb128 0x36
 2261 0d85 656E6400 		.ascii	"end\000"
 2262 0d89 05       		.byte	0x5
 2263 0d8a FE01     		.2byte	0x1fe
 2264 0d8c 44       		.byte	0x44
 2265 0d8d 9F040000 		.4byte	0x49f
 2266 0d91 00       		.byte	0
 2267 0d92 34       		.uleb128 0x34
 2268 0d93 4A030000 		.4byte	.LASF130
 2269 0d97 05       		.byte	0x5
 2270 0d98 EB01     		.2byte	0x1eb
 2271 0d9a 19       		.byte	0x19
 2272 0d9b 9F040000 		.4byte	0x49f
 2273 0d9f 03       		.byte	0x3
 2274 0da0 BF0D0000 		.4byte	0xdbf
 2275 0da4 35       		.uleb128 0x35
 2276 0da5 65020000 		.4byte	.LASF131
 2277 0da9 05       		.byte	0x5
 2278 0daa EB01     		.2byte	0x1eb
 2279 0dac 2E       		.byte	0x2e
 2280 0dad 9F040000 		.4byte	0x49f
ARM GAS  /tmp/ccWJTDeQ.s 			page 41


 2281 0db1 35       		.uleb128 0x35
 2282 0db2 5E010000 		.4byte	.LASF132
 2283 0db6 05       		.byte	0x5
 2284 0db7 EC01     		.2byte	0x1ec
 2285 0db9 32       		.byte	0x32
 2286 0dba AB040000 		.4byte	0x4ab
 2287 0dbe 00       		.byte	0
 2288 0dbf 37       		.uleb128 0x37
 2289 0dc0 A5040000 		.4byte	.LASF133
 2290 0dc4 A5040000 		.4byte	.LASF133
 2291 0dc8 12       		.byte	0x12
 2292 0dc9 58       		.byte	0x58
 2293 0dca 08       		.byte	0x8
 2294 0dcb 37       		.uleb128 0x37
 2295 0dcc 62060000 		.4byte	.LASF134
 2296 0dd0 62060000 		.4byte	.LASF134
 2297 0dd4 12       		.byte	0x12
 2298 0dd5 59       		.byte	0x59
 2299 0dd6 08       		.byte	0x8
 2300 0dd7 37       		.uleb128 0x37
 2301 0dd8 00050000 		.4byte	.LASF135
 2302 0ddc 00050000 		.4byte	.LASF135
 2303 0de0 12       		.byte	0x12
 2304 0de1 57       		.byte	0x57
 2305 0de2 08       		.byte	0x8
 2306 0de3 00       		.byte	0
 2307              		.section	.debug_abbrev,"",%progbits
 2308              	.Ldebug_abbrev0:
 2309 0000 01       		.uleb128 0x1
 2310 0001 11       		.uleb128 0x11
 2311 0002 01       		.byte	0x1
 2312 0003 25       		.uleb128 0x25
 2313 0004 0E       		.uleb128 0xe
 2314 0005 13       		.uleb128 0x13
 2315 0006 0B       		.uleb128 0xb
 2316 0007 03       		.uleb128 0x3
 2317 0008 0E       		.uleb128 0xe
 2318 0009 1B       		.uleb128 0x1b
 2319 000a 0E       		.uleb128 0xe
 2320 000b 55       		.uleb128 0x55
 2321 000c 17       		.uleb128 0x17
 2322 000d 11       		.uleb128 0x11
 2323 000e 01       		.uleb128 0x1
 2324 000f 10       		.uleb128 0x10
 2325 0010 17       		.uleb128 0x17
 2326 0011 00       		.byte	0
 2327 0012 00       		.byte	0
 2328 0013 02       		.uleb128 0x2
 2329 0014 24       		.uleb128 0x24
 2330 0015 00       		.byte	0
 2331 0016 0B       		.uleb128 0xb
 2332 0017 0B       		.uleb128 0xb
 2333 0018 3E       		.uleb128 0x3e
 2334 0019 0B       		.uleb128 0xb
 2335 001a 03       		.uleb128 0x3
 2336 001b 08       		.uleb128 0x8
 2337 001c 00       		.byte	0
ARM GAS  /tmp/ccWJTDeQ.s 			page 42


 2338 001d 00       		.byte	0
 2339 001e 03       		.uleb128 0x3
 2340 001f 24       		.uleb128 0x24
 2341 0020 00       		.byte	0
 2342 0021 0B       		.uleb128 0xb
 2343 0022 0B       		.uleb128 0xb
 2344 0023 3E       		.uleb128 0x3e
 2345 0024 0B       		.uleb128 0xb
 2346 0025 03       		.uleb128 0x3
 2347 0026 0E       		.uleb128 0xe
 2348 0027 00       		.byte	0
 2349 0028 00       		.byte	0
 2350 0029 04       		.uleb128 0x4
 2351 002a 16       		.uleb128 0x16
 2352 002b 00       		.byte	0
 2353 002c 03       		.uleb128 0x3
 2354 002d 0E       		.uleb128 0xe
 2355 002e 3A       		.uleb128 0x3a
 2356 002f 0B       		.uleb128 0xb
 2357 0030 3B       		.uleb128 0x3b
 2358 0031 0B       		.uleb128 0xb
 2359 0032 39       		.uleb128 0x39
 2360 0033 0B       		.uleb128 0xb
 2361 0034 49       		.uleb128 0x49
 2362 0035 13       		.uleb128 0x13
 2363 0036 00       		.byte	0
 2364 0037 00       		.byte	0
 2365 0038 05       		.uleb128 0x5
 2366 0039 35       		.uleb128 0x35
 2367 003a 00       		.byte	0
 2368 003b 49       		.uleb128 0x49
 2369 003c 13       		.uleb128 0x13
 2370 003d 00       		.byte	0
 2371 003e 00       		.byte	0
 2372 003f 06       		.uleb128 0x6
 2373 0040 13       		.uleb128 0x13
 2374 0041 01       		.byte	0x1
 2375 0042 03       		.uleb128 0x3
 2376 0043 0E       		.uleb128 0xe
 2377 0044 0B       		.uleb128 0xb
 2378 0045 0B       		.uleb128 0xb
 2379 0046 3A       		.uleb128 0x3a
 2380 0047 0B       		.uleb128 0xb
 2381 0048 3B       		.uleb128 0x3b
 2382 0049 0B       		.uleb128 0xb
 2383 004a 39       		.uleb128 0x39
 2384 004b 0B       		.uleb128 0xb
 2385 004c 01       		.uleb128 0x1
 2386 004d 13       		.uleb128 0x13
 2387 004e 00       		.byte	0
 2388 004f 00       		.byte	0
 2389 0050 07       		.uleb128 0x7
 2390 0051 0D       		.uleb128 0xd
 2391 0052 00       		.byte	0
 2392 0053 03       		.uleb128 0x3
 2393 0054 0E       		.uleb128 0xe
 2394 0055 3A       		.uleb128 0x3a
ARM GAS  /tmp/ccWJTDeQ.s 			page 43


 2395 0056 0B       		.uleb128 0xb
 2396 0057 3B       		.uleb128 0x3b
 2397 0058 0B       		.uleb128 0xb
 2398 0059 39       		.uleb128 0x39
 2399 005a 0B       		.uleb128 0xb
 2400 005b 49       		.uleb128 0x49
 2401 005c 13       		.uleb128 0x13
 2402 005d 38       		.uleb128 0x38
 2403 005e 0B       		.uleb128 0xb
 2404 005f 00       		.byte	0
 2405 0060 00       		.byte	0
 2406 0061 08       		.uleb128 0x8
 2407 0062 0D       		.uleb128 0xd
 2408 0063 00       		.byte	0
 2409 0064 03       		.uleb128 0x3
 2410 0065 08       		.uleb128 0x8
 2411 0066 3A       		.uleb128 0x3a
 2412 0067 0B       		.uleb128 0xb
 2413 0068 3B       		.uleb128 0x3b
 2414 0069 0B       		.uleb128 0xb
 2415 006a 39       		.uleb128 0x39
 2416 006b 0B       		.uleb128 0xb
 2417 006c 49       		.uleb128 0x49
 2418 006d 13       		.uleb128 0x13
 2419 006e 38       		.uleb128 0x38
 2420 006f 0B       		.uleb128 0xb
 2421 0070 00       		.byte	0
 2422 0071 00       		.byte	0
 2423 0072 09       		.uleb128 0x9
 2424 0073 0D       		.uleb128 0xd
 2425 0074 00       		.byte	0
 2426 0075 03       		.uleb128 0x3
 2427 0076 08       		.uleb128 0x8
 2428 0077 3A       		.uleb128 0x3a
 2429 0078 0B       		.uleb128 0xb
 2430 0079 3B       		.uleb128 0x3b
 2431 007a 05       		.uleb128 0x5
 2432 007b 39       		.uleb128 0x39
 2433 007c 0B       		.uleb128 0xb
 2434 007d 49       		.uleb128 0x49
 2435 007e 13       		.uleb128 0x13
 2436 007f 38       		.uleb128 0x38
 2437 0080 0B       		.uleb128 0xb
 2438 0081 00       		.byte	0
 2439 0082 00       		.byte	0
 2440 0083 0A       		.uleb128 0xa
 2441 0084 0D       		.uleb128 0xd
 2442 0085 00       		.byte	0
 2443 0086 03       		.uleb128 0x3
 2444 0087 0E       		.uleb128 0xe
 2445 0088 3A       		.uleb128 0x3a
 2446 0089 0B       		.uleb128 0xb
 2447 008a 3B       		.uleb128 0x3b
 2448 008b 05       		.uleb128 0x5
 2449 008c 39       		.uleb128 0x39
 2450 008d 0B       		.uleb128 0xb
 2451 008e 49       		.uleb128 0x49
ARM GAS  /tmp/ccWJTDeQ.s 			page 44


 2452 008f 13       		.uleb128 0x13
 2453 0090 38       		.uleb128 0x38
 2454 0091 0B       		.uleb128 0xb
 2455 0092 00       		.byte	0
 2456 0093 00       		.byte	0
 2457 0094 0B       		.uleb128 0xb
 2458 0095 0F       		.uleb128 0xf
 2459 0096 00       		.byte	0
 2460 0097 0B       		.uleb128 0xb
 2461 0098 0B       		.uleb128 0xb
 2462 0099 49       		.uleb128 0x49
 2463 009a 13       		.uleb128 0x13
 2464 009b 00       		.byte	0
 2465 009c 00       		.byte	0
 2466 009d 0C       		.uleb128 0xc
 2467 009e 13       		.uleb128 0x13
 2468 009f 01       		.byte	0x1
 2469 00a0 03       		.uleb128 0x3
 2470 00a1 0E       		.uleb128 0xe
 2471 00a2 0B       		.uleb128 0xb
 2472 00a3 0B       		.uleb128 0xb
 2473 00a4 3A       		.uleb128 0x3a
 2474 00a5 0B       		.uleb128 0xb
 2475 00a6 3B       		.uleb128 0x3b
 2476 00a7 05       		.uleb128 0x5
 2477 00a8 39       		.uleb128 0x39
 2478 00a9 0B       		.uleb128 0xb
 2479 00aa 01       		.uleb128 0x1
 2480 00ab 13       		.uleb128 0x13
 2481 00ac 00       		.byte	0
 2482 00ad 00       		.byte	0
 2483 00ae 0D       		.uleb128 0xd
 2484 00af 15       		.uleb128 0x15
 2485 00b0 01       		.byte	0x1
 2486 00b1 27       		.uleb128 0x27
 2487 00b2 19       		.uleb128 0x19
 2488 00b3 01       		.uleb128 0x1
 2489 00b4 13       		.uleb128 0x13
 2490 00b5 00       		.byte	0
 2491 00b6 00       		.byte	0
 2492 00b7 0E       		.uleb128 0xe
 2493 00b8 05       		.uleb128 0x5
 2494 00b9 00       		.byte	0
 2495 00ba 49       		.uleb128 0x49
 2496 00bb 13       		.uleb128 0x13
 2497 00bc 00       		.byte	0
 2498 00bd 00       		.byte	0
 2499 00be 0F       		.uleb128 0xf
 2500 00bf 0F       		.uleb128 0xf
 2501 00c0 00       		.byte	0
 2502 00c1 0B       		.uleb128 0xb
 2503 00c2 0B       		.uleb128 0xb
 2504 00c3 00       		.byte	0
 2505 00c4 00       		.byte	0
 2506 00c5 10       		.uleb128 0x10
 2507 00c6 01       		.uleb128 0x1
 2508 00c7 01       		.byte	0x1
ARM GAS  /tmp/ccWJTDeQ.s 			page 45


 2509 00c8 49       		.uleb128 0x49
 2510 00c9 13       		.uleb128 0x13
 2511 00ca 01       		.uleb128 0x1
 2512 00cb 13       		.uleb128 0x13
 2513 00cc 00       		.byte	0
 2514 00cd 00       		.byte	0
 2515 00ce 11       		.uleb128 0x11
 2516 00cf 21       		.uleb128 0x21
 2517 00d0 00       		.byte	0
 2518 00d1 49       		.uleb128 0x49
 2519 00d2 13       		.uleb128 0x13
 2520 00d3 2F       		.uleb128 0x2f
 2521 00d4 0B       		.uleb128 0xb
 2522 00d5 00       		.byte	0
 2523 00d6 00       		.byte	0
 2524 00d7 12       		.uleb128 0x12
 2525 00d8 13       		.uleb128 0x13
 2526 00d9 01       		.byte	0x1
 2527 00da 0B       		.uleb128 0xb
 2528 00db 0B       		.uleb128 0xb
 2529 00dc 3A       		.uleb128 0x3a
 2530 00dd 0B       		.uleb128 0xb
 2531 00de 3B       		.uleb128 0x3b
 2532 00df 05       		.uleb128 0x5
 2533 00e0 39       		.uleb128 0x39
 2534 00e1 0B       		.uleb128 0xb
 2535 00e2 01       		.uleb128 0x1
 2536 00e3 13       		.uleb128 0x13
 2537 00e4 00       		.byte	0
 2538 00e5 00       		.byte	0
 2539 00e6 13       		.uleb128 0x13
 2540 00e7 16       		.uleb128 0x16
 2541 00e8 00       		.byte	0
 2542 00e9 03       		.uleb128 0x3
 2543 00ea 0E       		.uleb128 0xe
 2544 00eb 3A       		.uleb128 0x3a
 2545 00ec 0B       		.uleb128 0xb
 2546 00ed 3B       		.uleb128 0x3b
 2547 00ee 05       		.uleb128 0x5
 2548 00ef 39       		.uleb128 0x39
 2549 00f0 0B       		.uleb128 0xb
 2550 00f1 49       		.uleb128 0x49
 2551 00f2 13       		.uleb128 0x13
 2552 00f3 00       		.byte	0
 2553 00f4 00       		.byte	0
 2554 00f5 14       		.uleb128 0x14
 2555 00f6 13       		.uleb128 0x13
 2556 00f7 01       		.byte	0x1
 2557 00f8 0B       		.uleb128 0xb
 2558 00f9 0B       		.uleb128 0xb
 2559 00fa 3A       		.uleb128 0x3a
 2560 00fb 0B       		.uleb128 0xb
 2561 00fc 3B       		.uleb128 0x3b
 2562 00fd 0B       		.uleb128 0xb
 2563 00fe 39       		.uleb128 0x39
 2564 00ff 0B       		.uleb128 0xb
 2565 0100 01       		.uleb128 0x1
ARM GAS  /tmp/ccWJTDeQ.s 			page 46


 2566 0101 13       		.uleb128 0x13
 2567 0102 00       		.byte	0
 2568 0103 00       		.byte	0
 2569 0104 15       		.uleb128 0x15
 2570 0105 17       		.uleb128 0x17
 2571 0106 01       		.byte	0x1
 2572 0107 0B       		.uleb128 0xb
 2573 0108 0B       		.uleb128 0xb
 2574 0109 3A       		.uleb128 0x3a
 2575 010a 0B       		.uleb128 0xb
 2576 010b 3B       		.uleb128 0x3b
 2577 010c 0B       		.uleb128 0xb
 2578 010d 39       		.uleb128 0x39
 2579 010e 0B       		.uleb128 0xb
 2580 010f 01       		.uleb128 0x1
 2581 0110 13       		.uleb128 0x13
 2582 0111 00       		.byte	0
 2583 0112 00       		.byte	0
 2584 0113 16       		.uleb128 0x16
 2585 0114 0D       		.uleb128 0xd
 2586 0115 00       		.byte	0
 2587 0116 03       		.uleb128 0x3
 2588 0117 0E       		.uleb128 0xe
 2589 0118 3A       		.uleb128 0x3a
 2590 0119 0B       		.uleb128 0xb
 2591 011a 3B       		.uleb128 0x3b
 2592 011b 0B       		.uleb128 0xb
 2593 011c 39       		.uleb128 0x39
 2594 011d 0B       		.uleb128 0xb
 2595 011e 49       		.uleb128 0x49
 2596 011f 13       		.uleb128 0x13
 2597 0120 00       		.byte	0
 2598 0121 00       		.byte	0
 2599 0122 17       		.uleb128 0x17
 2600 0123 0D       		.uleb128 0xd
 2601 0124 00       		.byte	0
 2602 0125 03       		.uleb128 0x3
 2603 0126 0E       		.uleb128 0xe
 2604 0127 3A       		.uleb128 0x3a
 2605 0128 0B       		.uleb128 0xb
 2606 0129 3B       		.uleb128 0x3b
 2607 012a 05       		.uleb128 0x5
 2608 012b 39       		.uleb128 0x39
 2609 012c 0B       		.uleb128 0xb
 2610 012d 49       		.uleb128 0x49
 2611 012e 13       		.uleb128 0x13
 2612 012f 00       		.byte	0
 2613 0130 00       		.byte	0
 2614 0131 18       		.uleb128 0x18
 2615 0132 26       		.uleb128 0x26
 2616 0133 00       		.byte	0
 2617 0134 49       		.uleb128 0x49
 2618 0135 13       		.uleb128 0x13
 2619 0136 00       		.byte	0
 2620 0137 00       		.byte	0
 2621 0138 19       		.uleb128 0x19
 2622 0139 34       		.uleb128 0x34
ARM GAS  /tmp/ccWJTDeQ.s 			page 47


 2623 013a 00       		.byte	0
 2624 013b 03       		.uleb128 0x3
 2625 013c 08       		.uleb128 0x8
 2626 013d 3A       		.uleb128 0x3a
 2627 013e 0B       		.uleb128 0xb
 2628 013f 3B       		.uleb128 0x3b
 2629 0140 05       		.uleb128 0x5
 2630 0141 39       		.uleb128 0x39
 2631 0142 0B       		.uleb128 0xb
 2632 0143 49       		.uleb128 0x49
 2633 0144 13       		.uleb128 0x13
 2634 0145 3F       		.uleb128 0x3f
 2635 0146 19       		.uleb128 0x19
 2636 0147 3C       		.uleb128 0x3c
 2637 0148 19       		.uleb128 0x19
 2638 0149 00       		.byte	0
 2639 014a 00       		.byte	0
 2640 014b 1A       		.uleb128 0x1a
 2641 014c 2E       		.uleb128 0x2e
 2642 014d 01       		.byte	0x1
 2643 014e 3F       		.uleb128 0x3f
 2644 014f 19       		.uleb128 0x19
 2645 0150 03       		.uleb128 0x3
 2646 0151 0E       		.uleb128 0xe
 2647 0152 3A       		.uleb128 0x3a
 2648 0153 0B       		.uleb128 0xb
 2649 0154 3B       		.uleb128 0x3b
 2650 0155 0B       		.uleb128 0xb
 2651 0156 39       		.uleb128 0x39
 2652 0157 0B       		.uleb128 0xb
 2653 0158 27       		.uleb128 0x27
 2654 0159 19       		.uleb128 0x19
 2655 015a 11       		.uleb128 0x11
 2656 015b 01       		.uleb128 0x1
 2657 015c 12       		.uleb128 0x12
 2658 015d 06       		.uleb128 0x6
 2659 015e 40       		.uleb128 0x40
 2660 015f 18       		.uleb128 0x18
 2661 0160 9742     		.uleb128 0x2117
 2662 0162 19       		.uleb128 0x19
 2663 0163 01       		.uleb128 0x1
 2664 0164 13       		.uleb128 0x13
 2665 0165 00       		.byte	0
 2666 0166 00       		.byte	0
 2667 0167 1B       		.uleb128 0x1b
 2668 0168 05       		.uleb128 0x5
 2669 0169 00       		.byte	0
 2670 016a 03       		.uleb128 0x3
 2671 016b 08       		.uleb128 0x8
 2672 016c 3A       		.uleb128 0x3a
 2673 016d 0B       		.uleb128 0xb
 2674 016e 3B       		.uleb128 0x3b
 2675 016f 0B       		.uleb128 0xb
 2676 0170 39       		.uleb128 0x39
 2677 0171 0B       		.uleb128 0xb
 2678 0172 49       		.uleb128 0x49
 2679 0173 13       		.uleb128 0x13
ARM GAS  /tmp/ccWJTDeQ.s 			page 48


 2680 0174 02       		.uleb128 0x2
 2681 0175 17       		.uleb128 0x17
 2682 0176 B742     		.uleb128 0x2137
 2683 0178 17       		.uleb128 0x17
 2684 0179 00       		.byte	0
 2685 017a 00       		.byte	0
 2686 017b 1C       		.uleb128 0x1c
 2687 017c 34       		.uleb128 0x34
 2688 017d 00       		.byte	0
 2689 017e 03       		.uleb128 0x3
 2690 017f 0E       		.uleb128 0xe
 2691 0180 49       		.uleb128 0x49
 2692 0181 13       		.uleb128 0x13
 2693 0182 34       		.uleb128 0x34
 2694 0183 19       		.uleb128 0x19
 2695 0184 00       		.byte	0
 2696 0185 00       		.byte	0
 2697 0186 1D       		.uleb128 0x1d
 2698 0187 34       		.uleb128 0x34
 2699 0188 00       		.byte	0
 2700 0189 03       		.uleb128 0x3
 2701 018a 0E       		.uleb128 0xe
 2702 018b 3A       		.uleb128 0x3a
 2703 018c 0B       		.uleb128 0xb
 2704 018d 3B       		.uleb128 0x3b
 2705 018e 0B       		.uleb128 0xb
 2706 018f 39       		.uleb128 0x39
 2707 0190 0B       		.uleb128 0xb
 2708 0191 49       		.uleb128 0x49
 2709 0192 13       		.uleb128 0x13
 2710 0193 02       		.uleb128 0x2
 2711 0194 17       		.uleb128 0x17
 2712 0195 B742     		.uleb128 0x2137
 2713 0197 17       		.uleb128 0x17
 2714 0198 00       		.byte	0
 2715 0199 00       		.byte	0
 2716 019a 1E       		.uleb128 0x1e
 2717 019b 1D       		.uleb128 0x1d
 2718 019c 01       		.byte	0x1
 2719 019d 31       		.uleb128 0x31
 2720 019e 13       		.uleb128 0x13
 2721 019f 52       		.uleb128 0x52
 2722 01a0 01       		.uleb128 0x1
 2723 01a1 B842     		.uleb128 0x2138
 2724 01a3 0B       		.uleb128 0xb
 2725 01a4 55       		.uleb128 0x55
 2726 01a5 17       		.uleb128 0x17
 2727 01a6 58       		.uleb128 0x58
 2728 01a7 0B       		.uleb128 0xb
 2729 01a8 59       		.uleb128 0x59
 2730 01a9 0B       		.uleb128 0xb
 2731 01aa 57       		.uleb128 0x57
 2732 01ab 0B       		.uleb128 0xb
 2733 01ac 01       		.uleb128 0x1
 2734 01ad 13       		.uleb128 0x13
 2735 01ae 00       		.byte	0
 2736 01af 00       		.byte	0
ARM GAS  /tmp/ccWJTDeQ.s 			page 49


 2737 01b0 1F       		.uleb128 0x1f
 2738 01b1 898201   		.uleb128 0x4109
 2739 01b4 00       		.byte	0
 2740 01b5 11       		.uleb128 0x11
 2741 01b6 01       		.uleb128 0x1
 2742 01b7 9542     		.uleb128 0x2115
 2743 01b9 19       		.uleb128 0x19
 2744 01ba 31       		.uleb128 0x31
 2745 01bb 13       		.uleb128 0x13
 2746 01bc 00       		.byte	0
 2747 01bd 00       		.byte	0
 2748 01be 20       		.uleb128 0x20
 2749 01bf 1D       		.uleb128 0x1d
 2750 01c0 01       		.byte	0x1
 2751 01c1 31       		.uleb128 0x31
 2752 01c2 13       		.uleb128 0x13
 2753 01c3 52       		.uleb128 0x52
 2754 01c4 01       		.uleb128 0x1
 2755 01c5 B842     		.uleb128 0x2138
 2756 01c7 0B       		.uleb128 0xb
 2757 01c8 55       		.uleb128 0x55
 2758 01c9 17       		.uleb128 0x17
 2759 01ca 58       		.uleb128 0x58
 2760 01cb 0B       		.uleb128 0xb
 2761 01cc 59       		.uleb128 0x59
 2762 01cd 05       		.uleb128 0x5
 2763 01ce 57       		.uleb128 0x57
 2764 01cf 0B       		.uleb128 0xb
 2765 01d0 01       		.uleb128 0x1
 2766 01d1 13       		.uleb128 0x13
 2767 01d2 00       		.byte	0
 2768 01d3 00       		.byte	0
 2769 01d4 21       		.uleb128 0x21
 2770 01d5 1D       		.uleb128 0x1d
 2771 01d6 01       		.byte	0x1
 2772 01d7 31       		.uleb128 0x31
 2773 01d8 13       		.uleb128 0x13
 2774 01d9 52       		.uleb128 0x52
 2775 01da 01       		.uleb128 0x1
 2776 01db B842     		.uleb128 0x2138
 2777 01dd 0B       		.uleb128 0xb
 2778 01de 55       		.uleb128 0x55
 2779 01df 17       		.uleb128 0x17
 2780 01e0 58       		.uleb128 0x58
 2781 01e1 0B       		.uleb128 0xb
 2782 01e2 59       		.uleb128 0x59
 2783 01e3 0B       		.uleb128 0xb
 2784 01e4 57       		.uleb128 0x57
 2785 01e5 0B       		.uleb128 0xb
 2786 01e6 00       		.byte	0
 2787 01e7 00       		.byte	0
 2788 01e8 22       		.uleb128 0x22
 2789 01e9 1D       		.uleb128 0x1d
 2790 01ea 00       		.byte	0
 2791 01eb 31       		.uleb128 0x31
 2792 01ec 13       		.uleb128 0x13
 2793 01ed 52       		.uleb128 0x52
ARM GAS  /tmp/ccWJTDeQ.s 			page 50


 2794 01ee 01       		.uleb128 0x1
 2795 01ef B842     		.uleb128 0x2138
 2796 01f1 0B       		.uleb128 0xb
 2797 01f2 11       		.uleb128 0x11
 2798 01f3 01       		.uleb128 0x1
 2799 01f4 12       		.uleb128 0x12
 2800 01f5 06       		.uleb128 0x6
 2801 01f6 58       		.uleb128 0x58
 2802 01f7 0B       		.uleb128 0xb
 2803 01f8 59       		.uleb128 0x59
 2804 01f9 0B       		.uleb128 0xb
 2805 01fa 57       		.uleb128 0x57
 2806 01fb 0B       		.uleb128 0xb
 2807 01fc 00       		.byte	0
 2808 01fd 00       		.byte	0
 2809 01fe 23       		.uleb128 0x23
 2810 01ff 1D       		.uleb128 0x1d
 2811 0200 01       		.byte	0x1
 2812 0201 31       		.uleb128 0x31
 2813 0202 13       		.uleb128 0x13
 2814 0203 52       		.uleb128 0x52
 2815 0204 01       		.uleb128 0x1
 2816 0205 B842     		.uleb128 0x2138
 2817 0207 0B       		.uleb128 0xb
 2818 0208 11       		.uleb128 0x11
 2819 0209 01       		.uleb128 0x1
 2820 020a 12       		.uleb128 0x12
 2821 020b 06       		.uleb128 0x6
 2822 020c 58       		.uleb128 0x58
 2823 020d 0B       		.uleb128 0xb
 2824 020e 59       		.uleb128 0x59
 2825 020f 05       		.uleb128 0x5
 2826 0210 57       		.uleb128 0x57
 2827 0211 0B       		.uleb128 0xb
 2828 0212 01       		.uleb128 0x1
 2829 0213 13       		.uleb128 0x13
 2830 0214 00       		.byte	0
 2831 0215 00       		.byte	0
 2832 0216 24       		.uleb128 0x24
 2833 0217 05       		.uleb128 0x5
 2834 0218 00       		.byte	0
 2835 0219 31       		.uleb128 0x31
 2836 021a 13       		.uleb128 0x13
 2837 021b 02       		.uleb128 0x2
 2838 021c 17       		.uleb128 0x17
 2839 021d B742     		.uleb128 0x2137
 2840 021f 17       		.uleb128 0x17
 2841 0220 00       		.byte	0
 2842 0221 00       		.byte	0
 2843 0222 25       		.uleb128 0x25
 2844 0223 1D       		.uleb128 0x1d
 2845 0224 01       		.byte	0x1
 2846 0225 31       		.uleb128 0x31
 2847 0226 13       		.uleb128 0x13
 2848 0227 52       		.uleb128 0x52
 2849 0228 01       		.uleb128 0x1
 2850 0229 B842     		.uleb128 0x2138
ARM GAS  /tmp/ccWJTDeQ.s 			page 51


 2851 022b 0B       		.uleb128 0xb
 2852 022c 55       		.uleb128 0x55
 2853 022d 17       		.uleb128 0x17
 2854 022e 58       		.uleb128 0x58
 2855 022f 0B       		.uleb128 0xb
 2856 0230 59       		.uleb128 0x59
 2857 0231 05       		.uleb128 0x5
 2858 0232 57       		.uleb128 0x57
 2859 0233 0B       		.uleb128 0xb
 2860 0234 00       		.byte	0
 2861 0235 00       		.byte	0
 2862 0236 26       		.uleb128 0x26
 2863 0237 05       		.uleb128 0x5
 2864 0238 00       		.byte	0
 2865 0239 03       		.uleb128 0x3
 2866 023a 0E       		.uleb128 0xe
 2867 023b 3A       		.uleb128 0x3a
 2868 023c 0B       		.uleb128 0xb
 2869 023d 3B       		.uleb128 0x3b
 2870 023e 0B       		.uleb128 0xb
 2871 023f 39       		.uleb128 0x39
 2872 0240 0B       		.uleb128 0xb
 2873 0241 49       		.uleb128 0x49
 2874 0242 13       		.uleb128 0x13
 2875 0243 02       		.uleb128 0x2
 2876 0244 17       		.uleb128 0x17
 2877 0245 B742     		.uleb128 0x2137
 2878 0247 17       		.uleb128 0x17
 2879 0248 00       		.byte	0
 2880 0249 00       		.byte	0
 2881 024a 27       		.uleb128 0x27
 2882 024b 34       		.uleb128 0x34
 2883 024c 00       		.byte	0
 2884 024d 03       		.uleb128 0x3
 2885 024e 08       		.uleb128 0x8
 2886 024f 3A       		.uleb128 0x3a
 2887 0250 0B       		.uleb128 0xb
 2888 0251 3B       		.uleb128 0x3b
 2889 0252 0B       		.uleb128 0xb
 2890 0253 39       		.uleb128 0x39
 2891 0254 0B       		.uleb128 0xb
 2892 0255 49       		.uleb128 0x49
 2893 0256 13       		.uleb128 0x13
 2894 0257 02       		.uleb128 0x2
 2895 0258 17       		.uleb128 0x17
 2896 0259 B742     		.uleb128 0x2137
 2897 025b 17       		.uleb128 0x17
 2898 025c 00       		.byte	0
 2899 025d 00       		.byte	0
 2900 025e 28       		.uleb128 0x28
 2901 025f 0B       		.uleb128 0xb
 2902 0260 01       		.byte	0x1
 2903 0261 55       		.uleb128 0x55
 2904 0262 17       		.uleb128 0x17
 2905 0263 00       		.byte	0
 2906 0264 00       		.byte	0
 2907 0265 29       		.uleb128 0x29
ARM GAS  /tmp/ccWJTDeQ.s 			page 52


 2908 0266 34       		.uleb128 0x34
 2909 0267 00       		.byte	0
 2910 0268 03       		.uleb128 0x3
 2911 0269 08       		.uleb128 0x8
 2912 026a 3A       		.uleb128 0x3a
 2913 026b 0B       		.uleb128 0xb
 2914 026c 3B       		.uleb128 0x3b
 2915 026d 0B       		.uleb128 0xb
 2916 026e 39       		.uleb128 0x39
 2917 026f 0B       		.uleb128 0xb
 2918 0270 49       		.uleb128 0x49
 2919 0271 13       		.uleb128 0x13
 2920 0272 00       		.byte	0
 2921 0273 00       		.byte	0
 2922 0274 2A       		.uleb128 0x2a
 2923 0275 0B       		.uleb128 0xb
 2924 0276 01       		.byte	0x1
 2925 0277 11       		.uleb128 0x11
 2926 0278 01       		.uleb128 0x1
 2927 0279 12       		.uleb128 0x12
 2928 027a 06       		.uleb128 0x6
 2929 027b 01       		.uleb128 0x1
 2930 027c 13       		.uleb128 0x13
 2931 027d 00       		.byte	0
 2932 027e 00       		.byte	0
 2933 027f 2B       		.uleb128 0x2b
 2934 0280 1D       		.uleb128 0x1d
 2935 0281 01       		.byte	0x1
 2936 0282 31       		.uleb128 0x31
 2937 0283 13       		.uleb128 0x13
 2938 0284 52       		.uleb128 0x52
 2939 0285 01       		.uleb128 0x1
 2940 0286 B842     		.uleb128 0x2138
 2941 0288 0B       		.uleb128 0xb
 2942 0289 11       		.uleb128 0x11
 2943 028a 01       		.uleb128 0x1
 2944 028b 12       		.uleb128 0x12
 2945 028c 06       		.uleb128 0x6
 2946 028d 58       		.uleb128 0x58
 2947 028e 0B       		.uleb128 0xb
 2948 028f 59       		.uleb128 0x59
 2949 0290 0B       		.uleb128 0xb
 2950 0291 57       		.uleb128 0x57
 2951 0292 0B       		.uleb128 0xb
 2952 0293 01       		.uleb128 0x1
 2953 0294 13       		.uleb128 0x13
 2954 0295 00       		.byte	0
 2955 0296 00       		.byte	0
 2956 0297 2C       		.uleb128 0x2c
 2957 0298 1D       		.uleb128 0x1d
 2958 0299 01       		.byte	0x1
 2959 029a 31       		.uleb128 0x31
 2960 029b 13       		.uleb128 0x13
 2961 029c 52       		.uleb128 0x52
 2962 029d 01       		.uleb128 0x1
 2963 029e B842     		.uleb128 0x2138
 2964 02a0 0B       		.uleb128 0xb
ARM GAS  /tmp/ccWJTDeQ.s 			page 53


 2965 02a1 11       		.uleb128 0x11
 2966 02a2 01       		.uleb128 0x1
 2967 02a3 12       		.uleb128 0x12
 2968 02a4 06       		.uleb128 0x6
 2969 02a5 58       		.uleb128 0x58
 2970 02a6 0B       		.uleb128 0xb
 2971 02a7 59       		.uleb128 0x59
 2972 02a8 0B       		.uleb128 0xb
 2973 02a9 57       		.uleb128 0x57
 2974 02aa 0B       		.uleb128 0xb
 2975 02ab 00       		.byte	0
 2976 02ac 00       		.byte	0
 2977 02ad 2D       		.uleb128 0x2d
 2978 02ae 898201   		.uleb128 0x4109
 2979 02b1 00       		.byte	0
 2980 02b2 11       		.uleb128 0x11
 2981 02b3 01       		.uleb128 0x1
 2982 02b4 31       		.uleb128 0x31
 2983 02b5 13       		.uleb128 0x13
 2984 02b6 00       		.byte	0
 2985 02b7 00       		.byte	0
 2986 02b8 2E       		.uleb128 0x2e
 2987 02b9 05       		.uleb128 0x5
 2988 02ba 00       		.byte	0
 2989 02bb 31       		.uleb128 0x31
 2990 02bc 13       		.uleb128 0x13
 2991 02bd 00       		.byte	0
 2992 02be 00       		.byte	0
 2993 02bf 2F       		.uleb128 0x2f
 2994 02c0 2E       		.uleb128 0x2e
 2995 02c1 00       		.byte	0
 2996 02c2 3F       		.uleb128 0x3f
 2997 02c3 19       		.uleb128 0x19
 2998 02c4 03       		.uleb128 0x3
 2999 02c5 0E       		.uleb128 0xe
 3000 02c6 3A       		.uleb128 0x3a
 3001 02c7 0B       		.uleb128 0xb
 3002 02c8 3B       		.uleb128 0x3b
 3003 02c9 0B       		.uleb128 0xb
 3004 02ca 39       		.uleb128 0x39
 3005 02cb 0B       		.uleb128 0xb
 3006 02cc 27       		.uleb128 0x27
 3007 02cd 19       		.uleb128 0x19
 3008 02ce 11       		.uleb128 0x11
 3009 02cf 01       		.uleb128 0x1
 3010 02d0 12       		.uleb128 0x12
 3011 02d1 06       		.uleb128 0x6
 3012 02d2 40       		.uleb128 0x40
 3013 02d3 18       		.uleb128 0x18
 3014 02d4 9742     		.uleb128 0x2117
 3015 02d6 19       		.uleb128 0x19
 3016 02d7 00       		.byte	0
 3017 02d8 00       		.byte	0
 3018 02d9 30       		.uleb128 0x30
 3019 02da 2E       		.uleb128 0x2e
 3020 02db 00       		.byte	0
 3021 02dc 03       		.uleb128 0x3
ARM GAS  /tmp/ccWJTDeQ.s 			page 54


 3022 02dd 0E       		.uleb128 0xe
 3023 02de 3A       		.uleb128 0x3a
 3024 02df 0B       		.uleb128 0xb
 3025 02e0 3B       		.uleb128 0x3b
 3026 02e1 0B       		.uleb128 0xb
 3027 02e2 39       		.uleb128 0x39
 3028 02e3 0B       		.uleb128 0xb
 3029 02e4 27       		.uleb128 0x27
 3030 02e5 19       		.uleb128 0x19
 3031 02e6 49       		.uleb128 0x49
 3032 02e7 13       		.uleb128 0x13
 3033 02e8 20       		.uleb128 0x20
 3034 02e9 0B       		.uleb128 0xb
 3035 02ea 00       		.byte	0
 3036 02eb 00       		.byte	0
 3037 02ec 31       		.uleb128 0x31
 3038 02ed 2E       		.uleb128 0x2e
 3039 02ee 01       		.byte	0x1
 3040 02ef 03       		.uleb128 0x3
 3041 02f0 0E       		.uleb128 0xe
 3042 02f1 3A       		.uleb128 0x3a
 3043 02f2 0B       		.uleb128 0xb
 3044 02f3 3B       		.uleb128 0x3b
 3045 02f4 0B       		.uleb128 0xb
 3046 02f5 39       		.uleb128 0x39
 3047 02f6 0B       		.uleb128 0xb
 3048 02f7 27       		.uleb128 0x27
 3049 02f8 19       		.uleb128 0x19
 3050 02f9 20       		.uleb128 0x20
 3051 02fa 0B       		.uleb128 0xb
 3052 02fb 01       		.uleb128 0x1
 3053 02fc 13       		.uleb128 0x13
 3054 02fd 00       		.byte	0
 3055 02fe 00       		.byte	0
 3056 02ff 32       		.uleb128 0x32
 3057 0300 05       		.uleb128 0x5
 3058 0301 00       		.byte	0
 3059 0302 03       		.uleb128 0x3
 3060 0303 0E       		.uleb128 0xe
 3061 0304 3A       		.uleb128 0x3a
 3062 0305 0B       		.uleb128 0xb
 3063 0306 3B       		.uleb128 0x3b
 3064 0307 0B       		.uleb128 0xb
 3065 0308 39       		.uleb128 0x39
 3066 0309 0B       		.uleb128 0xb
 3067 030a 49       		.uleb128 0x49
 3068 030b 13       		.uleb128 0x13
 3069 030c 00       		.byte	0
 3070 030d 00       		.byte	0
 3071 030e 33       		.uleb128 0x33
 3072 030f 2E       		.uleb128 0x2e
 3073 0310 00       		.byte	0
 3074 0311 03       		.uleb128 0x3
 3075 0312 0E       		.uleb128 0xe
 3076 0313 3A       		.uleb128 0x3a
 3077 0314 0B       		.uleb128 0xb
 3078 0315 3B       		.uleb128 0x3b
ARM GAS  /tmp/ccWJTDeQ.s 			page 55


 3079 0316 0B       		.uleb128 0xb
 3080 0317 39       		.uleb128 0x39
 3081 0318 0B       		.uleb128 0xb
 3082 0319 27       		.uleb128 0x27
 3083 031a 19       		.uleb128 0x19
 3084 031b 20       		.uleb128 0x20
 3085 031c 0B       		.uleb128 0xb
 3086 031d 00       		.byte	0
 3087 031e 00       		.byte	0
 3088 031f 34       		.uleb128 0x34
 3089 0320 2E       		.uleb128 0x2e
 3090 0321 01       		.byte	0x1
 3091 0322 03       		.uleb128 0x3
 3092 0323 0E       		.uleb128 0xe
 3093 0324 3A       		.uleb128 0x3a
 3094 0325 0B       		.uleb128 0xb
 3095 0326 3B       		.uleb128 0x3b
 3096 0327 05       		.uleb128 0x5
 3097 0328 39       		.uleb128 0x39
 3098 0329 0B       		.uleb128 0xb
 3099 032a 27       		.uleb128 0x27
 3100 032b 19       		.uleb128 0x19
 3101 032c 49       		.uleb128 0x49
 3102 032d 13       		.uleb128 0x13
 3103 032e 20       		.uleb128 0x20
 3104 032f 0B       		.uleb128 0xb
 3105 0330 01       		.uleb128 0x1
 3106 0331 13       		.uleb128 0x13
 3107 0332 00       		.byte	0
 3108 0333 00       		.byte	0
 3109 0334 35       		.uleb128 0x35
 3110 0335 05       		.uleb128 0x5
 3111 0336 00       		.byte	0
 3112 0337 03       		.uleb128 0x3
 3113 0338 0E       		.uleb128 0xe
 3114 0339 3A       		.uleb128 0x3a
 3115 033a 0B       		.uleb128 0xb
 3116 033b 3B       		.uleb128 0x3b
 3117 033c 05       		.uleb128 0x5
 3118 033d 39       		.uleb128 0x39
 3119 033e 0B       		.uleb128 0xb
 3120 033f 49       		.uleb128 0x49
 3121 0340 13       		.uleb128 0x13
 3122 0341 00       		.byte	0
 3123 0342 00       		.byte	0
 3124 0343 36       		.uleb128 0x36
 3125 0344 05       		.uleb128 0x5
 3126 0345 00       		.byte	0
 3127 0346 03       		.uleb128 0x3
 3128 0347 08       		.uleb128 0x8
 3129 0348 3A       		.uleb128 0x3a
 3130 0349 0B       		.uleb128 0xb
 3131 034a 3B       		.uleb128 0x3b
 3132 034b 05       		.uleb128 0x5
 3133 034c 39       		.uleb128 0x39
 3134 034d 0B       		.uleb128 0xb
 3135 034e 49       		.uleb128 0x49
ARM GAS  /tmp/ccWJTDeQ.s 			page 56


 3136 034f 13       		.uleb128 0x13
 3137 0350 00       		.byte	0
 3138 0351 00       		.byte	0
 3139 0352 37       		.uleb128 0x37
 3140 0353 2E       		.uleb128 0x2e
 3141 0354 00       		.byte	0
 3142 0355 3F       		.uleb128 0x3f
 3143 0356 19       		.uleb128 0x19
 3144 0357 3C       		.uleb128 0x3c
 3145 0358 19       		.uleb128 0x19
 3146 0359 6E       		.uleb128 0x6e
 3147 035a 0E       		.uleb128 0xe
 3148 035b 03       		.uleb128 0x3
 3149 035c 0E       		.uleb128 0xe
 3150 035d 3A       		.uleb128 0x3a
 3151 035e 0B       		.uleb128 0xb
 3152 035f 3B       		.uleb128 0x3b
 3153 0360 0B       		.uleb128 0xb
 3154 0361 39       		.uleb128 0x39
 3155 0362 0B       		.uleb128 0xb
 3156 0363 00       		.byte	0
 3157 0364 00       		.byte	0
 3158 0365 00       		.byte	0
 3159              		.section	.debug_loc,"",%progbits
 3160              	.Ldebug_loc0:
 3161              	.LVUS12:
 3162 0000 00       		.uleb128 0
 3163 0001 00       		.uleb128 .LVU134
 3164 0002 00       		.uleb128 .LVU134
 3165 0003 00       		.uleb128 .LVU135
 3166 0004 00       		.uleb128 .LVU135
 3167 0005 00       		.uleb128 .LVU149
 3168 0006 00       		.uleb128 .LVU149
 3169 0007 00       		.uleb128 .LVU149
 3170 0008 00       		.uleb128 .LVU149
 3171 0009 00       		.uleb128 .LVU152
 3172 000a 00       		.uleb128 .LVU152
 3173 000b 00       		.uleb128 0
 3174              	.LLST12:
 3175 000c 00000000 		.4byte	.LVL18
 3176 0010 26000000 		.4byte	.LVL19
 3177 0014 0100     		.2byte	0x1
 3178 0016 50       		.byte	0x50
 3179 0017 26000000 		.4byte	.LVL19
 3180 001b 2A000000 		.4byte	.LVL20
 3181 001f 0400     		.2byte	0x4
 3182 0021 F3       		.byte	0xf3
 3183 0022 01       		.uleb128 0x1
 3184 0023 50       		.byte	0x50
 3185 0024 9F       		.byte	0x9f
 3186 0025 2A000000 		.4byte	.LVL20
 3187 0029 39000000 		.4byte	.LVL21-1
 3188 002d 0100     		.2byte	0x1
 3189 002f 50       		.byte	0x50
 3190 0030 39000000 		.4byte	.LVL21-1
 3191 0034 3A000000 		.4byte	.LVL21
 3192 0038 0400     		.2byte	0x4
ARM GAS  /tmp/ccWJTDeQ.s 			page 57


 3193 003a F3       		.byte	0xf3
 3194 003b 01       		.uleb128 0x1
 3195 003c 50       		.byte	0x50
 3196 003d 9F       		.byte	0x9f
 3197 003e 3A000000 		.4byte	.LVL21
 3198 0042 3E000000 		.4byte	.LVL22
 3199 0046 0100     		.2byte	0x1
 3200 0048 50       		.byte	0x50
 3201 0049 3E000000 		.4byte	.LVL22
 3202 004d 68000000 		.4byte	.LFE303
 3203 0051 0400     		.2byte	0x4
 3204 0053 F3       		.byte	0xf3
 3205 0054 01       		.uleb128 0x1
 3206 0055 50       		.byte	0x50
 3207 0056 9F       		.byte	0x9f
 3208 0057 00000000 		.4byte	0
 3209 005b 00000000 		.4byte	0
 3210              	.LVUS13:
 3211 005f 00       		.uleb128 .LVU167
 3212 0060 00       		.uleb128 .LVU186
 3213              	.LLST13:
 3214 0061 4C000000 		.4byte	.LVL24
 3215 0065 61000000 		.4byte	.LVL30-1
 3216 0069 0100     		.2byte	0x1
 3217 006b 51       		.byte	0x51
 3218 006c 00000000 		.4byte	0
 3219 0070 00000000 		.4byte	0
 3220              	.LVUS14:
 3221 0074 01       		.uleb128 .LVU171
 3222 0075 00       		.uleb128 .LVU173
 3223 0076 00       		.uleb128 .LVU174
 3224 0077 00       		.uleb128 .LVU177
 3225 0078 00       		.uleb128 .LVU177
 3226 0079 00       		.uleb128 .LVU186
 3227              	.LLST14:
 3228 007a 50000000 		.4byte	.LVL25
 3229 007e 52000000 		.4byte	.LVL26
 3230 0082 0900     		.2byte	0x9
 3231 0084 70       		.byte	0x70
 3232 0085 00       		.sleb128 0
 3233 0086 73       		.byte	0x73
 3234 0087 00       		.sleb128 0
 3235 0088 1C       		.byte	0x1c
 3236 0089 72       		.byte	0x72
 3237 008a 00       		.sleb128 0
 3238 008b 22       		.byte	0x22
 3239 008c 9F       		.byte	0x9f
 3240 008d 54000000 		.4byte	.LVL27
 3241 0091 5A000000 		.4byte	.LVL28
 3242 0095 0100     		.2byte	0x1
 3243 0097 53       		.byte	0x53
 3244 0098 5A000000 		.4byte	.LVL28
 3245 009c 61000000 		.4byte	.LVL30-1
 3246 00a0 0100     		.2byte	0x1
 3247 00a2 52       		.byte	0x52
 3248 00a3 00000000 		.4byte	0
 3249 00a7 00000000 		.4byte	0
ARM GAS  /tmp/ccWJTDeQ.s 			page 58


 3250              	.LVUS15:
 3251 00ab 00       		.uleb128 .LVU163
 3252 00ac 00       		.uleb128 .LVU167
 3253              	.LLST15:
 3254 00ad 4A000000 		.4byte	.LVL23
 3255 00b1 4C000000 		.4byte	.LVL24
 3256 00b5 0100     		.2byte	0x1
 3257 00b7 53       		.byte	0x53
 3258 00b8 00000000 		.4byte	0
 3259 00bc 00000000 		.4byte	0
 3260              	.LVUS16:
 3261 00c0 00       		.uleb128 .LVU163
 3262 00c1 00       		.uleb128 .LVU167
 3263              	.LLST16:
 3264 00c2 4A000000 		.4byte	.LVL23
 3265 00c6 4C000000 		.4byte	.LVL24
 3266 00ca 0100     		.2byte	0x1
 3267 00cc 50       		.byte	0x50
 3268 00cd 00000000 		.4byte	0
 3269 00d1 00000000 		.4byte	0
 3270              	.LVUS17:
 3271 00d5 01       		.uleb128 .LVU178
 3272 00d6 03       		.uleb128 .LVU180
 3273              	.LLST17:
 3274 00d7 5A000000 		.4byte	.LVL28
 3275 00db 5A000000 		.4byte	.LVL28
 3276 00df 0100     		.2byte	0x1
 3277 00e1 52       		.byte	0x52
 3278 00e2 00000000 		.4byte	0
 3279 00e6 00000000 		.4byte	0
 3280              	.LVUS18:
 3281 00ea 01       		.uleb128 .LVU178
 3282 00eb 03       		.uleb128 .LVU180
 3283              	.LLST18:
 3284 00ec 5A000000 		.4byte	.LVL28
 3285 00f0 5A000000 		.4byte	.LVL28
 3286 00f4 0100     		.2byte	0x1
 3287 00f6 50       		.byte	0x50
 3288 00f7 00000000 		.4byte	0
 3289 00fb 00000000 		.4byte	0
 3290              	.LVUS19:
 3291 00ff 03       		.uleb128 .LVU180
 3292 0100 00       		.uleb128 .LVU185
 3293 0101 00       		.uleb128 .LVU185
 3294 0102 00       		.uleb128 .LVU186
 3295              	.LLST19:
 3296 0103 5A000000 		.4byte	.LVL28
 3297 0107 5E000000 		.4byte	.LVL29
 3298 010b 0600     		.2byte	0x6
 3299 010d 72       		.byte	0x72
 3300 010e 00       		.sleb128 0
 3301 010f 70       		.byte	0x70
 3302 0110 00       		.sleb128 0
 3303 0111 22       		.byte	0x22
 3304 0112 9F       		.byte	0x9f
 3305 0113 5E000000 		.4byte	.LVL29
 3306 0117 61000000 		.4byte	.LVL30-1
ARM GAS  /tmp/ccWJTDeQ.s 			page 59


 3307 011b 0100     		.2byte	0x1
 3308 011d 50       		.byte	0x50
 3309 011e 00000000 		.4byte	0
 3310 0122 00000000 		.4byte	0
 3311              	.LVUS0:
 3312 0126 00       		.uleb128 0
 3313 0127 00       		.uleb128 .LVU49
 3314 0128 00       		.uleb128 .LVU49
 3315 0129 00       		.uleb128 .LVU51
 3316 012a 00       		.uleb128 .LVU52
 3317 012b 00       		.uleb128 .LVU52
 3318 012c 00       		.uleb128 .LVU52
 3319 012d 00       		.uleb128 .LVU56
 3320 012e 00       		.uleb128 .LVU56
 3321 012f 00       		.uleb128 .LVU106
 3322 0130 00       		.uleb128 .LVU106
 3323 0131 00       		.uleb128 0
 3324              	.LLST0:
 3325 0132 00000000 		.4byte	.LVL0
 3326 0136 2E000000 		.4byte	.LVL5
 3327 013a 0100     		.2byte	0x1
 3328 013c 50       		.byte	0x50
 3329 013d 2E000000 		.4byte	.LVL5
 3330 0141 32000000 		.4byte	.LVL6
 3331 0145 0100     		.2byte	0x1
 3332 0147 56       		.byte	0x56
 3333 0148 35000000 		.4byte	.LVL7-1
 3334 014c 36000000 		.4byte	.LVL7
 3335 0150 0400     		.2byte	0x4
 3336 0152 F3       		.byte	0xf3
 3337 0153 01       		.uleb128 0x1
 3338 0154 50       		.byte	0x50
 3339 0155 9F       		.byte	0x9f
 3340 0156 36000000 		.4byte	.LVL7
 3341 015a 38000000 		.4byte	.LVL8
 3342 015e 0100     		.2byte	0x1
 3343 0160 50       		.byte	0x50
 3344 0161 38000000 		.4byte	.LVL8
 3345 0165 70000000 		.4byte	.LVL17
 3346 0169 0100     		.2byte	0x1
 3347 016b 56       		.byte	0x56
 3348 016c 70000000 		.4byte	.LVL17
 3349 0170 74000000 		.4byte	.LFE302
 3350 0174 0400     		.2byte	0x4
 3351 0176 F3       		.byte	0xf3
 3352 0177 01       		.uleb128 0x1
 3353 0178 50       		.byte	0x50
 3354 0179 9F       		.byte	0x9f
 3355 017a 00000000 		.4byte	0
 3356 017e 00000000 		.4byte	0
 3357              	.LVUS1:
 3358 0182 00       		.uleb128 0
 3359 0183 00       		.uleb128 .LVU20
 3360 0184 00       		.uleb128 .LVU20
 3361 0185 02       		.uleb128 .LVU32
 3362 0186 02       		.uleb128 .LVU32
 3363 0187 00       		.uleb128 .LVU52
ARM GAS  /tmp/ccWJTDeQ.s 			page 60


 3364 0188 00       		.uleb128 .LVU52
 3365 0189 00       		.uleb128 .LVU52
 3366 018a 00       		.uleb128 .LVU52
 3367 018b 00       		.uleb128 .LVU66
 3368 018c 00       		.uleb128 .LVU66
 3369 018d 00       		.uleb128 .LVU75
 3370 018e 00       		.uleb128 .LVU75
 3371 018f 00       		.uleb128 .LVU86
 3372 0190 00       		.uleb128 .LVU86
 3373 0191 00       		.uleb128 0
 3374              	.LLST1:
 3375 0192 00000000 		.4byte	.LVL0
 3376 0196 0C000000 		.4byte	.LVL1
 3377 019a 0100     		.2byte	0x1
 3378 019c 51       		.byte	0x51
 3379 019d 0C000000 		.4byte	.LVL1
 3380 01a1 16000000 		.4byte	.LVL3
 3381 01a5 0400     		.2byte	0x4
 3382 01a7 F3       		.byte	0xf3
 3383 01a8 01       		.uleb128 0x1
 3384 01a9 51       		.byte	0x51
 3385 01aa 9F       		.byte	0x9f
 3386 01ab 16000000 		.4byte	.LVL3
 3387 01af 35000000 		.4byte	.LVL7-1
 3388 01b3 0100     		.2byte	0x1
 3389 01b5 51       		.byte	0x51
 3390 01b6 35000000 		.4byte	.LVL7-1
 3391 01ba 36000000 		.4byte	.LVL7
 3392 01be 1700     		.2byte	0x17
 3393 01c0 32       		.byte	0x32
 3394 01c1 F3       		.byte	0xf3
 3395 01c2 01       		.uleb128 0x1
 3396 01c3 51       		.byte	0x51
 3397 01c4 F3       		.byte	0xf3
 3398 01c5 01       		.uleb128 0x1
 3399 01c6 51       		.byte	0x51
 3400 01c7 40       		.byte	0x40
 3401 01c8 4B       		.byte	0x4b
 3402 01c9 24       		.byte	0x24
 3403 01ca 22       		.byte	0x22
 3404 01cb 0C       		.byte	0xc
 3405 01cc 02000080 		.4byte	0x80000002
 3406 01d0 2D       		.byte	0x2d
 3407 01d1 28       		.byte	0x28
 3408 01d2 0100     		.2byte	0x1
 3409 01d4 16       		.byte	0x16
 3410 01d5 13       		.byte	0x13
 3411 01d6 9F       		.byte	0x9f
 3412 01d7 36000000 		.4byte	.LVL7
 3413 01db 40000000 		.4byte	.LVL10
 3414 01df 0100     		.2byte	0x1
 3415 01e1 51       		.byte	0x51
 3416 01e2 40000000 		.4byte	.LVL10
 3417 01e6 46000000 		.4byte	.LVL13
 3418 01ea 1700     		.2byte	0x17
 3419 01ec 32       		.byte	0x32
 3420 01ed F3       		.byte	0xf3
ARM GAS  /tmp/ccWJTDeQ.s 			page 61


 3421 01ee 01       		.uleb128 0x1
 3422 01ef 51       		.byte	0x51
 3423 01f0 F3       		.byte	0xf3
 3424 01f1 01       		.uleb128 0x1
 3425 01f2 51       		.byte	0x51
 3426 01f3 40       		.byte	0x40
 3427 01f4 4B       		.byte	0x4b
 3428 01f5 24       		.byte	0x24
 3429 01f6 22       		.byte	0x22
 3430 01f7 0C       		.byte	0xc
 3431 01f8 02000080 		.4byte	0x80000002
 3432 01fc 2D       		.byte	0x2d
 3433 01fd 28       		.byte	0x28
 3434 01fe 0100     		.2byte	0x1
 3435 0200 16       		.byte	0x16
 3436 0201 13       		.byte	0x13
 3437 0202 9F       		.byte	0x9f
 3438 0203 46000000 		.4byte	.LVL13
 3439 0207 4F000000 		.4byte	.LVL16-1
 3440 020b 0100     		.2byte	0x1
 3441 020d 51       		.byte	0x51
 3442 020e 4F000000 		.4byte	.LVL16-1
 3443 0212 74000000 		.4byte	.LFE302
 3444 0216 1700     		.2byte	0x17
 3445 0218 32       		.byte	0x32
 3446 0219 F3       		.byte	0xf3
 3447 021a 01       		.uleb128 0x1
 3448 021b 51       		.byte	0x51
 3449 021c F3       		.byte	0xf3
 3450 021d 01       		.uleb128 0x1
 3451 021e 51       		.byte	0x51
 3452 021f 40       		.byte	0x40
 3453 0220 4B       		.byte	0x4b
 3454 0221 24       		.byte	0x24
 3455 0222 22       		.byte	0x22
 3456 0223 0C       		.byte	0xc
 3457 0224 02000080 		.4byte	0x80000002
 3458 0228 2D       		.byte	0x2d
 3459 0229 28       		.byte	0x28
 3460 022a 0100     		.2byte	0x1
 3461 022c 16       		.byte	0x16
 3462 022d 13       		.byte	0x13
 3463 022e 9F       		.byte	0x9f
 3464 022f 00000000 		.4byte	0
 3465 0233 00000000 		.4byte	0
 3466              	.LVUS2:
 3467 0237 00       		.uleb128 0
 3468 0238 00       		.uleb128 .LVU52
 3469 0239 00       		.uleb128 .LVU52
 3470 023a 00       		.uleb128 .LVU52
 3471 023b 00       		.uleb128 .LVU52
 3472 023c 00       		.uleb128 .LVU66
 3473 023d 00       		.uleb128 .LVU66
 3474 023e 00       		.uleb128 .LVU75
 3475 023f 00       		.uleb128 .LVU75
 3476 0240 00       		.uleb128 .LVU86
 3477 0241 00       		.uleb128 .LVU86
ARM GAS  /tmp/ccWJTDeQ.s 			page 62


 3478 0242 00       		.uleb128 0
 3479              	.LLST2:
 3480 0243 00000000 		.4byte	.LVL0
 3481 0247 35000000 		.4byte	.LVL7-1
 3482 024b 0100     		.2byte	0x1
 3483 024d 52       		.byte	0x52
 3484 024e 35000000 		.4byte	.LVL7-1
 3485 0252 36000000 		.4byte	.LVL7
 3486 0256 0400     		.2byte	0x4
 3487 0258 F3       		.byte	0xf3
 3488 0259 01       		.uleb128 0x1
 3489 025a 52       		.byte	0x52
 3490 025b 9F       		.byte	0x9f
 3491 025c 36000000 		.4byte	.LVL7
 3492 0260 40000000 		.4byte	.LVL10
 3493 0264 0100     		.2byte	0x1
 3494 0266 52       		.byte	0x52
 3495 0267 40000000 		.4byte	.LVL10
 3496 026b 46000000 		.4byte	.LVL13
 3497 026f 0400     		.2byte	0x4
 3498 0271 F3       		.byte	0xf3
 3499 0272 01       		.uleb128 0x1
 3500 0273 52       		.byte	0x52
 3501 0274 9F       		.byte	0x9f
 3502 0275 46000000 		.4byte	.LVL13
 3503 0279 4F000000 		.4byte	.LVL16-1
 3504 027d 0100     		.2byte	0x1
 3505 027f 52       		.byte	0x52
 3506 0280 4F000000 		.4byte	.LVL16-1
 3507 0284 74000000 		.4byte	.LFE302
 3508 0288 0400     		.2byte	0x4
 3509 028a F3       		.byte	0xf3
 3510 028b 01       		.uleb128 0x1
 3511 028c 52       		.byte	0x52
 3512 028d 9F       		.byte	0x9f
 3513 028e 00000000 		.4byte	0
 3514 0292 00000000 		.4byte	0
 3515              	.LVUS3:
 3516 0296 00       		.uleb128 0
 3517 0297 00       		.uleb128 .LVU29
 3518 0298 00       		.uleb128 .LVU29
 3519 0299 00       		.uleb128 .LVU49
 3520 029a 00       		.uleb128 .LVU49
 3521 029b 00       		.uleb128 .LVU51
 3522 029c 00       		.uleb128 .LVU52
 3523 029d 00       		.uleb128 .LVU52
 3524 029e 00       		.uleb128 .LVU52
 3525 029f 00       		.uleb128 .LVU56
 3526 02a0 00       		.uleb128 .LVU56
 3527 02a1 00       		.uleb128 .LVU66
 3528 02a2 00       		.uleb128 .LVU66
 3529 02a3 00       		.uleb128 .LVU75
 3530 02a4 00       		.uleb128 .LVU75
 3531 02a5 00       		.uleb128 .LVU86
 3532 02a6 00       		.uleb128 .LVU86
 3533 02a7 00       		.uleb128 0
 3534              	.LLST3:
ARM GAS  /tmp/ccWJTDeQ.s 			page 63


 3535 02a8 00000000 		.4byte	.LVL0
 3536 02ac 14000000 		.4byte	.LVL2
 3537 02b0 0100     		.2byte	0x1
 3538 02b2 53       		.byte	0x53
 3539 02b3 14000000 		.4byte	.LVL2
 3540 02b7 2E000000 		.4byte	.LVL5
 3541 02bb 0200     		.2byte	0x2
 3542 02bd 70       		.byte	0x70
 3543 02be 10       		.sleb128 16
 3544 02bf 2E000000 		.4byte	.LVL5
 3545 02c3 32000000 		.4byte	.LVL6
 3546 02c7 0200     		.2byte	0x2
 3547 02c9 76       		.byte	0x76
 3548 02ca 10       		.sleb128 16
 3549 02cb 35000000 		.4byte	.LVL7-1
 3550 02cf 36000000 		.4byte	.LVL7
 3551 02d3 0400     		.2byte	0x4
 3552 02d5 F3       		.byte	0xf3
 3553 02d6 01       		.uleb128 0x1
 3554 02d7 53       		.byte	0x53
 3555 02d8 9F       		.byte	0x9f
 3556 02d9 36000000 		.4byte	.LVL7
 3557 02dd 38000000 		.4byte	.LVL8
 3558 02e1 0200     		.2byte	0x2
 3559 02e3 70       		.byte	0x70
 3560 02e4 10       		.sleb128 16
 3561 02e5 38000000 		.4byte	.LVL8
 3562 02e9 40000000 		.4byte	.LVL10
 3563 02ed 0200     		.2byte	0x2
 3564 02ef 76       		.byte	0x76
 3565 02f0 10       		.sleb128 16
 3566 02f1 40000000 		.4byte	.LVL10
 3567 02f5 46000000 		.4byte	.LVL13
 3568 02f9 0400     		.2byte	0x4
 3569 02fb F3       		.byte	0xf3
 3570 02fc 01       		.uleb128 0x1
 3571 02fd 53       		.byte	0x53
 3572 02fe 9F       		.byte	0x9f
 3573 02ff 46000000 		.4byte	.LVL13
 3574 0303 4F000000 		.4byte	.LVL16-1
 3575 0307 0200     		.2byte	0x2
 3576 0309 76       		.byte	0x76
 3577 030a 10       		.sleb128 16
 3578 030b 4F000000 		.4byte	.LVL16-1
 3579 030f 74000000 		.4byte	.LFE302
 3580 0313 0400     		.2byte	0x4
 3581 0315 F3       		.byte	0xf3
 3582 0316 01       		.uleb128 0x1
 3583 0317 53       		.byte	0x53
 3584 0318 9F       		.byte	0x9f
 3585 0319 00000000 		.4byte	0
 3586 031d 00000000 		.4byte	0
 3587              	.LVUS4:
 3588 0321 02       		.uleb128 .LVU54
 3589 0322 00       		.uleb128 .LVU106
 3590              	.LLST4:
 3591 0323 36000000 		.4byte	.LVL7
ARM GAS  /tmp/ccWJTDeQ.s 			page 64


 3592 0327 70000000 		.4byte	.LVL17
 3593 032b 0100     		.2byte	0x1
 3594 032d 55       		.byte	0x55
 3595 032e 00000000 		.4byte	0
 3596 0332 00000000 		.4byte	0
 3597              	.LVUS5:
 3598 0336 00       		.uleb128 .LVU61
 3599 0337 00       		.uleb128 .LVU106
 3600              	.LLST5:
 3601 0338 3E000000 		.4byte	.LVL9
 3602 033c 70000000 		.4byte	.LVL17
 3603 0340 0100     		.2byte	0x1
 3604 0342 54       		.byte	0x54
 3605 0343 00000000 		.4byte	0
 3606 0347 00000000 		.4byte	0
 3607              	.LVUS8:
 3608 034b 02       		.uleb128 .LVU79
 3609 034c 00       		.uleb128 .LVU86
 3610              	.LLST8:
 3611 034d 4A000000 		.4byte	.LVL14
 3612 0351 50000000 		.4byte	.LVL16
 3613 0355 0100     		.2byte	0x1
 3614 0357 54       		.byte	0x54
 3615 0358 00000000 		.4byte	0
 3616 035c 00000000 		.4byte	0
 3617              	.LVUS9:
 3618 0360 03       		.uleb128 .LVU80
 3619 0361 05       		.uleb128 .LVU82
 3620              	.LLST9:
 3621 0362 4A000000 		.4byte	.LVL14
 3622 0366 4A000000 		.4byte	.LVL14
 3623 036a 0100     		.2byte	0x1
 3624 036c 54       		.byte	0x54
 3625 036d 00000000 		.4byte	0
 3626 0371 00000000 		.4byte	0
 3627              	.LVUS10:
 3628 0375 03       		.uleb128 .LVU80
 3629 0376 05       		.uleb128 .LVU82
 3630              	.LLST10:
 3631 0377 4A000000 		.4byte	.LVL14
 3632 037b 4A000000 		.4byte	.LVL14
 3633 037f 0100     		.2byte	0x1
 3634 0381 50       		.byte	0x50
 3635 0382 00000000 		.4byte	0
 3636 0386 00000000 		.4byte	0
 3637              	.LVUS11:
 3638 038a 05       		.uleb128 .LVU82
 3639 038b 00       		.uleb128 .LVU85
 3640 038c 00       		.uleb128 .LVU85
 3641 038d 00       		.uleb128 .LVU86
 3642              	.LLST11:
 3643 038e 4A000000 		.4byte	.LVL14
 3644 0392 4C000000 		.4byte	.LVL15
 3645 0396 0600     		.2byte	0x6
 3646 0398 70       		.byte	0x70
 3647 0399 00       		.sleb128 0
 3648 039a 74       		.byte	0x74
ARM GAS  /tmp/ccWJTDeQ.s 			page 65


 3649 039b 00       		.sleb128 0
 3650 039c 22       		.byte	0x22
 3651 039d 9F       		.byte	0x9f
 3652 039e 4C000000 		.4byte	.LVL15
 3653 03a2 4F000000 		.4byte	.LVL16-1
 3654 03a6 0100     		.2byte	0x1
 3655 03a8 50       		.byte	0x50
 3656 03a9 00000000 		.4byte	0
 3657 03ad 00000000 		.4byte	0
 3658              	.LVUS6:
 3659 03b1 02       		.uleb128 .LVU44
 3660 03b2 04       		.uleb128 .LVU46
 3661              	.LLST6:
 3662 03b3 2C000000 		.4byte	.LVL4
 3663 03b7 2C000000 		.4byte	.LVL4
 3664 03bb 0100     		.2byte	0x1
 3665 03bd 51       		.byte	0x51
 3666 03be 00000000 		.4byte	0
 3667 03c2 00000000 		.4byte	0
 3668              	.LVUS7:
 3669 03c6 00       		.uleb128 .LVU56
 3670 03c7 02       		.uleb128 .LVU58
 3671              	.LLST7:
 3672 03c8 38000000 		.4byte	.LVL8
 3673 03cc 38000000 		.4byte	.LVL8
 3674 03d0 0100     		.2byte	0x1
 3675 03d2 50       		.byte	0x50
 3676 03d3 00000000 		.4byte	0
 3677 03d7 00000000 		.4byte	0
 3678              		.section	.debug_aranges,"",%progbits
 3679 0000 2C000000 		.4byte	0x2c
 3680 0004 0200     		.2byte	0x2
 3681 0006 00000000 		.4byte	.Ldebug_info0
 3682 000a 04       		.byte	0x4
 3683 000b 00       		.byte	0
 3684 000c 0000     		.2byte	0
 3685 000e 0000     		.2byte	0
 3686 0010 00000000 		.4byte	.LFB301
 3687 0014 1C000000 		.4byte	.LFE301-.LFB301
 3688 0018 00000000 		.4byte	.LFB302
 3689 001c 74000000 		.4byte	.LFE302-.LFB302
 3690 0020 00000000 		.4byte	.LFB303
 3691 0024 68000000 		.4byte	.LFE303-.LFB303
 3692 0028 00000000 		.4byte	0
 3693 002c 00000000 		.4byte	0
 3694              		.section	.debug_ranges,"",%progbits
 3695              	.Ldebug_ranges0:
 3696 0000 02000000 		.4byte	.LBB40
 3697 0004 06000000 		.4byte	.LBE40
 3698 0008 10000000 		.4byte	.LBB63
 3699 000c 10000000 		.4byte	.LBE63
 3700 0010 10000000 		.4byte	.LBB64
 3701 0014 10000000 		.4byte	.LBE64
 3702 0018 10000000 		.4byte	.LBB65
 3703 001c 2E000000 		.4byte	.LBE65
 3704 0020 32000000 		.4byte	.LBB66
 3705 0024 3E000000 		.4byte	.LBE66
ARM GAS  /tmp/ccWJTDeQ.s 			page 66


 3706 0028 3E000000 		.4byte	.LBB67
 3707 002c 40000000 		.4byte	.LBE67
 3708 0030 46000000 		.4byte	.LBB68
 3709 0034 50000000 		.4byte	.LBE68
 3710 0038 00000000 		.4byte	0
 3711 003c 00000000 		.4byte	0
 3712 0040 10000000 		.4byte	.LBB41
 3713 0044 10000000 		.4byte	.LBE41
 3714 0048 10000000 		.4byte	.LBB46
 3715 004c 10000000 		.4byte	.LBE46
 3716 0050 10000000 		.4byte	.LBB47
 3717 0054 16000000 		.4byte	.LBE47
 3718 0058 00000000 		.4byte	0
 3719 005c 00000000 		.4byte	0
 3720 0060 2C000000 		.4byte	.LBB50
 3721 0064 2E000000 		.4byte	.LBE50
 3722 0068 32000000 		.4byte	.LBB53
 3723 006c 36000000 		.4byte	.LBE53
 3724 0070 00000000 		.4byte	0
 3725 0074 00000000 		.4byte	0
 3726 0078 38000000 		.4byte	.LBB54
 3727 007c 38000000 		.4byte	.LBE54
 3728 0080 3A000000 		.4byte	.LBB57
 3729 0084 3E000000 		.4byte	.LBE57
 3730 0088 00000000 		.4byte	0
 3731 008c 00000000 		.4byte	0
 3732 0090 34000000 		.4byte	.LBB69
 3733 0094 34000000 		.4byte	.LBE69
 3734 0098 36000000 		.4byte	.LBB72
 3735 009c 3A000000 		.4byte	.LBE72
 3736 00a0 00000000 		.4byte	0
 3737 00a4 00000000 		.4byte	0
 3738 00a8 44000000 		.4byte	.LBB73
 3739 00ac 44000000 		.4byte	.LBE73
 3740 00b0 44000000 		.4byte	.LBB78
 3741 00b4 44000000 		.4byte	.LBE78
 3742 00b8 44000000 		.4byte	.LBB79
 3743 00bc 4A000000 		.4byte	.LBE79
 3744 00c0 00000000 		.4byte	0
 3745 00c4 00000000 		.4byte	0
 3746 00c8 5A000000 		.4byte	.LBB84
 3747 00cc 5A000000 		.4byte	.LBE84
 3748 00d0 5C000000 		.4byte	.LBB87
 3749 00d4 68000000 		.4byte	.LBE87
 3750 00d8 00000000 		.4byte	0
 3751 00dc 00000000 		.4byte	0
 3752 00e0 00000000 		.4byte	.LFB301
 3753 00e4 1C000000 		.4byte	.LFE301
 3754 00e8 00000000 		.4byte	.LFB302
 3755 00ec 74000000 		.4byte	.LFE302
 3756 00f0 00000000 		.4byte	.LFB303
 3757 00f4 68000000 		.4byte	.LFE303
 3758 00f8 00000000 		.4byte	0
 3759 00fc 00000000 		.4byte	0
 3760              		.section	.debug_line,"",%progbits
 3761              	.Ldebug_line0:
 3762 0000 C2050000 		.section	.debug_str,"MS",%progbits,1
ARM GAS  /tmp/ccWJTDeQ.s 			page 67


 3762      03008F02 
 3762      00000201 
 3762      FB0E0D00 
 3762      01010101 
 3763              	.LASF53:
 3764 0000 72656164 		.ascii	"ready_list_t\000"
 3764      795F6C69 
 3764      73745F74 
 3764      00
 3765              	.LASF80:
 3766 000d 44494552 		.ascii	"DIER\000"
 3766      00
 3767              	.LASF104:
 3768 0012 77747472 		.ascii	"wttrp\000"
 3768      7000
 3769              	.LASF49:
 3770 0018 6E657874 		.ascii	"next\000"
 3770      00
 3771              	.LASF59:
 3772 001d 64656C74 		.ascii	"delta\000"
 3772      6100
 3773              	.LASF101:
 3774 0023 7264796D 		.ascii	"rdymsg\000"
 3774      736700
 3775              	.LASF17:
 3776 002a 75696E74 		.ascii	"uint64_t\000"
 3776      36345F74 
 3776      00
 3777              	.LASF72:
 3778 0033 6B65726E 		.ascii	"kernel_stats\000"
 3778      656C5F73 
 3778      74617473 
 3778      00
 3779              	.LASF25:
 3780 0040 6576656E 		.ascii	"eventmask_t\000"
 3780      746D6173 
 3780      6B5F7400 
 3781              	.LASF7:
 3782 004c 5F5F7569 		.ascii	"__uint8_t\000"
 3782      6E74385F 
 3782      7400
 3783              	.LASF52:
 3784 0056 70726576 		.ascii	"prev\000"
 3784      00
 3785              	.LASF78:
 3786 005b 706F7274 		.ascii	"port_intctx\000"
 3786      5F696E74 
 3786      63747800 
 3787              	.LASF51:
 3788 0067 63685F74 		.ascii	"ch_threads_queue\000"
 3788      68726561 
 3788      64735F71 
 3788      75657565 
 3788      00
 3789              	.LASF64:
 3790 0078 73797374 		.ascii	"system_debug_t\000"
 3790      656D5F64 
ARM GAS  /tmp/ccWJTDeQ.s 			page 68


 3790      65627567 
 3790      5F7400
 3791              	.LASF82:
 3792 0087 43434D52 		.ascii	"CCMR2\000"
 3792      3200
 3793              	.LASF92:
 3794 008d 776F7273 		.ascii	"worst\000"
 3794      7400
 3795              	.LASF95:
 3796 0093 74696D65 		.ascii	"time_measurement_t\000"
 3796      5F6D6561 
 3796      73757265 
 3796      6D656E74 
 3796      5F7400
 3797              	.LASF13:
 3798 00a6 6C6F6E67 		.ascii	"long long unsigned int\000"
 3798      206C6F6E 
 3798      6720756E 
 3798      7369676E 
 3798      65642069 
 3799              	.LASF116:
 3800 00bd 63685654 		.ascii	"chVTDoResetI\000"
 3800      446F5265 
 3800      73657449 
 3800      00
 3801              	.LASF102:
 3802 00ca 65786974 		.ascii	"exitcode\000"
 3802      636F6465 
 3802      00
 3803              	.LASF71:
 3804 00d3 6D61696E 		.ascii	"mainthread\000"
 3804      74687265 
 3804      616400
 3805              	.LASF105:
 3806 00de 73656E74 		.ascii	"sentmsg\000"
 3806      6D736700 
 3807              	.LASF61:
 3808 00e6 76697274 		.ascii	"virtual_timers_list_t\000"
 3808      75616C5F 
 3808      74696D65 
 3808      72735F6C 
 3808      6973745F 
 3809              	.LASF84:
 3810 00fc 42445452 		.ascii	"BDTR\000"
 3810      00
 3811              	.LASF19:
 3812 0101 72747469 		.ascii	"rttime_t\000"
 3812      6D655F74 
 3812      00
 3813              	.LASF81:
 3814 010a 43434D52 		.ascii	"CCMR1\000"
 3814      3100
 3815              	.LASF139:
 3816 0110 5F76745F 		.ascii	"_vt_init\000"
 3816      696E6974 
 3816      00
 3817              	.LASF86:
ARM GAS  /tmp/ccWJTDeQ.s 			page 69


 3818 0119 43434D52 		.ascii	"CCMR3\000"
 3818      3300
 3819              	.LASF3:
 3820 011f 7369676E 		.ascii	"signed char\000"
 3820      65642063 
 3820      68617200 
 3821              	.LASF70:
 3822 012b 76746C69 		.ascii	"vtlist\000"
 3822      737400
 3823              	.LASF39:
 3824 0132 6D736771 		.ascii	"msgqueue\000"
 3824      75657565 
 3824      00
 3825              	.LASF35:
 3826 013b 73746174 		.ascii	"state\000"
 3826      6500
 3827              	.LASF9:
 3828 0141 6C6F6E67 		.ascii	"long int\000"
 3828      20696E74 
 3828      00
 3829              	.LASF21:
 3830 014a 74737461 		.ascii	"tstate_t\000"
 3830      74655F74 
 3830      00
 3831              	.LASF60:
 3832 0153 66756E63 		.ascii	"func\000"
 3832      00
 3833              	.LASF44:
 3834 0158 73746174 		.ascii	"stats\000"
 3834      7300
 3835              	.LASF132:
 3836 015e 696E7465 		.ascii	"interval\000"
 3836      7276616C 
 3836      00
 3837              	.LASF10:
 3838 0167 5F5F7569 		.ascii	"__uint32_t\000"
 3838      6E743332 
 3838      5F7400
 3839              	.LASF75:
 3840 0172 72656761 		.ascii	"regarm_t\000"
 3840      726D5F74 
 3840      00
 3841              	.LASF65:
 3842 017b 63685F73 		.ascii	"ch_system_debug\000"
 3842      79737465 
 3842      6D5F6465 
 3842      62756700 
 3843              	.LASF38:
 3844 018b 77616974 		.ascii	"waiting\000"
 3844      696E6700 
 3845              	.LASF1:
 3846 0193 6C6F6E67 		.ascii	"long long int\000"
 3846      206C6F6E 
 3846      6720696E 
 3846      7400
 3847              	.LASF74:
 3848 01a1 73797369 		.ascii	"sysinterval_t\000"
ARM GAS  /tmp/ccWJTDeQ.s 			page 70


 3848      6E746572 
 3848      76616C5F 
 3848      7400
 3849              	.LASF26:
 3850 01af 636E745F 		.ascii	"cnt_t\000"
 3850      7400
 3851              	.LASF122:
 3852 01b5 63685654 		.ascii	"chVTGetSystemTimeX\000"
 3852      47657453 
 3852      79737465 
 3852      6D54696D 
 3852      655800
 3853              	.LASF115:
 3854 01c8 6E6F7764 		.ascii	"nowdelta\000"
 3854      656C7461 
 3854      00
 3855              	.LASF106:
 3856 01d1 77747365 		.ascii	"wtsemp\000"
 3856      6D7000
 3857              	.LASF121:
 3858 01d8 64656164 		.ascii	"deadline_delta\000"
 3858      6C696E65 
 3858      5F64656C 
 3858      746100
 3859              	.LASF96:
 3860 01e7 6E5F6972 		.ascii	"n_irq\000"
 3860      7100
 3861              	.LASF29:
 3862 01ed 71756575 		.ascii	"queue\000"
 3862      6500
 3863              	.LASF43:
 3864 01f3 6D706F6F 		.ascii	"mpool\000"
 3864      6C00
 3865              	.LASF91:
 3866 01f9 62657374 		.ascii	"best\000"
 3866      00
 3867              	.LASF79:
 3868 01fe 534D4352 		.ascii	"SMCR\000"
 3868      00
 3869              	.LASF100:
 3870 0203 6B65726E 		.ascii	"kernel_stats_t\000"
 3870      656C5F73 
 3870      74617473 
 3870      5F7400
 3871              	.LASF33:
 3872 0212 6E616D65 		.ascii	"name\000"
 3872      00
 3873              	.LASF47:
 3874 0217 63685F74 		.ascii	"ch_thread\000"
 3874      68726561 
 3874      6400
 3875              	.LASF125:
 3876 0221 706F7274 		.ascii	"port_timer_start_alarm\000"
 3876      5F74696D 
 3876      65725F73 
 3876      74617274 
 3876      5F616C61 
ARM GAS  /tmp/ccWJTDeQ.s 			page 71


 3877              	.LASF93:
 3878 0238 6C617374 		.ascii	"last\000"
 3878      00
 3879              	.LASF27:
 3880 023d 75636E74 		.ascii	"ucnt_t\000"
 3880      5F7400
 3881              	.LASF40:
 3882 0244 6570656E 		.ascii	"epending\000"
 3882      64696E67 
 3882      00
 3883              	.LASF67:
 3884 024d 63685F73 		.ascii	"ch_system_t\000"
 3884      79737465 
 3884      6D5F7400 
 3885              	.LASF88:
 3886 0259 73746D33 		.ascii	"stm32_tim_t\000"
 3886      325F7469 
 3886      6D5F7400 
 3887              	.LASF131:
 3888 0265 73797374 		.ascii	"systime\000"
 3888      696D6500 
 3889              	.LASF99:
 3890 026d 6D5F6372 		.ascii	"m_crit_isr\000"
 3890      69745F69 
 3890      737200
 3891              	.LASF54:
 3892 0278 63685F72 		.ascii	"ch_ready_list\000"
 3892      65616479 
 3892      5F6C6973 
 3892      7400
 3893              	.LASF117:
 3894 0286 63685654 		.ascii	"chVTDoSetI\000"
 3894      446F5365 
 3894      744900
 3895              	.LASF8:
 3896 0291 5F5F696E 		.ascii	"__int32_t\000"
 3896      7433325F 
 3896      7400
 3897              	.LASF76:
 3898 029b 73746B61 		.ascii	"stkalign_t\000"
 3898      6C69676E 
 3898      5F7400
 3899              	.LASF31:
 3900 02a6 6E657765 		.ascii	"newer\000"
 3900      7200
 3901              	.LASF42:
 3902 02ac 7265616C 		.ascii	"realprio\000"
 3902      7072696F 
 3902      00
 3903              	.LASF18:
 3904 02b5 7274636E 		.ascii	"rtcnt_t\000"
 3904      745F7400 
 3905              	.LASF45:
 3906 02bd 74687265 		.ascii	"thread_reference_t\000"
 3906      61645F72 
 3906      65666572 
 3906      656E6365 
ARM GAS  /tmp/ccWJTDeQ.s 			page 72


 3906      5F7400
 3907              	.LASF62:
 3908 02d0 63685F76 		.ascii	"ch_virtual_timers_list\000"
 3908      69727475 
 3908      616C5F74 
 3908      696D6572 
 3908      735F6C69 
 3909              	.LASF2:
 3910 02e7 6C6F6E67 		.ascii	"long double\000"
 3910      20646F75 
 3910      626C6500 
 3911              	.LASF77:
 3912 02f3 706F7274 		.ascii	"port_context\000"
 3912      5F636F6E 
 3912      74657874 
 3912      00
 3913              	.LASF90:
 3914 0300 746D5F63 		.ascii	"tm_calibration_t\000"
 3914      616C6962 
 3914      72617469 
 3914      6F6E5F74 
 3914      00
 3915              	.LASF137:
 3916 0311 2E2E2F2E 		.ascii	"../../modules/ChibiOS/os/rt/src/chvt.c\000"
 3916      2E2F6D6F 
 3916      64756C65 
 3916      732F4368 
 3916      6962694F 
 3917              	.LASF126:
 3918 0338 74696D65 		.ascii	"time\000"
 3918      00
 3919              	.LASF30:
 3920 033d 7072696F 		.ascii	"prio\000"
 3920      00
 3921              	.LASF55:
 3922 0342 63757272 		.ascii	"current\000"
 3922      656E7400 
 3923              	.LASF130:
 3924 034a 63685469 		.ascii	"chTimeAddX\000"
 3924      6D654164 
 3924      645800
 3925              	.LASF12:
 3926 0355 5F5F7569 		.ascii	"__uint64_t\000"
 3926      6E743634 
 3926      5F7400
 3927              	.LASF94:
 3928 0360 63756D75 		.ascii	"cumulative\000"
 3928      6C617469 
 3928      766500
 3929              	.LASF22:
 3930 036b 74726566 		.ascii	"trefs_t\000"
 3930      735F7400 
 3931              	.LASF37:
 3932 0373 72656673 		.ascii	"refs\000"
 3932      00
 3933              	.LASF57:
 3934 0378 76697274 		.ascii	"virtual_timer_t\000"
ARM GAS  /tmp/ccWJTDeQ.s 			page 73


 3934      75616C5F 
 3934      74696D65 
 3934      725F7400 
 3935              	.LASF129:
 3936 0388 63685469 		.ascii	"chTimeDiffX\000"
 3936      6D654469 
 3936      66665800 
 3937              	.LASF23:
 3938 0394 74707269 		.ascii	"tprio_t\000"
 3938      6F5F7400 
 3939              	.LASF97:
 3940 039c 6E5F6374 		.ascii	"n_ctxswc\000"
 3940      78737763 
 3940      00
 3941              	.LASF114:
 3942 03a5 5F426F6F 		.ascii	"_Bool\000"
 3942      6C00
 3943              	.LASF15:
 3944 03ab 696E7433 		.ascii	"int32_t\000"
 3944      325F7400 
 3945              	.LASF4:
 3946 03b3 756E7369 		.ascii	"unsigned char\000"
 3946      676E6564 
 3946      20636861 
 3946      7200
 3947              	.LASF118:
 3948 03c1 64656C61 		.ascii	"delay\000"
 3948      7900
 3949              	.LASF5:
 3950 03c7 73686F72 		.ascii	"short int\000"
 3950      7420696E 
 3950      7400
 3951              	.LASF63:
 3952 03d1 6C617374 		.ascii	"lasttime\000"
 3952      74696D65 
 3952      00
 3953              	.LASF108:
 3954 03da 65776D61 		.ascii	"ewmask\000"
 3954      736B00
 3955              	.LASF68:
 3956 03e1 63685F73 		.ascii	"ch_system\000"
 3956      79737465 
 3956      6D00
 3957              	.LASF14:
 3958 03eb 75696E74 		.ascii	"uint8_t\000"
 3958      385F7400 
 3959              	.LASF120:
 3960 03f3 5F5F6675 		.ascii	"__func__\000"
 3960      6E635F5F 
 3960      00
 3961              	.LASF34:
 3962 03fc 77616261 		.ascii	"wabase\000"
 3962      736500
 3963              	.LASF58:
 3964 0403 63685F76 		.ascii	"ch_virtual_timer\000"
 3964      69727475 
 3964      616C5F74 
ARM GAS  /tmp/ccWJTDeQ.s 			page 74


 3964      696D6572 
 3964      00
 3965              	.LASF109:
 3966 0414 63685F73 		.ascii	"ch_semaphore\000"
 3966      656D6170 
 3966      686F7265 
 3966      00
 3967              	.LASF87:
 3968 0421 43435852 		.ascii	"CCXR\000"
 3968      00
 3969              	.LASF127:
 3970 0426 73745F6C 		.ascii	"st_lld_get_counter\000"
 3970      6C645F67 
 3970      65745F63 
 3970      6F756E74 
 3970      657200
 3971              	.LASF16:
 3972 0439 75696E74 		.ascii	"uint32_t\000"
 3972      33325F74 
 3972      00
 3973              	.LASF107:
 3974 0442 77746D74 		.ascii	"wtmtxp\000"
 3974      787000
 3975              	.LASF48:
 3976 0449 63685F74 		.ascii	"ch_threads_list\000"
 3976      68726561 
 3976      64735F6C 
 3976      69737400 
 3977              	.LASF111:
 3978 0459 6F776E65 		.ascii	"owner\000"
 3978      7200
 3979              	.LASF11:
 3980 045f 6C6F6E67 		.ascii	"long unsigned int\000"
 3980      20756E73 
 3980      69676E65 
 3980      6420696E 
 3980      7400
 3981              	.LASF138:
 3982 0471 2F686F6D 		.ascii	"/home/mahathi/mathur407_payload2/4.0.7/build/CUAVv5"
 3982      652F6D61 
 3982      68617468 
 3982      692F6D61 
 3982      74687572 
 3983 04a4 00       		.ascii	"\000"
 3984              	.LASF133:
 3985 04a5 73745374 		.ascii	"stStopAlarm\000"
 3985      6F70416C 
 3985      61726D00 
 3986              	.LASF112:
 3987 04b1 63686172 		.ascii	"char\000"
 3987      00
 3988              	.LASF32:
 3989 04b6 6F6C6465 		.ascii	"older\000"
 3989      7200
 3990              	.LASF0:
 3991 04bc 756E7369 		.ascii	"unsigned int\000"
 3991      676E6564 
ARM GAS  /tmp/ccWJTDeQ.s 			page 75


 3991      20696E74 
 3991      00
 3992              	.LASF85:
 3993 04c9 444D4152 		.ascii	"DMAR\000"
 3993      00
 3994              	.LASF28:
 3995 04ce 74687265 		.ascii	"thread_t\000"
 3995      61645F74 
 3995      00
 3996              	.LASF83:
 3997 04d7 43434552 		.ascii	"CCER\000"
 3997      00
 3998              	.LASF73:
 3999 04dc 73797374 		.ascii	"systime_t\000"
 3999      696D655F 
 3999      7400
 4000              	.LASF56:
 4001 04e6 76746675 		.ascii	"vtfunc_t\000"
 4001      6E635F74 
 4001      00
 4002              	.LASF66:
 4003 04ef 70616E69 		.ascii	"panic_msg\000"
 4003      635F6D73 
 4003      6700
 4004              	.LASF89:
 4005 04f9 6F666673 		.ascii	"offset\000"
 4005      657400
 4006              	.LASF135:
 4007 0500 73745374 		.ascii	"stStartAlarm\000"
 4007      61727441 
 4007      6C61726D 
 4007      00
 4008              	.LASF6:
 4009 050d 73686F72 		.ascii	"short unsigned int\000"
 4009      7420756E 
 4009      7369676E 
 4009      65642069 
 4009      6E7400
 4010              	.LASF123:
 4011 0520 706F7274 		.ascii	"port_timer_get_time\000"
 4011      5F74696D 
 4011      65725F67 
 4011      65745F74 
 4011      696D6500 
 4012              	.LASF24:
 4013 0534 6D73675F 		.ascii	"msg_t\000"
 4013      7400
 4014              	.LASF119:
 4015 053a 76746675 		.ascii	"vtfunc\000"
 4015      6E6300
 4016              	.LASF50:
 4017 0541 74687265 		.ascii	"threads_queue_t\000"
 4017      6164735F 
 4017      71756575 
 4017      655F7400 
 4018              	.LASF110:
 4019 0551 63685F6D 		.ascii	"ch_mutex\000"
ARM GAS  /tmp/ccWJTDeQ.s 			page 76


 4019      75746578 
 4019      00
 4020              	.LASF69:
 4021 055a 726C6973 		.ascii	"rlist\000"
 4021      7400
 4022              	.LASF136:
 4023 0560 474E5520 		.ascii	"GNU C17 10.2.1 20201103 (release) -mcpu=cortex-m7 -"
 4023      43313720 
 4023      31302E32 
 4023      2E312032 
 4023      30323031 
 4024 0593 6D666C6F 		.ascii	"mfloat-abi=hard -mfpu=fpv4-sp-d16 -mno-thumb-interw"
 4024      61742D61 
 4024      62693D68 
 4024      61726420 
 4024      2D6D6670 
 4025 05c6 6F726B20 		.ascii	"ork -mthumb -march=armv7e-m+fp -g -Os -fomit-frame-"
 4025      2D6D7468 
 4025      756D6220 
 4025      2D6D6172 
 4025      63683D61 
 4026 05f9 706F696E 		.ascii	"pointer -falign-functions=16 -ffunction-sections -f"
 4026      74657220 
 4026      2D66616C 
 4026      69676E2D 
 4026      66756E63 
 4027 062c 64617461 		.ascii	"data-sections -fno-common -fsingle-precision-consta"
 4027      2D736563 
 4027      74696F6E 
 4027      73202D66 
 4027      6E6F2D63 
 4028 065f 6E7400   		.ascii	"nt\000"
 4029              	.LASF134:
 4030 0662 73745365 		.ascii	"stSetAlarm\000"
 4030      74416C61 
 4030      726D00
 4031              	.LASF36:
 4032 066d 666C6167 		.ascii	"flags\000"
 4032      7300
 4033              	.LASF140:
 4034 0673 706F7274 		.ascii	"port_timer_stop_alarm\000"
 4034      5F74696D 
 4034      65725F73 
 4034      746F705F 
 4034      616C6172 
 4035              	.LASF124:
 4036 0689 706F7274 		.ascii	"port_timer_set_alarm\000"
 4036      5F74696D 
 4036      65725F73 
 4036      65745F61 
 4036      6C61726D 
 4037              	.LASF103:
 4038 069e 77746F62 		.ascii	"wtobjp\000"
 4038      6A7000
 4039              	.LASF46:
 4040 06a5 74687265 		.ascii	"threads_list_t\000"
 4040      6164735F 
ARM GAS  /tmp/ccWJTDeQ.s 			page 77


 4040      6C697374 
 4040      5F7400
 4041              	.LASF20:
 4042 06b4 746D6F64 		.ascii	"tmode_t\000"
 4042      655F7400 
 4043              	.LASF128:
 4044 06bc 73746172 		.ascii	"start\000"
 4044      7400
 4045              	.LASF41:
 4046 06c2 6D74786C 		.ascii	"mtxlist\000"
 4046      69737400 
 4047              	.LASF113:
 4048 06ca 6D757465 		.ascii	"mutex_t\000"
 4048      785F7400 
 4049              	.LASF98:
 4050 06d2 6D5F6372 		.ascii	"m_crit_thd\000"
 4050      69745F74 
 4050      686400
 4051              		.ident	"GCC: (GNU Arm Embedded Toolchain 10-2020-q4-major) 10.2.1 20201103 (release)"
ARM GAS  /tmp/ccWJTDeQ.s 			page 78


DEFINED SYMBOLS
                            *ABS*:0000000000000000 chvt.c
     /tmp/ccWJTDeQ.s:18     .text._vt_init:0000000000000000 $t
     /tmp/ccWJTDeQ.s:26     .text._vt_init:0000000000000000 _vt_init
     /tmp/ccWJTDeQ.s:52     .text._vt_init:0000000000000018 $d
     /tmp/ccWJTDeQ.s:57     .text.chVTDoSetI:0000000000000000 $t
     /tmp/ccWJTDeQ.s:64     .text.chVTDoSetI:0000000000000000 chVTDoSetI
     /tmp/ccWJTDeQ.s:325    .text.chVTDoSetI:0000000000000070 $d
     /tmp/ccWJTDeQ.s:330    .text.chVTDoResetI:0000000000000000 $t
     /tmp/ccWJTDeQ.s:337    .text.chVTDoResetI:0000000000000000 chVTDoResetI
     /tmp/ccWJTDeQ.s:546    .text.chVTDoResetI:0000000000000064 $d

UNDEFINED SYMBOLS
ch
stStartAlarm
stSetAlarm
stStopAlarm
