ARM GAS  /tmp/ccLReJek.s 			page 1


   1              		.cpu cortex-m7
   2              		.eabi_attribute 27, 1
   3              		.eabi_attribute 28, 1
   4              		.eabi_attribute 20, 1
   5              		.eabi_attribute 21, 1
   6              		.eabi_attribute 23, 3
   7              		.eabi_attribute 24, 1
   8              		.eabi_attribute 25, 1
   9              		.eabi_attribute 26, 1
  10              		.eabi_attribute 30, 4
  11              		.eabi_attribute 34, 1
  12              		.eabi_attribute 18, 4
  13              		.file	"crt1.c"
  14              		.text
  15              	.Ltext0:
  16              		.cfi_sections	.debug_frame
  17              		.section	.text.__core_init,"ax",%progbits
  18              		.align	1
  19              		.weak	__core_init
  20              		.arch armv7e-m
  21              		.syntax unified
  22              		.thumb
  23              		.thumb_func
  24              		.fpu fpv4-sp-d16
  25              		.type	__core_init, %function
  26              	__core_init:
  27              	.LFB141:
  28              		.file 1 "../../modules/ChibiOS/os/common/startup/ARMCMx/compilers/GCC/crt1.c"
  29              		.loc 1 137 24 view -0
  30              		.cfi_startproc
  31              		@ args = 0, pretend = 0, frame = 0
  32              		@ frame_needed = 0, uses_anonymous_args = 0
  33              		.loc 1 140 3 view .LVU1
  34              	.LBB46:
  35              	.LBI46:
  36              		.file 2 "../../modules/ChibiOS/os/common/ext/ARM/CMSIS/Core/Include/core_cm7.h"
  37              		.loc 2 2229 22 view .LVU2
  38              	.LBB47:
  39              		.loc 2 2232 5 view .LVU3
  40              	.LBB48:
  41              	.LBI48:
  42              		.file 3 "../../modules/ChibiOS/os/common/ext/ARM/CMSIS/Core/Include/cmsis_gcc.h"
  43              		.loc 3 877 27 view .LVU4
  44              	.LBB49:
  45              		.loc 3 879 3 view .LVU5
  46              	.LBE49:
  47              	.LBE48:
  48              	.LBE47:
  49              	.LBE46:
  50              		.loc 1 137 24 is_stmt 0 view .LVU6
  51 0000 70B5     		push	{r4, r5, r6, lr}
  52              		.cfi_def_cfa_offset 16
  53              		.cfi_offset 4, -16
  54              		.cfi_offset 5, -12
  55              		.cfi_offset 6, -8
  56              		.cfi_offset 14, -4
  57              	.LBB63:
ARM GAS  /tmp/ccLReJek.s 			page 2


  58              	.LBB62:
  59              	.LBB51:
  60              	.LBB50:
  61              		.loc 3 879 3 view .LVU7
  62              		.syntax unified
  63              	@ 879 "../../modules/ChibiOS/os/common/ext/ARM/CMSIS/Core/Include/cmsis_gcc.h" 1
  64 0002 BFF34F8F 		dsb 0xF
  65              	@ 0 "" 2
  66              		.thumb
  67              		.syntax unified
  68              	.LBE50:
  69              	.LBE51:
  70              		.loc 2 2233 5 is_stmt 1 view .LVU8
  71              	.LBB52:
  72              	.LBI52:
  73              		.loc 3 866 27 view .LVU9
  74              	.LBB53:
  75              		.loc 3 868 3 view .LVU10
  76              		.syntax unified
  77              	@ 868 "../../modules/ChibiOS/os/common/ext/ARM/CMSIS/Core/Include/cmsis_gcc.h" 1
  78 0006 BFF36F8F 		isb 0xF
  79              	@ 0 "" 2
  80              		.thumb
  81              		.syntax unified
  82              	.LBE53:
  83              	.LBE52:
  84              		.loc 2 2234 5 view .LVU11
  85              		.loc 2 2234 18 is_stmt 0 view .LVU12
  86 000a 1A4A     		ldr	r2, .L6
  87 000c 0021     		movs	r1, #0
  88 000e C2F85012 		str	r1, [r2, #592]
  89              		.loc 2 2235 5 is_stmt 1 view .LVU13
  90              	.LBB54:
  91              	.LBI54:
  92              		.loc 3 877 27 view .LVU14
  93              	.LBB55:
  94              		.loc 3 879 3 view .LVU15
  95              		.syntax unified
  96              	@ 879 "../../modules/ChibiOS/os/common/ext/ARM/CMSIS/Core/Include/cmsis_gcc.h" 1
  97 0012 BFF34F8F 		dsb 0xF
  98              	@ 0 "" 2
  99              		.thumb
 100              		.syntax unified
 101              	.LBE55:
 102              	.LBE54:
 103              		.loc 2 2236 5 view .LVU16
 104              	.LBB56:
 105              	.LBI56:
 106              		.loc 3 866 27 view .LVU17
 107              	.LBB57:
 108              		.loc 3 868 3 view .LVU18
 109              		.syntax unified
 110              	@ 868 "../../modules/ChibiOS/os/common/ext/ARM/CMSIS/Core/Include/cmsis_gcc.h" 1
 111 0016 BFF36F8F 		isb 0xF
 112              	@ 0 "" 2
 113              		.thumb
 114              		.syntax unified
ARM GAS  /tmp/ccLReJek.s 			page 3


 115              	.LBE57:
 116              	.LBE56:
 117              		.loc 2 2237 5 view .LVU19
 118              		.loc 2 2237 14 is_stmt 0 view .LVU20
 119 001a 5369     		ldr	r3, [r2, #20]
 120 001c 43F40033 		orr	r3, r3, #131072
 121 0020 5361     		str	r3, [r2, #20]
 122              		.loc 2 2238 5 is_stmt 1 view .LVU21
 123              	.LBB58:
 124              	.LBI58:
 125              		.loc 3 877 27 view .LVU22
 126              	.LBB59:
 127              		.loc 3 879 3 view .LVU23
 128              		.syntax unified
 129              	@ 879 "../../modules/ChibiOS/os/common/ext/ARM/CMSIS/Core/Include/cmsis_gcc.h" 1
 130 0022 BFF34F8F 		dsb 0xF
 131              	@ 0 "" 2
 132              		.thumb
 133              		.syntax unified
 134              	.LBE59:
 135              	.LBE58:
 136              		.loc 2 2239 5 view .LVU24
 137              	.LBB60:
 138              	.LBI60:
 139              		.loc 3 866 27 view .LVU25
 140              	.LBB61:
 141              		.loc 3 868 3 view .LVU26
 142              		.syntax unified
 143              	@ 868 "../../modules/ChibiOS/os/common/ext/ARM/CMSIS/Core/Include/cmsis_gcc.h" 1
 144 0026 BFF36F8F 		isb 0xF
 145              	@ 0 "" 2
 146              		.thumb
 147              		.syntax unified
 148              	.LBE61:
 149              	.LBE60:
 150              	.LBE62:
 151              	.LBE63:
 152              		.loc 1 141 3 view .LVU27
 153              	.LBB64:
 154              	.LBI64:
 155              		.loc 2 2281 22 view .LVU28
 156              	.LBB65:
 157              		.loc 2 2284 5 view .LVU29
 158              		.loc 2 2285 5 view .LVU30
 159              		.loc 2 2286 5 view .LVU31
 160              		.loc 2 2288 5 view .LVU32
 161              		.loc 2 2288 17 is_stmt 0 view .LVU33
 162 002a C2F88410 		str	r1, [r2, #132]
 163              		.loc 2 2289 5 is_stmt 1 view .LVU34
 164              	.LBB66:
 165              	.LBI66:
 166              		.loc 3 877 27 view .LVU35
 167              	.LBB67:
 168              		.loc 3 879 3 view .LVU36
 169              		.syntax unified
 170              	@ 879 "../../modules/ChibiOS/os/common/ext/ARM/CMSIS/Core/Include/cmsis_gcc.h" 1
 171 002e BFF34F8F 		dsb 0xF
ARM GAS  /tmp/ccLReJek.s 			page 4


 172              	@ 0 "" 2
 173              		.thumb
 174              		.syntax unified
 175              	.LBE67:
 176              	.LBE66:
 177              		.loc 2 2291 5 view .LVU37
 178              		.loc 2 2291 12 is_stmt 0 view .LVU38
 179 0032 D2F88030 		ldr	r3, [r2, #128]
 180              	.LVL0:
 181              		.loc 2 2294 5 is_stmt 1 view .LVU39
 182              		.loc 2 2298 52 is_stmt 0 view .LVU40
 183 0036 43F6E074 		movw	r4, #16352
 184              		.loc 2 2296 12 view .LVU41
 185 003a C3F3C900 		ubfx	r0, r3, #3, #10
 186              		.loc 2 2294 10 view .LVU42
 187 003e C3F34E33 		ubfx	r3, r3, #13, #15
 188              	.LVL1:
 189              		.loc 2 2294 10 view .LVU43
 190 0042 5B01     		lsls	r3, r3, #5
 191              	.L3:
 192              		.loc 2 2295 5 is_stmt 1 view .LVU44
 193              		.loc 2 2296 7 view .LVU45
 194              	.LVL2:
 195              		.loc 2 2298 52 is_stmt 0 view .LVU46
 196 0044 03EA0406 		and	r6, r3, r4
 197              		.loc 2 2296 12 view .LVU47
 198 0048 0146     		mov	r1, r0
 199              	.L2:
 200              	.LVL3:
 201              		.loc 2 2297 7 is_stmt 1 view .LVU48
 202              		.loc 2 2298 9 view .LVU49
 203              		.loc 2 2298 73 is_stmt 0 view .LVU50
 204 004a 46EA8175 		orr	r5, r6, r1, lsl #30
 205              		.loc 2 2303 7 view .LVU51
 206 004e 0139     		subs	r1, r1, #1
 207              	.LVL4:
 208              		.loc 2 2298 20 view .LVU52
 209 0050 C2F86052 		str	r5, [r2, #608]
 210              		.loc 2 2303 15 is_stmt 1 view .LVU53
 211              		.loc 2 2303 7 is_stmt 0 view .LVU54
 212 0054 F9D2     		bcs	.L2
 213              		.loc 2 2304 12 is_stmt 1 view .LVU55
 214              		.loc 2 2304 5 is_stmt 0 view .LVU56
 215 0056 203B     		subs	r3, r3, #32
 216 0058 13F1200F 		cmn	r3, #32
 217 005c F2D1     		bne	.L3
 218              		.loc 2 2305 5 is_stmt 1 view .LVU57
 219              	.LBB68:
 220              	.LBI68:
 221              		.loc 3 877 27 view .LVU58
 222              	.LBB69:
 223              		.loc 3 879 3 view .LVU59
 224              		.syntax unified
 225              	@ 879 "../../modules/ChibiOS/os/common/ext/ARM/CMSIS/Core/Include/cmsis_gcc.h" 1
 226 005e BFF34F8F 		dsb 0xF
 227              	@ 0 "" 2
 228              		.thumb
ARM GAS  /tmp/ccLReJek.s 			page 5


 229              		.syntax unified
 230              	.LBE69:
 231              	.LBE68:
 232              		.loc 2 2307 5 view .LVU60
 233              		.loc 2 2307 14 is_stmt 0 view .LVU61
 234 0062 5369     		ldr	r3, [r2, #20]
 235 0064 43F48033 		orr	r3, r3, #65536
 236 0068 5361     		str	r3, [r2, #20]
 237              		.loc 2 2309 5 is_stmt 1 view .LVU62
 238              	.LBB70:
 239              	.LBI70:
 240              		.loc 3 877 27 view .LVU63
 241              	.LBB71:
 242              		.loc 3 879 3 view .LVU64
 243              		.syntax unified
 244              	@ 879 "../../modules/ChibiOS/os/common/ext/ARM/CMSIS/Core/Include/cmsis_gcc.h" 1
 245 006a BFF34F8F 		dsb 0xF
 246              	@ 0 "" 2
 247              		.thumb
 248              		.syntax unified
 249              	.LBE71:
 250              	.LBE70:
 251              		.loc 2 2310 5 view .LVU65
 252              	.LBB72:
 253              	.LBI72:
 254              		.loc 3 866 27 view .LVU66
 255              	.LBB73:
 256              		.loc 3 868 3 view .LVU67
 257              		.syntax unified
 258              	@ 868 "../../modules/ChibiOS/os/common/ext/ARM/CMSIS/Core/Include/cmsis_gcc.h" 1
 259 006e BFF36F8F 		isb 0xF
 260              	@ 0 "" 2
 261              	.LVL5:
 262              		.loc 3 868 3 is_stmt 0 view .LVU68
 263              		.thumb
 264              		.syntax unified
 265              	.LBE73:
 266              	.LBE72:
 267              	.LBE65:
 268              	.LBE64:
 269              		.loc 1 143 1 view .LVU69
 270 0072 70BD     		pop	{r4, r5, r6, pc}
 271              	.L7:
 272              		.align	2
 273              	.L6:
 274 0074 00ED00E0 		.word	-536810240
 275              		.cfi_endproc
 276              	.LFE141:
 277              		.size	__core_init, .-__core_init
 278              		.section	.text.__default_exit,"ax",%progbits
 279              		.align	1
 280              		.weak	__default_exit
 281              		.syntax unified
 282              		.thumb
 283              		.thumb_func
 284              		.fpu fpv4-sp-d16
 285              		.type	__default_exit, %function
ARM GAS  /tmp/ccLReJek.s 			page 6


 286              	__default_exit:
 287              	.LFB142:
 288              		.loc 1 187 27 is_stmt 1 view -0
 289              		.cfi_startproc
 290              		@ Volatile: function does not return.
 291              		@ args = 0, pretend = 0, frame = 0
 292              		@ frame_needed = 0, uses_anonymous_args = 0
 293              		@ link register save eliminated.
 294              	.L9:
 295              		.loc 1 190 3 discriminator 1 view .LVU71
 296              		.loc 1 191 3 discriminator 1 view .LVU72
 297              		.loc 1 190 9 discriminator 1 view .LVU73
 298 0000 FEE7     		b	.L9
 299              		.cfi_endproc
 300              	.LFE142:
 301              		.size	__default_exit, .-__default_exit
 302              		.section	.text.__init_ram_areas,"ax",%progbits
 303              		.align	1
 304              		.global	__init_ram_areas
 305              		.syntax unified
 306              		.thumb
 307              		.thumb_func
 308              		.fpu fpv4-sp-d16
 309              		.type	__init_ram_areas, %function
 310              	__init_ram_areas:
 311              	.LFB143:
 312              		.loc 1 197 29 view -0
 313              		.cfi_startproc
 314              		@ args = 0, pretend = 0, frame = 0
 315              		@ frame_needed = 0, uses_anonymous_args = 0
 316              		@ link register save eliminated.
 317              		.loc 1 199 3 view .LVU75
 318              	.LVL6:
 319              		.loc 1 201 3 view .LVU76
 320              	.LBB74:
 321              		.loc 1 202 5 view .LVU77
 322              		.loc 1 203 5 view .LVU78
 323              		.loc 1 206 5 view .LVU79
 324 0000 0A4B     		ldr	r3, .L13
 325              		.loc 1 203 15 is_stmt 0 view .LVU80
 326 0002 0B48     		ldr	r0, .L13+4
 327              		.loc 1 206 11 view .LVU81
 328 0004 0B4A     		ldr	r2, .L13+8
 329              	.LVL7:
 330              	.L11:
 331              		.loc 1 206 11 is_stmt 1 view .LVU82
 332 0006 9042     		cmp	r0, r2
 333 0008 0BD3     		bcc	.L12
 334              		.loc 1 214 10 is_stmt 0 view .LVU83
 335 000a 0B4B     		ldr	r3, .L13+12
 336 000c C11E     		subs	r1, r0, #3
 337 000e DA1C     		adds	r2, r3, #3
 338 0010 121A     		subs	r2, r2, r0
 339 0012 22F00302 		bic	r2, r2, #3
 340 0016 8B42     		cmp	r3, r1
 341 0018 38BF     		it	cc
 342 001a 0022     		movcc	r2, #0
ARM GAS  /tmp/ccLReJek.s 			page 7


 343 001c 0021     		movs	r1, #0
 344 001e FFF7FEBF 		b	memset
 345              	.LVL8:
 346              	.L12:
 347              		.loc 1 207 7 is_stmt 1 view .LVU84
 348              		.loc 1 207 12 is_stmt 0 view .LVU85
 349 0022 53F8041B 		ldr	r1, [r3], #4
 350              		.loc 1 207 10 view .LVU86
 351 0026 40F8041B 		str	r1, [r0], #4
 352              	.LVL9:
 353              		.loc 1 208 7 is_stmt 1 view .LVU87
 354              		.loc 1 209 7 view .LVU88
 355              		.loc 1 209 7 is_stmt 0 view .LVU89
 356 002a ECE7     		b	.L11
 357              	.L14:
 358              		.align	2
 359              	.L13:
 360 002c 00000000 		.word	__ram0_init_text__
 361 0030 00000000 		.word	__ram0_init__
 362 0034 00000000 		.word	__ram0_clear__
 363 0038 00000000 		.word	__ram0_noinit__
 364              	.LBE74:
 365              		.cfi_endproc
 366              	.LFE143:
 367              		.size	__init_ram_areas, .-__init_ram_areas
 368              		.text
 369              	.Letext0:
 370              		.file 4 "/opt/gcc-arm-none-eabi-10-2020-q4-major/arm-none-eabi/include/machine/_default_types.h"
 371              		.file 5 "/opt/gcc-arm-none-eabi-10-2020-q4-major/arm-none-eabi/include/sys/_stdint.h"
 372              		.file 6 "<built-in>"
 373              		.section	.debug_info,"",%progbits
 374              	.Ldebug_info0:
 375 0000 EF060000 		.4byte	0x6ef
 376 0004 0400     		.2byte	0x4
 377 0006 00000000 		.4byte	.Ldebug_abbrev0
 378 000a 04       		.byte	0x4
 379 000b 01       		.uleb128 0x1
 380 000c D2020000 		.4byte	.LASF79
 381 0010 0C       		.byte	0xc
 382 0011 17040000 		.4byte	.LASF80
 383 0015 B7000000 		.4byte	.LASF81
 384 0019 30000000 		.4byte	.Ldebug_ranges0+0x30
 385 001d 00000000 		.4byte	0
 386 0021 00000000 		.4byte	.Ldebug_line0
 387 0025 02       		.uleb128 0x2
 388 0026 01       		.byte	0x1
 389 0027 06       		.byte	0x6
 390 0028 AA010000 		.4byte	.LASF0
 391 002c 03       		.uleb128 0x3
 392 002d 60010000 		.4byte	.LASF5
 393 0031 04       		.byte	0x4
 394 0032 2B       		.byte	0x2b
 395 0033 18       		.byte	0x18
 396 0034 38000000 		.4byte	0x38
 397 0038 02       		.uleb128 0x2
 398 0039 01       		.byte	0x1
 399 003a 08       		.byte	0x8
ARM GAS  /tmp/ccLReJek.s 			page 8


 400 003b 9C010000 		.4byte	.LASF1
 401 003f 02       		.uleb128 0x2
 402 0040 02       		.byte	0x2
 403 0041 05       		.byte	0x5
 404 0042 1F000000 		.4byte	.LASF2
 405 0046 02       		.uleb128 0x2
 406 0047 02       		.byte	0x2
 407 0048 07       		.byte	0x7
 408 0049 2B020000 		.4byte	.LASF3
 409 004d 02       		.uleb128 0x2
 410 004e 04       		.byte	0x4
 411 004f 05       		.byte	0x5
 412 0050 50010000 		.4byte	.LASF4
 413 0054 03       		.uleb128 0x3
 414 0055 3A000000 		.4byte	.LASF6
 415 0059 04       		.byte	0x4
 416 005a 4F       		.byte	0x4f
 417 005b 19       		.byte	0x19
 418 005c 60000000 		.4byte	0x60
 419 0060 02       		.uleb128 0x2
 420 0061 04       		.byte	0x4
 421 0062 07       		.byte	0x7
 422 0063 F1010000 		.4byte	.LASF7
 423 0067 02       		.uleb128 0x2
 424 0068 08       		.byte	0x8
 425 0069 05       		.byte	0x5
 426 006a 02010000 		.4byte	.LASF8
 427 006e 02       		.uleb128 0x2
 428 006f 08       		.byte	0x8
 429 0070 07       		.byte	0x7
 430 0071 BB010000 		.4byte	.LASF9
 431 0075 04       		.uleb128 0x4
 432 0076 04       		.byte	0x4
 433 0077 05       		.byte	0x5
 434 0078 696E7400 		.ascii	"int\000"
 435 007c 02       		.uleb128 0x2
 436 007d 04       		.byte	0x4
 437 007e 07       		.byte	0x7
 438 007f E4010000 		.4byte	.LASF10
 439 0083 03       		.uleb128 0x3
 440 0084 85000000 		.4byte	.LASF11
 441 0088 05       		.byte	0x5
 442 0089 18       		.byte	0x18
 443 008a 13       		.byte	0x13
 444 008b 2C000000 		.4byte	0x2c
 445 008f 05       		.uleb128 0x5
 446 0090 83000000 		.4byte	0x83
 447 0094 03       		.uleb128 0x3
 448 0095 7F020000 		.4byte	.LASF12
 449 0099 05       		.byte	0x5
 450 009a 30       		.byte	0x30
 451 009b 14       		.byte	0x14
 452 009c 54000000 		.4byte	0x54
 453 00a0 05       		.uleb128 0x5
 454 00a1 94000000 		.4byte	0x94
 455 00a5 06       		.uleb128 0x6
 456 00a6 A0000000 		.4byte	0xa0
ARM GAS  /tmp/ccLReJek.s 			page 9


 457 00aa 07       		.uleb128 0x7
 458 00ab AC02     		.2byte	0x2ac
 459 00ad 02       		.byte	0x2
 460 00ae C701     		.2byte	0x1c7
 461 00b0 09       		.byte	0x9
 462 00b1 8A030000 		.4byte	0x38a
 463 00b5 08       		.uleb128 0x8
 464 00b6 62000000 		.4byte	.LASF13
 465 00ba 02       		.byte	0x2
 466 00bb C901     		.2byte	0x1c9
 467 00bd 12       		.byte	0x12
 468 00be A5000000 		.4byte	0xa5
 469 00c2 00       		.byte	0
 470 00c3 08       		.uleb128 0x8
 471 00c4 F1000000 		.4byte	.LASF14
 472 00c8 02       		.byte	0x2
 473 00c9 CA01     		.2byte	0x1ca
 474 00cb 12       		.byte	0x12
 475 00cc A0000000 		.4byte	0xa0
 476 00d0 04       		.byte	0x4
 477 00d1 08       		.uleb128 0x8
 478 00d2 1F020000 		.4byte	.LASF15
 479 00d6 02       		.byte	0x2
 480 00d7 CB01     		.2byte	0x1cb
 481 00d9 12       		.byte	0x12
 482 00da A0000000 		.4byte	0xa0
 483 00de 08       		.byte	0x8
 484 00df 08       		.uleb128 0x8
 485 00e0 96010000 		.4byte	.LASF16
 486 00e4 02       		.byte	0x2
 487 00e5 CC01     		.2byte	0x1cc
 488 00e7 12       		.byte	0x12
 489 00e8 A0000000 		.4byte	0xa0
 490 00ec 0C       		.byte	0xc
 491 00ed 09       		.uleb128 0x9
 492 00ee 53435200 		.ascii	"SCR\000"
 493 00f2 02       		.byte	0x2
 494 00f3 CD01     		.2byte	0x1cd
 495 00f5 12       		.byte	0x12
 496 00f6 A0000000 		.4byte	0xa0
 497 00fa 10       		.byte	0x10
 498 00fb 09       		.uleb128 0x9
 499 00fc 43435200 		.ascii	"CCR\000"
 500 0100 02       		.byte	0x2
 501 0101 CE01     		.2byte	0x1ce
 502 0103 12       		.byte	0x12
 503 0104 A0000000 		.4byte	0xa0
 504 0108 14       		.byte	0x14
 505 0109 08       		.uleb128 0x8
 506 010a B6010000 		.4byte	.LASF17
 507 010e 02       		.byte	0x2
 508 010f CF01     		.2byte	0x1cf
 509 0111 12       		.byte	0x12
 510 0112 9A030000 		.4byte	0x39a
 511 0116 18       		.byte	0x18
 512 0117 08       		.uleb128 0x8
 513 0118 D2010000 		.4byte	.LASF18
ARM GAS  /tmp/ccLReJek.s 			page 10


 514 011c 02       		.byte	0x2
 515 011d D001     		.2byte	0x1d0
 516 011f 12       		.byte	0x12
 517 0120 A0000000 		.4byte	0xa0
 518 0124 24       		.byte	0x24
 519 0125 08       		.uleb128 0x8
 520 0126 6A010000 		.4byte	.LASF19
 521 012a 02       		.byte	0x2
 522 012b D101     		.2byte	0x1d1
 523 012d 12       		.byte	0x12
 524 012e A0000000 		.4byte	0xa0
 525 0132 28       		.byte	0x28
 526 0133 08       		.uleb128 0x8
 527 0134 56020000 		.4byte	.LASF20
 528 0138 02       		.byte	0x2
 529 0139 D201     		.2byte	0x1d2
 530 013b 12       		.byte	0x12
 531 013c A0000000 		.4byte	0xa0
 532 0140 2C       		.byte	0x2c
 533 0141 08       		.uleb128 0x8
 534 0142 3E020000 		.4byte	.LASF21
 535 0146 02       		.byte	0x2
 536 0147 D301     		.2byte	0x1d3
 537 0149 12       		.byte	0x12
 538 014a A0000000 		.4byte	0xa0
 539 014e 30       		.byte	0x30
 540 014f 08       		.uleb128 0x8
 541 0150 03020000 		.4byte	.LASF22
 542 0154 02       		.byte	0x2
 543 0155 D401     		.2byte	0x1d4
 544 0157 12       		.byte	0x12
 545 0158 A0000000 		.4byte	0xa0
 546 015c 34       		.byte	0x34
 547 015d 08       		.uleb128 0x8
 548 015e 2C010000 		.4byte	.LASF23
 549 0162 02       		.byte	0x2
 550 0163 D501     		.2byte	0x1d5
 551 0165 12       		.byte	0x12
 552 0166 A0000000 		.4byte	0xa0
 553 016a 38       		.byte	0x38
 554 016b 08       		.uleb128 0x8
 555 016c F3030000 		.4byte	.LASF24
 556 0170 02       		.byte	0x2
 557 0171 D601     		.2byte	0x1d6
 558 0173 12       		.byte	0x12
 559 0174 A0000000 		.4byte	0xa0
 560 0178 3C       		.byte	0x3c
 561 0179 08       		.uleb128 0x8
 562 017a D8010000 		.4byte	.LASF25
 563 017e 02       		.byte	0x2
 564 017f D701     		.2byte	0x1d7
 565 0181 12       		.byte	0x12
 566 0182 B4030000 		.4byte	0x3b4
 567 0186 40       		.byte	0x40
 568 0187 08       		.uleb128 0x8
 569 0188 4E000000 		.4byte	.LASF26
 570 018c 02       		.byte	0x2
ARM GAS  /tmp/ccLReJek.s 			page 11


 571 018d D801     		.2byte	0x1d8
 572 018f 12       		.byte	0x12
 573 0190 A5000000 		.4byte	0xa5
 574 0194 48       		.byte	0x48
 575 0195 08       		.uleb128 0x8
 576 0196 09020000 		.4byte	.LASF27
 577 019a 02       		.byte	0x2
 578 019b D901     		.2byte	0x1d9
 579 019d 12       		.byte	0x12
 580 019e A5000000 		.4byte	0xa5
 581 01a2 4C       		.byte	0x4c
 582 01a3 08       		.uleb128 0x8
 583 01a4 EC030000 		.4byte	.LASF28
 584 01a8 02       		.byte	0x2
 585 01a9 DA01     		.2byte	0x1da
 586 01ab 12       		.byte	0x12
 587 01ac CE030000 		.4byte	0x3ce
 588 01b0 50       		.byte	0x50
 589 01b1 08       		.uleb128 0x8
 590 01b2 8E010000 		.4byte	.LASF29
 591 01b6 02       		.byte	0x2
 592 01b7 DB01     		.2byte	0x1db
 593 01b9 12       		.byte	0x12
 594 01ba E8030000 		.4byte	0x3e8
 595 01be 60       		.byte	0x60
 596 01bf 08       		.uleb128 0x8
 597 01c0 75020000 		.4byte	.LASF30
 598 01c4 02       		.byte	0x2
 599 01c5 DC01     		.2byte	0x1dc
 600 01c7 12       		.byte	0x12
 601 01c8 ED030000 		.4byte	0x3ed
 602 01cc 74       		.byte	0x74
 603 01cd 08       		.uleb128 0x8
 604 01ce A0000000 		.4byte	.LASF31
 605 01d2 02       		.byte	0x2
 606 01d3 DD01     		.2byte	0x1dd
 607 01d5 12       		.byte	0x12
 608 01d6 A5000000 		.4byte	0xa5
 609 01da 78       		.byte	0x78
 610 01db 09       		.uleb128 0x9
 611 01dc 43545200 		.ascii	"CTR\000"
 612 01e0 02       		.byte	0x2
 613 01e1 DE01     		.2byte	0x1de
 614 01e3 12       		.byte	0x12
 615 01e4 A5000000 		.4byte	0xa5
 616 01e8 7C       		.byte	0x7c
 617 01e9 08       		.uleb128 0x8
 618 01ea 59010000 		.4byte	.LASF32
 619 01ee 02       		.byte	0x2
 620 01ef DF01     		.2byte	0x1df
 621 01f1 12       		.byte	0x12
 622 01f2 A5000000 		.4byte	0xa5
 623 01f6 80       		.byte	0x80
 624 01f7 08       		.uleb128 0x8
 625 01f8 10020000 		.4byte	.LASF33
 626 01fc 02       		.byte	0x2
 627 01fd E001     		.2byte	0x1e0
ARM GAS  /tmp/ccLReJek.s 			page 12


 628 01ff 12       		.byte	0x12
 629 0200 A0000000 		.4byte	0xa0
 630 0204 84       		.byte	0x84
 631 0205 08       		.uleb128 0x8
 632 0206 5B040000 		.4byte	.LASF34
 633 020a 02       		.byte	0x2
 634 020b E101     		.2byte	0x1e1
 635 020d 12       		.byte	0x12
 636 020e A0000000 		.4byte	0xa0
 637 0212 88       		.byte	0x88
 638 0213 08       		.uleb128 0x8
 639 0214 88020000 		.4byte	.LASF35
 640 0218 02       		.byte	0x2
 641 0219 E201     		.2byte	0x1e2
 642 021b 12       		.byte	0x12
 643 021c FD030000 		.4byte	0x3fd
 644 0220 8C       		.byte	0x8c
 645 0221 0A       		.uleb128 0xa
 646 0222 A6000000 		.4byte	.LASF36
 647 0226 02       		.byte	0x2
 648 0227 E301     		.2byte	0x1e3
 649 0229 12       		.byte	0x12
 650 022a A0000000 		.4byte	0xa0
 651 022e 0002     		.2byte	0x200
 652 0230 0A       		.uleb128 0xa
 653 0231 92020000 		.4byte	.LASF37
 654 0235 02       		.byte	0x2
 655 0236 E401     		.2byte	0x1e4
 656 0238 12       		.byte	0x12
 657 0239 0D040000 		.4byte	0x40d
 658 023d 0402     		.2byte	0x204
 659 023f 0A       		.uleb128 0xa
 660 0240 68000000 		.4byte	.LASF38
 661 0244 02       		.byte	0x2
 662 0245 E501     		.2byte	0x1e5
 663 0247 12       		.byte	0x12
 664 0248 A5000000 		.4byte	0xa5
 665 024c 4002     		.2byte	0x240
 666 024e 0A       		.uleb128 0xa
 667 024f 6E000000 		.4byte	.LASF39
 668 0253 02       		.byte	0x2
 669 0254 E601     		.2byte	0x1e6
 670 0256 12       		.byte	0x12
 671 0257 A5000000 		.4byte	0xa5
 672 025b 4402     		.2byte	0x244
 673 025d 0A       		.uleb128 0xa
 674 025e F6000000 		.4byte	.LASF40
 675 0262 02       		.byte	0x2
 676 0263 E701     		.2byte	0x1e7
 677 0265 12       		.byte	0x12
 678 0266 A5000000 		.4byte	0xa5
 679 026a 4802     		.2byte	0x248
 680 026c 0A       		.uleb128 0xa
 681 026d 9C020000 		.4byte	.LASF41
 682 0271 02       		.byte	0x2
 683 0272 E801     		.2byte	0x1e8
 684 0274 12       		.byte	0x12
ARM GAS  /tmp/ccLReJek.s 			page 13


 685 0275 ED030000 		.4byte	0x3ed
 686 0279 4C02     		.2byte	0x24c
 687 027b 0A       		.uleb128 0xa
 688 027c 6F010000 		.4byte	.LASF42
 689 0280 02       		.byte	0x2
 690 0281 E901     		.2byte	0x1e9
 691 0283 12       		.byte	0x12
 692 0284 A0000000 		.4byte	0xa0
 693 0288 5002     		.2byte	0x250
 694 028a 0A       		.uleb128 0xa
 695 028b A6020000 		.4byte	.LASF43
 696 028f 02       		.byte	0x2
 697 0290 EA01     		.2byte	0x1ea
 698 0292 12       		.byte	0x12
 699 0293 ED030000 		.4byte	0x3ed
 700 0297 5402     		.2byte	0x254
 701 0299 0A       		.uleb128 0xa
 702 029a 86010000 		.4byte	.LASF44
 703 029e 02       		.byte	0x2
 704 029f EB01     		.2byte	0x1eb
 705 02a1 12       		.byte	0x12
 706 02a2 A0000000 		.4byte	0xa0
 707 02a6 5802     		.2byte	0x258
 708 02a8 0A       		.uleb128 0xa
 709 02a9 77010000 		.4byte	.LASF45
 710 02ad 02       		.byte	0x2
 711 02ae EC01     		.2byte	0x1ec
 712 02b0 12       		.byte	0x12
 713 02b1 A0000000 		.4byte	0xa0
 714 02b5 5C02     		.2byte	0x25c
 715 02b7 0A       		.uleb128 0xa
 716 02b8 EB000000 		.4byte	.LASF46
 717 02bc 02       		.byte	0x2
 718 02bd ED01     		.2byte	0x1ed
 719 02bf 12       		.byte	0x12
 720 02c0 A0000000 		.4byte	0xa0
 721 02c4 6002     		.2byte	0x260
 722 02c6 0A       		.uleb128 0xa
 723 02c7 17020000 		.4byte	.LASF47
 724 02cb 02       		.byte	0x2
 725 02cc EE01     		.2byte	0x1ee
 726 02ce 12       		.byte	0x12
 727 02cf A0000000 		.4byte	0xa0
 728 02d3 6402     		.2byte	0x264
 729 02d5 0A       		.uleb128 0xa
 730 02d6 09040000 		.4byte	.LASF48
 731 02da 02       		.byte	0x2
 732 02db EF01     		.2byte	0x1ef
 733 02dd 12       		.byte	0x12
 734 02de A0000000 		.4byte	0xa0
 735 02e2 6802     		.2byte	0x268
 736 02e4 0A       		.uleb128 0xa
 737 02e5 00000000 		.4byte	.LASF49
 738 02e9 02       		.byte	0x2
 739 02ea F001     		.2byte	0x1f0
 740 02ec 12       		.byte	0x12
 741 02ed A0000000 		.4byte	0xa0
ARM GAS  /tmp/ccLReJek.s 			page 14


 742 02f1 6C02     		.2byte	0x26c
 743 02f3 0A       		.uleb128 0xa
 744 02f4 45000000 		.4byte	.LASF50
 745 02f8 02       		.byte	0x2
 746 02f9 F101     		.2byte	0x1f1
 747 02fb 12       		.byte	0x12
 748 02fc A0000000 		.4byte	0xa0
 749 0300 7002     		.2byte	0x270
 750 0302 0A       		.uleb128 0xa
 751 0303 C4020000 		.4byte	.LASF51
 752 0307 02       		.byte	0x2
 753 0308 F201     		.2byte	0x1f2
 754 030a 12       		.byte	0x12
 755 030b A0000000 		.4byte	0xa0
 756 030f 7402     		.2byte	0x274
 757 0311 0A       		.uleb128 0xa
 758 0312 B0020000 		.4byte	.LASF52
 759 0316 02       		.byte	0x2
 760 0317 F301     		.2byte	0x1f3
 761 0319 12       		.byte	0x12
 762 031a 1D040000 		.4byte	0x41d
 763 031e 7802     		.2byte	0x278
 764 0320 0A       		.uleb128 0xa
 765 0321 7F010000 		.4byte	.LASF53
 766 0325 02       		.byte	0x2
 767 0326 F401     		.2byte	0x1f4
 768 0328 12       		.byte	0x12
 769 0329 A0000000 		.4byte	0xa0
 770 032d 9002     		.2byte	0x290
 771 032f 0A       		.uleb128 0xa
 772 0330 61040000 		.4byte	.LASF54
 773 0334 02       		.byte	0x2
 774 0335 F501     		.2byte	0x1f5
 775 0337 12       		.byte	0x12
 776 0338 A0000000 		.4byte	0xa0
 777 033c 9402     		.2byte	0x294
 778 033e 0A       		.uleb128 0xa
 779 033f 55000000 		.4byte	.LASF55
 780 0343 02       		.byte	0x2
 781 0344 F601     		.2byte	0x1f6
 782 0346 12       		.byte	0x12
 783 0347 A0000000 		.4byte	0xa0
 784 034b 9802     		.2byte	0x298
 785 034d 0A       		.uleb128 0xa
 786 034e 70020000 		.4byte	.LASF56
 787 0352 02       		.byte	0x2
 788 0353 F701     		.2byte	0x1f7
 789 0355 12       		.byte	0x12
 790 0356 A0000000 		.4byte	0xa0
 791 035a 9C02     		.2byte	0x29c
 792 035c 0A       		.uleb128 0xa
 793 035d CB020000 		.4byte	.LASF57
 794 0361 02       		.byte	0x2
 795 0362 F801     		.2byte	0x1f8
 796 0364 12       		.byte	0x12
 797 0365 A0000000 		.4byte	0xa0
 798 0369 A002     		.2byte	0x2a0
ARM GAS  /tmp/ccLReJek.s 			page 15


 799 036b 0A       		.uleb128 0xa
 800 036c BA020000 		.4byte	.LASF58
 801 0370 02       		.byte	0x2
 802 0371 F901     		.2byte	0x1f9
 803 0373 12       		.byte	0x12
 804 0374 ED030000 		.4byte	0x3ed
 805 0378 A402     		.2byte	0x2a4
 806 037a 0A       		.uleb128 0xa
 807 037b FC000000 		.4byte	.LASF59
 808 037f 02       		.byte	0x2
 809 0380 FA01     		.2byte	0x1fa
 810 0382 12       		.byte	0x12
 811 0383 A0000000 		.4byte	0xa0
 812 0387 A802     		.2byte	0x2a8
 813 0389 00       		.byte	0
 814 038a 0B       		.uleb128 0xb
 815 038b 8F000000 		.4byte	0x8f
 816 038f 9A030000 		.4byte	0x39a
 817 0393 0C       		.uleb128 0xc
 818 0394 7C000000 		.4byte	0x7c
 819 0398 0B       		.byte	0xb
 820 0399 00       		.byte	0
 821 039a 05       		.uleb128 0x5
 822 039b 8A030000 		.4byte	0x38a
 823 039f 0B       		.uleb128 0xb
 824 03a0 A5000000 		.4byte	0xa5
 825 03a4 AF030000 		.4byte	0x3af
 826 03a8 0C       		.uleb128 0xc
 827 03a9 7C000000 		.4byte	0x7c
 828 03ad 01       		.byte	0x1
 829 03ae 00       		.byte	0
 830 03af 06       		.uleb128 0x6
 831 03b0 9F030000 		.4byte	0x39f
 832 03b4 05       		.uleb128 0x5
 833 03b5 AF030000 		.4byte	0x3af
 834 03b9 0B       		.uleb128 0xb
 835 03ba A5000000 		.4byte	0xa5
 836 03be C9030000 		.4byte	0x3c9
 837 03c2 0C       		.uleb128 0xc
 838 03c3 7C000000 		.4byte	0x7c
 839 03c7 03       		.byte	0x3
 840 03c8 00       		.byte	0
 841 03c9 06       		.uleb128 0x6
 842 03ca B9030000 		.4byte	0x3b9
 843 03ce 05       		.uleb128 0x5
 844 03cf C9030000 		.4byte	0x3c9
 845 03d3 0B       		.uleb128 0xb
 846 03d4 A5000000 		.4byte	0xa5
 847 03d8 E3030000 		.4byte	0x3e3
 848 03dc 0C       		.uleb128 0xc
 849 03dd 7C000000 		.4byte	0x7c
 850 03e1 04       		.byte	0x4
 851 03e2 00       		.byte	0
 852 03e3 06       		.uleb128 0x6
 853 03e4 D3030000 		.4byte	0x3d3
 854 03e8 05       		.uleb128 0x5
 855 03e9 E3030000 		.4byte	0x3e3
ARM GAS  /tmp/ccLReJek.s 			page 16


 856 03ed 0B       		.uleb128 0xb
 857 03ee 94000000 		.4byte	0x94
 858 03f2 FD030000 		.4byte	0x3fd
 859 03f6 0C       		.uleb128 0xc
 860 03f7 7C000000 		.4byte	0x7c
 861 03fb 00       		.byte	0
 862 03fc 00       		.byte	0
 863 03fd 0B       		.uleb128 0xb
 864 03fe 94000000 		.4byte	0x94
 865 0402 0D040000 		.4byte	0x40d
 866 0406 0C       		.uleb128 0xc
 867 0407 7C000000 		.4byte	0x7c
 868 040b 5C       		.byte	0x5c
 869 040c 00       		.byte	0
 870 040d 0B       		.uleb128 0xb
 871 040e 94000000 		.4byte	0x94
 872 0412 1D040000 		.4byte	0x41d
 873 0416 0C       		.uleb128 0xc
 874 0417 7C000000 		.4byte	0x7c
 875 041b 0E       		.byte	0xe
 876 041c 00       		.byte	0
 877 041d 0B       		.uleb128 0xb
 878 041e 94000000 		.4byte	0x94
 879 0422 2D040000 		.4byte	0x42d
 880 0426 0C       		.uleb128 0xc
 881 0427 7C000000 		.4byte	0x7c
 882 042b 05       		.byte	0x5
 883 042c 00       		.byte	0
 884 042d 0D       		.uleb128 0xd
 885 042e 8D000000 		.4byte	.LASF60
 886 0432 02       		.byte	0x2
 887 0433 FB01     		.2byte	0x1fb
 888 0435 03       		.byte	0x3
 889 0436 AA000000 		.4byte	0xaa
 890 043a 0E       		.uleb128 0xe
 891 043b 10       		.byte	0x10
 892 043c 01       		.byte	0x1
 893 043d 35       		.byte	0x35
 894 043e 09       		.byte	0x9
 895 043f 78040000 		.4byte	0x478
 896 0443 0F       		.uleb128 0xf
 897 0444 72040000 		.4byte	.LASF61
 898 0448 01       		.byte	0x1
 899 0449 36       		.byte	0x36
 900 044a 1A       		.byte	0x1a
 901 044b 78040000 		.4byte	0x478
 902 044f 00       		.byte	0
 903 0450 0F       		.uleb128 0xf
 904 0451 68040000 		.4byte	.LASF62
 905 0455 01       		.byte	0x1
 906 0456 37       		.byte	0x37
 907 0457 1A       		.byte	0x1a
 908 0458 78040000 		.4byte	0x478
 909 045c 04       		.byte	0x4
 910 045d 0F       		.uleb128 0xf
 911 045e 14000000 		.4byte	.LASF63
 912 0462 01       		.byte	0x1
ARM GAS  /tmp/ccLReJek.s 			page 17


 913 0463 38       		.byte	0x38
 914 0464 1A       		.byte	0x1a
 915 0465 78040000 		.4byte	0x478
 916 0469 08       		.byte	0x8
 917 046a 0F       		.uleb128 0xf
 918 046b 1F010000 		.4byte	.LASF64
 919 046f 01       		.byte	0x1
 920 0470 39       		.byte	0x39
 921 0471 1A       		.byte	0x1a
 922 0472 78040000 		.4byte	0x478
 923 0476 0C       		.byte	0xc
 924 0477 00       		.byte	0
 925 0478 10       		.uleb128 0x10
 926 0479 04       		.byte	0x4
 927 047a 94000000 		.4byte	0x94
 928 047e 03       		.uleb128 0x3
 929 047f 31010000 		.4byte	.LASF65
 930 0483 01       		.byte	0x1
 931 0484 3A       		.byte	0x3a
 932 0485 03       		.byte	0x3
 933 0486 3A040000 		.4byte	0x43a
 934 048a 06       		.uleb128 0x6
 935 048b 7E040000 		.4byte	0x47e
 936 048f 11       		.uleb128 0x11
 937 0490 43020000 		.4byte	.LASF66
 938 0494 01       		.byte	0x1
 939 0495 41       		.byte	0x41
 940 0496 11       		.byte	0x11
 941 0497 94000000 		.4byte	0x94
 942 049b 11       		.uleb128 0x11
 943 049c 06000000 		.4byte	.LASF67
 944 04a0 01       		.byte	0x1
 945 04a1 41       		.byte	0x41
 946 04a2 25       		.byte	0x25
 947 04a3 94000000 		.4byte	0x94
 948 04a7 11       		.uleb128 0x11
 949 04a8 41010000 		.4byte	.LASF68
 950 04ac 01       		.byte	0x1
 951 04ad 41       		.byte	0x41
 952 04ae 34       		.byte	0x34
 953 04af 94000000 		.4byte	0x94
 954 04b3 11       		.uleb128 0x11
 955 04b4 60020000 		.4byte	.LASF69
 956 04b8 01       		.byte	0x1
 957 04b9 41       		.byte	0x41
 958 04ba 44       		.byte	0x44
 959 04bb 94000000 		.4byte	0x94
 960 04bf 0B       		.uleb128 0xb
 961 04c0 8A040000 		.4byte	0x48a
 962 04c4 CF040000 		.4byte	0x4cf
 963 04c8 0C       		.uleb128 0xc
 964 04c9 7C000000 		.4byte	0x7c
 965 04cd 00       		.byte	0
 966 04ce 00       		.byte	0
 967 04cf 06       		.uleb128 0x6
 968 04d0 BF040000 		.4byte	0x4bf
 969 04d4 12       		.uleb128 0x12
ARM GAS  /tmp/ccLReJek.s 			page 18


 970 04d5 96000000 		.4byte	.LASF70
 971 04d9 01       		.byte	0x1
 972 04da 5D       		.byte	0x5d
 973 04db 1E       		.byte	0x1e
 974 04dc CF040000 		.4byte	0x4cf
 975 04e0 13       		.uleb128 0x13
 976 04e1 29000000 		.4byte	.LASF71
 977 04e5 01       		.byte	0x1
 978 04e6 C5       		.byte	0xc5
 979 04e7 06       		.byte	0x6
 980 04e8 00000000 		.4byte	.LFB143
 981 04ec 3C000000 		.4byte	.LFE143-.LFB143
 982 04f0 01       		.uleb128 0x1
 983 04f1 9C       		.byte	0x9c
 984 04f2 39050000 		.4byte	0x539
 985 04f6 14       		.uleb128 0x14
 986 04f7 72617000 		.ascii	"rap\000"
 987 04fb 01       		.byte	0x1
 988 04fc C7       		.byte	0xc7
 989 04fd 1A       		.byte	0x1a
 990 04fe 39050000 		.4byte	0x539
 991 0502 15       		.uleb128 0x15
 992 0503 00000000 		.4byte	.LBB74
 993 0507 3C000000 		.4byte	.LBE74-.LBB74
 994 050b 14       		.uleb128 0x14
 995 050c 747000   		.ascii	"tp\000"
 996 050f 01       		.byte	0x1
 997 0510 CA       		.byte	0xca
 998 0511 0F       		.byte	0xf
 999 0512 78040000 		.4byte	0x478
 1000 0516 16       		.uleb128 0x16
 1001 0517 7000     		.ascii	"p\000"
 1002 0519 01       		.byte	0x1
 1003 051a CB       		.byte	0xcb
 1004 051b 0F       		.byte	0xf
 1005 051c 78040000 		.4byte	0x478
 1006 0520 08000000 		.4byte	.LLST3
 1007 0524 00000000 		.4byte	.LVUS3
 1008 0528 17       		.uleb128 0x17
 1009 0529 22000000 		.4byte	.LVL8
 1010 052d E7060000 		.4byte	0x6e7
 1011 0531 18       		.uleb128 0x18
 1012 0532 01       		.uleb128 0x1
 1013 0533 51       		.byte	0x51
 1014 0534 01       		.uleb128 0x1
 1015 0535 30       		.byte	0x30
 1016 0536 00       		.byte	0
 1017 0537 00       		.byte	0
 1018 0538 00       		.byte	0
 1019 0539 10       		.uleb128 0x10
 1020 053a 04       		.byte	0x4
 1021 053b 8A040000 		.4byte	0x48a
 1022 053f 19       		.uleb128 0x19
 1023 0540 10010000 		.4byte	.LASF82
 1024 0544 01       		.byte	0x1
 1025 0545 BB       		.byte	0xbb
 1026 0546 06       		.byte	0x6
ARM GAS  /tmp/ccLReJek.s 			page 19


 1027 0547 00000000 		.4byte	.LFB142
 1028 054b 02000000 		.4byte	.LFE142-.LFB142
 1029 054f 01       		.uleb128 0x1
 1030 0550 9C       		.byte	0x9c
 1031 0551 13       		.uleb128 0x13
 1032 0552 AB000000 		.4byte	.LASF72
 1033 0556 01       		.byte	0x1
 1034 0557 89       		.byte	0x89
 1035 0558 06       		.byte	0x6
 1036 0559 00000000 		.4byte	.LFB141
 1037 055d 78000000 		.4byte	.LFE141-.LFB141
 1038 0561 01       		.uleb128 0x1
 1039 0562 9C       		.byte	0x9c
 1040 0563 93060000 		.4byte	0x693
 1041 0567 1A       		.uleb128 0x1a
 1042 0568 C9060000 		.4byte	0x6c9
 1043 056c 00000000 		.4byte	.LBI46
 1044 0570 02       		.byte	.LVU2
 1045 0571 00000000 		.4byte	.Ldebug_ranges0+0
 1046 0575 01       		.byte	0x1
 1047 0576 8C       		.byte	0x8c
 1048 0577 03       		.byte	0x3
 1049 0578 FD050000 		.4byte	0x5fd
 1050 057c 1B       		.uleb128 0x1b
 1051 057d D3060000 		.4byte	0x6d3
 1052 0581 00000000 		.4byte	.LBI48
 1053 0585 04       		.byte	.LVU4
 1054 0586 18000000 		.4byte	.Ldebug_ranges0+0x18
 1055 058a 02       		.byte	0x2
 1056 058b B808     		.2byte	0x8b8
 1057 058d 05       		.byte	0x5
 1058 058e 1C       		.uleb128 0x1c
 1059 058f DD060000 		.4byte	0x6dd
 1060 0593 06000000 		.4byte	.LBI52
 1061 0597 01       		.byte	.LVU9
 1062 0598 06000000 		.4byte	.LBB52
 1063 059c 04000000 		.4byte	.LBE52-.LBB52
 1064 05a0 02       		.byte	0x2
 1065 05a1 B908     		.2byte	0x8b9
 1066 05a3 05       		.byte	0x5
 1067 05a4 1C       		.uleb128 0x1c
 1068 05a5 D3060000 		.4byte	0x6d3
 1069 05a9 12000000 		.4byte	.LBI54
 1070 05ad 01       		.byte	.LVU14
 1071 05ae 12000000 		.4byte	.LBB54
 1072 05b2 04000000 		.4byte	.LBE54-.LBB54
 1073 05b6 02       		.byte	0x2
 1074 05b7 BB08     		.2byte	0x8bb
 1075 05b9 05       		.byte	0x5
 1076 05ba 1C       		.uleb128 0x1c
 1077 05bb DD060000 		.4byte	0x6dd
 1078 05bf 16000000 		.4byte	.LBI56
 1079 05c3 01       		.byte	.LVU17
 1080 05c4 16000000 		.4byte	.LBB56
 1081 05c8 04000000 		.4byte	.LBE56-.LBB56
 1082 05cc 02       		.byte	0x2
 1083 05cd BC08     		.2byte	0x8bc
ARM GAS  /tmp/ccLReJek.s 			page 20


 1084 05cf 05       		.byte	0x5
 1085 05d0 1C       		.uleb128 0x1c
 1086 05d1 D3060000 		.4byte	0x6d3
 1087 05d5 22000000 		.4byte	.LBI58
 1088 05d9 01       		.byte	.LVU22
 1089 05da 22000000 		.4byte	.LBB58
 1090 05de 04000000 		.4byte	.LBE58-.LBB58
 1091 05e2 02       		.byte	0x2
 1092 05e3 BE08     		.2byte	0x8be
 1093 05e5 05       		.byte	0x5
 1094 05e6 1C       		.uleb128 0x1c
 1095 05e7 DD060000 		.4byte	0x6dd
 1096 05eb 26000000 		.4byte	.LBI60
 1097 05ef 01       		.byte	.LVU25
 1098 05f0 26000000 		.4byte	.LBB60
 1099 05f4 04000000 		.4byte	.LBE60-.LBB60
 1100 05f8 02       		.byte	0x2
 1101 05f9 BF08     		.2byte	0x8bf
 1102 05fb 05       		.byte	0x5
 1103 05fc 00       		.byte	0
 1104 05fd 1D       		.uleb128 0x1d
 1105 05fe 93060000 		.4byte	0x693
 1106 0602 2A000000 		.4byte	.LBI64
 1107 0606 01       		.byte	.LVU28
 1108 0607 2A000000 		.4byte	.LBB64
 1109 060b 48000000 		.4byte	.LBE64-.LBB64
 1110 060f 01       		.byte	0x1
 1111 0610 8D       		.byte	0x8d
 1112 0611 03       		.byte	0x3
 1113 0612 1E       		.uleb128 0x1e
 1114 0613 A1060000 		.4byte	0x6a1
 1115 0617 40000000 		.4byte	.LLST0
 1116 061b 3E000000 		.4byte	.LVUS0
 1117 061f 1E       		.uleb128 0x1e
 1118 0620 AE060000 		.4byte	0x6ae
 1119 0624 55000000 		.4byte	.LLST1
 1120 0628 53000000 		.4byte	.LVUS1
 1121 062c 1E       		.uleb128 0x1e
 1122 062d BB060000 		.4byte	0x6bb
 1123 0631 74000000 		.4byte	.LLST2
 1124 0635 70000000 		.4byte	.LVUS2
 1125 0639 1C       		.uleb128 0x1c
 1126 063a D3060000 		.4byte	0x6d3
 1127 063e 2E000000 		.4byte	.LBI66
 1128 0642 01       		.byte	.LVU35
 1129 0643 2E000000 		.4byte	.LBB66
 1130 0647 04000000 		.4byte	.LBE66-.LBB66
 1131 064b 02       		.byte	0x2
 1132 064c F108     		.2byte	0x8f1
 1133 064e 05       		.byte	0x5
 1134 064f 1C       		.uleb128 0x1c
 1135 0650 D3060000 		.4byte	0x6d3
 1136 0654 5E000000 		.4byte	.LBI68
 1137 0658 01       		.byte	.LVU58
 1138 0659 5E000000 		.4byte	.LBB68
 1139 065d 04000000 		.4byte	.LBE68-.LBB68
 1140 0661 02       		.byte	0x2
ARM GAS  /tmp/ccLReJek.s 			page 21


 1141 0662 0109     		.2byte	0x901
 1142 0664 05       		.byte	0x5
 1143 0665 1C       		.uleb128 0x1c
 1144 0666 D3060000 		.4byte	0x6d3
 1145 066a 6A000000 		.4byte	.LBI70
 1146 066e 01       		.byte	.LVU63
 1147 066f 6A000000 		.4byte	.LBB70
 1148 0673 04000000 		.4byte	.LBE70-.LBB70
 1149 0677 02       		.byte	0x2
 1150 0678 0509     		.2byte	0x905
 1151 067a 05       		.byte	0x5
 1152 067b 1C       		.uleb128 0x1c
 1153 067c DD060000 		.4byte	0x6dd
 1154 0680 6E000000 		.4byte	.LBI72
 1155 0684 01       		.byte	.LVU66
 1156 0685 6E000000 		.4byte	.LBB72
 1157 0689 04000000 		.4byte	.LBE72-.LBB72
 1158 068d 02       		.byte	0x2
 1159 068e 0609     		.2byte	0x906
 1160 0690 05       		.byte	0x5
 1161 0691 00       		.byte	0
 1162 0692 00       		.byte	0
 1163 0693 1F       		.uleb128 0x1f
 1164 0694 F8030000 		.4byte	.LASF83
 1165 0698 02       		.byte	0x2
 1166 0699 E908     		.2byte	0x8e9
 1167 069b 16       		.byte	0x16
 1168 069c 03       		.byte	0x3
 1169 069d C9060000 		.4byte	0x6c9
 1170 06a1 20       		.uleb128 0x20
 1171 06a2 24020000 		.4byte	.LASF73
 1172 06a6 02       		.byte	0x2
 1173 06a7 EC08     		.2byte	0x8ec
 1174 06a9 0E       		.byte	0xe
 1175 06aa 94000000 		.4byte	0x94
 1176 06ae 20       		.uleb128 0x20
 1177 06af 5B020000 		.4byte	.LASF74
 1178 06b3 02       		.byte	0x2
 1179 06b4 ED08     		.2byte	0x8ed
 1180 06b6 0E       		.byte	0xe
 1181 06b7 94000000 		.4byte	0x94
 1182 06bb 20       		.uleb128 0x20
 1183 06bc DF010000 		.4byte	.LASF75
 1184 06c0 02       		.byte	0x2
 1185 06c1 EE08     		.2byte	0x8ee
 1186 06c3 0E       		.byte	0xe
 1187 06c4 94000000 		.4byte	0x94
 1188 06c8 00       		.byte	0
 1189 06c9 21       		.uleb128 0x21
 1190 06ca DB030000 		.4byte	.LASF76
 1191 06ce 02       		.byte	0x2
 1192 06cf B508     		.2byte	0x8b5
 1193 06d1 16       		.byte	0x16
 1194 06d2 03       		.byte	0x3
 1195 06d3 21       		.uleb128 0x21
 1196 06d4 5C000000 		.4byte	.LASF77
 1197 06d8 03       		.byte	0x3
ARM GAS  /tmp/ccLReJek.s 			page 22


 1198 06d9 6D03     		.2byte	0x36d
 1199 06db 1B       		.byte	0x1b
 1200 06dc 03       		.byte	0x3
 1201 06dd 21       		.uleb128 0x21
 1202 06de 11040000 		.4byte	.LASF78
 1203 06e2 03       		.byte	0x3
 1204 06e3 6203     		.2byte	0x362
 1205 06e5 1B       		.byte	0x1b
 1206 06e6 03       		.byte	0x3
 1207 06e7 22       		.uleb128 0x22
 1208 06e8 D4030000 		.4byte	.LASF84
 1209 06ec 74000000 		.4byte	.LASF85
 1210 06f0 06       		.byte	0x6
 1211 06f1 00       		.byte	0
 1212 06f2 00       		.byte	0
 1213              		.section	.debug_abbrev,"",%progbits
 1214              	.Ldebug_abbrev0:
 1215 0000 01       		.uleb128 0x1
 1216 0001 11       		.uleb128 0x11
 1217 0002 01       		.byte	0x1
 1218 0003 25       		.uleb128 0x25
 1219 0004 0E       		.uleb128 0xe
 1220 0005 13       		.uleb128 0x13
 1221 0006 0B       		.uleb128 0xb
 1222 0007 03       		.uleb128 0x3
 1223 0008 0E       		.uleb128 0xe
 1224 0009 1B       		.uleb128 0x1b
 1225 000a 0E       		.uleb128 0xe
 1226 000b 55       		.uleb128 0x55
 1227 000c 17       		.uleb128 0x17
 1228 000d 11       		.uleb128 0x11
 1229 000e 01       		.uleb128 0x1
 1230 000f 10       		.uleb128 0x10
 1231 0010 17       		.uleb128 0x17
 1232 0011 00       		.byte	0
 1233 0012 00       		.byte	0
 1234 0013 02       		.uleb128 0x2
 1235 0014 24       		.uleb128 0x24
 1236 0015 00       		.byte	0
 1237 0016 0B       		.uleb128 0xb
 1238 0017 0B       		.uleb128 0xb
 1239 0018 3E       		.uleb128 0x3e
 1240 0019 0B       		.uleb128 0xb
 1241 001a 03       		.uleb128 0x3
 1242 001b 0E       		.uleb128 0xe
 1243 001c 00       		.byte	0
 1244 001d 00       		.byte	0
 1245 001e 03       		.uleb128 0x3
 1246 001f 16       		.uleb128 0x16
 1247 0020 00       		.byte	0
 1248 0021 03       		.uleb128 0x3
 1249 0022 0E       		.uleb128 0xe
 1250 0023 3A       		.uleb128 0x3a
 1251 0024 0B       		.uleb128 0xb
 1252 0025 3B       		.uleb128 0x3b
 1253 0026 0B       		.uleb128 0xb
 1254 0027 39       		.uleb128 0x39
ARM GAS  /tmp/ccLReJek.s 			page 23


 1255 0028 0B       		.uleb128 0xb
 1256 0029 49       		.uleb128 0x49
 1257 002a 13       		.uleb128 0x13
 1258 002b 00       		.byte	0
 1259 002c 00       		.byte	0
 1260 002d 04       		.uleb128 0x4
 1261 002e 24       		.uleb128 0x24
 1262 002f 00       		.byte	0
 1263 0030 0B       		.uleb128 0xb
 1264 0031 0B       		.uleb128 0xb
 1265 0032 3E       		.uleb128 0x3e
 1266 0033 0B       		.uleb128 0xb
 1267 0034 03       		.uleb128 0x3
 1268 0035 08       		.uleb128 0x8
 1269 0036 00       		.byte	0
 1270 0037 00       		.byte	0
 1271 0038 05       		.uleb128 0x5
 1272 0039 35       		.uleb128 0x35
 1273 003a 00       		.byte	0
 1274 003b 49       		.uleb128 0x49
 1275 003c 13       		.uleb128 0x13
 1276 003d 00       		.byte	0
 1277 003e 00       		.byte	0
 1278 003f 06       		.uleb128 0x6
 1279 0040 26       		.uleb128 0x26
 1280 0041 00       		.byte	0
 1281 0042 49       		.uleb128 0x49
 1282 0043 13       		.uleb128 0x13
 1283 0044 00       		.byte	0
 1284 0045 00       		.byte	0
 1285 0046 07       		.uleb128 0x7
 1286 0047 13       		.uleb128 0x13
 1287 0048 01       		.byte	0x1
 1288 0049 0B       		.uleb128 0xb
 1289 004a 05       		.uleb128 0x5
 1290 004b 3A       		.uleb128 0x3a
 1291 004c 0B       		.uleb128 0xb
 1292 004d 3B       		.uleb128 0x3b
 1293 004e 05       		.uleb128 0x5
 1294 004f 39       		.uleb128 0x39
 1295 0050 0B       		.uleb128 0xb
 1296 0051 01       		.uleb128 0x1
 1297 0052 13       		.uleb128 0x13
 1298 0053 00       		.byte	0
 1299 0054 00       		.byte	0
 1300 0055 08       		.uleb128 0x8
 1301 0056 0D       		.uleb128 0xd
 1302 0057 00       		.byte	0
 1303 0058 03       		.uleb128 0x3
 1304 0059 0E       		.uleb128 0xe
 1305 005a 3A       		.uleb128 0x3a
 1306 005b 0B       		.uleb128 0xb
 1307 005c 3B       		.uleb128 0x3b
 1308 005d 05       		.uleb128 0x5
 1309 005e 39       		.uleb128 0x39
 1310 005f 0B       		.uleb128 0xb
 1311 0060 49       		.uleb128 0x49
ARM GAS  /tmp/ccLReJek.s 			page 24


 1312 0061 13       		.uleb128 0x13
 1313 0062 38       		.uleb128 0x38
 1314 0063 0B       		.uleb128 0xb
 1315 0064 00       		.byte	0
 1316 0065 00       		.byte	0
 1317 0066 09       		.uleb128 0x9
 1318 0067 0D       		.uleb128 0xd
 1319 0068 00       		.byte	0
 1320 0069 03       		.uleb128 0x3
 1321 006a 08       		.uleb128 0x8
 1322 006b 3A       		.uleb128 0x3a
 1323 006c 0B       		.uleb128 0xb
 1324 006d 3B       		.uleb128 0x3b
 1325 006e 05       		.uleb128 0x5
 1326 006f 39       		.uleb128 0x39
 1327 0070 0B       		.uleb128 0xb
 1328 0071 49       		.uleb128 0x49
 1329 0072 13       		.uleb128 0x13
 1330 0073 38       		.uleb128 0x38
 1331 0074 0B       		.uleb128 0xb
 1332 0075 00       		.byte	0
 1333 0076 00       		.byte	0
 1334 0077 0A       		.uleb128 0xa
 1335 0078 0D       		.uleb128 0xd
 1336 0079 00       		.byte	0
 1337 007a 03       		.uleb128 0x3
 1338 007b 0E       		.uleb128 0xe
 1339 007c 3A       		.uleb128 0x3a
 1340 007d 0B       		.uleb128 0xb
 1341 007e 3B       		.uleb128 0x3b
 1342 007f 05       		.uleb128 0x5
 1343 0080 39       		.uleb128 0x39
 1344 0081 0B       		.uleb128 0xb
 1345 0082 49       		.uleb128 0x49
 1346 0083 13       		.uleb128 0x13
 1347 0084 38       		.uleb128 0x38
 1348 0085 05       		.uleb128 0x5
 1349 0086 00       		.byte	0
 1350 0087 00       		.byte	0
 1351 0088 0B       		.uleb128 0xb
 1352 0089 01       		.uleb128 0x1
 1353 008a 01       		.byte	0x1
 1354 008b 49       		.uleb128 0x49
 1355 008c 13       		.uleb128 0x13
 1356 008d 01       		.uleb128 0x1
 1357 008e 13       		.uleb128 0x13
 1358 008f 00       		.byte	0
 1359 0090 00       		.byte	0
 1360 0091 0C       		.uleb128 0xc
 1361 0092 21       		.uleb128 0x21
 1362 0093 00       		.byte	0
 1363 0094 49       		.uleb128 0x49
 1364 0095 13       		.uleb128 0x13
 1365 0096 2F       		.uleb128 0x2f
 1366 0097 0B       		.uleb128 0xb
 1367 0098 00       		.byte	0
 1368 0099 00       		.byte	0
ARM GAS  /tmp/ccLReJek.s 			page 25


 1369 009a 0D       		.uleb128 0xd
 1370 009b 16       		.uleb128 0x16
 1371 009c 00       		.byte	0
 1372 009d 03       		.uleb128 0x3
 1373 009e 0E       		.uleb128 0xe
 1374 009f 3A       		.uleb128 0x3a
 1375 00a0 0B       		.uleb128 0xb
 1376 00a1 3B       		.uleb128 0x3b
 1377 00a2 05       		.uleb128 0x5
 1378 00a3 39       		.uleb128 0x39
 1379 00a4 0B       		.uleb128 0xb
 1380 00a5 49       		.uleb128 0x49
 1381 00a6 13       		.uleb128 0x13
 1382 00a7 00       		.byte	0
 1383 00a8 00       		.byte	0
 1384 00a9 0E       		.uleb128 0xe
 1385 00aa 13       		.uleb128 0x13
 1386 00ab 01       		.byte	0x1
 1387 00ac 0B       		.uleb128 0xb
 1388 00ad 0B       		.uleb128 0xb
 1389 00ae 3A       		.uleb128 0x3a
 1390 00af 0B       		.uleb128 0xb
 1391 00b0 3B       		.uleb128 0x3b
 1392 00b1 0B       		.uleb128 0xb
 1393 00b2 39       		.uleb128 0x39
 1394 00b3 0B       		.uleb128 0xb
 1395 00b4 01       		.uleb128 0x1
 1396 00b5 13       		.uleb128 0x13
 1397 00b6 00       		.byte	0
 1398 00b7 00       		.byte	0
 1399 00b8 0F       		.uleb128 0xf
 1400 00b9 0D       		.uleb128 0xd
 1401 00ba 00       		.byte	0
 1402 00bb 03       		.uleb128 0x3
 1403 00bc 0E       		.uleb128 0xe
 1404 00bd 3A       		.uleb128 0x3a
 1405 00be 0B       		.uleb128 0xb
 1406 00bf 3B       		.uleb128 0x3b
 1407 00c0 0B       		.uleb128 0xb
 1408 00c1 39       		.uleb128 0x39
 1409 00c2 0B       		.uleb128 0xb
 1410 00c3 49       		.uleb128 0x49
 1411 00c4 13       		.uleb128 0x13
 1412 00c5 38       		.uleb128 0x38
 1413 00c6 0B       		.uleb128 0xb
 1414 00c7 00       		.byte	0
 1415 00c8 00       		.byte	0
 1416 00c9 10       		.uleb128 0x10
 1417 00ca 0F       		.uleb128 0xf
 1418 00cb 00       		.byte	0
 1419 00cc 0B       		.uleb128 0xb
 1420 00cd 0B       		.uleb128 0xb
 1421 00ce 49       		.uleb128 0x49
 1422 00cf 13       		.uleb128 0x13
 1423 00d0 00       		.byte	0
 1424 00d1 00       		.byte	0
 1425 00d2 11       		.uleb128 0x11
ARM GAS  /tmp/ccLReJek.s 			page 26


 1426 00d3 34       		.uleb128 0x34
 1427 00d4 00       		.byte	0
 1428 00d5 03       		.uleb128 0x3
 1429 00d6 0E       		.uleb128 0xe
 1430 00d7 3A       		.uleb128 0x3a
 1431 00d8 0B       		.uleb128 0xb
 1432 00d9 3B       		.uleb128 0x3b
 1433 00da 0B       		.uleb128 0xb
 1434 00db 39       		.uleb128 0x39
 1435 00dc 0B       		.uleb128 0xb
 1436 00dd 49       		.uleb128 0x49
 1437 00de 13       		.uleb128 0x13
 1438 00df 3F       		.uleb128 0x3f
 1439 00e0 19       		.uleb128 0x19
 1440 00e1 3C       		.uleb128 0x3c
 1441 00e2 19       		.uleb128 0x19
 1442 00e3 00       		.byte	0
 1443 00e4 00       		.byte	0
 1444 00e5 12       		.uleb128 0x12
 1445 00e6 34       		.uleb128 0x34
 1446 00e7 00       		.byte	0
 1447 00e8 03       		.uleb128 0x3
 1448 00e9 0E       		.uleb128 0xe
 1449 00ea 3A       		.uleb128 0x3a
 1450 00eb 0B       		.uleb128 0xb
 1451 00ec 3B       		.uleb128 0x3b
 1452 00ed 0B       		.uleb128 0xb
 1453 00ee 39       		.uleb128 0x39
 1454 00ef 0B       		.uleb128 0xb
 1455 00f0 49       		.uleb128 0x49
 1456 00f1 13       		.uleb128 0x13
 1457 00f2 00       		.byte	0
 1458 00f3 00       		.byte	0
 1459 00f4 13       		.uleb128 0x13
 1460 00f5 2E       		.uleb128 0x2e
 1461 00f6 01       		.byte	0x1
 1462 00f7 3F       		.uleb128 0x3f
 1463 00f8 19       		.uleb128 0x19
 1464 00f9 03       		.uleb128 0x3
 1465 00fa 0E       		.uleb128 0xe
 1466 00fb 3A       		.uleb128 0x3a
 1467 00fc 0B       		.uleb128 0xb
 1468 00fd 3B       		.uleb128 0x3b
 1469 00fe 0B       		.uleb128 0xb
 1470 00ff 39       		.uleb128 0x39
 1471 0100 0B       		.uleb128 0xb
 1472 0101 27       		.uleb128 0x27
 1473 0102 19       		.uleb128 0x19
 1474 0103 11       		.uleb128 0x11
 1475 0104 01       		.uleb128 0x1
 1476 0105 12       		.uleb128 0x12
 1477 0106 06       		.uleb128 0x6
 1478 0107 40       		.uleb128 0x40
 1479 0108 18       		.uleb128 0x18
 1480 0109 9742     		.uleb128 0x2117
 1481 010b 19       		.uleb128 0x19
 1482 010c 01       		.uleb128 0x1
ARM GAS  /tmp/ccLReJek.s 			page 27


 1483 010d 13       		.uleb128 0x13
 1484 010e 00       		.byte	0
 1485 010f 00       		.byte	0
 1486 0110 14       		.uleb128 0x14
 1487 0111 34       		.uleb128 0x34
 1488 0112 00       		.byte	0
 1489 0113 03       		.uleb128 0x3
 1490 0114 08       		.uleb128 0x8
 1491 0115 3A       		.uleb128 0x3a
 1492 0116 0B       		.uleb128 0xb
 1493 0117 3B       		.uleb128 0x3b
 1494 0118 0B       		.uleb128 0xb
 1495 0119 39       		.uleb128 0x39
 1496 011a 0B       		.uleb128 0xb
 1497 011b 49       		.uleb128 0x49
 1498 011c 13       		.uleb128 0x13
 1499 011d 00       		.byte	0
 1500 011e 00       		.byte	0
 1501 011f 15       		.uleb128 0x15
 1502 0120 0B       		.uleb128 0xb
 1503 0121 01       		.byte	0x1
 1504 0122 11       		.uleb128 0x11
 1505 0123 01       		.uleb128 0x1
 1506 0124 12       		.uleb128 0x12
 1507 0125 06       		.uleb128 0x6
 1508 0126 00       		.byte	0
 1509 0127 00       		.byte	0
 1510 0128 16       		.uleb128 0x16
 1511 0129 34       		.uleb128 0x34
 1512 012a 00       		.byte	0
 1513 012b 03       		.uleb128 0x3
 1514 012c 08       		.uleb128 0x8
 1515 012d 3A       		.uleb128 0x3a
 1516 012e 0B       		.uleb128 0xb
 1517 012f 3B       		.uleb128 0x3b
 1518 0130 0B       		.uleb128 0xb
 1519 0131 39       		.uleb128 0x39
 1520 0132 0B       		.uleb128 0xb
 1521 0133 49       		.uleb128 0x49
 1522 0134 13       		.uleb128 0x13
 1523 0135 02       		.uleb128 0x2
 1524 0136 17       		.uleb128 0x17
 1525 0137 B742     		.uleb128 0x2137
 1526 0139 17       		.uleb128 0x17
 1527 013a 00       		.byte	0
 1528 013b 00       		.byte	0
 1529 013c 17       		.uleb128 0x17
 1530 013d 898201   		.uleb128 0x4109
 1531 0140 01       		.byte	0x1
 1532 0141 11       		.uleb128 0x11
 1533 0142 01       		.uleb128 0x1
 1534 0143 9542     		.uleb128 0x2115
 1535 0145 19       		.uleb128 0x19
 1536 0146 31       		.uleb128 0x31
 1537 0147 13       		.uleb128 0x13
 1538 0148 00       		.byte	0
 1539 0149 00       		.byte	0
ARM GAS  /tmp/ccLReJek.s 			page 28


 1540 014a 18       		.uleb128 0x18
 1541 014b 8A8201   		.uleb128 0x410a
 1542 014e 00       		.byte	0
 1543 014f 02       		.uleb128 0x2
 1544 0150 18       		.uleb128 0x18
 1545 0151 9142     		.uleb128 0x2111
 1546 0153 18       		.uleb128 0x18
 1547 0154 00       		.byte	0
 1548 0155 00       		.byte	0
 1549 0156 19       		.uleb128 0x19
 1550 0157 2E       		.uleb128 0x2e
 1551 0158 00       		.byte	0
 1552 0159 3F       		.uleb128 0x3f
 1553 015a 19       		.uleb128 0x19
 1554 015b 03       		.uleb128 0x3
 1555 015c 0E       		.uleb128 0xe
 1556 015d 3A       		.uleb128 0x3a
 1557 015e 0B       		.uleb128 0xb
 1558 015f 3B       		.uleb128 0x3b
 1559 0160 0B       		.uleb128 0xb
 1560 0161 39       		.uleb128 0x39
 1561 0162 0B       		.uleb128 0xb
 1562 0163 27       		.uleb128 0x27
 1563 0164 19       		.uleb128 0x19
 1564 0165 8701     		.uleb128 0x87
 1565 0167 19       		.uleb128 0x19
 1566 0168 11       		.uleb128 0x11
 1567 0169 01       		.uleb128 0x1
 1568 016a 12       		.uleb128 0x12
 1569 016b 06       		.uleb128 0x6
 1570 016c 40       		.uleb128 0x40
 1571 016d 18       		.uleb128 0x18
 1572 016e 9742     		.uleb128 0x2117
 1573 0170 19       		.uleb128 0x19
 1574 0171 00       		.byte	0
 1575 0172 00       		.byte	0
 1576 0173 1A       		.uleb128 0x1a
 1577 0174 1D       		.uleb128 0x1d
 1578 0175 01       		.byte	0x1
 1579 0176 31       		.uleb128 0x31
 1580 0177 13       		.uleb128 0x13
 1581 0178 52       		.uleb128 0x52
 1582 0179 01       		.uleb128 0x1
 1583 017a B842     		.uleb128 0x2138
 1584 017c 0B       		.uleb128 0xb
 1585 017d 55       		.uleb128 0x55
 1586 017e 17       		.uleb128 0x17
 1587 017f 58       		.uleb128 0x58
 1588 0180 0B       		.uleb128 0xb
 1589 0181 59       		.uleb128 0x59
 1590 0182 0B       		.uleb128 0xb
 1591 0183 57       		.uleb128 0x57
 1592 0184 0B       		.uleb128 0xb
 1593 0185 01       		.uleb128 0x1
 1594 0186 13       		.uleb128 0x13
 1595 0187 00       		.byte	0
 1596 0188 00       		.byte	0
ARM GAS  /tmp/ccLReJek.s 			page 29


 1597 0189 1B       		.uleb128 0x1b
 1598 018a 1D       		.uleb128 0x1d
 1599 018b 00       		.byte	0
 1600 018c 31       		.uleb128 0x31
 1601 018d 13       		.uleb128 0x13
 1602 018e 52       		.uleb128 0x52
 1603 018f 01       		.uleb128 0x1
 1604 0190 B842     		.uleb128 0x2138
 1605 0192 0B       		.uleb128 0xb
 1606 0193 55       		.uleb128 0x55
 1607 0194 17       		.uleb128 0x17
 1608 0195 58       		.uleb128 0x58
 1609 0196 0B       		.uleb128 0xb
 1610 0197 59       		.uleb128 0x59
 1611 0198 05       		.uleb128 0x5
 1612 0199 57       		.uleb128 0x57
 1613 019a 0B       		.uleb128 0xb
 1614 019b 00       		.byte	0
 1615 019c 00       		.byte	0
 1616 019d 1C       		.uleb128 0x1c
 1617 019e 1D       		.uleb128 0x1d
 1618 019f 00       		.byte	0
 1619 01a0 31       		.uleb128 0x31
 1620 01a1 13       		.uleb128 0x13
 1621 01a2 52       		.uleb128 0x52
 1622 01a3 01       		.uleb128 0x1
 1623 01a4 B842     		.uleb128 0x2138
 1624 01a6 0B       		.uleb128 0xb
 1625 01a7 11       		.uleb128 0x11
 1626 01a8 01       		.uleb128 0x1
 1627 01a9 12       		.uleb128 0x12
 1628 01aa 06       		.uleb128 0x6
 1629 01ab 58       		.uleb128 0x58
 1630 01ac 0B       		.uleb128 0xb
 1631 01ad 59       		.uleb128 0x59
 1632 01ae 05       		.uleb128 0x5
 1633 01af 57       		.uleb128 0x57
 1634 01b0 0B       		.uleb128 0xb
 1635 01b1 00       		.byte	0
 1636 01b2 00       		.byte	0
 1637 01b3 1D       		.uleb128 0x1d
 1638 01b4 1D       		.uleb128 0x1d
 1639 01b5 01       		.byte	0x1
 1640 01b6 31       		.uleb128 0x31
 1641 01b7 13       		.uleb128 0x13
 1642 01b8 52       		.uleb128 0x52
 1643 01b9 01       		.uleb128 0x1
 1644 01ba B842     		.uleb128 0x2138
 1645 01bc 0B       		.uleb128 0xb
 1646 01bd 11       		.uleb128 0x11
 1647 01be 01       		.uleb128 0x1
 1648 01bf 12       		.uleb128 0x12
 1649 01c0 06       		.uleb128 0x6
 1650 01c1 58       		.uleb128 0x58
 1651 01c2 0B       		.uleb128 0xb
 1652 01c3 59       		.uleb128 0x59
 1653 01c4 0B       		.uleb128 0xb
ARM GAS  /tmp/ccLReJek.s 			page 30


 1654 01c5 57       		.uleb128 0x57
 1655 01c6 0B       		.uleb128 0xb
 1656 01c7 00       		.byte	0
 1657 01c8 00       		.byte	0
 1658 01c9 1E       		.uleb128 0x1e
 1659 01ca 34       		.uleb128 0x34
 1660 01cb 00       		.byte	0
 1661 01cc 31       		.uleb128 0x31
 1662 01cd 13       		.uleb128 0x13
 1663 01ce 02       		.uleb128 0x2
 1664 01cf 17       		.uleb128 0x17
 1665 01d0 B742     		.uleb128 0x2137
 1666 01d2 17       		.uleb128 0x17
 1667 01d3 00       		.byte	0
 1668 01d4 00       		.byte	0
 1669 01d5 1F       		.uleb128 0x1f
 1670 01d6 2E       		.uleb128 0x2e
 1671 01d7 01       		.byte	0x1
 1672 01d8 03       		.uleb128 0x3
 1673 01d9 0E       		.uleb128 0xe
 1674 01da 3A       		.uleb128 0x3a
 1675 01db 0B       		.uleb128 0xb
 1676 01dc 3B       		.uleb128 0x3b
 1677 01dd 05       		.uleb128 0x5
 1678 01de 39       		.uleb128 0x39
 1679 01df 0B       		.uleb128 0xb
 1680 01e0 27       		.uleb128 0x27
 1681 01e1 19       		.uleb128 0x19
 1682 01e2 20       		.uleb128 0x20
 1683 01e3 0B       		.uleb128 0xb
 1684 01e4 01       		.uleb128 0x1
 1685 01e5 13       		.uleb128 0x13
 1686 01e6 00       		.byte	0
 1687 01e7 00       		.byte	0
 1688 01e8 20       		.uleb128 0x20
 1689 01e9 34       		.uleb128 0x34
 1690 01ea 00       		.byte	0
 1691 01eb 03       		.uleb128 0x3
 1692 01ec 0E       		.uleb128 0xe
 1693 01ed 3A       		.uleb128 0x3a
 1694 01ee 0B       		.uleb128 0xb
 1695 01ef 3B       		.uleb128 0x3b
 1696 01f0 05       		.uleb128 0x5
 1697 01f1 39       		.uleb128 0x39
 1698 01f2 0B       		.uleb128 0xb
 1699 01f3 49       		.uleb128 0x49
 1700 01f4 13       		.uleb128 0x13
 1701 01f5 00       		.byte	0
 1702 01f6 00       		.byte	0
 1703 01f7 21       		.uleb128 0x21
 1704 01f8 2E       		.uleb128 0x2e
 1705 01f9 00       		.byte	0
 1706 01fa 03       		.uleb128 0x3
 1707 01fb 0E       		.uleb128 0xe
 1708 01fc 3A       		.uleb128 0x3a
 1709 01fd 0B       		.uleb128 0xb
 1710 01fe 3B       		.uleb128 0x3b
ARM GAS  /tmp/ccLReJek.s 			page 31


 1711 01ff 05       		.uleb128 0x5
 1712 0200 39       		.uleb128 0x39
 1713 0201 0B       		.uleb128 0xb
 1714 0202 27       		.uleb128 0x27
 1715 0203 19       		.uleb128 0x19
 1716 0204 20       		.uleb128 0x20
 1717 0205 0B       		.uleb128 0xb
 1718 0206 00       		.byte	0
 1719 0207 00       		.byte	0
 1720 0208 22       		.uleb128 0x22
 1721 0209 2E       		.uleb128 0x2e
 1722 020a 00       		.byte	0
 1723 020b 3F       		.uleb128 0x3f
 1724 020c 19       		.uleb128 0x19
 1725 020d 3C       		.uleb128 0x3c
 1726 020e 19       		.uleb128 0x19
 1727 020f 6E       		.uleb128 0x6e
 1728 0210 0E       		.uleb128 0xe
 1729 0211 03       		.uleb128 0x3
 1730 0212 0E       		.uleb128 0xe
 1731 0213 3A       		.uleb128 0x3a
 1732 0214 0B       		.uleb128 0xb
 1733 0215 3B       		.uleb128 0x3b
 1734 0216 0B       		.uleb128 0xb
 1735 0217 00       		.byte	0
 1736 0218 00       		.byte	0
 1737 0219 00       		.byte	0
 1738              		.section	.debug_loc,"",%progbits
 1739              	.Ldebug_loc0:
 1740              	.LVUS3:
 1741 0000 00       		.uleb128 .LVU82
 1742 0001 00       		.uleb128 .LVU84
 1743 0002 00       		.uleb128 .LVU84
 1744 0003 00       		.uleb128 .LVU87
 1745 0004 00       		.uleb128 .LVU87
 1746 0005 01       		.uleb128 .LVU88
 1747 0006 01       		.uleb128 .LVU88
 1748 0007 00       		.uleb128 0
 1749              	.LLST3:
 1750 0008 06000000 		.4byte	.LVL7
 1751 000c 21000000 		.4byte	.LVL8-1
 1752 0010 0100     		.2byte	0x1
 1753 0012 50       		.byte	0x50
 1754 0013 22000000 		.4byte	.LVL8
 1755 0017 2A000000 		.4byte	.LVL9
 1756 001b 0100     		.2byte	0x1
 1757 001d 50       		.byte	0x50
 1758 001e 2A000000 		.4byte	.LVL9
 1759 0022 2A000000 		.4byte	.LVL9
 1760 0026 0300     		.2byte	0x3
 1761 0028 70       		.byte	0x70
 1762 0029 7C       		.sleb128 -4
 1763 002a 9F       		.byte	0x9f
 1764 002b 2A000000 		.4byte	.LVL9
 1765 002f 3C000000 		.4byte	.LFE143
 1766 0033 0100     		.2byte	0x1
 1767 0035 50       		.byte	0x50
ARM GAS  /tmp/ccLReJek.s 			page 32


 1768 0036 00000000 		.4byte	0
 1769 003a 00000000 		.4byte	0
 1770              	.LVUS0:
 1771 003e 00       		.uleb128 .LVU39
 1772 003f 00       		.uleb128 .LVU43
 1773              	.LLST0:
 1774 0040 36000000 		.4byte	.LVL0
 1775 0044 42000000 		.4byte	.LVL1
 1776 0048 0100     		.2byte	0x1
 1777 004a 53       		.byte	0x53
 1778 004b 00000000 		.4byte	0
 1779 004f 00000000 		.4byte	0
 1780              	.LVUS1:
 1781 0053 01       		.uleb128 .LVU40
 1782 0054 00       		.uleb128 .LVU43
 1783              	.LLST1:
 1784 0055 36000000 		.4byte	.LVL0
 1785 0059 42000000 		.4byte	.LVL1
 1786 005d 0900     		.2byte	0x9
 1787 005f 73       		.byte	0x73
 1788 0060 00       		.sleb128 0
 1789 0061 3D       		.byte	0x3d
 1790 0062 25       		.byte	0x25
 1791 0063 0A       		.byte	0xa
 1792 0064 FF7F     		.2byte	0x7fff
 1793 0066 1A       		.byte	0x1a
 1794 0067 9F       		.byte	0x9f
 1795 0068 00000000 		.4byte	0
 1796 006c 00000000 		.4byte	0
 1797              	.LVUS2:
 1798 0070 00       		.uleb128 .LVU48
 1799 0071 00       		.uleb128 .LVU52
 1800 0072 00       		.uleb128 .LVU52
 1801 0073 00       		.uleb128 .LVU68
 1802              	.LLST2:
 1803 0074 4A000000 		.4byte	.LVL3
 1804 0078 50000000 		.4byte	.LVL4
 1805 007c 0100     		.2byte	0x1
 1806 007e 51       		.byte	0x51
 1807 007f 50000000 		.4byte	.LVL4
 1808 0083 72000000 		.4byte	.LVL5
 1809 0087 0300     		.2byte	0x3
 1810 0089 71       		.byte	0x71
 1811 008a 01       		.sleb128 1
 1812 008b 9F       		.byte	0x9f
 1813 008c 00000000 		.4byte	0
 1814 0090 00000000 		.4byte	0
 1815              		.section	.debug_aranges,"",%progbits
 1816 0000 2C000000 		.4byte	0x2c
 1817 0004 0200     		.2byte	0x2
 1818 0006 00000000 		.4byte	.Ldebug_info0
 1819 000a 04       		.byte	0x4
 1820 000b 00       		.byte	0
 1821 000c 0000     		.2byte	0
 1822 000e 0000     		.2byte	0
 1823 0010 00000000 		.4byte	.LFB141
 1824 0014 78000000 		.4byte	.LFE141-.LFB141
ARM GAS  /tmp/ccLReJek.s 			page 33


 1825 0018 00000000 		.4byte	.LFB142
 1826 001c 02000000 		.4byte	.LFE142-.LFB142
 1827 0020 00000000 		.4byte	.LFB143
 1828 0024 3C000000 		.4byte	.LFE143-.LFB143
 1829 0028 00000000 		.4byte	0
 1830 002c 00000000 		.4byte	0
 1831              		.section	.debug_ranges,"",%progbits
 1832              	.Ldebug_ranges0:
 1833 0000 00000000 		.4byte	.LBB46
 1834 0004 00000000 		.4byte	.LBE46
 1835 0008 02000000 		.4byte	.LBB63
 1836 000c 2A000000 		.4byte	.LBE63
 1837 0010 00000000 		.4byte	0
 1838 0014 00000000 		.4byte	0
 1839 0018 00000000 		.4byte	.LBB48
 1840 001c 00000000 		.4byte	.LBE48
 1841 0020 02000000 		.4byte	.LBB51
 1842 0024 06000000 		.4byte	.LBE51
 1843 0028 00000000 		.4byte	0
 1844 002c 00000000 		.4byte	0
 1845 0030 00000000 		.4byte	.LFB141
 1846 0034 78000000 		.4byte	.LFE141
 1847 0038 00000000 		.4byte	.LFB142
 1848 003c 02000000 		.4byte	.LFE142
 1849 0040 00000000 		.4byte	.LFB143
 1850 0044 3C000000 		.4byte	.LFE143
 1851 0048 00000000 		.4byte	0
 1852 004c 00000000 		.4byte	0
 1853              		.section	.debug_line,"",%progbits
 1854              	.Ldebug_line0:
 1855 0000 32030000 		.section	.debug_str,"MS",%progbits,1
 1855      03006901 
 1855      00000201 
 1855      FB0E0D00 
 1855      01010101 
 1856              	.LASF49:
 1857 0000 44434353 		.ascii	"DCCSW\000"
 1857      5700
 1858              	.LASF67:
 1859 0006 5F5F7261 		.ascii	"__ram0_init__\000"
 1859      6D305F69 
 1859      6E69745F 
 1859      5F00
 1860              	.LASF63:
 1861 0014 636C6561 		.ascii	"clear_area\000"
 1861      725F6172 
 1861      656100
 1862              	.LASF2:
 1863 001f 73686F72 		.ascii	"short int\000"
 1863      7420696E 
 1863      7400
 1864              	.LASF71:
 1865 0029 5F5F696E 		.ascii	"__init_ram_areas\000"
 1865      69745F72 
 1865      616D5F61 
 1865      72656173 
 1865      00
ARM GAS  /tmp/ccLReJek.s 			page 34


 1866              	.LASF6:
 1867 003a 5F5F7569 		.ascii	"__uint32_t\000"
 1867      6E743332 
 1867      5F7400
 1868              	.LASF50:
 1869 0045 44434349 		.ascii	"DCCIMVAC\000"
 1869      4D564143 
 1869      00
 1870              	.LASF26:
 1871 004e 49445F44 		.ascii	"ID_DFR\000"
 1871      465200
 1872              	.LASF55:
 1873 0055 41484250 		.ascii	"AHBPCR\000"
 1873      435200
 1874              	.LASF77:
 1875 005c 5F5F4453 		.ascii	"__DSB\000"
 1875      4200
 1876              	.LASF13:
 1877 0062 43505549 		.ascii	"CPUID\000"
 1877      4400
 1878              	.LASF38:
 1879 0068 4D564652 		.ascii	"MVFR0\000"
 1879      3000
 1880              	.LASF39:
 1881 006e 4D564652 		.ascii	"MVFR1\000"
 1881      3100
 1882              	.LASF85:
 1883 0074 5F5F6275 		.ascii	"__builtin_memset\000"
 1883      696C7469 
 1883      6E5F6D65 
 1883      6D736574 
 1883      00
 1884              	.LASF11:
 1885 0085 75696E74 		.ascii	"uint8_t\000"
 1885      385F7400 
 1886              	.LASF60:
 1887 008d 5343425F 		.ascii	"SCB_Type\000"
 1887      54797065 
 1887      00
 1888              	.LASF70:
 1889 0096 72616D5F 		.ascii	"ram_areas\000"
 1889      61726561 
 1889      7300
 1890              	.LASF31:
 1891 00a0 434C4944 		.ascii	"CLIDR\000"
 1891      5200
 1892              	.LASF36:
 1893 00a6 53544952 		.ascii	"STIR\000"
 1893      00
 1894              	.LASF72:
 1895 00ab 5F5F636F 		.ascii	"__core_init\000"
 1895      72655F69 
 1895      6E697400 
 1896              	.LASF81:
 1897 00b7 2F686F6D 		.ascii	"/home/mahathi/mathur407_payload2/4.0.7/build/CUAVv5"
 1897      652F6D61 
 1897      68617468 
ARM GAS  /tmp/ccLReJek.s 			page 35


 1897      692F6D61 
 1897      74687572 
 1898 00ea 00       		.ascii	"\000"
 1899              	.LASF46:
 1900 00eb 44434953 		.ascii	"DCISW\000"
 1900      5700
 1901              	.LASF14:
 1902 00f1 49435352 		.ascii	"ICSR\000"
 1902      00
 1903              	.LASF40:
 1904 00f6 4D564652 		.ascii	"MVFR2\000"
 1904      3200
 1905              	.LASF59:
 1906 00fc 41424653 		.ascii	"ABFSR\000"
 1906      5200
 1907              	.LASF8:
 1908 0102 6C6F6E67 		.ascii	"long long int\000"
 1908      206C6F6E 
 1908      6720696E 
 1908      7400
 1909              	.LASF82:
 1910 0110 5F5F6465 		.ascii	"__default_exit\000"
 1910      6661756C 
 1910      745F6578 
 1910      697400
 1911              	.LASF64:
 1912 011f 6E6F5F69 		.ascii	"no_init_area\000"
 1912      6E69745F 
 1912      61726561 
 1912      00
 1913              	.LASF23:
 1914 012c 42464152 		.ascii	"BFAR\000"
 1914      00
 1915              	.LASF65:
 1916 0131 72616D5F 		.ascii	"ram_init_area_t\000"
 1916      696E6974 
 1916      5F617265 
 1916      615F7400 
 1917              	.LASF68:
 1918 0141 5F5F7261 		.ascii	"__ram0_clear__\000"
 1918      6D305F63 
 1918      6C656172 
 1918      5F5F00
 1919              	.LASF4:
 1920 0150 6C6F6E67 		.ascii	"long int\000"
 1920      20696E74 
 1920      00
 1921              	.LASF32:
 1922 0159 43435349 		.ascii	"CCSIDR\000"
 1922      445200
 1923              	.LASF5:
 1924 0160 5F5F7569 		.ascii	"__uint8_t\000"
 1924      6E74385F 
 1924      7400
 1925              	.LASF19:
 1926 016a 43465352 		.ascii	"CFSR\000"
 1926      00
ARM GAS  /tmp/ccLReJek.s 			page 36


 1927              	.LASF42:
 1928 016f 49434941 		.ascii	"ICIALLU\000"
 1928      4C4C5500 
 1929              	.LASF45:
 1930 0177 4443494D 		.ascii	"DCIMVAC\000"
 1930      56414300 
 1931              	.LASF53:
 1932 017f 4954434D 		.ascii	"ITCMCR\000"
 1932      435200
 1933              	.LASF44:
 1934 0186 4943494D 		.ascii	"ICIMVAU\000"
 1934      56415500 
 1935              	.LASF29:
 1936 018e 49445F49 		.ascii	"ID_ISAR\000"
 1936      53415200 
 1937              	.LASF16:
 1938 0196 41495243 		.ascii	"AIRCR\000"
 1938      5200
 1939              	.LASF1:
 1940 019c 756E7369 		.ascii	"unsigned char\000"
 1940      676E6564 
 1940      20636861 
 1940      7200
 1941              	.LASF0:
 1942 01aa 7369676E 		.ascii	"signed char\000"
 1942      65642063 
 1942      68617200 
 1943              	.LASF17:
 1944 01b6 53485052 		.ascii	"SHPR\000"
 1944      00
 1945              	.LASF9:
 1946 01bb 6C6F6E67 		.ascii	"long long unsigned int\000"
 1946      206C6F6E 
 1946      6720756E 
 1946      7369676E 
 1946      65642069 
 1947              	.LASF18:
 1948 01d2 53484353 		.ascii	"SHCSR\000"
 1948      5200
 1949              	.LASF25:
 1950 01d8 49445F50 		.ascii	"ID_PFR\000"
 1950      465200
 1951              	.LASF75:
 1952 01df 77617973 		.ascii	"ways\000"
 1952      00
 1953              	.LASF10:
 1954 01e4 756E7369 		.ascii	"unsigned int\000"
 1954      676E6564 
 1954      20696E74 
 1954      00
 1955              	.LASF7:
 1956 01f1 6C6F6E67 		.ascii	"long unsigned int\000"
 1956      20756E73 
 1956      69676E65 
 1956      6420696E 
 1956      7400
 1957              	.LASF22:
ARM GAS  /tmp/ccLReJek.s 			page 37


 1958 0203 4D4D4641 		.ascii	"MMFAR\000"
 1958      5200
 1959              	.LASF27:
 1960 0209 49445F41 		.ascii	"ID_AFR\000"
 1960      465200
 1961              	.LASF33:
 1962 0210 43535345 		.ascii	"CSSELR\000"
 1962      4C5200
 1963              	.LASF47:
 1964 0217 4443434D 		.ascii	"DCCMVAU\000"
 1964      56415500 
 1965              	.LASF15:
 1966 021f 56544F52 		.ascii	"VTOR\000"
 1966      00
 1967              	.LASF73:
 1968 0224 63637369 		.ascii	"ccsidr\000"
 1968      647200
 1969              	.LASF3:
 1970 022b 73686F72 		.ascii	"short unsigned int\000"
 1970      7420756E 
 1970      7369676E 
 1970      65642069 
 1970      6E7400
 1971              	.LASF21:
 1972 023e 44465352 		.ascii	"DFSR\000"
 1972      00
 1973              	.LASF66:
 1974 0243 5F5F7261 		.ascii	"__ram0_init_text__\000"
 1974      6D305F69 
 1974      6E69745F 
 1974      74657874 
 1974      5F5F00
 1975              	.LASF20:
 1976 0256 48465352 		.ascii	"HFSR\000"
 1976      00
 1977              	.LASF74:
 1978 025b 73657473 		.ascii	"sets\000"
 1978      00
 1979              	.LASF69:
 1980 0260 5F5F7261 		.ascii	"__ram0_noinit__\000"
 1980      6D305F6E 
 1980      6F696E69 
 1980      745F5F00 
 1981              	.LASF56:
 1982 0270 43414352 		.ascii	"CACR\000"
 1982      00
 1983              	.LASF30:
 1984 0275 52455345 		.ascii	"RESERVED0\000"
 1984      52564544 
 1984      3000
 1985              	.LASF12:
 1986 027f 75696E74 		.ascii	"uint32_t\000"
 1986      33325F74 
 1986      00
 1987              	.LASF35:
 1988 0288 52455345 		.ascii	"RESERVED3\000"
 1988      52564544 
ARM GAS  /tmp/ccLReJek.s 			page 38


 1988      3300
 1989              	.LASF37:
 1990 0292 52455345 		.ascii	"RESERVED4\000"
 1990      52564544 
 1990      3400
 1991              	.LASF41:
 1992 029c 52455345 		.ascii	"RESERVED5\000"
 1992      52564544 
 1992      3500
 1993              	.LASF43:
 1994 02a6 52455345 		.ascii	"RESERVED6\000"
 1994      52564544 
 1994      3600
 1995              	.LASF52:
 1996 02b0 52455345 		.ascii	"RESERVED7\000"
 1996      52564544 
 1996      3700
 1997              	.LASF58:
 1998 02ba 52455345 		.ascii	"RESERVED8\000"
 1998      52564544 
 1998      3800
 1999              	.LASF51:
 2000 02c4 44434349 		.ascii	"DCCISW\000"
 2000      535700
 2001              	.LASF57:
 2002 02cb 41484253 		.ascii	"AHBSCR\000"
 2002      435200
 2003              	.LASF79:
 2004 02d2 474E5520 		.ascii	"GNU C17 10.2.1 20201103 (release) -mcpu=cortex-m7 -"
 2004      43313720 
 2004      31302E32 
 2004      2E312032 
 2004      30323031 
 2005 0305 6D666C6F 		.ascii	"mfloat-abi=hard -mfpu=fpv4-sp-d16 -mno-thumb-interw"
 2005      61742D61 
 2005      62693D68 
 2005      61726420 
 2005      2D6D6670 
 2006 0338 6F726B20 		.ascii	"ork -mthumb -march=armv7e-m+fp -g -Os -fomit-frame-"
 2006      2D6D7468 
 2006      756D6220 
 2006      2D6D6172 
 2006      63683D61 
 2007 036b 706F696E 		.ascii	"pointer -falign-functions=16 -ffunction-sections -f"
 2007      74657220 
 2007      2D66616C 
 2007      69676E2D 
 2007      66756E63 
 2008 039e 64617461 		.ascii	"data-sections -fno-common -fsingle-precision-consta"
 2008      2D736563 
 2008      74696F6E 
 2008      73202D66 
 2008      6E6F2D63 
 2009 03d1 6E7400   		.ascii	"nt\000"
 2010              	.LASF84:
 2011 03d4 6D656D73 		.ascii	"memset\000"
 2011      657400
ARM GAS  /tmp/ccLReJek.s 			page 39


 2012              	.LASF76:
 2013 03db 5343425F 		.ascii	"SCB_EnableICache\000"
 2013      456E6162 
 2013      6C654943 
 2013      61636865 
 2013      00
 2014              	.LASF28:
 2015 03ec 49445F4D 		.ascii	"ID_MFR\000"
 2015      465200
 2016              	.LASF24:
 2017 03f3 41465352 		.ascii	"AFSR\000"
 2017      00
 2018              	.LASF83:
 2019 03f8 5343425F 		.ascii	"SCB_EnableDCache\000"
 2019      456E6162 
 2019      6C654443 
 2019      61636865 
 2019      00
 2020              	.LASF48:
 2021 0409 4443434D 		.ascii	"DCCMVAC\000"
 2021      56414300 
 2022              	.LASF78:
 2023 0411 5F5F4953 		.ascii	"__ISB\000"
 2023      4200
 2024              	.LASF80:
 2025 0417 2E2E2F2E 		.ascii	"../../modules/ChibiOS/os/common/startup/ARMCMx/comp"
 2025      2E2F6D6F 
 2025      64756C65 
 2025      732F4368 
 2025      6962694F 
 2026 044a 696C6572 		.ascii	"ilers/GCC/crt1.c\000"
 2026      732F4743 
 2026      432F6372 
 2026      74312E63 
 2026      00
 2027              	.LASF34:
 2028 045b 43504143 		.ascii	"CPACR\000"
 2028      5200
 2029              	.LASF54:
 2030 0461 4454434D 		.ascii	"DTCMCR\000"
 2030      435200
 2031              	.LASF62:
 2032 0468 696E6974 		.ascii	"init_area\000"
 2032      5F617265 
 2032      6100
 2033              	.LASF61:
 2034 0472 696E6974 		.ascii	"init_text_area\000"
 2034      5F746578 
 2034      745F6172 
 2034      656100
 2035              		.ident	"GCC: (GNU Arm Embedded Toolchain 10-2020-q4-major) 10.2.1 20201103 (release)"
ARM GAS  /tmp/ccLReJek.s 			page 40


DEFINED SYMBOLS
                            *ABS*:0000000000000000 crt1.c
     /tmp/ccLReJek.s:18     .text.__core_init:0000000000000000 $t
     /tmp/ccLReJek.s:26     .text.__core_init:0000000000000000 __core_init
     /tmp/ccLReJek.s:274    .text.__core_init:0000000000000074 $d
     /tmp/ccLReJek.s:279    .text.__default_exit:0000000000000000 $t
     /tmp/ccLReJek.s:286    .text.__default_exit:0000000000000000 __default_exit
     /tmp/ccLReJek.s:303    .text.__init_ram_areas:0000000000000000 $t
     /tmp/ccLReJek.s:310    .text.__init_ram_areas:0000000000000000 __init_ram_areas
     /tmp/ccLReJek.s:360    .text.__init_ram_areas:000000000000002c $d

UNDEFINED SYMBOLS
memset
__ram0_init_text__
__ram0_init__
__ram0_clear__
__ram0_noinit__
