ARM GAS  /tmp/ccLReJek.s 			page 1


   1              		.cpu cortex-m7
   2              		.eabi_attribute 27, 1
   3              		.eabi_attribute 28, 1
   4              		.eabi_attribute 20, 1
   5              		.eabi_attribute 21, 1
   6              		.eabi_attribute 23, 3
   7              		.eabi_attribute 24, 1
   8              		.eabi_attribute 25, 1
   9              		.eabi_attribute 26, 1
  10              		.eabi_attribute 30, 4
  11              		.eabi_attribute 34, 1
  12              		.eabi_attribute 18, 4
  13              		.file	"crt1.c"
  14              		.text
  15              	.Ltext0:
  16              		.cfi_sections	.debug_frame
  17              		.section	.text.__core_init,"ax",%progbits
  18              		.align	1
  19              		.weak	__core_init
  20              		.arch armv7e-m
  21              		.syntax unified
  22              		.thumb
  23              		.thumb_func
  24              		.fpu fpv4-sp-d16
  25              		.type	__core_init, %function
  26              	__core_init:
  27              	.LFB141:
  28              		.file 1 "../../modules/ChibiOS/os/common/startup/ARMCMx/compilers/GCC/crt1.c"
  29              		.loc 1 137 24 view -0
  30              		.cfi_startproc
  31              		@ args = 0, pretend = 0, frame = 0
  32              		@ frame_needed = 0, uses_anonymous_args = 0
  33              		.loc 1 140 3 view .LVU1
  34              	.LBB46:
  35              	.LBI46:
  36              		.file 2 "../../modules/ChibiOS/os/common/ext/ARM/CMSIS/Core/Include/core_cm7.h"
  37              		.loc 2 2229 22 view .LVU2
  38              	.LBB47:
  39              		.loc 2 2232 5 view .LVU3
  40              	.LBB48:
  41              	.LBI48:
  42              		.file 3 "../../modules/ChibiOS/os/common/ext/ARM/CMSIS/Core/Include/cmsis_gcc.h"
  43              		.loc 3 877 27 view .LVU4
  44              	.LBB49:
  45              		.loc 3 879 3 view .LVU5
  46              	.LBE49:
  47              	.LBE48:
  48              	.LBE47:
  49              	.LBE46:
  50              		.loc 1 137 24 is_stmt 0 view .LVU6
  51 0000 70B5     		push	{r4, r5, r6, lr}
  52              		.cfi_def_cfa_offset 16
  53              		.cfi_offset 4, -16
  54              		.cfi_offset 5, -12
  55              		.cfi_offset 6, -8
  56              		.cfi_offset 14, -4
  57              	.LBB63:
ARM GAS  /tmp/ccLReJek.s 			page 2


  58              	.LBB62:
  59              	.LBB51:
  60              	.LBB50:
  61              		.loc 3 879 3 view .LVU7
  62              		.syntax unified
  63              	@ 879 "../../modules/ChibiOS/os/common/ext/ARM/CMSIS/Core/Include/cmsis_gcc.h" 1
  64 0002 BFF34F8F 		dsb 0xF
  65              	@ 0 "" 2
  66              		.thumb
  67              		.syntax unified
  68              	.LBE50:
  69              	.LBE51:
  70              		.loc 2 2233 5 is_stmt 1 view .LVU8
  71              	.LBB52:
  72              	.LBI52:
  73              		.loc 3 866 27 view .LVU9
  74              	.LBB53:
  75              		.loc 3 868 3 view .LVU10
  76              		.syntax unified
  77              	@ 868 "../../modules/ChibiOS/os/common/ext/ARM/CMSIS/Core/Include/cmsis_gcc.h" 1
  78 0006 BFF36F8F 		isb 0xF
  79              	@ 0 "" 2
  80              		.thumb
  81              		.syntax unified
  82              	.LBE53:
  83              	.LBE52:
  84              		.loc 2 2234 5 view .LVU11
  85              		.loc 2 2234 18 is_stmt 0 view .LVU12
  86 000a 1A4A     		ldr	r2, .L6
  87 000c 0021     		movs	r1, #0
  88 000e C2F85012 		str	r1, [r2, #592]
  89              		.loc 2 2235 5 is_stmt 1 view .LVU13
  90              	.LBB54:
  91              	.LBI54:
  92              		.loc 3 877 27 view .LVU14
  93              	.LBB55:
  94              		.loc 3 879 3 view .LVU15
  95              		.syntax unified
  96              	@ 879 "../../modules/ChibiOS/os/common/ext/ARM/CMSIS/Core/Include/cmsis_gcc.h" 1
  97 0012 BFF34F8F 		dsb 0xF
  98              	@ 0 "" 2
  99              		.thumb
 100              		.syntax unified
 101              	.LBE55:
 102              	.LBE54:
 103              		.loc 2 2236 5 view .LVU16
 104              	.LBB56:
 105              	.LBI56:
 106              		.loc 3 866 27 view .LVU17
 107              	.LBB57:
 108              		.loc 3 868 3 view .LVU18
 109              		.syntax unified
 110              	@ 868 "../../modules/ChibiOS/os/common/ext/ARM/CMSIS/Core/Include/cmsis_gcc.h" 1
 111 0016 BFF36F8F 		isb 0xF
 112              	@ 0 "" 2
 113              		.thumb
 114              		.syntax unified
ARM GAS  /tmp/ccLReJek.s 			page 3


 115              	.LBE57:
 116              	.LBE56:
 117              		.loc 2 2237 5 view .LVU19
 118              		.loc 2 2237 14 is_stmt 0 view .LVU20
 119 001a 5369     		ldr	r3, [r2, #20]
 120 001c 43F40033 		orr	r3, r3, #131072
 121 0020 5361     		str	r3, [r2, #20]
 122              		.loc 2 2238 5 is_stmt 1 view .LVU21
 123              	.LBB58:
 124              	.LBI58:
 125              		.loc 3 877 27 view .LVU22
 126              	.LBB59:
 127              		.loc 3 879 3 view .LVU23
 128              		.syntax unified
 129              	@ 879 "../../modules/ChibiOS/os/common/ext/ARM/CMSIS/Core/Include/cmsis_gcc.h" 1
 130 0022 BFF34F8F 		dsb 0xF
 131              	@ 0 "" 2
 132              		.thumb
 133              		.syntax unified
 134              	.LBE59:
 135              	.LBE58:
 136              		.loc 2 2239 5 view .LVU24
 137              	.LBB60:
 138              	.LBI60:
 139              		.loc 3 866 27 view .LVU25
 140              	.LBB61:
 141              		.loc 3 868 3 view .LVU26
 142              		.syntax unified
 143              	@ 868 "../../modules/ChibiOS/os/common/ext/ARM/CMSIS/Core/Include/cmsis_gcc.h" 1
 144 0026 BFF36F8F 		isb 0xF
 145              	@ 0 "" 2
 146              		.thumb
 147              		.syntax unified
 148              	.LBE61:
 149              	.LBE60:
 150              	.LBE62:
 151              	.LBE63:
 152              		.loc 1 141 3 view .LVU27
 153              	.LBB64:
 154              	.LBI64:
 155              		.loc 2 2281 22 view .LVU28
 156              	.LBB65:
 157              		.loc 2 2284 5 view .LVU29
 158              		.loc 2 2285 5 view .LVU30
 159              		.loc 2 2286 5 view .LVU31
 160              		.loc 2 2288 5 view .LVU32
 161              		.loc 2 2288 17 is_stmt 0 view .LVU33
 162 002a C2F88410 		str	r1, [r2, #132]
 163              		.loc 2 2289 5 is_stmt 1 view .LVU34
 164              	.LBB66:
 165              	.LBI66:
 166              		.loc 3 877 27 view .LVU35
 167              	.LBB67:
 168              		.loc 3 879 3 view .LVU36
 169              		.syntax unified
 170              	@ 879 "../../modules/ChibiOS/os/common/ext/ARM/CMSIS/Core/Include/cmsis_gcc.h" 1
 171 002e BFF34F8F 		dsb 0xF
ARM GAS  /tmp/ccLReJek.s 			page 4


 172              	@ 0 "" 2
 173              		.thumb
 174              		.syntax unified
 175              	.LBE67:
 176              	.LBE66:
 177              		.loc 2 2291 5 view .LVU37
 178              		.loc 2 2291 12 is_stmt 0 view .LVU38
 179 0032 D2F88030 		ldr	r3, [r2, #128]
 180              	.LVL0:
 181              		.loc 2 2294 5 is_stmt 1 view .LVU39
 182              		.loc 2 2298 52 is_stmt 0 view .LVU40
 183 0036 43F6E074 		movw	r4, #16352
 184              		.loc 2 2296 12 view .LVU41
 185 003a C3F3C900 		ubfx	r0, r3, #3, #10
 186              		.loc 2 2294 10 view .LVU42
 187 003e C3F34E33 		ubfx	r3, r3, #13, #15
 188              	.LVL1:
 189              		.loc 2 2294 10 view .LVU43
 190 0042 5B01     		lsls	r3, r3, #5
 191              	.L3:
 192              		.loc 2 2295 5 is_stmt 1 view .LVU44
 193              		.loc 2 2296 7 view .LVU45
 194              	.LVL2:
 195              		.loc 2 2298 52 is_stmt 0 view .LVU46
 196 0044 03EA0406 		and	r6, r3, r4
 197              		.loc 2 2296 12 view .LVU47
 198 0048 0146     		mov	r1, r0
 199              	.L2:
 200              	.LVL3:
 201              		.loc 2 2297 7 is_stmt 1 view .LVU48
 202              		.loc 2 2298 9 view .LVU49
 203              		.loc 2 2298 73 is_stmt 0 view .LVU50
 204 004a 46EA8175 		orr	r5, r6, r1, lsl #30
 205              		.loc 2 2303 7 view .LVU51
 206 004e 0139     		subs	r1, r1, #1
 207              	.LVL4:
 208              		.loc 2 2298 20 view .LVU52
 209 0050 C2F86052 		str	r5, [r2, #608]
 210              		.loc 2 2303 15 is_stmt 1 view .LVU53
 211              		.loc 2 2303 7 is_stmt 0 view .LVU54
 212 0054 F9D2     		bcs	.L2
 213              		.loc 2 2304 12 is_stmt 1 view .LVU55
 214              		.loc 2 2304 5 is_stmt 0 view .LVU56
 215 0056 203B     		subs	r3, r3, #32
 216 0058 13F1200F 		cmn	r3, #32
 217 005c F2D1     		bne	.L3
 218              		.loc 2 2305 5 is_stmt 1 view .LVU57
 219              	.LBB68:
 220              	.LBI68:
 221              		.loc 3 877 27 view .LVU58
 222              	.LBB69:
 223              		.loc 3 879 3 view .LVU59
 224              		.syntax unified
 225              	@ 879 "../../modules/ChibiOS/os/common/ext/ARM/CMSIS/Core/Include/cmsis_gcc.h" 1
 226 005e BFF34F8F 		dsb 0xF
 227              	@ 0 "" 2
 228              		.thumb
ARM GAS  /tmp/ccLReJek.s 			page 5


 229              		.syntax unified
 230              	.LBE69:
 231              	.LBE68:
 232              		.loc 2 2307 5 view .LVU60
 233              		.loc 2 2307 14 is_stmt 0 view .LVU61
 234 0062 5369     		ldr	r3, [r2, #20]
 235 0064 43F48033 		orr	r3, r3, #65536
 236 0068 5361     		str	r3, [r2, #20]
 237              		.loc 2 2309 5 is_stmt 1 view .LVU62
 238              	.LBB70:
 239              	.LBI70:
 240              		.loc 3 877 27 view .LVU63
 241              	.LBB71:
 242              		.loc 3 879 3 view .LVU64
 243              		.syntax unified
 244              	@ 879 "../../modules/ChibiOS/os/common/ext/ARM/CMSIS/Core/Include/cmsis_gcc.h" 1
 245 006a BFF34F8F 		dsb 0xF
 246              	@ 0 "" 2
 247              		.thumb
 248              		.syntax unified
 249              	.LBE71:
 250              	.LBE70:
 251              		.loc 2 2310 5 view .LVU65
 252              	.LBB72:
 253              	.LBI72:
 254              		.loc 3 866 27 view .LVU66
 255              	.LBB73:
 256              		.loc 3 868 3 view .LVU67
 257              		.syntax unified
 258              	@ 868 "../../modules/ChibiOS/os/common/ext/ARM/CMSIS/Core/Include/cmsis_gcc.h" 1
 259 006e BFF36F8F 		isb 0xF
 260              	@ 0 "" 2
 261              	.LVL5:
 262              		.loc 3 868 3 is_stmt 0 view .LVU68
 263              		.thumb
 264              		.syntax unified
 265              	.LBE73:
 266              	.LBE72:
 267              	.LBE65:
 268              	.LBE64:
 269              		.loc 1 143 1 view .LVU69
 270 0072 70BD     		pop	{r4, r5, r6, pc}
 271              	.L7:
 272              		.align	2
 273              	.L6:
 274 0074 00ED00E0 		.word	-536810240
 275              		.cfi_endproc
 276              	.LFE141:
 277              		.size	__core_init, .-__core_init
 278              		.section	.text.__default_exit,"ax",%progbits
 279              		.align	1
 280              		.weak	__default_exit
 281              		.syntax unified
 282              		.thumb
 283              		.thumb_func
 284              		.fpu fpv4-sp-d16
 285              		.type	__default_exit, %function
ARM GAS  /tmp/ccLReJek.s 			page 6


 286              	__default_exit:
 287              	.LFB142:
 288              		.loc 1 187 27 is_stmt 1 view -0
 289              		.cfi_startproc
 290              		@ Volatile: function does not return.
 291              		@ args = 0, pretend = 0, frame = 0
 292              		@ frame_needed = 0, uses_anonymous_args = 0
 293              		@ link register save eliminated.
 294              	.L9:
 295              		.loc 1 190 3 discriminator 1 view .LVU71
 296              		.loc 1 191 3 discriminator 1 view .LVU72
 297              		.loc 1 190 9 discriminator 1 view .LVU73
 298 0000 FEE7     		b	.L9
 299              		.cfi_endproc
 300              	.LFE142:
 301              		.size	__default_exit, .-__default_exit
 302              		.section	.text.__init_ram_areas,"ax",%progbits
 303              		.align	1
 304              		.global	__init_ram_areas
 305              		.syntax unified
 306              		.thumb
 307              		.thumb_func
 308              		.fpu fpv4-sp-d16
 309              		.type	__init_ram_areas, %function
 310              	__init_ram_areas:
 311              	.LFB143:
 312              		.loc 1 197 29 view -0
 313              		.cfi_startproc
 314              		@ args = 0, pretend = 0, frame = 0
 315              		@ frame_needed = 0, uses_anonymous_args = 0
 316              		@ link register save eliminated.
 317              		.loc 1 199 3 view .LVU75
 318              	.LVL6:
 319              		.loc 1 201 3 view .LVU76
 320              	.LBB74:
 321              		.loc 1 202 5 view .LVU77
 322              		.loc 1 203 5 view .LVU78
 323              		.loc 1 206 5 view .LVU79
 324 0000 0A4B     		ldr	r3, .L13
 325              		.loc 1 203 15 is_stmt 0 view .LVU80
 326 0002 0B48     		ldr	r0, .L13+4
 327              		.loc 1 206 11 view .LVU81
 328 0004 0B4A     		ldr	r2, .L13+8
 329              	.LVL7:
 330              	.L11:
 331              		.loc 1 206 11 is_stmt 1 view .LVU82
 332 0006 9042     		cmp	r0, r2
 333 0008 0BD3     		bcc	.L12
 334              		.loc 1 214 10 is_stmt 0 view .LVU83
 335 000a 0B4B     		ldr	r3, .L13+12
 336 000c C11E     		subs	r1, r0, #3
 337 000e DA1C     		adds	r2, r3, #3
 338 0010 121A     		subs	r2, r2, r0
 339 0012 22F00302 		bic	r2, r2, #3
 340 0016 8B42     		cmp	r3, r1
 341 0018 38BF     		it	cc
 342 001a 0022     		movcc	r2, #0
ARM GAS  /tmp/ccLReJek.s 			page 7


 343 001c 0021     		movs	r1, #0
 344 001e FFF7FEBF 		b	memset
 345              	.LVL8:
 346              	.L12:
 347              		.loc 1 207 7 is_stmt 1 view .LVU84
 348              		.loc 1 207 12 is_stmt 0 view .LVU85
 349 0022 53F8041B 		ldr	r1, [r3], #4
 350              		.loc 1 207 10 view .LVU86
 351 0026 40F8041B 		str	r1, [r0], #4
 352              	.LVL9:
 353              		.loc 1 208 7 is_stmt 1 view .LVU87
 354              		.loc 1 209 7 view .LVU88
 355              		.loc 1 209 7 is_stmt 0 view .LVU89
 356 002a ECE7     		b	.L11
 357              	.L14:
 358              		.align	2
 359              	.L13:
 360 002c 00000000 		.word	__ram0_init_text__
 361 0030 00000000 		.word	__ram0_init__
 362 0034 00000000 		.word	__ram0_clear__
 363 0038 00000000 		.word	__ram0_noinit__
 364              	.LBE74:
 365              		.cfi_endproc
 366              	.LFE143:
 367              		.size	__init_ram_areas, .-__init_ram_areas
 368              		.text
 369              	.Letext0:
 370              		.file 4 "/opt/gcc-arm-none-eabi-10-2020-q4-major/arm-none-eabi/include/machine/_default_types.h"
 371              		.file 5 "/opt/gcc-arm-none-eabi-10-2020-q4-major/arm-none-eabi/include/sys/_stdint.h"
 372              		.file 6 "<built-in>"