ARM GAS  /tmp/ccBb80lR.s 			page 1


   1              		.cpu cortex-m7
   2              		.eabi_attribute 27, 1
   3              		.eabi_attribute 28, 1
   4              		.eabi_attribute 20, 1
   5              		.eabi_attribute 21, 1
   6              		.eabi_attribute 23, 3
   7              		.eabi_attribute 24, 1
   8              		.eabi_attribute 25, 1
   9              		.eabi_attribute 26, 1
  10              		.eabi_attribute 30, 4
  11              		.eabi_attribute 34, 1
  12              		.eabi_attribute 18, 4
  13              		.file	"fatfs_diskio.c"
  14              		.text
  15              	.Ltext0:
  16              		.cfi_sections	.debug_frame
  17              		.section	.text.disk_initialize,"ax",%progbits
  18              		.align	1
  19              		.global	disk_initialize
  20              		.arch armv7e-m
  21              		.syntax unified
  22              		.thumb
  23              		.thumb_func
  24              		.fpu fpv4-sp-d16
  25              		.type	disk_initialize, %function
  26              	disk_initialize:
  27              	.LVL0:
  28              	.LFB334:
  29              		.file 1 "../../modules/ChibiOS/os/various/fatfs_bindings/fatfs_diskio.c"
  30              		.loc 1 55 1 view -0
  31              		.cfi_startproc
  32              		@ args = 0, pretend = 0, frame = 0
  33              		@ frame_needed = 0, uses_anonymous_args = 0
  34              		.loc 1 56 3 view .LVU1
  35              		.loc 1 58 3 view .LVU2
  36              		.loc 1 55 1 is_stmt 0 view .LVU3
  37 0000 10B5     		push	{r4, lr}
  38              		.cfi_def_cfa_offset 8
  39              		.cfi_offset 4, -8
  40              		.cfi_offset 14, -4
  41              		.loc 1 58 3 view .LVU4
  42 0002 58B9     		cbnz	r0, .L3
  43              		.loc 1 70 5 is_stmt 1 view .LVU5
  44              	.LVL1:
  45              		.loc 1 72 5 view .LVU6
  46              		.loc 1 72 9 is_stmt 0 view .LVU7
  47 0004 0648     		ldr	r0, .L7
  48              	.LVL2:
  49              		.loc 1 72 8 view .LVU8
  50 0006 0479     		ldrb	r4, [r0, #4]	@ zero_extendqisi2
  51              		.loc 1 70 10 view .LVU9
  52 0008 053C     		subs	r4, r4, #5
  53 000a 18BF     		it	ne
  54 000c 0124     		movne	r4, #1
  55              	.LVL3:
  56              		.loc 1 74 5 is_stmt 1 view .LVU10
  57              		.loc 1 74 9 is_stmt 0 view .LVU11
ARM GAS  /tmp/ccBb80lR.s 			page 2


  58 000e FFF7FEFF 		bl	sdc_lld_is_write_protected
  59              	.LVL4:
  60              		.loc 1 74 8 view .LVU12
  61 0012 08B1     		cbz	r0, .L2
  62              		.loc 1 75 7 is_stmt 1 view .LVU13
  63              		.loc 1 75 12 is_stmt 0 view .LVU14
  64 0014 44F00404 		orr	r4, r4, #4
  65              	.LVL5:
  66              	.L2:
  67              		.loc 1 80 1 view .LVU15
  68 0018 2046     		mov	r0, r4
  69 001a 10BD     		pop	{r4, pc}
  70              	.LVL6:
  71              	.L3:
  72              		.loc 1 79 10 view .LVU16
  73 001c 0124     		movs	r4, #1
  74 001e FBE7     		b	.L2
  75              	.L8:
  76              		.align	2
  77              	.L7:
  78 0020 00000000 		.word	SDCD1
  79              		.cfi_endproc
  80              	.LFE334:
  81              		.size	disk_initialize, .-disk_initialize
  82              		.section	.text.disk_status,"ax",%progbits
  83              		.align	1
  84              		.global	disk_status
  85              		.syntax unified
  86              		.thumb
  87              		.thumb_func
  88              		.fpu fpv4-sp-d16
  89              		.type	disk_status, %function
  90              	disk_status:
  91              	.LFB340:
  92              		.cfi_startproc
  93              		@ args = 0, pretend = 0, frame = 0
  94              		@ frame_needed = 0, uses_anonymous_args = 0
  95              		@ link register save eliminated.
  96 0000 FFF7FEBF 		b	disk_initialize
  97              		.cfi_endproc
  98              	.LFE340:
  99              		.size	disk_status, .-disk_status
 100              		.section	.text.disk_read,"ax",%progbits
 101              		.align	1
 102              		.global	disk_read
 103              		.syntax unified
 104              		.thumb
 105              		.thumb_func
 106              		.fpu fpv4-sp-d16
 107              		.type	disk_read, %function
 108              	disk_read:
 109              	.LVL7:
 110              	.LFB336:
 111              		.loc 1 128 1 is_stmt 1 view -0
 112              		.cfi_startproc
 113              		@ args = 0, pretend = 0, frame = 0
 114              		@ frame_needed = 0, uses_anonymous_args = 0
ARM GAS  /tmp/ccBb80lR.s 			page 3


 115              		.loc 1 129 3 view .LVU18
 116              		.loc 1 128 1 is_stmt 0 view .LVU19
 117 0000 2DE9F843 		push	{r3, r4, r5, r6, r7, r8, r9, lr}
 118              		.cfi_def_cfa_offset 32
 119              		.cfi_offset 3, -32
 120              		.cfi_offset 4, -28
 121              		.cfi_offset 5, -24
 122              		.cfi_offset 6, -20
 123              		.cfi_offset 7, -16
 124              		.cfi_offset 8, -12
 125              		.cfi_offset 9, -8
 126              		.cfi_offset 14, -4
 127              		.loc 1 128 1 view .LVU20
 128 0004 0F46     		mov	r7, r1
 129 0006 1646     		mov	r6, r2
 130 0008 9946     		mov	r9, r3
 131              		.loc 1 129 3 view .LVU21
 132 000a 0446     		mov	r4, r0
 133 000c B0B9     		cbnz	r0, .L14
 134              		.loc 1 144 5 is_stmt 1 view .LVU22
 135              		.loc 1 144 9 is_stmt 0 view .LVU23
 136 000e DFF83480 		ldr	r8, .L17
 137 0012 98F80450 		ldrb	r5, [r8, #4]	@ zero_extendqisi2
 138              		.loc 1 144 8 view .LVU24
 139 0016 052D     		cmp	r5, #5
 140 0018 05D0     		beq	.L12
 141              		.loc 1 145 14 view .LVU25
 142 001a 0324     		movs	r4, #3
 143 001c 0BE0     		b	.L11
 144              	.LVL8:
 145              	.L13:
 146              	.LBB2:
 147              		.loc 1 146 2 is_stmt 1 discriminator 3 view .LVU26
 148 001e 013D     		subs	r5, r5, #1
 149              	.LVL9:
 150              		.loc 1 146 2 is_stmt 0 discriminator 3 view .LVU27
 151 0020 15F0FF05 		ands	r5, r5, #255
 152 0024 0CD0     		beq	.L16
 153              	.L12:
 154              	.LVL10:
 155              		.loc 1 146 2 is_stmt 1 discriminator 6 view .LVU28
 156              		.loc 1 146 2 discriminator 6 view .LVU29
 157 0026 4B46     		mov	r3, r9
 158 0028 3A46     		mov	r2, r7
 159 002a 3146     		mov	r1, r6
 160 002c 4046     		mov	r0, r8
 161 002e FFF7FEFF 		bl	sdcRead
 162              	.LVL11:
 163 0032 0028     		cmp	r0, #0
 164 0034 F3D1     		bne	.L13
 165              	.LVL12:
 166              	.L11:
 167              		.loc 1 146 2 is_stmt 0 discriminator 6 view .LVU30
 168              	.LBE2:
 169              		.loc 1 151 1 view .LVU31
 170 0036 2046     		mov	r0, r4
 171 0038 BDE8F883 		pop	{r3, r4, r5, r6, r7, r8, r9, pc}
ARM GAS  /tmp/ccBb80lR.s 			page 4


 172              	.LVL13:
 173              	.L14:
 174              		.loc 1 150 10 view .LVU32
 175 003c 0424     		movs	r4, #4
 176 003e FAE7     		b	.L11
 177              	.LVL14:
 178              	.L16:
 179              	.LBB3:
 180              		.loc 1 146 2 view .LVU33
 181 0040 0124     		movs	r4, #1
 182 0042 F8E7     		b	.L11
 183              	.L18:
 184              		.align	2
 185              	.L17:
 186 0044 00000000 		.word	SDCD1
 187              	.LBE3:
 188              		.cfi_endproc
 189              	.LFE336:
 190              		.size	disk_read, .-disk_read
 191              		.section	.text.disk_write,"ax",%progbits
 192              		.align	1
 193              		.global	disk_write
 194              		.syntax unified
 195              		.thumb
 196              		.thumb_func
 197              		.fpu fpv4-sp-d16
 198              		.type	disk_write, %function
 199              	disk_write:
 200              	.LVL15:
 201              	.LFB337:
 202              		.loc 1 165 1 is_stmt 1 view -0
 203              		.cfi_startproc
 204              		@ args = 0, pretend = 0, frame = 0
 205              		@ frame_needed = 0, uses_anonymous_args = 0
 206              		.loc 1 166 3 view .LVU35
 207              		.loc 1 165 1 is_stmt 0 view .LVU36
 208 0000 2DE9F843 		push	{r3, r4, r5, r6, r7, r8, r9, lr}
 209              		.cfi_def_cfa_offset 32
 210              		.cfi_offset 3, -32
 211              		.cfi_offset 4, -28
 212              		.cfi_offset 5, -24
 213              		.cfi_offset 6, -20
 214              		.cfi_offset 7, -16
 215              		.cfi_offset 8, -12
 216              		.cfi_offset 9, -8
 217              		.cfi_offset 14, -4
 218              		.loc 1 165 1 view .LVU37
 219 0004 0F46     		mov	r7, r1
 220 0006 1646     		mov	r6, r2
 221 0008 9946     		mov	r9, r3
 222              		.loc 1 166 3 view .LVU38
 223 000a 0446     		mov	r4, r0
 224 000c B0B9     		cbnz	r0, .L23
 225              		.loc 1 183 5 is_stmt 1 view .LVU39
 226              		.loc 1 183 9 is_stmt 0 view .LVU40
 227 000e DFF83480 		ldr	r8, .L26
 228 0012 98F80450 		ldrb	r5, [r8, #4]	@ zero_extendqisi2
ARM GAS  /tmp/ccBb80lR.s 			page 5


 229              		.loc 1 183 8 view .LVU41
 230 0016 052D     		cmp	r5, #5
 231 0018 05D0     		beq	.L21
 232              		.loc 1 184 14 view .LVU42
 233 001a 0324     		movs	r4, #3
 234 001c 0BE0     		b	.L20
 235              	.LVL16:
 236              	.L22:
 237              	.LBB4:
 238              		.loc 1 185 2 is_stmt 1 discriminator 3 view .LVU43
 239 001e 013D     		subs	r5, r5, #1
 240              	.LVL17:
 241              		.loc 1 185 2 is_stmt 0 discriminator 3 view .LVU44
 242 0020 15F0FF05 		ands	r5, r5, #255
 243 0024 0CD0     		beq	.L25
 244              	.L21:
 245              	.LVL18:
 246              		.loc 1 185 2 is_stmt 1 discriminator 6 view .LVU45
 247              		.loc 1 185 2 discriminator 6 view .LVU46
 248 0026 4B46     		mov	r3, r9
 249 0028 3A46     		mov	r2, r7
 250 002a 3146     		mov	r1, r6
 251 002c 4046     		mov	r0, r8
 252 002e FFF7FEFF 		bl	sdcWrite
 253              	.LVL19:
 254 0032 0028     		cmp	r0, #0
 255 0034 F3D1     		bne	.L22
 256              	.LVL20:
 257              	.L20:
 258              		.loc 1 185 2 is_stmt 0 discriminator 6 view .LVU47
 259              	.LBE4:
 260              		.loc 1 190 1 view .LVU48
 261 0036 2046     		mov	r0, r4
 262 0038 BDE8F883 		pop	{r3, r4, r5, r6, r7, r8, r9, pc}
 263              	.LVL21:
 264              	.L23:
 265              		.loc 1 189 10 view .LVU49
 266 003c 0424     		movs	r4, #4
 267 003e FAE7     		b	.L20
 268              	.LVL22:
 269              	.L25:
 270              	.LBB5:
 271              		.loc 1 185 2 view .LVU50
 272 0040 0124     		movs	r4, #1
 273 0042 F8E7     		b	.L20
 274              	.L27:
 275              		.align	2
 276              	.L26:
 277 0044 00000000 		.word	SDCD1
 278              	.LBE5:
 279              		.cfi_endproc
 280              	.LFE337:
 281              		.size	disk_write, .-disk_write
 282              		.section	.text.disk_ioctl,"ax",%progbits
 283              		.align	1
 284              		.global	disk_ioctl
 285              		.syntax unified
ARM GAS  /tmp/ccBb80lR.s 			page 6


 286              		.thumb
 287              		.thumb_func
 288              		.fpu fpv4-sp-d16
 289              		.type	disk_ioctl, %function
 290              	disk_ioctl:
 291              	.LVL23:
 292              	.LFB338:
 293              		.loc 1 203 1 is_stmt 1 view -0
 294              		.cfi_startproc
 295              		@ args = 0, pretend = 0, frame = 0
 296              		@ frame_needed = 0, uses_anonymous_args = 0
 297              		@ link register save eliminated.
 298              		.loc 1 204 3 view .LVU52
 299              		.loc 1 206 3 view .LVU53
 300 0000 70B9     		cbnz	r0, .L32
 301              		.loc 1 227 5 view .LVU54
 302 0002 0129     		cmp	r1, #1
 303 0004 05D0     		beq	.L30
 304 0006 0329     		cmp	r1, #3
 305 0008 07D0     		beq	.L31
 306 000a 0029     		cmp	r1, #0
 307 000c 18BF     		it	ne
 308 000e 0420     		movne	r0, #4
 309              	.LVL24:
 310              		.loc 1 227 5 is_stmt 0 view .LVU55
 311 0010 7047     		bx	lr
 312              	.LVL25:
 313              	.L30:
 314              		.loc 1 231 9 is_stmt 1 view .LVU56
 315              		.loc 1 231 28 is_stmt 0 view .LVU57
 316 0012 044B     		ldr	r3, .L35
 317 0014 9B6A     		ldr	r3, [r3, #40]
 318              	.L34:
 319              		.loc 1 239 26 view .LVU58
 320 0016 1360     		str	r3, [r2]
 321              		.loc 1 240 9 is_stmt 1 view .LVU59
 322              		.loc 1 240 16 is_stmt 0 view .LVU60
 323 0018 7047     		bx	lr
 324              	.L31:
 325              		.loc 1 239 9 is_stmt 1 view .LVU61
 326              		.loc 1 239 26 is_stmt 0 view .LVU62
 327 001a 4FF48073 		mov	r3, #256
 328 001e FAE7     		b	.L34
 329              	.L32:
 330              		.loc 1 251 10 view .LVU63
 331 0020 0420     		movs	r0, #4
 332              	.LVL26:
 333              		.loc 1 252 1 view .LVU64
 334 0022 7047     		bx	lr
 335              	.L36:
 336              		.align	2
 337              	.L35:
 338 0024 00000000 		.word	SDCD1
 339              		.cfi_endproc
 340              	.LFE338:
 341              		.size	disk_ioctl, .-disk_ioctl
 342              		.text
ARM GAS  /tmp/ccBb80lR.s 			page 7


 343              	.Letext0:
 344              		.file 2 "/opt/gcc-arm-none-eabi-10-2020-q4-major/lib/gcc/arm-none-eabi/10.2.1/include/stddef.h"
 345              		.file 3 "/opt/gcc-arm-none-eabi-10-2020-q4-major/arm-none-eabi/include/machine/_default_types.h"
 346              		.file 4 "/opt/gcc-arm-none-eabi-10-2020-q4-major/arm-none-eabi/include/sys/_stdint.h"
 347              		.file 5 "../../modules/ChibiOS/os/common/ports/ARMCMx/compilers/GCC/chtypes.h"
 348              		.file 6 "../../modules/ChibiOS/os/rt/include/chsystypes.h"
 349              		.file 7 "../../modules/ChibiOS/os/rt/include/chschd.h"
 350              		.file 8 "../../modules/ChibiOS/os/common/ext/ST/STM32F7xx/stm32f767xx.h"
 351              		.file 9 "../../modules/ChibiOS/os/common/ports/ARMCMx/chcore.h"
 352              		.file 10 "../../modules/ChibiOS/os/common/ports/ARMCMx/chcore_v7m.h"
 353              		.file 11 "../../modules/ChibiOS/os/rt/include/chtm.h"
 354              		.file 12 "../../modules/ChibiOS/os/rt/include/chsem.h"
 355              		.file 13 "../../modules/ChibiOS/os/rt/include/chmtx.h"
 356              		.file 14 "../../modules/ChibiOS/os/hal/ports/STM32/LLD/DMAv2/stm32_dma.h"
 357              		.file 15 "../../modules/ChibiOS/os/hal/include/hal_ioblock.h"
 358              		.file 16 "../../modules/ChibiOS/os/hal/include/hal_sdc.h"
 359              		.file 17 "../../modules/ChibiOS/os/hal/ports/STM32/LLD/SDMMCv1/hal_sdc_lld.h"
 360              		.file 18 "../../modules/ChibiOS/ext/fatfs/src/integer.h"
 361              		.file 19 "../../modules/ChibiOS/ext/fatfs/src/diskio.h"