ARM GAS  /tmp/ccBb80lR.s 			page 1


   1              		.cpu cortex-m7
   2              		.eabi_attribute 27, 1
   3              		.eabi_attribute 28, 1
   4              		.eabi_attribute 20, 1
   5              		.eabi_attribute 21, 1
   6              		.eabi_attribute 23, 3
   7              		.eabi_attribute 24, 1
   8              		.eabi_attribute 25, 1
   9              		.eabi_attribute 26, 1
  10              		.eabi_attribute 30, 4
  11              		.eabi_attribute 34, 1
  12              		.eabi_attribute 18, 4
  13              		.file	"fatfs_diskio.c"
  14              		.text
  15              	.Ltext0:
  16              		.cfi_sections	.debug_frame
  17              		.section	.text.disk_initialize,"ax",%progbits
  18              		.align	1
  19              		.global	disk_initialize
  20              		.arch armv7e-m
  21              		.syntax unified
  22              		.thumb
  23              		.thumb_func
  24              		.fpu fpv4-sp-d16
  25              		.type	disk_initialize, %function
  26              	disk_initialize:
  27              	.LVL0:
  28              	.LFB334:
  29              		.file 1 "../../modules/ChibiOS/os/various/fatfs_bindings/fatfs_diskio.c"
  30              		.loc 1 55 1 view -0
  31              		.cfi_startproc
  32              		@ args = 0, pretend = 0, frame = 0
  33              		@ frame_needed = 0, uses_anonymous_args = 0
  34              		.loc 1 56 3 view .LVU1
  35              		.loc 1 58 3 view .LVU2
  36              		.loc 1 55 1 is_stmt 0 view .LVU3
  37 0000 10B5     		push	{r4, lr}
  38              		.cfi_def_cfa_offset 8
  39              		.cfi_offset 4, -8
  40              		.cfi_offset 14, -4
  41              		.loc 1 58 3 view .LVU4
  42 0002 58B9     		cbnz	r0, .L3
  43              		.loc 1 70 5 is_stmt 1 view .LVU5
  44              	.LVL1:
  45              		.loc 1 72 5 view .LVU6
  46              		.loc 1 72 9 is_stmt 0 view .LVU7
  47 0004 0648     		ldr	r0, .L7
  48              	.LVL2:
  49              		.loc 1 72 8 view .LVU8
  50 0006 0479     		ldrb	r4, [r0, #4]	@ zero_extendqisi2
  51              		.loc 1 70 10 view .LVU9
  52 0008 053C     		subs	r4, r4, #5
  53 000a 18BF     		it	ne
  54 000c 0124     		movne	r4, #1
  55              	.LVL3:
  56              		.loc 1 74 5 is_stmt 1 view .LVU10
  57              		.loc 1 74 9 is_stmt 0 view .LVU11
ARM GAS  /tmp/ccBb80lR.s 			page 2


  58 000e FFF7FEFF 		bl	sdc_lld_is_write_protected
  59              	.LVL4:
  60              		.loc 1 74 8 view .LVU12
  61 0012 08B1     		cbz	r0, .L2
  62              		.loc 1 75 7 is_stmt 1 view .LVU13
  63              		.loc 1 75 12 is_stmt 0 view .LVU14
  64 0014 44F00404 		orr	r4, r4, #4
  65              	.LVL5:
  66              	.L2:
  67              		.loc 1 80 1 view .LVU15
  68 0018 2046     		mov	r0, r4
  69 001a 10BD     		pop	{r4, pc}
  70              	.LVL6:
  71              	.L3:
  72              		.loc 1 79 10 view .LVU16
  73 001c 0124     		movs	r4, #1
  74 001e FBE7     		b	.L2
  75              	.L8:
  76              		.align	2
  77              	.L7:
  78 0020 00000000 		.word	SDCD1
  79              		.cfi_endproc
  80              	.LFE334:
  81              		.size	disk_initialize, .-disk_initialize
  82              		.section	.text.disk_status,"ax",%progbits
  83              		.align	1
  84              		.global	disk_status
  85              		.syntax unified
  86              		.thumb
  87              		.thumb_func
  88              		.fpu fpv4-sp-d16
  89              		.type	disk_status, %function
  90              	disk_status:
  91              	.LFB340:
  92              		.cfi_startproc
  93              		@ args = 0, pretend = 0, frame = 0
  94              		@ frame_needed = 0, uses_anonymous_args = 0
  95              		@ link register save eliminated.
  96 0000 FFF7FEBF 		b	disk_initialize
  97              		.cfi_endproc
  98              	.LFE340:
  99              		.size	disk_status, .-disk_status
 100              		.section	.text.disk_read,"ax",%progbits
 101              		.align	1
 102              		.global	disk_read
 103              		.syntax unified
 104              		.thumb
 105              		.thumb_func
 106              		.fpu fpv4-sp-d16
 107              		.type	disk_read, %function
 108              	disk_read:
 109              	.LVL7:
 110              	.LFB336:
 111              		.loc 1 128 1 is_stmt 1 view -0
 112              		.cfi_startproc
 113              		@ args = 0, pretend = 0, frame = 0
 114              		@ frame_needed = 0, uses_anonymous_args = 0
ARM GAS  /tmp/ccBb80lR.s 			page 3


 115              		.loc 1 129 3 view .LVU18
 116              		.loc 1 128 1 is_stmt 0 view .LVU19
 117 0000 2DE9F843 		push	{r3, r4, r5, r6, r7, r8, r9, lr}
 118              		.cfi_def_cfa_offset 32
 119              		.cfi_offset 3, -32
 120              		.cfi_offset 4, -28
 121              		.cfi_offset 5, -24
 122              		.cfi_offset 6, -20
 123              		.cfi_offset 7, -16
 124              		.cfi_offset 8, -12
 125              		.cfi_offset 9, -8
 126              		.cfi_offset 14, -4
 127              		.loc 1 128 1 view .LVU20
 128 0004 0F46     		mov	r7, r1
 129 0006 1646     		mov	r6, r2
 130 0008 9946     		mov	r9, r3
 131              		.loc 1 129 3 view .LVU21
 132 000a 0446     		mov	r4, r0
 133 000c B0B9     		cbnz	r0, .L14
 134              		.loc 1 144 5 is_stmt 1 view .LVU22
 135              		.loc 1 144 9 is_stmt 0 view .LVU23
 136 000e DFF83480 		ldr	r8, .L17
 137 0012 98F80450 		ldrb	r5, [r8, #4]	@ zero_extendqisi2
 138              		.loc 1 144 8 view .LVU24
 139 0016 052D     		cmp	r5, #5
 140 0018 05D0     		beq	.L12
 141              		.loc 1 145 14 view .LVU25
 142 001a 0324     		movs	r4, #3
 143 001c 0BE0     		b	.L11
 144              	.LVL8:
 145              	.L13:
 146              	.LBB2:
 147              		.loc 1 146 2 is_stmt 1 discriminator 3 view .LVU26
 148 001e 013D     		subs	r5, r5, #1
 149              	.LVL9:
 150              		.loc 1 146 2 is_stmt 0 discriminator 3 view .LVU27
 151 0020 15F0FF05 		ands	r5, r5, #255
 152 0024 0CD0     		beq	.L16
 153              	.L12:
 154              	.LVL10:
 155              		.loc 1 146 2 is_stmt 1 discriminator 6 view .LVU28
 156              		.loc 1 146 2 discriminator 6 view .LVU29
 157 0026 4B46     		mov	r3, r9
 158 0028 3A46     		mov	r2, r7
 159 002a 3146     		mov	r1, r6
 160 002c 4046     		mov	r0, r8
 161 002e FFF7FEFF 		bl	sdcRead
 162              	.LVL11:
 163 0032 0028     		cmp	r0, #0
 164 0034 F3D1     		bne	.L13
 165              	.LVL12:
 166              	.L11:
 167              		.loc 1 146 2 is_stmt 0 discriminator 6 view .LVU30
 168              	.LBE2:
 169              		.loc 1 151 1 view .LVU31
 170 0036 2046     		mov	r0, r4
 171 0038 BDE8F883 		pop	{r3, r4, r5, r6, r7, r8, r9, pc}
ARM GAS  /tmp/ccBb80lR.s 			page 4


 172              	.LVL13:
 173              	.L14:
 174              		.loc 1 150 10 view .LVU32
 175 003c 0424     		movs	r4, #4
 176 003e FAE7     		b	.L11
 177              	.LVL14:
 178              	.L16:
 179              	.LBB3:
 180              		.loc 1 146 2 view .LVU33
 181 0040 0124     		movs	r4, #1
 182 0042 F8E7     		b	.L11
 183              	.L18:
 184              		.align	2
 185              	.L17:
 186 0044 00000000 		.word	SDCD1
 187              	.LBE3:
 188              		.cfi_endproc
 189              	.LFE336:
 190              		.size	disk_read, .-disk_read
 191              		.section	.text.disk_write,"ax",%progbits
 192              		.align	1
 193              		.global	disk_write
 194              		.syntax unified
 195              		.thumb
 196              		.thumb_func
 197              		.fpu fpv4-sp-d16
 198              		.type	disk_write, %function
 199              	disk_write:
 200              	.LVL15:
 201              	.LFB337:
 202              		.loc 1 165 1 is_stmt 1 view -0
 203              		.cfi_startproc
 204              		@ args = 0, pretend = 0, frame = 0
 205              		@ frame_needed = 0, uses_anonymous_args = 0
 206              		.loc 1 166 3 view .LVU35
 207              		.loc 1 165 1 is_stmt 0 view .LVU36
 208 0000 2DE9F843 		push	{r3, r4, r5, r6, r7, r8, r9, lr}
 209              		.cfi_def_cfa_offset 32
 210              		.cfi_offset 3, -32
 211              		.cfi_offset 4, -28
 212              		.cfi_offset 5, -24
 213              		.cfi_offset 6, -20
 214              		.cfi_offset 7, -16
 215              		.cfi_offset 8, -12
 216              		.cfi_offset 9, -8
 217              		.cfi_offset 14, -4
 218              		.loc 1 165 1 view .LVU37
 219 0004 0F46     		mov	r7, r1
 220 0006 1646     		mov	r6, r2
 221 0008 9946     		mov	r9, r3
 222              		.loc 1 166 3 view .LVU38
 223 000a 0446     		mov	r4, r0
 224 000c B0B9     		cbnz	r0, .L23
 225              		.loc 1 183 5 is_stmt 1 view .LVU39
 226              		.loc 1 183 9 is_stmt 0 view .LVU40
 227 000e DFF83480 		ldr	r8, .L26
 228 0012 98F80450 		ldrb	r5, [r8, #4]	@ zero_extendqisi2
ARM GAS  /tmp/ccBb80lR.s 			page 5


 229              		.loc 1 183 8 view .LVU41
 230 0016 052D     		cmp	r5, #5
 231 0018 05D0     		beq	.L21
 232              		.loc 1 184 14 view .LVU42
 233 001a 0324     		movs	r4, #3
 234 001c 0BE0     		b	.L20
 235              	.LVL16:
 236              	.L22:
 237              	.LBB4:
 238              		.loc 1 185 2 is_stmt 1 discriminator 3 view .LVU43
 239 001e 013D     		subs	r5, r5, #1
 240              	.LVL17:
 241              		.loc 1 185 2 is_stmt 0 discriminator 3 view .LVU44
 242 0020 15F0FF05 		ands	r5, r5, #255
 243 0024 0CD0     		beq	.L25
 244              	.L21:
 245              	.LVL18:
 246              		.loc 1 185 2 is_stmt 1 discriminator 6 view .LVU45
 247              		.loc 1 185 2 discriminator 6 view .LVU46
 248 0026 4B46     		mov	r3, r9
 249 0028 3A46     		mov	r2, r7
 250 002a 3146     		mov	r1, r6
 251 002c 4046     		mov	r0, r8
 252 002e FFF7FEFF 		bl	sdcWrite
 253              	.LVL19:
 254 0032 0028     		cmp	r0, #0
 255 0034 F3D1     		bne	.L22
 256              	.LVL20:
 257              	.L20:
 258              		.loc 1 185 2 is_stmt 0 discriminator 6 view .LVU47
 259              	.LBE4:
 260              		.loc 1 190 1 view .LVU48
 261 0036 2046     		mov	r0, r4
 262 0038 BDE8F883 		pop	{r3, r4, r5, r6, r7, r8, r9, pc}
 263              	.LVL21:
 264              	.L23:
 265              		.loc 1 189 10 view .LVU49
 266 003c 0424     		movs	r4, #4
 267 003e FAE7     		b	.L20
 268              	.LVL22:
 269              	.L25:
 270              	.LBB5:
 271              		.loc 1 185 2 view .LVU50
 272 0040 0124     		movs	r4, #1
 273 0042 F8E7     		b	.L20
 274              	.L27:
 275              		.align	2
 276              	.L26:
 277 0044 00000000 		.word	SDCD1
 278              	.LBE5:
 279              		.cfi_endproc
 280              	.LFE337:
 281              		.size	disk_write, .-disk_write
 282              		.section	.text.disk_ioctl,"ax",%progbits
 283              		.align	1
 284              		.global	disk_ioctl
 285              		.syntax unified
ARM GAS  /tmp/ccBb80lR.s 			page 6


 286              		.thumb
 287              		.thumb_func
 288              		.fpu fpv4-sp-d16
 289              		.type	disk_ioctl, %function
 290              	disk_ioctl:
 291              	.LVL23:
 292              	.LFB338:
 293              		.loc 1 203 1 is_stmt 1 view -0
 294              		.cfi_startproc
 295              		@ args = 0, pretend = 0, frame = 0
 296              		@ frame_needed = 0, uses_anonymous_args = 0
 297              		@ link register save eliminated.
 298              		.loc 1 204 3 view .LVU52
 299              		.loc 1 206 3 view .LVU53
 300 0000 70B9     		cbnz	r0, .L32
 301              		.loc 1 227 5 view .LVU54
 302 0002 0129     		cmp	r1, #1
 303 0004 05D0     		beq	.L30
 304 0006 0329     		cmp	r1, #3
 305 0008 07D0     		beq	.L31
 306 000a 0029     		cmp	r1, #0
 307 000c 18BF     		it	ne
 308 000e 0420     		movne	r0, #4
 309              	.LVL24:
 310              		.loc 1 227 5 is_stmt 0 view .LVU55
 311 0010 7047     		bx	lr
 312              	.LVL25:
 313              	.L30:
 314              		.loc 1 231 9 is_stmt 1 view .LVU56
 315              		.loc 1 231 28 is_stmt 0 view .LVU57
 316 0012 044B     		ldr	r3, .L35
 317 0014 9B6A     		ldr	r3, [r3, #40]
 318              	.L34:
 319              		.loc 1 239 26 view .LVU58
 320 0016 1360     		str	r3, [r2]
 321              		.loc 1 240 9 is_stmt 1 view .LVU59
 322              		.loc 1 240 16 is_stmt 0 view .LVU60
 323 0018 7047     		bx	lr
 324              	.L31:
 325              		.loc 1 239 9 is_stmt 1 view .LVU61
 326              		.loc 1 239 26 is_stmt 0 view .LVU62
 327 001a 4FF48073 		mov	r3, #256
 328 001e FAE7     		b	.L34
 329              	.L32:
 330              		.loc 1 251 10 view .LVU63
 331 0020 0420     		movs	r0, #4
 332              	.LVL26:
 333              		.loc 1 252 1 view .LVU64
 334 0022 7047     		bx	lr
 335              	.L36:
 336              		.align	2
 337              	.L35:
 338 0024 00000000 		.word	SDCD1
 339              		.cfi_endproc
 340              	.LFE338:
 341              		.size	disk_ioctl, .-disk_ioctl
 342              		.text
ARM GAS  /tmp/ccBb80lR.s 			page 7


 343              	.Letext0:
 344              		.file 2 "/opt/gcc-arm-none-eabi-10-2020-q4-major/lib/gcc/arm-none-eabi/10.2.1/include/stddef.h"
 345              		.file 3 "/opt/gcc-arm-none-eabi-10-2020-q4-major/arm-none-eabi/include/machine/_default_types.h"
 346              		.file 4 "/opt/gcc-arm-none-eabi-10-2020-q4-major/arm-none-eabi/include/sys/_stdint.h"
 347              		.file 5 "../../modules/ChibiOS/os/common/ports/ARMCMx/compilers/GCC/chtypes.h"
 348              		.file 6 "../../modules/ChibiOS/os/rt/include/chsystypes.h"
 349              		.file 7 "../../modules/ChibiOS/os/rt/include/chschd.h"
 350              		.file 8 "../../modules/ChibiOS/os/common/ext/ST/STM32F7xx/stm32f767xx.h"
 351              		.file 9 "../../modules/ChibiOS/os/common/ports/ARMCMx/chcore.h"
 352              		.file 10 "../../modules/ChibiOS/os/common/ports/ARMCMx/chcore_v7m.h"
 353              		.file 11 "../../modules/ChibiOS/os/rt/include/chtm.h"
 354              		.file 12 "../../modules/ChibiOS/os/rt/include/chsem.h"
 355              		.file 13 "../../modules/ChibiOS/os/rt/include/chmtx.h"
 356              		.file 14 "../../modules/ChibiOS/os/hal/ports/STM32/LLD/DMAv2/stm32_dma.h"
 357              		.file 15 "../../modules/ChibiOS/os/hal/include/hal_ioblock.h"
 358              		.file 16 "../../modules/ChibiOS/os/hal/include/hal_sdc.h"
 359              		.file 17 "../../modules/ChibiOS/os/hal/ports/STM32/LLD/SDMMCv1/hal_sdc_lld.h"
 360              		.file 18 "../../modules/ChibiOS/ext/fatfs/src/integer.h"
 361              		.file 19 "../../modules/ChibiOS/ext/fatfs/src/diskio.h"
 362              		.section	.debug_info,"",%progbits
 363              	.Ldebug_info0:
 364 0000 2E0E0000 		.4byte	0xe2e
 365 0004 0400     		.2byte	0x4
 366 0006 00000000 		.4byte	.Ldebug_abbrev0
 367 000a 04       		.byte	0x4
 368 000b 01       		.uleb128 0x1
 369 000c 63060000 		.4byte	.LASF172
 370 0010 0C       		.byte	0xc
 371 0011 AA040000 		.4byte	.LASF173
 372 0015 56050000 		.4byte	.LASF174
 373 0019 30000000 		.4byte	.Ldebug_ranges0+0x30
 374 001d 00000000 		.4byte	0
 375 0021 00000000 		.4byte	.Ldebug_line0
 376 0025 02       		.uleb128 0x2
 377 0026 04       		.byte	0x4
 378 0027 05       		.byte	0x5
 379 0028 696E7400 		.ascii	"int\000"
 380 002c 03       		.uleb128 0x3
 381 002d 2A000000 		.4byte	.LASF4
 382 0031 02       		.byte	0x2
 383 0032 D1       		.byte	0xd1
 384 0033 17       		.byte	0x17
 385 0034 38000000 		.4byte	0x38
 386 0038 04       		.uleb128 0x4
 387 0039 04       		.byte	0x4
 388 003a 07       		.byte	0x7
 389 003b 3A020000 		.4byte	.LASF0
 390 003f 04       		.uleb128 0x4
 391 0040 08       		.byte	0x8
 392 0041 05       		.byte	0x5
 393 0042 02010000 		.4byte	.LASF1
 394 0046 04       		.uleb128 0x4
 395 0047 08       		.byte	0x8
 396 0048 04       		.byte	0x4
 397 0049 4A050000 		.4byte	.LASF2
 398 004d 04       		.uleb128 0x4
 399 004e 01       		.byte	0x1
ARM GAS  /tmp/ccBb80lR.s 			page 8


 400 004f 06       		.byte	0x6
 401 0050 10010000 		.4byte	.LASF3
 402 0054 03       		.uleb128 0x3
 403 0055 53000000 		.4byte	.LASF5
 404 0059 03       		.byte	0x3
 405 005a 2B       		.byte	0x2b
 406 005b 18       		.byte	0x18
 407 005c 60000000 		.4byte	0x60
 408 0060 04       		.uleb128 0x4
 409 0061 01       		.byte	0x1
 410 0062 08       		.byte	0x8
 411 0063 6D040000 		.4byte	.LASF6
 412 0067 04       		.uleb128 0x4
 413 0068 02       		.byte	0x2
 414 0069 05       		.byte	0x5
 415 006a 8E040000 		.4byte	.LASF7
 416 006e 04       		.uleb128 0x4
 417 006f 02       		.byte	0x2
 418 0070 07       		.byte	0x7
 419 0071 92020000 		.4byte	.LASF8
 420 0075 03       		.uleb128 0x3
 421 0076 32030000 		.4byte	.LASF9
 422 007a 03       		.byte	0x3
 423 007b 4D       		.byte	0x4d
 424 007c 18       		.byte	0x18
 425 007d 81000000 		.4byte	0x81
 426 0081 04       		.uleb128 0x4
 427 0082 04       		.byte	0x4
 428 0083 05       		.byte	0x5
 429 0084 8B010000 		.4byte	.LASF10
 430 0088 03       		.uleb128 0x3
 431 0089 F0010000 		.4byte	.LASF11
 432 008d 03       		.byte	0x3
 433 008e 4F       		.byte	0x4f
 434 008f 19       		.byte	0x19
 435 0090 94000000 		.4byte	0x94
 436 0094 04       		.uleb128 0x4
 437 0095 04       		.byte	0x4
 438 0096 07       		.byte	0x7
 439 0097 3B010000 		.4byte	.LASF12
 440 009b 03       		.uleb128 0x3
 441 009c 04040000 		.4byte	.LASF13
 442 00a0 03       		.byte	0x3
 443 00a1 69       		.byte	0x69
 444 00a2 19       		.byte	0x19
 445 00a3 A7000000 		.4byte	0xa7
 446 00a7 04       		.uleb128 0x4
 447 00a8 08       		.byte	0x8
 448 00a9 07       		.byte	0x7
 449 00aa AA000000 		.4byte	.LASF14
 450 00ae 03       		.uleb128 0x3
 451 00af 65070000 		.4byte	.LASF15
 452 00b3 04       		.byte	0x4
 453 00b4 18       		.byte	0x18
 454 00b5 13       		.byte	0x13
 455 00b6 54000000 		.4byte	0x54
 456 00ba 05       		.uleb128 0x5
ARM GAS  /tmp/ccBb80lR.s 			page 9


 457 00bb AE000000 		.4byte	0xae
 458 00bf 03       		.uleb128 0x3
 459 00c0 65040000 		.4byte	.LASF16
 460 00c4 04       		.byte	0x4
 461 00c5 2C       		.byte	0x2c
 462 00c6 13       		.byte	0x13
 463 00c7 75000000 		.4byte	0x75
 464 00cb 03       		.uleb128 0x3
 465 00cc 1D050000 		.4byte	.LASF17
 466 00d0 04       		.byte	0x4
 467 00d1 30       		.byte	0x30
 468 00d2 14       		.byte	0x14
 469 00d3 88000000 		.4byte	0x88
 470 00d7 06       		.uleb128 0x6
 471 00d8 CB000000 		.4byte	0xcb
 472 00dc 05       		.uleb128 0x5
 473 00dd D7000000 		.4byte	0xd7
 474 00e1 03       		.uleb128 0x3
 475 00e2 40000000 		.4byte	.LASF18
 476 00e6 04       		.byte	0x4
 477 00e7 3C       		.byte	0x3c
 478 00e8 14       		.byte	0x14
 479 00e9 9B000000 		.4byte	0x9b
 480 00ed 03       		.uleb128 0x3
 481 00ee 88030000 		.4byte	.LASF19
 482 00f2 05       		.byte	0x5
 483 00f3 27       		.byte	0x27
 484 00f4 1D       		.byte	0x1d
 485 00f5 CB000000 		.4byte	0xcb
 486 00f9 03       		.uleb128 0x3
 487 00fa 16000000 		.4byte	.LASF20
 488 00fe 05       		.byte	0x5
 489 00ff 28       		.byte	0x28
 490 0100 1D       		.byte	0x1d
 491 0101 E1000000 		.4byte	0xe1
 492 0105 03       		.uleb128 0x3
 493 0106 0F030000 		.4byte	.LASF21
 494 010a 05       		.byte	0x5
 495 010b 2A       		.byte	0x2a
 496 010c 1D       		.byte	0x1d
 497 010d AE000000 		.4byte	0xae
 498 0111 03       		.uleb128 0x3
 499 0112 A0010000 		.4byte	.LASF22
 500 0116 05       		.byte	0x5
 501 0117 2B       		.byte	0x2b
 502 0118 1D       		.byte	0x1d
 503 0119 AE000000 		.4byte	0xae
 504 011d 03       		.uleb128 0x3
 505 011e 20040000 		.4byte	.LASF23
 506 0122 05       		.byte	0x5
 507 0123 2C       		.byte	0x2c
 508 0124 1D       		.byte	0x1d
 509 0125 AE000000 		.4byte	0xae
 510 0129 03       		.uleb128 0x3
 511 012a 50040000 		.4byte	.LASF24
 512 012e 05       		.byte	0x5
 513 012f 2E       		.byte	0x2e
ARM GAS  /tmp/ccBb80lR.s 			page 10


 514 0130 1D       		.byte	0x1d
 515 0131 CB000000 		.4byte	0xcb
 516 0135 03       		.uleb128 0x3
 517 0136 D5020000 		.4byte	.LASF25
 518 013a 05       		.byte	0x5
 519 013b 2F       		.byte	0x2f
 520 013c 1D       		.byte	0x1d
 521 013d BF000000 		.4byte	0xbf
 522 0141 03       		.uleb128 0x3
 523 0142 26030000 		.4byte	.LASF26
 524 0146 05       		.byte	0x5
 525 0147 31       		.byte	0x31
 526 0148 1D       		.byte	0x1d
 527 0149 CB000000 		.4byte	0xcb
 528 014d 03       		.uleb128 0x3
 529 014e 34020000 		.4byte	.LASF27
 530 0152 05       		.byte	0x5
 531 0153 33       		.byte	0x33
 532 0154 1D       		.byte	0x1d
 533 0155 BF000000 		.4byte	0xbf
 534 0159 03       		.uleb128 0x3
 535 015a F0020000 		.4byte	.LASF28
 536 015e 05       		.byte	0x5
 537 015f 34       		.byte	0x34
 538 0160 1D       		.byte	0x1d
 539 0161 CB000000 		.4byte	0xcb
 540 0165 03       		.uleb128 0x3
 541 0166 AE050000 		.4byte	.LASF29
 542 016a 06       		.byte	0x6
 543 016b 34       		.byte	0x34
 544 016c 1A       		.byte	0x1a
 545 016d 71010000 		.4byte	0x171
 546 0171 07       		.uleb128 0x7
 547 0172 B0020000 		.4byte	.LASF48
 548 0176 60       		.byte	0x60
 549 0177 07       		.byte	0x7
 550 0178 8E       		.byte	0x8e
 551 0179 08       		.byte	0x8
 552 017a 6F020000 		.4byte	0x26f
 553 017e 08       		.uleb128 0x8
 554 017f 70020000 		.4byte	.LASF30
 555 0183 07       		.byte	0x7
 556 0184 8F       		.byte	0x8f
 557 0185 19       		.byte	0x19
 558 0186 A8020000 		.4byte	0x2a8
 559 018a 00       		.byte	0
 560 018b 08       		.uleb128 0x8
 561 018c F1030000 		.4byte	.LASF31
 562 0190 07       		.byte	0x7
 563 0191 90       		.byte	0x90
 564 0192 19       		.byte	0x19
 565 0193 29010000 		.4byte	0x129
 566 0197 08       		.byte	0x8
 567 0198 09       		.uleb128 0x9
 568 0199 63747800 		.ascii	"ctx\000"
 569 019d 07       		.byte	0x7
 570 019e 91       		.byte	0x91
ARM GAS  /tmp/ccBb80lR.s 			page 11


 571 019f 19       		.byte	0x19
 572 01a0 C1040000 		.4byte	0x4c1
 573 01a4 0C       		.byte	0xc
 574 01a5 08       		.uleb128 0x8
 575 01a6 52030000 		.4byte	.LASF32
 576 01aa 07       		.byte	0x7
 577 01ab 93       		.byte	0x93
 578 01ac 1A       		.byte	0x1a
 579 01ad 7B020000 		.4byte	0x27b
 580 01b1 10       		.byte	0x10
 581 01b2 08       		.uleb128 0x8
 582 01b3 8F050000 		.4byte	.LASF33
 583 01b7 07       		.byte	0x7
 584 01b8 94       		.byte	0x94
 585 01b9 1A       		.byte	0x1a
 586 01ba 7B020000 		.4byte	0x27b
 587 01be 14       		.byte	0x14
 588 01bf 08       		.uleb128 0x8
 589 01c0 6B020000 		.4byte	.LASF34
 590 01c4 07       		.byte	0x7
 591 01c5 9B       		.byte	0x9b
 592 01c6 1A       		.byte	0x1a
 593 01c7 83070000 		.4byte	0x783
 594 01cb 18       		.byte	0x18
 595 01cc 08       		.uleb128 0x8
 596 01cd E9040000 		.4byte	.LASF35
 597 01d1 07       		.byte	0x7
 598 01d2 A4       		.byte	0xa4
 599 01d3 1A       		.byte	0x1a
 600 01d4 95070000 		.4byte	0x795
 601 01d8 1C       		.byte	0x1c
 602 01d9 08       		.uleb128 0x8
 603 01da 85010000 		.4byte	.LASF36
 604 01de 07       		.byte	0x7
 605 01df A9       		.byte	0xa9
 606 01e0 19       		.byte	0x19
 607 01e1 11010000 		.4byte	0x111
 608 01e5 20       		.byte	0x20
 609 01e6 08       		.uleb128 0x8
 610 01e7 6D070000 		.4byte	.LASF37
 611 01eb 07       		.byte	0x7
 612 01ec AD       		.byte	0xad
 613 01ed 19       		.byte	0x19
 614 01ee 05010000 		.4byte	0x105
 615 01f2 21       		.byte	0x21
 616 01f3 08       		.uleb128 0x8
 617 01f4 3C040000 		.4byte	.LASF38
 618 01f8 07       		.byte	0x7
 619 01f9 B2       		.byte	0xb2
 620 01fa 19       		.byte	0x19
 621 01fb 1D010000 		.4byte	0x11d
 622 01ff 22       		.byte	0x22
 623 0200 0A       		.uleb128 0xa
 624 0201 7500     		.ascii	"u\000"
 625 0203 07       		.byte	0x7
 626 0204 0301     		.2byte	0x103
 627 0206 19       		.byte	0x19
ARM GAS  /tmp/ccBb80lR.s 			page 12


 628 0207 9C060000 		.4byte	0x69c
 629 020b 24       		.byte	0x24
 630 020c 0B       		.uleb128 0xb
 631 020d 10020000 		.4byte	.LASF39
 632 0211 07       		.byte	0x7
 633 0212 0801     		.2byte	0x108
 634 0214 19       		.byte	0x19
 635 0215 81020000 		.4byte	0x281
 636 0219 28       		.byte	0x28
 637 021a 0B       		.uleb128 0xb
 638 021b 71010000 		.4byte	.LASF40
 639 021f 07       		.byte	0x7
 640 0220 0E01     		.2byte	0x10e
 641 0222 19       		.byte	0x19
 642 0223 A8020000 		.4byte	0x2a8
 643 0227 2C       		.byte	0x2c
 644 0228 0B       		.uleb128 0xb
 645 0229 F7020000 		.4byte	.LASF41
 646 022d 07       		.byte	0x7
 647 022e 1401     		.2byte	0x114
 648 0230 19       		.byte	0x19
 649 0231 41010000 		.4byte	0x141
 650 0235 34       		.byte	0x34
 651 0236 0B       		.uleb128 0xb
 652 0237 B3070000 		.4byte	.LASF42
 653 023b 07       		.byte	0x7
 654 023c 1B01     		.2byte	0x11b
 655 023e 1A       		.byte	0x1a
 656 023f 7D070000 		.4byte	0x77d
 657 0243 38       		.byte	0x38
 658 0244 0B       		.uleb128 0xb
 659 0245 73030000 		.4byte	.LASF43
 660 0249 07       		.byte	0x7
 661 024a 1F01     		.2byte	0x11f
 662 024c 19       		.byte	0x19
 663 024d 29010000 		.4byte	0x129
 664 0251 3C       		.byte	0x3c
 665 0252 0B       		.uleb128 0xb
 666 0253 2E060000 		.4byte	.LASF44
 667 0257 07       		.byte	0x7
 668 0258 2601     		.2byte	0x126
 669 025a 1A       		.byte	0x1a
 670 025b DC020000 		.4byte	0x2dc
 671 025f 40       		.byte	0x40
 672 0260 0B       		.uleb128 0xb
 673 0261 B4010000 		.4byte	.LASF45
 674 0265 07       		.byte	0x7
 675 0266 2C01     		.2byte	0x12c
 676 0268 19       		.byte	0x19
 677 0269 90060000 		.4byte	0x690
 678 026d 48       		.byte	0x48
 679 026e 00       		.byte	0
 680 026f 03       		.uleb128 0x3
 681 0270 90030000 		.4byte	.LASF46
 682 0274 06       		.byte	0x6
 683 0275 39       		.byte	0x39
 684 0276 14       		.byte	0x14
ARM GAS  /tmp/ccBb80lR.s 			page 13


 685 0277 7B020000 		.4byte	0x27b
 686 027b 0C       		.uleb128 0xc
 687 027c 04       		.byte	0x4
 688 027d 65010000 		.4byte	0x165
 689 0281 03       		.uleb128 0x3
 690 0282 8A070000 		.4byte	.LASF47
 691 0286 06       		.byte	0x6
 692 0287 3E       		.byte	0x3e
 693 0288 20       		.byte	0x20
 694 0289 8D020000 		.4byte	0x28d
 695 028d 07       		.uleb128 0x7
 696 028e E0020000 		.4byte	.LASF49
 697 0292 04       		.byte	0x4
 698 0293 07       		.byte	0x7
 699 0294 7C       		.byte	0x7c
 700 0295 08       		.byte	0x8
 701 0296 A8020000 		.4byte	0x2a8
 702 029a 08       		.uleb128 0x8
 703 029b D0000000 		.4byte	.LASF50
 704 029f 07       		.byte	0x7
 705 02a0 7D       		.byte	0x7d
 706 02a1 1A       		.byte	0x1a
 707 02a2 7B020000 		.4byte	0x27b
 708 02a6 00       		.byte	0
 709 02a7 00       		.byte	0
 710 02a8 03       		.uleb128 0x3
 711 02a9 34060000 		.4byte	.LASF51
 712 02ad 06       		.byte	0x6
 713 02ae 45       		.byte	0x45
 714 02af 21       		.byte	0x21
 715 02b0 B4020000 		.4byte	0x2b4
 716 02b4 07       		.uleb128 0x7
 717 02b5 D5000000 		.4byte	.LASF52
 718 02b9 08       		.byte	0x8
 719 02ba 07       		.byte	0x7
 720 02bb 83       		.byte	0x83
 721 02bc 08       		.byte	0x8
 722 02bd DC020000 		.4byte	0x2dc
 723 02c1 08       		.uleb128 0x8
 724 02c2 D0000000 		.4byte	.LASF50
 725 02c6 07       		.byte	0x7
 726 02c7 84       		.byte	0x84
 727 02c8 1A       		.byte	0x1a
 728 02c9 7B020000 		.4byte	0x27b
 729 02cd 00       		.byte	0
 730 02ce 08       		.uleb128 0x8
 731 02cf 5D000000 		.4byte	.LASF53
 732 02d3 07       		.byte	0x7
 733 02d4 85       		.byte	0x85
 734 02d5 1A       		.byte	0x1a
 735 02d6 7B020000 		.4byte	0x27b
 736 02da 04       		.byte	0x4
 737 02db 00       		.byte	0
 738 02dc 0D       		.uleb128 0xd
 739 02dd 04       		.byte	0x4
 740 02de 0E       		.uleb128 0xe
 741 02df CB000000 		.4byte	0xcb
ARM GAS  /tmp/ccBb80lR.s 			page 14


 742 02e3 EE020000 		.4byte	0x2ee
 743 02e7 0F       		.uleb128 0xf
 744 02e8 38000000 		.4byte	0x38
 745 02ec 01       		.byte	0x1
 746 02ed 00       		.byte	0
 747 02ee 10       		.uleb128 0x10
 748 02ef 18       		.byte	0x18
 749 02f0 08       		.byte	0x8
 750 02f1 B401     		.2byte	0x1b4
 751 02f3 09       		.byte	0x9
 752 02f4 4C030000 		.4byte	0x34c
 753 02f8 0A       		.uleb128 0xa
 754 02f9 435200   		.ascii	"CR\000"
 755 02fc 08       		.byte	0x8
 756 02fd B601     		.2byte	0x1b6
 757 02ff 11       		.byte	0x11
 758 0300 D7000000 		.4byte	0xd7
 759 0304 00       		.byte	0
 760 0305 0B       		.uleb128 0xb
 761 0306 0B020000 		.4byte	.LASF54
 762 030a 08       		.byte	0x8
 763 030b B701     		.2byte	0x1b7
 764 030d 11       		.byte	0x11
 765 030e D7000000 		.4byte	0xd7
 766 0312 04       		.byte	0x4
 767 0313 0A       		.uleb128 0xa
 768 0314 50415200 		.ascii	"PAR\000"
 769 0318 08       		.byte	0x8
 770 0319 B801     		.2byte	0x1b8
 771 031b 11       		.byte	0x11
 772 031c D7000000 		.4byte	0xd7
 773 0320 08       		.byte	0x8
 774 0321 0B       		.uleb128 0xb
 775 0322 25000000 		.4byte	.LASF55
 776 0326 08       		.byte	0x8
 777 0327 B901     		.2byte	0x1b9
 778 0329 11       		.byte	0x11
 779 032a D7000000 		.4byte	0xd7
 780 032e 0C       		.byte	0xc
 781 032f 0B       		.uleb128 0xb
 782 0330 19060000 		.4byte	.LASF56
 783 0334 08       		.byte	0x8
 784 0335 BA01     		.2byte	0x1ba
 785 0337 11       		.byte	0x11
 786 0338 D7000000 		.4byte	0xd7
 787 033c 10       		.byte	0x10
 788 033d 0A       		.uleb128 0xa
 789 033e 46435200 		.ascii	"FCR\000"
 790 0342 08       		.byte	0x8
 791 0343 BB01     		.2byte	0x1bb
 792 0345 11       		.byte	0x11
 793 0346 D7000000 		.4byte	0xd7
 794 034a 14       		.byte	0x14
 795 034b 00       		.byte	0
 796 034c 11       		.uleb128 0x11
 797 034d D4050000 		.4byte	.LASF57
 798 0351 08       		.byte	0x8
ARM GAS  /tmp/ccBb80lR.s 			page 15


 799 0352 BC01     		.2byte	0x1bc
 800 0354 03       		.byte	0x3
 801 0355 EE020000 		.4byte	0x2ee
 802 0359 10       		.uleb128 0x10
 803 035a 84       		.byte	0x84
 804 035b 08       		.byte	0x8
 805 035c 8A03     		.2byte	0x38a
 806 035e 09       		.byte	0x9
 807 035f 7C040000 		.4byte	0x47c
 808 0363 0B       		.uleb128 0xb
 809 0364 B9030000 		.4byte	.LASF58
 810 0368 08       		.byte	0x8
 811 0369 8C03     		.2byte	0x38c
 812 036b 11       		.byte	0x11
 813 036c D7000000 		.4byte	0xd7
 814 0370 00       		.byte	0
 815 0371 0B       		.uleb128 0xb
 816 0372 1A040000 		.4byte	.LASF59
 817 0376 08       		.byte	0x8
 818 0377 8D03     		.2byte	0x38d
 819 0379 11       		.byte	0x11
 820 037a D7000000 		.4byte	0xd7
 821 037e 04       		.byte	0x4
 822 037f 0A       		.uleb128 0xa
 823 0380 41524700 		.ascii	"ARG\000"
 824 0384 08       		.byte	0x8
 825 0385 8E03     		.2byte	0x38e
 826 0387 11       		.byte	0x11
 827 0388 D7000000 		.4byte	0xd7
 828 038c 08       		.byte	0x8
 829 038d 0A       		.uleb128 0xa
 830 038e 434D4400 		.ascii	"CMD\000"
 831 0392 08       		.byte	0x8
 832 0393 8F03     		.2byte	0x38f
 833 0395 11       		.byte	0x11
 834 0396 D7000000 		.4byte	0xd7
 835 039a 0C       		.byte	0xc
 836 039b 0B       		.uleb128 0xb
 837 039c 17030000 		.4byte	.LASF60
 838 03a0 08       		.byte	0x8
 839 03a1 9003     		.2byte	0x390
 840 03a3 11       		.byte	0x11
 841 03a4 DC000000 		.4byte	0xdc
 842 03a8 10       		.byte	0x10
 843 03a9 0B       		.uleb128 0xb
 844 03aa 10000000 		.4byte	.LASF61
 845 03ae 08       		.byte	0x8
 846 03af 9103     		.2byte	0x391
 847 03b1 11       		.byte	0x11
 848 03b2 DC000000 		.4byte	0xdc
 849 03b6 14       		.byte	0x14
 850 03b7 0B       		.uleb128 0xb
 851 03b8 6D030000 		.4byte	.LASF62
 852 03bc 08       		.byte	0x8
 853 03bd 9203     		.2byte	0x392
 854 03bf 11       		.byte	0x11
 855 03c0 DC000000 		.4byte	0xdc
ARM GAS  /tmp/ccBb80lR.s 			page 16


 856 03c4 18       		.byte	0x18
 857 03c5 0B       		.uleb128 0xb
 858 03c6 1F000000 		.4byte	.LASF63
 859 03ca 08       		.byte	0x8
 860 03cb 9303     		.2byte	0x393
 861 03cd 11       		.byte	0x11
 862 03ce DC000000 		.4byte	0xdc
 863 03d2 1C       		.byte	0x1c
 864 03d3 0B       		.uleb128 0xb
 865 03d4 C0010000 		.4byte	.LASF64
 866 03d8 08       		.byte	0x8
 867 03d9 9403     		.2byte	0x394
 868 03db 11       		.byte	0x11
 869 03dc DC000000 		.4byte	0xdc
 870 03e0 20       		.byte	0x20
 871 03e1 0B       		.uleb128 0xb
 872 03e2 CD050000 		.4byte	.LASF65
 873 03e6 08       		.byte	0x8
 874 03e7 9503     		.2byte	0x395
 875 03e9 11       		.byte	0x11
 876 03ea D7000000 		.4byte	0xd7
 877 03ee 24       		.byte	0x24
 878 03ef 0B       		.uleb128 0xb
 879 03f0 58030000 		.4byte	.LASF66
 880 03f4 08       		.byte	0x8
 881 03f5 9603     		.2byte	0x396
 882 03f7 11       		.byte	0x11
 883 03f8 D7000000 		.4byte	0xd7
 884 03fc 28       		.byte	0x28
 885 03fd 0B       		.uleb128 0xb
 886 03fe EB030000 		.4byte	.LASF67
 887 0402 08       		.byte	0x8
 888 0403 9703     		.2byte	0x397
 889 0405 11       		.byte	0x11
 890 0406 D7000000 		.4byte	0xd7
 891 040a 2C       		.byte	0x2c
 892 040b 0B       		.uleb128 0xb
 893 040c 94010000 		.4byte	.LASF68
 894 0410 08       		.byte	0x8
 895 0411 9803     		.2byte	0x398
 896 0413 11       		.byte	0x11
 897 0414 DC000000 		.4byte	0xdc
 898 0418 30       		.byte	0x30
 899 0419 0A       		.uleb128 0xa
 900 041a 53544100 		.ascii	"STA\000"
 901 041e 08       		.byte	0x8
 902 041f 9903     		.2byte	0x399
 903 0421 11       		.byte	0x11
 904 0422 DC000000 		.4byte	0xdc
 905 0426 34       		.byte	0x34
 906 0427 0A       		.uleb128 0xa
 907 0428 49435200 		.ascii	"ICR\000"
 908 042c 08       		.byte	0x8
 909 042d 9A03     		.2byte	0x39a
 910 042f 11       		.byte	0x11
 911 0430 D7000000 		.4byte	0xd7
 912 0434 38       		.byte	0x38
ARM GAS  /tmp/ccBb80lR.s 			page 17


 913 0435 0B       		.uleb128 0xb
 914 0436 2F020000 		.4byte	.LASF69
 915 043a 08       		.byte	0x8
 916 043b 9B03     		.2byte	0x39b
 917 043d 11       		.byte	0x11
 918 043e D7000000 		.4byte	0xd7
 919 0442 3C       		.byte	0x3c
 920 0443 0B       		.uleb128 0xb
 921 0444 28040000 		.4byte	.LASF70
 922 0448 08       		.byte	0x8
 923 0449 9C03     		.2byte	0x39c
 924 044b 11       		.byte	0x11
 925 044c DE020000 		.4byte	0x2de
 926 0450 40       		.byte	0x40
 927 0451 0B       		.uleb128 0xb
 928 0452 A2000000 		.4byte	.LASF71
 929 0456 08       		.byte	0x8
 930 0457 9D03     		.2byte	0x39d
 931 0459 11       		.byte	0x11
 932 045a DC000000 		.4byte	0xdc
 933 045e 48       		.byte	0x48
 934 045f 0B       		.uleb128 0xb
 935 0460 32040000 		.4byte	.LASF72
 936 0464 08       		.byte	0x8
 937 0465 9E03     		.2byte	0x39e
 938 0467 11       		.byte	0x11
 939 0468 7C040000 		.4byte	0x47c
 940 046c 4C       		.byte	0x4c
 941 046d 0B       		.uleb128 0xb
 942 046e 85070000 		.4byte	.LASF73
 943 0472 08       		.byte	0x8
 944 0473 9F03     		.2byte	0x39f
 945 0475 11       		.byte	0x11
 946 0476 D7000000 		.4byte	0xd7
 947 047a 80       		.byte	0x80
 948 047b 00       		.byte	0
 949 047c 0E       		.uleb128 0xe
 950 047d CB000000 		.4byte	0xcb
 951 0481 8C040000 		.4byte	0x48c
 952 0485 0F       		.uleb128 0xf
 953 0486 38000000 		.4byte	0x38
 954 048a 0C       		.byte	0xc
 955 048b 00       		.byte	0
 956 048c 11       		.uleb128 0x11
 957 048d 84020000 		.4byte	.LASF74
 958 0491 08       		.byte	0x8
 959 0492 A003     		.2byte	0x3a0
 960 0494 03       		.byte	0x3
 961 0495 59030000 		.4byte	0x359
 962 0499 0E       		.uleb128 0xe
 963 049a CB000000 		.4byte	0xcb
 964 049e A9040000 		.4byte	0x4a9
 965 04a2 0F       		.uleb128 0xf
 966 04a3 38000000 		.4byte	0x38
 967 04a7 03       		.byte	0x3
 968 04a8 00       		.byte	0
 969 04a9 03       		.uleb128 0x3
ARM GAS  /tmp/ccBb80lR.s 			page 18


 970 04aa 26050000 		.4byte	.LASF75
 971 04ae 09       		.byte	0x9
 972 04af 65       		.byte	0x65
 973 04b0 0F       		.byte	0xf
 974 04b1 DC020000 		.4byte	0x2dc
 975 04b5 03       		.uleb128 0x3
 976 04b6 47030000 		.4byte	.LASF76
 977 04ba 09       		.byte	0x9
 978 04bb 6D       		.byte	0x6d
 979 04bc 12       		.byte	0x12
 980 04bd E1000000 		.4byte	0xe1
 981 04c1 07       		.uleb128 0x7
 982 04c2 DE030000 		.4byte	.LASF77
 983 04c6 04       		.byte	0x4
 984 04c7 09       		.byte	0x9
 985 04c8 89       		.byte	0x89
 986 04c9 08       		.byte	0x8
 987 04ca DB040000 		.4byte	0x4db
 988 04ce 09       		.uleb128 0x9
 989 04cf 737000   		.ascii	"sp\000"
 990 04d2 09       		.byte	0x9
 991 04d3 8A       		.byte	0x8a
 992 04d4 17       		.byte	0x17
 993 04d5 41060000 		.4byte	0x641
 994 04d9 00       		.byte	0
 995 04da 00       		.byte	0
 996 04db 12       		.uleb128 0x12
 997 04dc 62000000 		.4byte	.LASF78
 998 04e0 64       		.byte	0x64
 999 04e1 0A       		.byte	0xa
 1000 04e2 5901     		.2byte	0x159
 1001 04e4 08       		.byte	0x8
 1002 04e5 41060000 		.4byte	0x641
 1003 04e9 0A       		.uleb128 0xa
 1004 04ea 73313600 		.ascii	"s16\000"
 1005 04ee 0A       		.byte	0xa
 1006 04ef 5B01     		.2byte	0x15b
 1007 04f1 11       		.byte	0x11
 1008 04f2 A9040000 		.4byte	0x4a9
 1009 04f6 00       		.byte	0
 1010 04f7 0A       		.uleb128 0xa
 1011 04f8 73313700 		.ascii	"s17\000"
 1012 04fc 0A       		.byte	0xa
 1013 04fd 5C01     		.2byte	0x15c
 1014 04ff 11       		.byte	0x11
 1015 0500 A9040000 		.4byte	0x4a9
 1016 0504 04       		.byte	0x4
 1017 0505 0A       		.uleb128 0xa
 1018 0506 73313800 		.ascii	"s18\000"
 1019 050a 0A       		.byte	0xa
 1020 050b 5D01     		.2byte	0x15d
 1021 050d 11       		.byte	0x11
 1022 050e A9040000 		.4byte	0x4a9
 1023 0512 08       		.byte	0x8
 1024 0513 0A       		.uleb128 0xa
 1025 0514 73313900 		.ascii	"s19\000"
 1026 0518 0A       		.byte	0xa
ARM GAS  /tmp/ccBb80lR.s 			page 19


 1027 0519 5E01     		.2byte	0x15e
 1028 051b 11       		.byte	0x11
 1029 051c A9040000 		.4byte	0x4a9
 1030 0520 0C       		.byte	0xc
 1031 0521 0A       		.uleb128 0xa
 1032 0522 73323000 		.ascii	"s20\000"
 1033 0526 0A       		.byte	0xa
 1034 0527 5F01     		.2byte	0x15f
 1035 0529 11       		.byte	0x11
 1036 052a A9040000 		.4byte	0x4a9
 1037 052e 10       		.byte	0x10
 1038 052f 0A       		.uleb128 0xa
 1039 0530 73323100 		.ascii	"s21\000"
 1040 0534 0A       		.byte	0xa
 1041 0535 6001     		.2byte	0x160
 1042 0537 11       		.byte	0x11
 1043 0538 A9040000 		.4byte	0x4a9
 1044 053c 14       		.byte	0x14
 1045 053d 0A       		.uleb128 0xa
 1046 053e 73323200 		.ascii	"s22\000"
 1047 0542 0A       		.byte	0xa
 1048 0543 6101     		.2byte	0x161
 1049 0545 11       		.byte	0x11
 1050 0546 A9040000 		.4byte	0x4a9
 1051 054a 18       		.byte	0x18
 1052 054b 0A       		.uleb128 0xa
 1053 054c 73323300 		.ascii	"s23\000"
 1054 0550 0A       		.byte	0xa
 1055 0551 6201     		.2byte	0x162
 1056 0553 11       		.byte	0x11
 1057 0554 A9040000 		.4byte	0x4a9
 1058 0558 1C       		.byte	0x1c
 1059 0559 0A       		.uleb128 0xa
 1060 055a 73323400 		.ascii	"s24\000"
 1061 055e 0A       		.byte	0xa
 1062 055f 6301     		.2byte	0x163
 1063 0561 11       		.byte	0x11
 1064 0562 A9040000 		.4byte	0x4a9
 1065 0566 20       		.byte	0x20
 1066 0567 0A       		.uleb128 0xa
 1067 0568 73323500 		.ascii	"s25\000"
 1068 056c 0A       		.byte	0xa
 1069 056d 6401     		.2byte	0x164
 1070 056f 11       		.byte	0x11
 1071 0570 A9040000 		.4byte	0x4a9
 1072 0574 24       		.byte	0x24
 1073 0575 0A       		.uleb128 0xa
 1074 0576 73323600 		.ascii	"s26\000"
 1075 057a 0A       		.byte	0xa
 1076 057b 6501     		.2byte	0x165
 1077 057d 11       		.byte	0x11
 1078 057e A9040000 		.4byte	0x4a9
 1079 0582 28       		.byte	0x28
 1080 0583 0A       		.uleb128 0xa
 1081 0584 73323700 		.ascii	"s27\000"
 1082 0588 0A       		.byte	0xa
 1083 0589 6601     		.2byte	0x166
ARM GAS  /tmp/ccBb80lR.s 			page 20


 1084 058b 11       		.byte	0x11
 1085 058c A9040000 		.4byte	0x4a9
 1086 0590 2C       		.byte	0x2c
 1087 0591 0A       		.uleb128 0xa
 1088 0592 73323800 		.ascii	"s28\000"
 1089 0596 0A       		.byte	0xa
 1090 0597 6701     		.2byte	0x167
 1091 0599 11       		.byte	0x11
 1092 059a A9040000 		.4byte	0x4a9
 1093 059e 30       		.byte	0x30
 1094 059f 0A       		.uleb128 0xa
 1095 05a0 73323900 		.ascii	"s29\000"
 1096 05a4 0A       		.byte	0xa
 1097 05a5 6801     		.2byte	0x168
 1098 05a7 11       		.byte	0x11
 1099 05a8 A9040000 		.4byte	0x4a9
 1100 05ac 34       		.byte	0x34
 1101 05ad 0A       		.uleb128 0xa
 1102 05ae 73333000 		.ascii	"s30\000"
 1103 05b2 0A       		.byte	0xa
 1104 05b3 6901     		.2byte	0x169
 1105 05b5 11       		.byte	0x11
 1106 05b6 A9040000 		.4byte	0x4a9
 1107 05ba 38       		.byte	0x38
 1108 05bb 0A       		.uleb128 0xa
 1109 05bc 73333100 		.ascii	"s31\000"
 1110 05c0 0A       		.byte	0xa
 1111 05c1 6A01     		.2byte	0x16a
 1112 05c3 11       		.byte	0x11
 1113 05c4 A9040000 		.4byte	0x4a9
 1114 05c8 3C       		.byte	0x3c
 1115 05c9 0A       		.uleb128 0xa
 1116 05ca 723400   		.ascii	"r4\000"
 1117 05cd 0A       		.byte	0xa
 1118 05ce 6C01     		.2byte	0x16c
 1119 05d0 11       		.byte	0x11
 1120 05d1 A9040000 		.4byte	0x4a9
 1121 05d5 40       		.byte	0x40
 1122 05d6 0A       		.uleb128 0xa
 1123 05d7 723500   		.ascii	"r5\000"
 1124 05da 0A       		.byte	0xa
 1125 05db 6D01     		.2byte	0x16d
 1126 05dd 11       		.byte	0x11
 1127 05de A9040000 		.4byte	0x4a9
 1128 05e2 44       		.byte	0x44
 1129 05e3 0A       		.uleb128 0xa
 1130 05e4 723600   		.ascii	"r6\000"
 1131 05e7 0A       		.byte	0xa
 1132 05e8 6E01     		.2byte	0x16e
 1133 05ea 11       		.byte	0x11
 1134 05eb A9040000 		.4byte	0x4a9
 1135 05ef 48       		.byte	0x48
 1136 05f0 0A       		.uleb128 0xa
 1137 05f1 723700   		.ascii	"r7\000"
 1138 05f4 0A       		.byte	0xa
 1139 05f5 6F01     		.2byte	0x16f
 1140 05f7 11       		.byte	0x11
ARM GAS  /tmp/ccBb80lR.s 			page 21


 1141 05f8 A9040000 		.4byte	0x4a9
 1142 05fc 4C       		.byte	0x4c
 1143 05fd 0A       		.uleb128 0xa
 1144 05fe 723800   		.ascii	"r8\000"
 1145 0601 0A       		.byte	0xa
 1146 0602 7001     		.2byte	0x170
 1147 0604 11       		.byte	0x11
 1148 0605 A9040000 		.4byte	0x4a9
 1149 0609 50       		.byte	0x50
 1150 060a 0A       		.uleb128 0xa
 1151 060b 723900   		.ascii	"r9\000"
 1152 060e 0A       		.byte	0xa
 1153 060f 7101     		.2byte	0x171
 1154 0611 11       		.byte	0x11
 1155 0612 A9040000 		.4byte	0x4a9
 1156 0616 54       		.byte	0x54
 1157 0617 0A       		.uleb128 0xa
 1158 0618 72313000 		.ascii	"r10\000"
 1159 061c 0A       		.byte	0xa
 1160 061d 7201     		.2byte	0x172
 1161 061f 11       		.byte	0x11
 1162 0620 A9040000 		.4byte	0x4a9
 1163 0624 58       		.byte	0x58
 1164 0625 0A       		.uleb128 0xa
 1165 0626 72313100 		.ascii	"r11\000"
 1166 062a 0A       		.byte	0xa
 1167 062b 7301     		.2byte	0x173
 1168 062d 11       		.byte	0x11
 1169 062e A9040000 		.4byte	0x4a9
 1170 0632 5C       		.byte	0x5c
 1171 0633 0A       		.uleb128 0xa
 1172 0634 6C7200   		.ascii	"lr\000"
 1173 0637 0A       		.byte	0xa
 1174 0638 7401     		.2byte	0x174
 1175 063a 11       		.byte	0x11
 1176 063b A9040000 		.4byte	0x4a9
 1177 063f 60       		.byte	0x60
 1178 0640 00       		.byte	0
 1179 0641 0C       		.uleb128 0xc
 1180 0642 04       		.byte	0x4
 1181 0643 DB040000 		.4byte	0x4db
 1182 0647 13       		.uleb128 0x13
 1183 0648 18       		.byte	0x18
 1184 0649 0B       		.byte	0xb
 1185 064a 48       		.byte	0x48
 1186 064b 09       		.byte	0x9
 1187 064c 90060000 		.4byte	0x690
 1188 0650 08       		.uleb128 0x8
 1189 0651 B7050000 		.4byte	.LASF79
 1190 0655 0B       		.byte	0xb
 1191 0656 49       		.byte	0x49
 1192 0657 19       		.byte	0x19
 1193 0658 ED000000 		.4byte	0xed
 1194 065c 00       		.byte	0
 1195 065d 08       		.uleb128 0x8
 1196 065e 89000000 		.4byte	.LASF80
 1197 0662 0B       		.byte	0xb
ARM GAS  /tmp/ccBb80lR.s 			page 22


 1198 0663 4A       		.byte	0x4a
 1199 0664 19       		.byte	0x19
 1200 0665 ED000000 		.4byte	0xed
 1201 0669 04       		.byte	0x4
 1202 066a 08       		.uleb128 0x8
 1203 066b DB020000 		.4byte	.LASF81
 1204 066f 0B       		.byte	0xb
 1205 0670 4B       		.byte	0x4b
 1206 0671 19       		.byte	0x19
 1207 0672 ED000000 		.4byte	0xed
 1208 0676 08       		.byte	0x8
 1209 0677 09       		.uleb128 0x9
 1210 0678 6E00     		.ascii	"n\000"
 1211 067a 0B       		.byte	0xb
 1212 067b 4C       		.byte	0x4c
 1213 067c 19       		.byte	0x19
 1214 067d 59010000 		.4byte	0x159
 1215 0681 0C       		.byte	0xc
 1216 0682 08       		.uleb128 0x8
 1217 0683 0F040000 		.4byte	.LASF82
 1218 0687 0B       		.byte	0xb
 1219 0688 4D       		.byte	0x4d
 1220 0689 19       		.byte	0x19
 1221 068a F9000000 		.4byte	0xf9
 1222 068e 10       		.byte	0x10
 1223 068f 00       		.byte	0
 1224 0690 03       		.uleb128 0x3
 1225 0691 8F000000 		.4byte	.LASF83
 1226 0695 0B       		.byte	0xb
 1227 0696 4E       		.byte	0x4e
 1228 0697 03       		.byte	0x3
 1229 0698 47060000 		.4byte	0x647
 1230 069c 14       		.uleb128 0x14
 1231 069d 04       		.byte	0x4
 1232 069e 07       		.byte	0x7
 1233 069f C6       		.byte	0xc6
 1234 06a0 03       		.byte	0x3
 1235 06a1 07070000 		.4byte	0x707
 1236 06a5 15       		.uleb128 0x15
 1237 06a6 39000000 		.4byte	.LASF84
 1238 06aa 07       		.byte	0x7
 1239 06ab CD       		.byte	0xcd
 1240 06ac 19       		.byte	0x19
 1241 06ad 35010000 		.4byte	0x135
 1242 06b1 15       		.uleb128 0x15
 1243 06b2 E7010000 		.4byte	.LASF85
 1244 06b6 07       		.byte	0x7
 1245 06b7 D4       		.byte	0xd4
 1246 06b8 19       		.byte	0x19
 1247 06b9 35010000 		.4byte	0x135
 1248 06bd 15       		.uleb128 0x15
 1249 06be 61010000 		.4byte	.LASF86
 1250 06c2 07       		.byte	0x7
 1251 06c3 DB       		.byte	0xdb
 1252 06c4 1A       		.byte	0x1a
 1253 06c5 DC020000 		.4byte	0x2dc
 1254 06c9 15       		.uleb128 0x15
ARM GAS  /tmp/ccBb80lR.s 			page 23


 1255 06ca AD030000 		.4byte	.LASF87
 1256 06ce 07       		.byte	0x7
 1257 06cf E2       		.byte	0xe2
 1258 06d0 1A       		.byte	0x1a
 1259 06d1 07070000 		.4byte	0x707
 1260 06d5 15       		.uleb128 0x15
 1261 06d6 C8000000 		.4byte	.LASF88
 1262 06da 07       		.byte	0x7
 1263 06db E7       		.byte	0xe7
 1264 06dc 19       		.byte	0x19
 1265 06dd 35010000 		.4byte	0x135
 1266 06e1 15       		.uleb128 0x15
 1267 06e2 51020000 		.4byte	.LASF89
 1268 06e6 07       		.byte	0x7
 1269 06e7 F0       		.byte	0xf0
 1270 06e8 1A       		.byte	0x1a
 1271 06e9 35070000 		.4byte	0x735
 1272 06ed 15       		.uleb128 0x15
 1273 06ee 05060000 		.4byte	.LASF90
 1274 06f2 07       		.byte	0x7
 1275 06f3 F9       		.byte	0xf9
 1276 06f4 1A       		.byte	0x1a
 1277 06f5 7D070000 		.4byte	0x77d
 1278 06f9 16       		.uleb128 0x16
 1279 06fa A3040000 		.4byte	.LASF91
 1280 06fe 07       		.byte	0x7
 1281 06ff 0101     		.2byte	0x101
 1282 0701 19       		.byte	0x19
 1283 0702 41010000 		.4byte	0x141
 1284 0706 00       		.byte	0
 1285 0707 0C       		.uleb128 0xc
 1286 0708 04       		.byte	0x4
 1287 0709 6F020000 		.4byte	0x26f
 1288 070d 07       		.uleb128 0x7
 1289 070e FD040000 		.4byte	.LASF92
 1290 0712 0C       		.byte	0xc
 1291 0713 0C       		.byte	0xc
 1292 0714 34       		.byte	0x34
 1293 0715 10       		.byte	0x10
 1294 0716 35070000 		.4byte	0x735
 1295 071a 08       		.uleb128 0x8
 1296 071b 70020000 		.4byte	.LASF30
 1297 071f 0C       		.byte	0xc
 1298 0720 35       		.byte	0x35
 1299 0721 19       		.byte	0x19
 1300 0722 A8020000 		.4byte	0x2a8
 1301 0726 00       		.byte	0
 1302 0727 09       		.uleb128 0x9
 1303 0728 636E7400 		.ascii	"cnt\000"
 1304 072c 0C       		.byte	0xc
 1305 072d 37       		.byte	0x37
 1306 072e 19       		.byte	0x19
 1307 072f 4D010000 		.4byte	0x14d
 1308 0733 08       		.byte	0x8
 1309 0734 00       		.byte	0
 1310 0735 0C       		.uleb128 0xc
 1311 0736 04       		.byte	0x4
ARM GAS  /tmp/ccBb80lR.s 			page 24


 1312 0737 0D070000 		.4byte	0x70d
 1313 073b 07       		.uleb128 0x7
 1314 073c 44060000 		.4byte	.LASF93
 1315 0740 14       		.byte	0x14
 1316 0741 0D       		.byte	0xd
 1317 0742 39       		.byte	0x39
 1318 0743 08       		.byte	0x8
 1319 0744 7D070000 		.4byte	0x77d
 1320 0748 08       		.uleb128 0x8
 1321 0749 70020000 		.4byte	.LASF30
 1322 074d 0D       		.byte	0xd
 1323 074e 3A       		.byte	0x3a
 1324 074f 19       		.byte	0x19
 1325 0750 A8020000 		.4byte	0x2a8
 1326 0754 00       		.byte	0
 1327 0755 08       		.uleb128 0x8
 1328 0756 3C050000 		.4byte	.LASF94
 1329 075a 0D       		.byte	0xd
 1330 075b 3C       		.byte	0x3c
 1331 075c 1A       		.byte	0x1a
 1332 075d 7B020000 		.4byte	0x27b
 1333 0761 08       		.byte	0x8
 1334 0762 08       		.uleb128 0x8
 1335 0763 D0000000 		.4byte	.LASF50
 1336 0767 0D       		.byte	0xd
 1337 0768 3E       		.byte	0x3e
 1338 0769 1A       		.byte	0x1a
 1339 076a A7070000 		.4byte	0x7a7
 1340 076e 0C       		.byte	0xc
 1341 076f 09       		.uleb128 0x9
 1342 0770 636E7400 		.ascii	"cnt\000"
 1343 0774 0D       		.byte	0xd
 1344 0775 41       		.byte	0x41
 1345 0776 19       		.byte	0x19
 1346 0777 4D010000 		.4byte	0x14d
 1347 077b 10       		.byte	0x10
 1348 077c 00       		.byte	0
 1349 077d 0C       		.uleb128 0xc
 1350 077e 04       		.byte	0x4
 1351 077f 3B070000 		.4byte	0x73b
 1352 0783 0C       		.uleb128 0xc
 1353 0784 04       		.byte	0x4
 1354 0785 90070000 		.4byte	0x790
 1355 0789 04       		.uleb128 0x4
 1356 078a 01       		.byte	0x1
 1357 078b 08       		.byte	0x8
 1358 078c 8A050000 		.4byte	.LASF95
 1359 0790 05       		.uleb128 0x5
 1360 0791 89070000 		.4byte	0x789
 1361 0795 0C       		.uleb128 0xc
 1362 0796 04       		.byte	0x4
 1363 0797 B5040000 		.4byte	0x4b5
 1364 079b 03       		.uleb128 0x3
 1365 079c 27020000 		.4byte	.LASF96
 1366 07a0 0D       		.byte	0xd
 1367 07a1 34       		.byte	0x34
 1368 07a2 19       		.byte	0x19
ARM GAS  /tmp/ccBb80lR.s 			page 25


 1369 07a3 3B070000 		.4byte	0x73b
 1370 07a7 0C       		.uleb128 0xc
 1371 07a8 04       		.byte	0x4
 1372 07a9 9B070000 		.4byte	0x79b
 1373 07ad 04       		.uleb128 0x4
 1374 07ae 01       		.byte	0x1
 1375 07af 02       		.byte	0x2
 1376 07b0 5F040000 		.4byte	.LASF97
 1377 07b4 0C       		.uleb128 0xc
 1378 07b5 04       		.byte	0x4
 1379 07b6 AE000000 		.4byte	0xae
 1380 07ba 10       		.uleb128 0x10
 1381 07bb 0C       		.byte	0xc
 1382 07bc 0E       		.byte	0xe
 1383 07bd A201     		.2byte	0x1a2
 1384 07bf 09       		.byte	0x9
 1385 07c0 19080000 		.4byte	0x819
 1386 07c4 0B       		.uleb128 0xb
 1387 07c5 82000000 		.4byte	.LASF98
 1388 07c9 0E       		.byte	0xe
 1389 07ca A301     		.2byte	0x1a3
 1390 07cc 1A       		.byte	0x1a
 1391 07cd 19080000 		.4byte	0x819
 1392 07d1 00       		.byte	0
 1393 07d2 0B       		.uleb128 0xb
 1394 07d3 12050000 		.4byte	.LASF99
 1395 07d7 0E       		.byte	0xe
 1396 07d8 A401     		.2byte	0x1a4
 1397 07da 1A       		.byte	0x1a
 1398 07db 1F080000 		.4byte	0x81f
 1399 07df 04       		.byte	0x4
 1400 07e0 0B       		.uleb128 0xb
 1401 07e1 17050000 		.4byte	.LASF100
 1402 07e5 0E       		.byte	0xe
 1403 07e6 A801     		.2byte	0x1a8
 1404 07e8 19       		.byte	0x19
 1405 07e9 AE000000 		.4byte	0xae
 1406 07ed 08       		.byte	0x8
 1407 07ee 0B       		.uleb128 0xb
 1408 07ef FE030000 		.4byte	.LASF101
 1409 07f3 0E       		.byte	0xe
 1410 07f4 AA01     		.2byte	0x1aa
 1411 07f6 19       		.byte	0x19
 1412 07f7 AE000000 		.4byte	0xae
 1413 07fb 09       		.byte	0x9
 1414 07fc 0B       		.uleb128 0xb
 1415 07fd 1E060000 		.4byte	.LASF102
 1416 0801 0E       		.byte	0xe
 1417 0802 AC01     		.2byte	0x1ac
 1418 0804 19       		.byte	0x19
 1419 0805 AE000000 		.4byte	0xae
 1420 0809 0A       		.byte	0xa
 1421 080a 0B       		.uleb128 0xb
 1422 080b C1000000 		.4byte	.LASF103
 1423 080f 0E       		.byte	0xe
 1424 0810 AD01     		.2byte	0x1ad
 1425 0812 19       		.byte	0x19
ARM GAS  /tmp/ccBb80lR.s 			page 26


 1426 0813 AE000000 		.4byte	0xae
 1427 0817 0B       		.byte	0xb
 1428 0818 00       		.byte	0
 1429 0819 0C       		.uleb128 0xc
 1430 081a 04       		.byte	0x4
 1431 081b 4C030000 		.4byte	0x34c
 1432 081f 0C       		.uleb128 0xc
 1433 0820 04       		.byte	0x4
 1434 0821 D7000000 		.4byte	0xd7
 1435 0825 11       		.uleb128 0x11
 1436 0826 7B040000 		.4byte	.LASF104
 1437 082a 0E       		.byte	0xe
 1438 082b AE01     		.2byte	0x1ae
 1439 082d 03       		.byte	0x3
 1440 082e BA070000 		.4byte	0x7ba
 1441 0832 05       		.uleb128 0x5
 1442 0833 25080000 		.4byte	0x825
 1443 0837 0C       		.uleb128 0xc
 1444 0838 04       		.byte	0x4
 1445 0839 BA000000 		.4byte	0xba
 1446 083d 17       		.uleb128 0x17
 1447 083e 07       		.byte	0x7
 1448 083f 01       		.byte	0x1
 1449 0840 60000000 		.4byte	0x60
 1450 0844 0F       		.byte	0xf
 1451 0845 28       		.byte	0x28
 1452 0846 0E       		.byte	0xe
 1453 0847 82080000 		.4byte	0x882
 1454 084b 18       		.uleb128 0x18
 1455 084c 7A010000 		.4byte	.LASF105
 1456 0850 00       		.byte	0
 1457 0851 18       		.uleb128 0x18
 1458 0852 68010000 		.4byte	.LASF106
 1459 0856 01       		.byte	0x1
 1460 0857 18       		.uleb128 0x18
 1461 0858 A5020000 		.4byte	.LASF107
 1462 085c 02       		.byte	0x2
 1463 085d 18       		.uleb128 0x18
 1464 085e 00030000 		.4byte	.LASF108
 1465 0862 03       		.byte	0x3
 1466 0863 18       		.uleb128 0x18
 1467 0864 95050000 		.4byte	.LASF109
 1468 0868 04       		.byte	0x4
 1469 0869 18       		.uleb128 0x18
 1470 086a D4030000 		.4byte	.LASF110
 1471 086e 05       		.byte	0x5
 1472 086f 18       		.uleb128 0x18
 1473 0870 7C030000 		.4byte	.LASF111
 1474 0874 06       		.byte	0x6
 1475 0875 18       		.uleb128 0x18
 1476 0876 F1000000 		.4byte	.LASF112
 1477 087a 07       		.byte	0x7
 1478 087b 18       		.uleb128 0x18
 1479 087c 4D060000 		.4byte	.LASF113
 1480 0880 08       		.byte	0x8
 1481 0881 00       		.byte	0
 1482 0882 03       		.uleb128 0x3
ARM GAS  /tmp/ccBb80lR.s 			page 27


 1483 0883 D3010000 		.4byte	.LASF114
 1484 0887 0F       		.byte	0xf
 1485 0888 32       		.byte	0x32
 1486 0889 03       		.byte	0x3
 1487 088a 3D080000 		.4byte	0x83d
 1488 088e 13       		.uleb128 0x13
 1489 088f 08       		.byte	0x8
 1490 0890 0F       		.byte	0xf
 1491 0891 37       		.byte	0x37
 1492 0892 09       		.byte	0x9
 1493 0893 B2080000 		.4byte	0x8b2
 1494 0897 08       		.uleb128 0x8
 1495 0898 BC050000 		.4byte	.LASF115
 1496 089c 0F       		.byte	0xf
 1497 089d 38       		.byte	0x38
 1498 089e 11       		.byte	0x11
 1499 089f CB000000 		.4byte	0xcb
 1500 08a3 00       		.byte	0
 1501 08a4 08       		.uleb128 0x8
 1502 08a5 31000000 		.4byte	.LASF116
 1503 08a9 0F       		.byte	0xf
 1504 08aa 39       		.byte	0x39
 1505 08ab 11       		.byte	0x11
 1506 08ac CB000000 		.4byte	0xcb
 1507 08b0 04       		.byte	0x4
 1508 08b1 00       		.byte	0
 1509 08b2 03       		.uleb128 0x3
 1510 08b3 00000000 		.4byte	.LASF117
 1511 08b7 0F       		.byte	0xf
 1512 08b8 3A       		.byte	0x3a
 1513 08b9 03       		.byte	0x3
 1514 08ba 8E080000 		.4byte	0x88e
 1515 08be 19       		.uleb128 0x19
 1516 08bf AD070000 		.4byte	0x7ad
 1517 08c3 CD080000 		.4byte	0x8cd
 1518 08c7 1A       		.uleb128 0x1a
 1519 08c8 DC020000 		.4byte	0x2dc
 1520 08cc 00       		.byte	0
 1521 08cd 0C       		.uleb128 0xc
 1522 08ce 04       		.byte	0x4
 1523 08cf BE080000 		.4byte	0x8be
 1524 08d3 19       		.uleb128 0x19
 1525 08d4 AD070000 		.4byte	0x7ad
 1526 08d8 F1080000 		.4byte	0x8f1
 1527 08dc 1A       		.uleb128 0x1a
 1528 08dd DC020000 		.4byte	0x2dc
 1529 08e1 1A       		.uleb128 0x1a
 1530 08e2 CB000000 		.4byte	0xcb
 1531 08e6 1A       		.uleb128 0x1a
 1532 08e7 B4070000 		.4byte	0x7b4
 1533 08eb 1A       		.uleb128 0x1a
 1534 08ec CB000000 		.4byte	0xcb
 1535 08f0 00       		.byte	0
 1536 08f1 0C       		.uleb128 0xc
 1537 08f2 04       		.byte	0x4
 1538 08f3 D3080000 		.4byte	0x8d3
 1539 08f7 19       		.uleb128 0x19
ARM GAS  /tmp/ccBb80lR.s 			page 28


 1540 08f8 AD070000 		.4byte	0x7ad
 1541 08fc 15090000 		.4byte	0x915
 1542 0900 1A       		.uleb128 0x1a
 1543 0901 DC020000 		.4byte	0x2dc
 1544 0905 1A       		.uleb128 0x1a
 1545 0906 CB000000 		.4byte	0xcb
 1546 090a 1A       		.uleb128 0x1a
 1547 090b 37080000 		.4byte	0x837
 1548 090f 1A       		.uleb128 0x1a
 1549 0910 CB000000 		.4byte	0xcb
 1550 0914 00       		.byte	0
 1551 0915 0C       		.uleb128 0xc
 1552 0916 04       		.byte	0x4
 1553 0917 F7080000 		.4byte	0x8f7
 1554 091b 19       		.uleb128 0x19
 1555 091c AD070000 		.4byte	0x7ad
 1556 0920 2F090000 		.4byte	0x92f
 1557 0924 1A       		.uleb128 0x1a
 1558 0925 DC020000 		.4byte	0x2dc
 1559 0929 1A       		.uleb128 0x1a
 1560 092a 2F090000 		.4byte	0x92f
 1561 092e 00       		.byte	0
 1562 092f 0C       		.uleb128 0xc
 1563 0930 04       		.byte	0x4
 1564 0931 B2080000 		.4byte	0x8b2
 1565 0935 0C       		.uleb128 0xc
 1566 0936 04       		.byte	0x4
 1567 0937 1B090000 		.4byte	0x91b
 1568 093b 0C       		.uleb128 0xc
 1569 093c 04       		.byte	0x4
 1570 093d 32080000 		.4byte	0x832
 1571 0941 17       		.uleb128 0x17
 1572 0942 07       		.byte	0x7
 1573 0943 01       		.byte	0x1
 1574 0944 60000000 		.4byte	0x60
 1575 0948 10       		.byte	0x10
 1576 0949 7A       		.byte	0x7a
 1577 094a 0E       		.byte	0xe
 1578 094b 62090000 		.4byte	0x962
 1579 094f 18       		.uleb128 0x18
 1580 0950 1C010000 		.4byte	.LASF118
 1581 0954 00       		.byte	0
 1582 0955 18       		.uleb128 0x18
 1583 0956 EC050000 		.4byte	.LASF119
 1584 095a 01       		.byte	0x1
 1585 095b 18       		.uleb128 0x18
 1586 095c 76020000 		.4byte	.LASF120
 1587 0960 02       		.byte	0x2
 1588 0961 00       		.byte	0
 1589 0962 03       		.uleb128 0x3
 1590 0963 F0040000 		.4byte	.LASF121
 1591 0967 10       		.byte	0x10
 1592 0968 7E       		.byte	0x7e
 1593 0969 03       		.byte	0x3
 1594 096a 41090000 		.4byte	0x941
 1595 096e 03       		.uleb128 0x3
 1596 096f 1D020000 		.4byte	.LASF122
ARM GAS  /tmp/ccBb80lR.s 			page 29


 1597 0973 11       		.byte	0x11
 1598 0974 FE       		.byte	0xfe
 1599 0975 12       		.byte	0x12
 1600 0976 CB000000 		.4byte	0xcb
 1601 097a 11       		.uleb128 0x11
 1602 097b FA050000 		.4byte	.LASF123
 1603 097f 11       		.byte	0x11
 1604 0980 0301     		.2byte	0x103
 1605 0982 12       		.byte	0x12
 1606 0983 CB000000 		.4byte	0xcb
 1607 0987 11       		.uleb128 0x11
 1608 0988 49000000 		.4byte	.LASF124
 1609 098c 11       		.byte	0x11
 1610 098d 0801     		.2byte	0x108
 1611 098f 1A       		.byte	0x1a
 1612 0990 94090000 		.4byte	0x994
 1613 0994 12       		.uleb128 0x12
 1614 0995 49000000 		.4byte	.LASF124
 1615 0999 58       		.byte	0x58
 1616 099a 11       		.byte	0x11
 1617 099b 3801     		.2byte	0x138
 1618 099d 08       		.byte	0x8
 1619 099e 830A0000 		.4byte	0xa83
 1620 09a2 0A       		.uleb128 0xa
 1621 09a3 766D7400 		.ascii	"vmt\000"
 1622 09a7 11       		.byte	0x11
 1623 09a8 3C01     		.2byte	0x13c
 1624 09aa 1E       		.byte	0x1e
 1625 09ab 5C0B0000 		.4byte	0xb5c
 1626 09af 00       		.byte	0
 1627 09b0 0B       		.uleb128 0xb
 1628 09b1 85010000 		.4byte	.LASF36
 1629 09b5 11       		.byte	0x11
 1630 09b6 3D01     		.2byte	0x13d
 1631 09b8 03       		.byte	0x3
 1632 09b9 82080000 		.4byte	0x882
 1633 09bd 04       		.byte	0x4
 1634 09be 0A       		.uleb128 0xa
 1635 09bf 63696400 		.ascii	"cid\000"
 1636 09c3 11       		.byte	0x11
 1637 09c4 3D01     		.2byte	0x13d
 1638 09c6 03       		.byte	0x3
 1639 09c7 99040000 		.4byte	0x499
 1640 09cb 08       		.byte	0x8
 1641 09cc 0A       		.uleb128 0xa
 1642 09cd 63736400 		.ascii	"csd\000"
 1643 09d1 11       		.byte	0x11
 1644 09d2 3D01     		.2byte	0x13d
 1645 09d4 03       		.byte	0x3
 1646 09d5 99040000 		.4byte	0x499
 1647 09d9 18       		.byte	0x18
 1648 09da 0B       		.uleb128 0xb
 1649 09db 79000000 		.4byte	.LASF125
 1650 09df 11       		.byte	0x11
 1651 09e0 3D01     		.2byte	0x13d
 1652 09e2 03       		.byte	0x3
 1653 09e3 CB000000 		.4byte	0xcb
ARM GAS  /tmp/ccBb80lR.s 			page 30


 1654 09e7 28       		.byte	0x28
 1655 09e8 0B       		.uleb128 0xb
 1656 09e9 A7050000 		.4byte	.LASF126
 1657 09ed 11       		.byte	0x11
 1658 09ee 4101     		.2byte	0x141
 1659 09f0 1E       		.byte	0x1e
 1660 09f1 620B0000 		.4byte	0xb62
 1661 09f5 2C       		.byte	0x2c
 1662 09f6 0B       		.uleb128 0xb
 1663 09f7 4D010000 		.4byte	.LASF127
 1664 09fb 11       		.byte	0x11
 1665 09fc 4501     		.2byte	0x145
 1666 09fe 1D       		.byte	0x1d
 1667 09ff 6E090000 		.4byte	0x96e
 1668 0a03 30       		.byte	0x30
 1669 0a04 0B       		.uleb128 0xb
 1670 0a05 58020000 		.4byte	.LASF128
 1671 0a09 11       		.byte	0x11
 1672 0a0a 4901     		.2byte	0x149
 1673 0a0c 1D       		.byte	0x1d
 1674 0a0d 7A090000 		.4byte	0x97a
 1675 0a11 34       		.byte	0x34
 1676 0a12 0A       		.uleb128 0xa
 1677 0a13 72636100 		.ascii	"rca\000"
 1678 0a17 11       		.byte	0x11
 1679 0a18 4D01     		.2byte	0x14d
 1680 0a1a 1D       		.byte	0x1d
 1681 0a1b CB000000 		.4byte	0xcb
 1682 0a1f 38       		.byte	0x38
 1683 0a20 0B       		.uleb128 0xb
 1684 0a21 58040000 		.4byte	.LASF129
 1685 0a25 11       		.byte	0x11
 1686 0a26 5201     		.2byte	0x152
 1687 0a28 1D       		.byte	0x1d
 1688 0a29 6F020000 		.4byte	0x26f
 1689 0a2d 3C       		.byte	0x3c
 1690 0a2e 0B       		.uleb128 0xb
 1691 0a2f E7050000 		.4byte	.LASF130
 1692 0a33 11       		.byte	0x11
 1693 0a34 5601     		.2byte	0x156
 1694 0a36 1D       		.byte	0x1d
 1695 0a37 CB000000 		.4byte	0xcb
 1696 0a3b 40       		.byte	0x40
 1697 0a3c 0B       		.uleb128 0xb
 1698 0a3d BB070000 		.4byte	.LASF131
 1699 0a41 11       		.byte	0x11
 1700 0a42 5A01     		.2byte	0x15a
 1701 0a44 1D       		.byte	0x1d
 1702 0a45 CB000000 		.4byte	0xcb
 1703 0a49 44       		.byte	0x44
 1704 0a4a 0B       		.uleb128 0xb
 1705 0a4b 78070000 		.4byte	.LASF132
 1706 0a4f 11       		.byte	0x11
 1707 0a50 5E01     		.2byte	0x15e
 1708 0a52 1D       		.byte	0x1d
 1709 0a53 CB000000 		.4byte	0xcb
 1710 0a57 48       		.byte	0x48
ARM GAS  /tmp/ccBb80lR.s 			page 31


 1711 0a58 0A       		.uleb128 0xa
 1712 0a59 646D6100 		.ascii	"dma\000"
 1713 0a5d 11       		.byte	0x11
 1714 0a5e 6201     		.2byte	0x162
 1715 0a60 1E       		.byte	0x1e
 1716 0a61 3B090000 		.4byte	0x93b
 1717 0a65 4C       		.byte	0x4c
 1718 0a66 0B       		.uleb128 0xb
 1719 0a67 28060000 		.4byte	.LASF133
 1720 0a6b 11       		.byte	0x11
 1721 0a6c 6701     		.2byte	0x167
 1722 0a6e 1E       		.byte	0x1e
 1723 0a6f 680B0000 		.4byte	0xb68
 1724 0a73 50       		.byte	0x50
 1725 0a74 0B       		.uleb128 0xb
 1726 0a75 2F050000 		.4byte	.LASF134
 1727 0a79 11       		.byte	0x11
 1728 0a7a 6A01     		.2byte	0x16a
 1729 0a7c 1A       		.byte	0x1a
 1730 0a7d 730B0000 		.4byte	0xb73
 1731 0a81 54       		.byte	0x54
 1732 0a82 00       		.byte	0
 1733 0a83 10       		.uleb128 0x10
 1734 0a84 08       		.byte	0x8
 1735 0a85 11       		.byte	0x11
 1736 0a86 0E01     		.2byte	0x10e
 1737 0a88 09       		.byte	0x9
 1738 0a89 B80A0000 		.4byte	0xab8
 1739 0a8d 0B       		.uleb128 0xb
 1740 0a8e 98040000 		.4byte	.LASF135
 1741 0a92 11       		.byte	0x11
 1742 0a93 1701     		.2byte	0x117
 1743 0a95 12       		.byte	0x12
 1744 0a96 B4070000 		.4byte	0x7b4
 1745 0a9a 00       		.byte	0
 1746 0a9b 0B       		.uleb128 0xb
 1747 0a9c 99070000 		.4byte	.LASF136
 1748 0aa0 11       		.byte	0x11
 1749 0aa1 1B01     		.2byte	0x11b
 1750 0aa3 11       		.byte	0x11
 1751 0aa4 62090000 		.4byte	0x962
 1752 0aa8 04       		.byte	0x4
 1753 0aa9 0B       		.uleb128 0xb
 1754 0aaa 47040000 		.4byte	.LASF137
 1755 0aae 11       		.byte	0x11
 1756 0aaf 2201     		.2byte	0x122
 1757 0ab1 0B       		.byte	0xb
 1758 0ab2 AE000000 		.4byte	0xae
 1759 0ab6 05       		.byte	0x5
 1760 0ab7 00       		.byte	0
 1761 0ab8 11       		.uleb128 0x11
 1762 0ab9 59060000 		.4byte	.LASF138
 1763 0abd 11       		.byte	0x11
 1764 0abe 2401     		.2byte	0x124
 1765 0ac0 03       		.byte	0x3
 1766 0ac1 830A0000 		.4byte	0xa83
 1767 0ac5 05       		.uleb128 0x5
ARM GAS  /tmp/ccBb80lR.s 			page 32


 1768 0ac6 B80A0000 		.4byte	0xab8
 1769 0aca 12       		.uleb128 0x12
 1770 0acb C6010000 		.4byte	.LASF139
 1771 0acf 24       		.byte	0x24
 1772 0ad0 11       		.byte	0x11
 1773 0ad1 3101     		.2byte	0x131
 1774 0ad3 08       		.byte	0x8
 1775 0ad4 570B0000 		.4byte	0xb57
 1776 0ad8 0B       		.uleb128 0xb
 1777 0ad9 A3070000 		.4byte	.LASF140
 1778 0add 11       		.byte	0x11
 1779 0ade 3201     		.2byte	0x132
 1780 0ae0 03       		.byte	0x3
 1781 0ae1 2C000000 		.4byte	0x2c
 1782 0ae5 00       		.byte	0
 1783 0ae6 0B       		.uleb128 0xb
 1784 0ae7 2A010000 		.4byte	.LASF141
 1785 0aeb 11       		.byte	0x11
 1786 0aec 3201     		.2byte	0x132
 1787 0aee 03       		.byte	0x3
 1788 0aef CD080000 		.4byte	0x8cd
 1789 0af3 04       		.byte	0x4
 1790 0af4 0B       		.uleb128 0xb
 1791 0af5 0C060000 		.4byte	.LASF142
 1792 0af9 11       		.byte	0x11
 1793 0afa 3201     		.2byte	0x132
 1794 0afc 03       		.byte	0x3
 1795 0afd CD080000 		.4byte	0x8cd
 1796 0b01 08       		.byte	0x8
 1797 0b02 0B       		.uleb128 0xb
 1798 0b03 0A050000 		.4byte	.LASF143
 1799 0b07 11       		.byte	0x11
 1800 0b08 3201     		.2byte	0x132
 1801 0b0a 03       		.byte	0x3
 1802 0b0b CD080000 		.4byte	0x8cd
 1803 0b0f 0C       		.byte	0xc
 1804 0b10 0B       		.uleb128 0xb
 1805 0b11 56010000 		.4byte	.LASF144
 1806 0b15 11       		.byte	0x11
 1807 0b16 3201     		.2byte	0x132
 1808 0b18 03       		.byte	0x3
 1809 0b19 CD080000 		.4byte	0x8cd
 1810 0b1d 10       		.byte	0x10
 1811 0b1e 0B       		.uleb128 0xb
 1812 0b1f 80070000 		.4byte	.LASF145
 1813 0b23 11       		.byte	0x11
 1814 0b24 3201     		.2byte	0x132
 1815 0b26 03       		.byte	0x3
 1816 0b27 F1080000 		.4byte	0x8f1
 1817 0b2b 14       		.byte	0x14
 1818 0b2c 0B       		.uleb128 0xb
 1819 0b2d 5D030000 		.4byte	.LASF146
 1820 0b31 11       		.byte	0x11
 1821 0b32 3201     		.2byte	0x132
 1822 0b34 03       		.byte	0x3
 1823 0b35 15090000 		.4byte	0x915
 1824 0b39 18       		.byte	0x18
ARM GAS  /tmp/ccBb80lR.s 			page 33


 1825 0b3a 0B       		.uleb128 0xb
 1826 0b3b 73070000 		.4byte	.LASF147
 1827 0b3f 11       		.byte	0x11
 1828 0b40 3201     		.2byte	0x132
 1829 0b42 03       		.byte	0x3
 1830 0b43 CD080000 		.4byte	0x8cd
 1831 0b47 1C       		.byte	0x1c
 1832 0b48 0B       		.uleb128 0xb
 1833 0b49 DE010000 		.4byte	.LASF148
 1834 0b4d 11       		.byte	0x11
 1835 0b4e 3201     		.2byte	0x132
 1836 0b50 03       		.byte	0x3
 1837 0b51 35090000 		.4byte	0x935
 1838 0b55 20       		.byte	0x20
 1839 0b56 00       		.byte	0
 1840 0b57 05       		.uleb128 0x5
 1841 0b58 CA0A0000 		.4byte	0xaca
 1842 0b5c 0C       		.uleb128 0xc
 1843 0b5d 04       		.byte	0x4
 1844 0b5e 570B0000 		.4byte	0xb57
 1845 0b62 0C       		.uleb128 0xc
 1846 0b63 04       		.byte	0x4
 1847 0b64 C50A0000 		.4byte	0xac5
 1848 0b68 0C       		.uleb128 0xc
 1849 0b69 04       		.byte	0x4
 1850 0b6a 8C040000 		.4byte	0x48c
 1851 0b6e 1B       		.uleb128 0x1b
 1852 0b6f C0070000 		.4byte	.LASF175
 1853 0b73 0C       		.uleb128 0xc
 1854 0b74 04       		.byte	0x4
 1855 0b75 6E0B0000 		.4byte	0xb6e
 1856 0b79 1C       		.uleb128 0x1c
 1857 0b7a 41040000 		.4byte	.LASF165
 1858 0b7e 11       		.byte	0x11
 1859 0b7f 7601     		.2byte	0x176
 1860 0b81 12       		.byte	0x12
 1861 0b82 87090000 		.4byte	0x987
 1862 0b86 03       		.uleb128 0x3
 1863 0b87 9B010000 		.4byte	.LASF149
 1864 0b8b 12       		.byte	0x12
 1865 0b8c 13       		.byte	0x13
 1866 0b8d 16       		.byte	0x16
 1867 0b8e 38000000 		.4byte	0x38
 1868 0b92 03       		.uleb128 0x3
 1869 0b93 18020000 		.4byte	.LASF150
 1870 0b97 12       		.byte	0x12
 1871 0b98 16       		.byte	0x16
 1872 0b99 17       		.byte	0x17
 1873 0b9a 60000000 		.4byte	0x60
 1874 0b9e 05       		.uleb128 0x5
 1875 0b9f 920B0000 		.4byte	0xb92
 1876 0ba3 03       		.uleb128 0x3
 1877 0ba4 BA010000 		.4byte	.LASF151
 1878 0ba8 12       		.byte	0x12
 1879 0ba9 1F       		.byte	0x1f
 1880 0baa 17       		.byte	0x17
 1881 0bab 94000000 		.4byte	0x94
ARM GAS  /tmp/ccBb80lR.s 			page 34


 1882 0baf 03       		.uleb128 0x3
 1883 0bb0 C5050000 		.4byte	.LASF152
 1884 0bb4 13       		.byte	0x13
 1885 0bb5 10       		.byte	0x10
 1886 0bb6 0E       		.byte	0xe
 1887 0bb7 920B0000 		.4byte	0xb92
 1888 0bbb 17       		.uleb128 0x17
 1889 0bbc 07       		.byte	0x7
 1890 0bbd 01       		.byte	0x1
 1891 0bbe 60000000 		.4byte	0x60
 1892 0bc2 13       		.byte	0x13
 1893 0bc3 13       		.byte	0x13
 1894 0bc4 0E       		.byte	0xe
 1895 0bc5 E80B0000 		.4byte	0xbe8
 1896 0bc9 18       		.uleb128 0x18
 1897 0bca BF030000 		.4byte	.LASF153
 1898 0bce 00       		.byte	0
 1899 0bcf 18       		.uleb128 0x18
 1900 0bd0 47020000 		.4byte	.LASF154
 1901 0bd4 01       		.byte	0x1
 1902 0bd5 18       		.uleb128 0x18
 1903 0bd6 A3030000 		.4byte	.LASF155
 1904 0bda 02       		.byte	0x2
 1905 0bdb 18       		.uleb128 0x18
 1906 0bdc 6E000000 		.4byte	.LASF156
 1907 0be0 03       		.byte	0x3
 1908 0be1 18       		.uleb128 0x18
 1909 0be2 A9010000 		.4byte	.LASF157
 1910 0be6 04       		.byte	0x4
 1911 0be7 00       		.byte	0
 1912 0be8 03       		.uleb128 0x3
 1913 0be9 42050000 		.4byte	.LASF158
 1914 0bed 13       		.byte	0x13
 1915 0bee 19       		.byte	0x19
 1916 0bef 03       		.byte	0x3
 1917 0bf0 BB0B0000 		.4byte	0xbbb
 1918 0bf4 1D       		.uleb128 0x1d
 1919 0bf5 3C030000 		.4byte	.LASF160
 1920 0bf9 01       		.byte	0x1
 1921 0bfa C6       		.byte	0xc6
 1922 0bfb 09       		.byte	0x9
 1923 0bfc E80B0000 		.4byte	0xbe8
 1924 0c00 00000000 		.4byte	.LFB338
 1925 0c04 28000000 		.4byte	.LFE338-.LFB338
 1926 0c08 01       		.uleb128 0x1
 1927 0c09 9C       		.byte	0x9c
 1928 0c0a 3F0C0000 		.4byte	0xc3f
 1929 0c0e 1E       		.uleb128 0x1e
 1930 0c0f C6030000 		.4byte	.LASF162
 1931 0c13 01       		.byte	0x1
 1932 0c14 C7       		.byte	0xc7
 1933 0c15 0A       		.byte	0xa
 1934 0c16 920B0000 		.4byte	0xb92
 1935 0c1a 08000000 		.4byte	.LLST12
 1936 0c1e 00000000 		.4byte	.LVUS12
 1937 0c22 1F       		.uleb128 0x1f
 1938 0c23 636D6400 		.ascii	"cmd\000"
ARM GAS  /tmp/ccBb80lR.s 			page 35


 1939 0c27 01       		.byte	0x1
 1940 0c28 C8       		.byte	0xc8
 1941 0c29 0A       		.byte	0xa
 1942 0c2a 920B0000 		.4byte	0xb92
 1943 0c2e 01       		.uleb128 0x1
 1944 0c2f 51       		.byte	0x51
 1945 0c30 20       		.uleb128 0x20
 1946 0c31 36010000 		.4byte	.LASF159
 1947 0c35 01       		.byte	0x1
 1948 0c36 C9       		.byte	0xc9
 1949 0c37 0B       		.byte	0xb
 1950 0c38 DC020000 		.4byte	0x2dc
 1951 0c3c 01       		.uleb128 0x1
 1952 0c3d 52       		.byte	0x52
 1953 0c3e 00       		.byte	0
 1954 0c3f 1D       		.uleb128 0x1d
 1955 0c40 E6000000 		.4byte	.LASF161
 1956 0c44 01       		.byte	0x1
 1957 0c45 9F       		.byte	0x9f
 1958 0c46 09       		.byte	0x9
 1959 0c47 E80B0000 		.4byte	0xbe8
 1960 0c4b 00000000 		.4byte	.LFB337
 1961 0c4f 48000000 		.4byte	.LFE337-.LFB337
 1962 0c53 01       		.uleb128 0x1
 1963 0c54 9C       		.byte	0x9c
 1964 0c55 E50C0000 		.4byte	0xce5
 1965 0c59 1E       		.uleb128 0x1e
 1966 0c5a C6030000 		.4byte	.LASF162
 1967 0c5e 01       		.byte	0x1
 1968 0c5f A0       		.byte	0xa0
 1969 0c60 0A       		.byte	0xa
 1970 0c61 920B0000 		.4byte	0xb92
 1971 0c65 4A000000 		.4byte	.LLST7
 1972 0c69 42000000 		.4byte	.LVUS7
 1973 0c6d 1E       		.uleb128 0x1e
 1974 0c6e 36010000 		.4byte	.LASF159
 1975 0c72 01       		.byte	0x1
 1976 0c73 A1       		.byte	0xa1
 1977 0c74 11       		.byte	0x11
 1978 0c75 E50C0000 		.4byte	0xce5
 1979 0c79 8C000000 		.4byte	.LLST8
 1980 0c7d 84000000 		.4byte	.LVUS8
 1981 0c81 1E       		.uleb128 0x1e
 1982 0c82 1F030000 		.4byte	.LASF163
 1983 0c86 01       		.byte	0x1
 1984 0c87 A2       		.byte	0xa2
 1985 0c88 0B       		.byte	0xb
 1986 0c89 A30B0000 		.4byte	0xba3
 1987 0c8d C8000000 		.4byte	.LLST9
 1988 0c91 C0000000 		.4byte	.LVUS9
 1989 0c95 1E       		.uleb128 0x1e
 1990 0c96 B3030000 		.4byte	.LASF164
 1991 0c9a 01       		.byte	0x1
 1992 0c9b A3       		.byte	0xa3
 1993 0c9c 0A       		.byte	0xa
 1994 0c9d 860B0000 		.4byte	0xb86
 1995 0ca1 04010000 		.4byte	.LLST10
ARM GAS  /tmp/ccBb80lR.s 			page 36


 1996 0ca5 FC000000 		.4byte	.LVUS10
 1997 0ca9 21       		.uleb128 0x21
 1998 0caa 18000000 		.4byte	.Ldebug_ranges0+0x18
 1999 0cae 22       		.uleb128 0x22
 2000 0caf 696900   		.ascii	"ii\000"
 2001 0cb2 01       		.byte	0x1
 2002 0cb3 B9       		.byte	0xb9
 2003 0cb4 02       		.byte	0x2
 2004 0cb5 AE000000 		.4byte	0xae
 2005 0cb9 3C010000 		.4byte	.LLST11
 2006 0cbd 38010000 		.4byte	.LVUS11
 2007 0cc1 23       		.uleb128 0x23
 2008 0cc2 32000000 		.4byte	.LVL19
 2009 0cc6 0C0E0000 		.4byte	0xe0c
 2010 0cca 24       		.uleb128 0x24
 2011 0ccb 01       		.uleb128 0x1
 2012 0ccc 50       		.byte	0x50
 2013 0ccd 02       		.uleb128 0x2
 2014 0cce 78       		.byte	0x78
 2015 0ccf 00       		.sleb128 0
 2016 0cd0 24       		.uleb128 0x24
 2017 0cd1 01       		.uleb128 0x1
 2018 0cd2 51       		.byte	0x51
 2019 0cd3 02       		.uleb128 0x2
 2020 0cd4 76       		.byte	0x76
 2021 0cd5 00       		.sleb128 0
 2022 0cd6 24       		.uleb128 0x24
 2023 0cd7 01       		.uleb128 0x1
 2024 0cd8 52       		.byte	0x52
 2025 0cd9 02       		.uleb128 0x2
 2026 0cda 77       		.byte	0x77
 2027 0cdb 00       		.sleb128 0
 2028 0cdc 24       		.uleb128 0x24
 2029 0cdd 01       		.uleb128 0x1
 2030 0cde 53       		.byte	0x53
 2031 0cdf 02       		.uleb128 0x2
 2032 0ce0 79       		.byte	0x79
 2033 0ce1 00       		.sleb128 0
 2034 0ce2 00       		.byte	0
 2035 0ce3 00       		.byte	0
 2036 0ce4 00       		.byte	0
 2037 0ce5 0C       		.uleb128 0xc
 2038 0ce6 04       		.byte	0x4
 2039 0ce7 9E0B0000 		.4byte	0xb9e
 2040 0ceb 1D       		.uleb128 0x1d
 2041 0cec 63030000 		.4byte	.LASF166
 2042 0cf0 01       		.byte	0x1
 2043 0cf1 7A       		.byte	0x7a
 2044 0cf2 09       		.byte	0x9
 2045 0cf3 E80B0000 		.4byte	0xbe8
 2046 0cf7 00000000 		.4byte	.LFB336
 2047 0cfb 48000000 		.4byte	.LFE336-.LFB336
 2048 0cff 01       		.uleb128 0x1
 2049 0d00 9C       		.byte	0x9c
 2050 0d01 910D0000 		.4byte	0xd91
 2051 0d05 1E       		.uleb128 0x1e
 2052 0d06 C6030000 		.4byte	.LASF162
ARM GAS  /tmp/ccBb80lR.s 			page 37


 2053 0d0a 01       		.byte	0x1
 2054 0d0b 7B       		.byte	0x7b
 2055 0d0c 0A       		.byte	0xa
 2056 0d0d 920B0000 		.4byte	0xb92
 2057 0d11 6A010000 		.4byte	.LLST2
 2058 0d15 62010000 		.4byte	.LVUS2
 2059 0d19 1E       		.uleb128 0x1e
 2060 0d1a 36010000 		.4byte	.LASF159
 2061 0d1e 01       		.byte	0x1
 2062 0d1f 7C       		.byte	0x7c
 2063 0d20 0B       		.byte	0xb
 2064 0d21 910D0000 		.4byte	0xd91
 2065 0d25 AC010000 		.4byte	.LLST3
 2066 0d29 A4010000 		.4byte	.LVUS3
 2067 0d2d 1E       		.uleb128 0x1e
 2068 0d2e 1F030000 		.4byte	.LASF163
 2069 0d32 01       		.byte	0x1
 2070 0d33 7D       		.byte	0x7d
 2071 0d34 0B       		.byte	0xb
 2072 0d35 A30B0000 		.4byte	0xba3
 2073 0d39 E8010000 		.4byte	.LLST4
 2074 0d3d E0010000 		.4byte	.LVUS4
 2075 0d41 1E       		.uleb128 0x1e
 2076 0d42 B3030000 		.4byte	.LASF164
 2077 0d46 01       		.byte	0x1
 2078 0d47 7E       		.byte	0x7e
 2079 0d48 0A       		.byte	0xa
 2080 0d49 860B0000 		.4byte	0xb86
 2081 0d4d 24020000 		.4byte	.LLST5
 2082 0d51 1C020000 		.4byte	.LVUS5
 2083 0d55 21       		.uleb128 0x21
 2084 0d56 00000000 		.4byte	.Ldebug_ranges0+0
 2085 0d5a 22       		.uleb128 0x22
 2086 0d5b 696900   		.ascii	"ii\000"
 2087 0d5e 01       		.byte	0x1
 2088 0d5f 92       		.byte	0x92
 2089 0d60 02       		.byte	0x2
 2090 0d61 AE000000 		.4byte	0xae
 2091 0d65 5C020000 		.4byte	.LLST6
 2092 0d69 58020000 		.4byte	.LVUS6
 2093 0d6d 23       		.uleb128 0x23
 2094 0d6e 32000000 		.4byte	.LVL11
 2095 0d72 180E0000 		.4byte	0xe18
 2096 0d76 24       		.uleb128 0x24
 2097 0d77 01       		.uleb128 0x1
 2098 0d78 50       		.byte	0x50
 2099 0d79 02       		.uleb128 0x2
 2100 0d7a 78       		.byte	0x78
 2101 0d7b 00       		.sleb128 0
 2102 0d7c 24       		.uleb128 0x24
 2103 0d7d 01       		.uleb128 0x1
 2104 0d7e 51       		.byte	0x51
 2105 0d7f 02       		.uleb128 0x2
 2106 0d80 76       		.byte	0x76
 2107 0d81 00       		.sleb128 0
 2108 0d82 24       		.uleb128 0x24
 2109 0d83 01       		.uleb128 0x1
ARM GAS  /tmp/ccBb80lR.s 			page 38


 2110 0d84 52       		.byte	0x52
 2111 0d85 02       		.uleb128 0x2
 2112 0d86 77       		.byte	0x77
 2113 0d87 00       		.sleb128 0
 2114 0d88 24       		.uleb128 0x24
 2115 0d89 01       		.uleb128 0x1
 2116 0d8a 53       		.byte	0x53
 2117 0d8b 02       		.uleb128 0x2
 2118 0d8c 79       		.byte	0x79
 2119 0d8d 00       		.sleb128 0
 2120 0d8e 00       		.byte	0
 2121 0d8f 00       		.byte	0
 2122 0d90 00       		.byte	0
 2123 0d91 0C       		.uleb128 0xc
 2124 0d92 04       		.byte	0x4
 2125 0d93 920B0000 		.4byte	0xb92
 2126 0d97 25       		.uleb128 0x25
 2127 0d98 5F020000 		.4byte	.LASF176
 2128 0d9c 01       		.byte	0x1
 2129 0d9d 57       		.byte	0x57
 2130 0d9e 09       		.byte	0x9
 2131 0d9f AF0B0000 		.4byte	0xbaf
 2132 0da3 C00D0000 		.4byte	0xdc0
 2133 0da7 26       		.uleb128 0x26
 2134 0da8 C6030000 		.4byte	.LASF162
 2135 0dac 01       		.byte	0x1
 2136 0dad 58       		.byte	0x58
 2137 0dae 0A       		.byte	0xa
 2138 0daf 920B0000 		.4byte	0xb92
 2139 0db3 27       		.uleb128 0x27
 2140 0db4 FD000000 		.4byte	.LASF168
 2141 0db8 01       		.byte	0x1
 2142 0db9 5B       		.byte	0x5b
 2143 0dba 0B       		.byte	0xb
 2144 0dbb AF0B0000 		.4byte	0xbaf
 2145 0dbf 00       		.byte	0
 2146 0dc0 1D       		.uleb128 0x1d
 2147 0dc1 FB010000 		.4byte	.LASF167
 2148 0dc5 01       		.byte	0x1
 2149 0dc6 34       		.byte	0x34
 2150 0dc7 09       		.byte	0x9
 2151 0dc8 AF0B0000 		.4byte	0xbaf
 2152 0dcc 00000000 		.4byte	.LFB334
 2153 0dd0 24000000 		.4byte	.LFE334-.LFB334
 2154 0dd4 01       		.uleb128 0x1
 2155 0dd5 9C       		.byte	0x9c
 2156 0dd6 0C0E0000 		.4byte	0xe0c
 2157 0dda 1E       		.uleb128 0x1e
 2158 0ddb C6030000 		.4byte	.LASF162
 2159 0ddf 01       		.byte	0x1
 2160 0de0 35       		.byte	0x35
 2161 0de1 0A       		.byte	0xa
 2162 0de2 920B0000 		.4byte	0xb92
 2163 0de6 88020000 		.4byte	.LLST0
 2164 0dea 82020000 		.4byte	.LVUS0
 2165 0dee 28       		.uleb128 0x28
 2166 0def FD000000 		.4byte	.LASF168
ARM GAS  /tmp/ccBb80lR.s 			page 39


 2167 0df3 01       		.byte	0x1
 2168 0df4 38       		.byte	0x38
 2169 0df5 0B       		.byte	0xb
 2170 0df6 AF0B0000 		.4byte	0xbaf
 2171 0dfa B8020000 		.4byte	.LLST1
 2172 0dfe B4020000 		.4byte	.LVUS1
 2173 0e02 29       		.uleb128 0x29
 2174 0e03 12000000 		.4byte	.LVL4
 2175 0e07 240E0000 		.4byte	0xe24
 2176 0e0b 00       		.byte	0
 2177 0e0c 2A       		.uleb128 0x2a
 2178 0e0d CB030000 		.4byte	.LASF169
 2179 0e11 CB030000 		.4byte	.LASF169
 2180 0e15 10       		.byte	0x10
 2181 0e16 C2       		.byte	0xc2
 2182 0e17 08       		.byte	0x8
 2183 0e18 2A       		.uleb128 0x2a
 2184 0e19 F6030000 		.4byte	.LASF170
 2185 0e1d F6030000 		.4byte	.LASF170
 2186 0e21 10       		.byte	0x10
 2187 0e22 C0       		.byte	0xc0
 2188 0e23 08       		.byte	0x8
 2189 0e24 2B       		.uleb128 0x2b
 2190 0e25 BA020000 		.4byte	.LASF171
 2191 0e29 BA020000 		.4byte	.LASF171
 2192 0e2d 11       		.byte	0x11
 2193 0e2e 9601     		.2byte	0x196
 2194 0e30 08       		.byte	0x8
 2195 0e31 00       		.byte	0
 2196              		.section	.debug_abbrev,"",%progbits
 2197              	.Ldebug_abbrev0:
 2198 0000 01       		.uleb128 0x1
 2199 0001 11       		.uleb128 0x11
 2200 0002 01       		.byte	0x1
 2201 0003 25       		.uleb128 0x25
 2202 0004 0E       		.uleb128 0xe
 2203 0005 13       		.uleb128 0x13
 2204 0006 0B       		.uleb128 0xb
 2205 0007 03       		.uleb128 0x3
 2206 0008 0E       		.uleb128 0xe
 2207 0009 1B       		.uleb128 0x1b
 2208 000a 0E       		.uleb128 0xe
 2209 000b 55       		.uleb128 0x55
 2210 000c 17       		.uleb128 0x17
 2211 000d 11       		.uleb128 0x11
 2212 000e 01       		.uleb128 0x1
 2213 000f 10       		.uleb128 0x10
 2214 0010 17       		.uleb128 0x17
 2215 0011 00       		.byte	0
 2216 0012 00       		.byte	0
 2217 0013 02       		.uleb128 0x2
 2218 0014 24       		.uleb128 0x24
 2219 0015 00       		.byte	0
 2220 0016 0B       		.uleb128 0xb
 2221 0017 0B       		.uleb128 0xb
 2222 0018 3E       		.uleb128 0x3e
 2223 0019 0B       		.uleb128 0xb
ARM GAS  /tmp/ccBb80lR.s 			page 40


 2224 001a 03       		.uleb128 0x3
 2225 001b 08       		.uleb128 0x8
 2226 001c 00       		.byte	0
 2227 001d 00       		.byte	0
 2228 001e 03       		.uleb128 0x3
 2229 001f 16       		.uleb128 0x16
 2230 0020 00       		.byte	0
 2231 0021 03       		.uleb128 0x3
 2232 0022 0E       		.uleb128 0xe
 2233 0023 3A       		.uleb128 0x3a
 2234 0024 0B       		.uleb128 0xb
 2235 0025 3B       		.uleb128 0x3b
 2236 0026 0B       		.uleb128 0xb
 2237 0027 39       		.uleb128 0x39
 2238 0028 0B       		.uleb128 0xb
 2239 0029 49       		.uleb128 0x49
 2240 002a 13       		.uleb128 0x13
 2241 002b 00       		.byte	0
 2242 002c 00       		.byte	0
 2243 002d 04       		.uleb128 0x4
 2244 002e 24       		.uleb128 0x24
 2245 002f 00       		.byte	0
 2246 0030 0B       		.uleb128 0xb
 2247 0031 0B       		.uleb128 0xb
 2248 0032 3E       		.uleb128 0x3e
 2249 0033 0B       		.uleb128 0xb
 2250 0034 03       		.uleb128 0x3
 2251 0035 0E       		.uleb128 0xe
 2252 0036 00       		.byte	0
 2253 0037 00       		.byte	0
 2254 0038 05       		.uleb128 0x5
 2255 0039 26       		.uleb128 0x26
 2256 003a 00       		.byte	0
 2257 003b 49       		.uleb128 0x49
 2258 003c 13       		.uleb128 0x13
 2259 003d 00       		.byte	0
 2260 003e 00       		.byte	0
 2261 003f 06       		.uleb128 0x6
 2262 0040 35       		.uleb128 0x35
 2263 0041 00       		.byte	0
 2264 0042 49       		.uleb128 0x49
 2265 0043 13       		.uleb128 0x13
 2266 0044 00       		.byte	0
 2267 0045 00       		.byte	0
 2268 0046 07       		.uleb128 0x7
 2269 0047 13       		.uleb128 0x13
 2270 0048 01       		.byte	0x1
 2271 0049 03       		.uleb128 0x3
 2272 004a 0E       		.uleb128 0xe
 2273 004b 0B       		.uleb128 0xb
 2274 004c 0B       		.uleb128 0xb
 2275 004d 3A       		.uleb128 0x3a
 2276 004e 0B       		.uleb128 0xb
 2277 004f 3B       		.uleb128 0x3b
 2278 0050 0B       		.uleb128 0xb
 2279 0051 39       		.uleb128 0x39
 2280 0052 0B       		.uleb128 0xb
ARM GAS  /tmp/ccBb80lR.s 			page 41


 2281 0053 01       		.uleb128 0x1
 2282 0054 13       		.uleb128 0x13
 2283 0055 00       		.byte	0
 2284 0056 00       		.byte	0
 2285 0057 08       		.uleb128 0x8
 2286 0058 0D       		.uleb128 0xd
 2287 0059 00       		.byte	0
 2288 005a 03       		.uleb128 0x3
 2289 005b 0E       		.uleb128 0xe
 2290 005c 3A       		.uleb128 0x3a
 2291 005d 0B       		.uleb128 0xb
 2292 005e 3B       		.uleb128 0x3b
 2293 005f 0B       		.uleb128 0xb
 2294 0060 39       		.uleb128 0x39
 2295 0061 0B       		.uleb128 0xb
 2296 0062 49       		.uleb128 0x49
 2297 0063 13       		.uleb128 0x13
 2298 0064 38       		.uleb128 0x38
 2299 0065 0B       		.uleb128 0xb
 2300 0066 00       		.byte	0
 2301 0067 00       		.byte	0
 2302 0068 09       		.uleb128 0x9
 2303 0069 0D       		.uleb128 0xd
 2304 006a 00       		.byte	0
 2305 006b 03       		.uleb128 0x3
 2306 006c 08       		.uleb128 0x8
 2307 006d 3A       		.uleb128 0x3a
 2308 006e 0B       		.uleb128 0xb
 2309 006f 3B       		.uleb128 0x3b
 2310 0070 0B       		.uleb128 0xb
 2311 0071 39       		.uleb128 0x39
 2312 0072 0B       		.uleb128 0xb
 2313 0073 49       		.uleb128 0x49
 2314 0074 13       		.uleb128 0x13
 2315 0075 38       		.uleb128 0x38
 2316 0076 0B       		.uleb128 0xb
 2317 0077 00       		.byte	0
 2318 0078 00       		.byte	0
 2319 0079 0A       		.uleb128 0xa
 2320 007a 0D       		.uleb128 0xd
 2321 007b 00       		.byte	0
 2322 007c 03       		.uleb128 0x3
 2323 007d 08       		.uleb128 0x8
 2324 007e 3A       		.uleb128 0x3a
 2325 007f 0B       		.uleb128 0xb
 2326 0080 3B       		.uleb128 0x3b
 2327 0081 05       		.uleb128 0x5
 2328 0082 39       		.uleb128 0x39
 2329 0083 0B       		.uleb128 0xb
 2330 0084 49       		.uleb128 0x49
 2331 0085 13       		.uleb128 0x13
 2332 0086 38       		.uleb128 0x38
 2333 0087 0B       		.uleb128 0xb
 2334 0088 00       		.byte	0
 2335 0089 00       		.byte	0
 2336 008a 0B       		.uleb128 0xb
 2337 008b 0D       		.uleb128 0xd
ARM GAS  /tmp/ccBb80lR.s 			page 42


 2338 008c 00       		.byte	0
 2339 008d 03       		.uleb128 0x3
 2340 008e 0E       		.uleb128 0xe
 2341 008f 3A       		.uleb128 0x3a
 2342 0090 0B       		.uleb128 0xb
 2343 0091 3B       		.uleb128 0x3b
 2344 0092 05       		.uleb128 0x5
 2345 0093 39       		.uleb128 0x39
 2346 0094 0B       		.uleb128 0xb
 2347 0095 49       		.uleb128 0x49
 2348 0096 13       		.uleb128 0x13
 2349 0097 38       		.uleb128 0x38
 2350 0098 0B       		.uleb128 0xb
 2351 0099 00       		.byte	0
 2352 009a 00       		.byte	0
 2353 009b 0C       		.uleb128 0xc
 2354 009c 0F       		.uleb128 0xf
 2355 009d 00       		.byte	0
 2356 009e 0B       		.uleb128 0xb
 2357 009f 0B       		.uleb128 0xb
 2358 00a0 49       		.uleb128 0x49
 2359 00a1 13       		.uleb128 0x13
 2360 00a2 00       		.byte	0
 2361 00a3 00       		.byte	0
 2362 00a4 0D       		.uleb128 0xd
 2363 00a5 0F       		.uleb128 0xf
 2364 00a6 00       		.byte	0
 2365 00a7 0B       		.uleb128 0xb
 2366 00a8 0B       		.uleb128 0xb
 2367 00a9 00       		.byte	0
 2368 00aa 00       		.byte	0
 2369 00ab 0E       		.uleb128 0xe
 2370 00ac 01       		.uleb128 0x1
 2371 00ad 01       		.byte	0x1
 2372 00ae 49       		.uleb128 0x49
 2373 00af 13       		.uleb128 0x13
 2374 00b0 01       		.uleb128 0x1
 2375 00b1 13       		.uleb128 0x13
 2376 00b2 00       		.byte	0
 2377 00b3 00       		.byte	0
 2378 00b4 0F       		.uleb128 0xf
 2379 00b5 21       		.uleb128 0x21
 2380 00b6 00       		.byte	0
 2381 00b7 49       		.uleb128 0x49
 2382 00b8 13       		.uleb128 0x13
 2383 00b9 2F       		.uleb128 0x2f
 2384 00ba 0B       		.uleb128 0xb
 2385 00bb 00       		.byte	0
 2386 00bc 00       		.byte	0
 2387 00bd 10       		.uleb128 0x10
 2388 00be 13       		.uleb128 0x13
 2389 00bf 01       		.byte	0x1
 2390 00c0 0B       		.uleb128 0xb
 2391 00c1 0B       		.uleb128 0xb
 2392 00c2 3A       		.uleb128 0x3a
 2393 00c3 0B       		.uleb128 0xb
 2394 00c4 3B       		.uleb128 0x3b
ARM GAS  /tmp/ccBb80lR.s 			page 43


 2395 00c5 05       		.uleb128 0x5
 2396 00c6 39       		.uleb128 0x39
 2397 00c7 0B       		.uleb128 0xb
 2398 00c8 01       		.uleb128 0x1
 2399 00c9 13       		.uleb128 0x13
 2400 00ca 00       		.byte	0
 2401 00cb 00       		.byte	0
 2402 00cc 11       		.uleb128 0x11
 2403 00cd 16       		.uleb128 0x16
 2404 00ce 00       		.byte	0
 2405 00cf 03       		.uleb128 0x3
 2406 00d0 0E       		.uleb128 0xe
 2407 00d1 3A       		.uleb128 0x3a
 2408 00d2 0B       		.uleb128 0xb
 2409 00d3 3B       		.uleb128 0x3b
 2410 00d4 05       		.uleb128 0x5
 2411 00d5 39       		.uleb128 0x39
 2412 00d6 0B       		.uleb128 0xb
 2413 00d7 49       		.uleb128 0x49
 2414 00d8 13       		.uleb128 0x13
 2415 00d9 00       		.byte	0
 2416 00da 00       		.byte	0
 2417 00db 12       		.uleb128 0x12
 2418 00dc 13       		.uleb128 0x13
 2419 00dd 01       		.byte	0x1
 2420 00de 03       		.uleb128 0x3
 2421 00df 0E       		.uleb128 0xe
 2422 00e0 0B       		.uleb128 0xb
 2423 00e1 0B       		.uleb128 0xb
 2424 00e2 3A       		.uleb128 0x3a
 2425 00e3 0B       		.uleb128 0xb
 2426 00e4 3B       		.uleb128 0x3b
 2427 00e5 05       		.uleb128 0x5
 2428 00e6 39       		.uleb128 0x39
 2429 00e7 0B       		.uleb128 0xb
 2430 00e8 01       		.uleb128 0x1
 2431 00e9 13       		.uleb128 0x13
 2432 00ea 00       		.byte	0
 2433 00eb 00       		.byte	0
 2434 00ec 13       		.uleb128 0x13
 2435 00ed 13       		.uleb128 0x13
 2436 00ee 01       		.byte	0x1
 2437 00ef 0B       		.uleb128 0xb
 2438 00f0 0B       		.uleb128 0xb
 2439 00f1 3A       		.uleb128 0x3a
 2440 00f2 0B       		.uleb128 0xb
 2441 00f3 3B       		.uleb128 0x3b
 2442 00f4 0B       		.uleb128 0xb
 2443 00f5 39       		.uleb128 0x39
 2444 00f6 0B       		.uleb128 0xb
 2445 00f7 01       		.uleb128 0x1
 2446 00f8 13       		.uleb128 0x13
 2447 00f9 00       		.byte	0
 2448 00fa 00       		.byte	0
 2449 00fb 14       		.uleb128 0x14
 2450 00fc 17       		.uleb128 0x17
 2451 00fd 01       		.byte	0x1
ARM GAS  /tmp/ccBb80lR.s 			page 44


 2452 00fe 0B       		.uleb128 0xb
 2453 00ff 0B       		.uleb128 0xb
 2454 0100 3A       		.uleb128 0x3a
 2455 0101 0B       		.uleb128 0xb
 2456 0102 3B       		.uleb128 0x3b
 2457 0103 0B       		.uleb128 0xb
 2458 0104 39       		.uleb128 0x39
 2459 0105 0B       		.uleb128 0xb
 2460 0106 01       		.uleb128 0x1
 2461 0107 13       		.uleb128 0x13
 2462 0108 00       		.byte	0
 2463 0109 00       		.byte	0
 2464 010a 15       		.uleb128 0x15
 2465 010b 0D       		.uleb128 0xd
 2466 010c 00       		.byte	0
 2467 010d 03       		.uleb128 0x3
 2468 010e 0E       		.uleb128 0xe
 2469 010f 3A       		.uleb128 0x3a
 2470 0110 0B       		.uleb128 0xb
 2471 0111 3B       		.uleb128 0x3b
 2472 0112 0B       		.uleb128 0xb
 2473 0113 39       		.uleb128 0x39
 2474 0114 0B       		.uleb128 0xb
 2475 0115 49       		.uleb128 0x49
 2476 0116 13       		.uleb128 0x13
 2477 0117 00       		.byte	0
 2478 0118 00       		.byte	0
 2479 0119 16       		.uleb128 0x16
 2480 011a 0D       		.uleb128 0xd
 2481 011b 00       		.byte	0
 2482 011c 03       		.uleb128 0x3
 2483 011d 0E       		.uleb128 0xe
 2484 011e 3A       		.uleb128 0x3a
 2485 011f 0B       		.uleb128 0xb
 2486 0120 3B       		.uleb128 0x3b
 2487 0121 05       		.uleb128 0x5
 2488 0122 39       		.uleb128 0x39
 2489 0123 0B       		.uleb128 0xb
 2490 0124 49       		.uleb128 0x49
 2491 0125 13       		.uleb128 0x13
 2492 0126 00       		.byte	0
 2493 0127 00       		.byte	0
 2494 0128 17       		.uleb128 0x17
 2495 0129 04       		.uleb128 0x4
 2496 012a 01       		.byte	0x1
 2497 012b 3E       		.uleb128 0x3e
 2498 012c 0B       		.uleb128 0xb
 2499 012d 0B       		.uleb128 0xb
 2500 012e 0B       		.uleb128 0xb
 2501 012f 49       		.uleb128 0x49
 2502 0130 13       		.uleb128 0x13
 2503 0131 3A       		.uleb128 0x3a
 2504 0132 0B       		.uleb128 0xb
 2505 0133 3B       		.uleb128 0x3b
 2506 0134 0B       		.uleb128 0xb
 2507 0135 39       		.uleb128 0x39
 2508 0136 0B       		.uleb128 0xb
ARM GAS  /tmp/ccBb80lR.s 			page 45


 2509 0137 01       		.uleb128 0x1
 2510 0138 13       		.uleb128 0x13
 2511 0139 00       		.byte	0
 2512 013a 00       		.byte	0
 2513 013b 18       		.uleb128 0x18
 2514 013c 28       		.uleb128 0x28
 2515 013d 00       		.byte	0
 2516 013e 03       		.uleb128 0x3
 2517 013f 0E       		.uleb128 0xe
 2518 0140 1C       		.uleb128 0x1c
 2519 0141 0B       		.uleb128 0xb
 2520 0142 00       		.byte	0
 2521 0143 00       		.byte	0
 2522 0144 19       		.uleb128 0x19
 2523 0145 15       		.uleb128 0x15
 2524 0146 01       		.byte	0x1
 2525 0147 27       		.uleb128 0x27
 2526 0148 19       		.uleb128 0x19
 2527 0149 49       		.uleb128 0x49
 2528 014a 13       		.uleb128 0x13
 2529 014b 01       		.uleb128 0x1
 2530 014c 13       		.uleb128 0x13
 2531 014d 00       		.byte	0
 2532 014e 00       		.byte	0
 2533 014f 1A       		.uleb128 0x1a
 2534 0150 05       		.uleb128 0x5
 2535 0151 00       		.byte	0
 2536 0152 49       		.uleb128 0x49
 2537 0153 13       		.uleb128 0x13
 2538 0154 00       		.byte	0
 2539 0155 00       		.byte	0
 2540 0156 1B       		.uleb128 0x1b
 2541 0157 13       		.uleb128 0x13
 2542 0158 00       		.byte	0
 2543 0159 03       		.uleb128 0x3
 2544 015a 0E       		.uleb128 0xe
 2545 015b 3C       		.uleb128 0x3c
 2546 015c 19       		.uleb128 0x19
 2547 015d 00       		.byte	0
 2548 015e 00       		.byte	0
 2549 015f 1C       		.uleb128 0x1c
 2550 0160 34       		.uleb128 0x34
 2551 0161 00       		.byte	0
 2552 0162 03       		.uleb128 0x3
 2553 0163 0E       		.uleb128 0xe
 2554 0164 3A       		.uleb128 0x3a
 2555 0165 0B       		.uleb128 0xb
 2556 0166 3B       		.uleb128 0x3b
 2557 0167 05       		.uleb128 0x5
 2558 0168 39       		.uleb128 0x39
 2559 0169 0B       		.uleb128 0xb
 2560 016a 49       		.uleb128 0x49
 2561 016b 13       		.uleb128 0x13
 2562 016c 3F       		.uleb128 0x3f
 2563 016d 19       		.uleb128 0x19
 2564 016e 3C       		.uleb128 0x3c
 2565 016f 19       		.uleb128 0x19
ARM GAS  /tmp/ccBb80lR.s 			page 46


 2566 0170 00       		.byte	0
 2567 0171 00       		.byte	0
 2568 0172 1D       		.uleb128 0x1d
 2569 0173 2E       		.uleb128 0x2e
 2570 0174 01       		.byte	0x1
 2571 0175 3F       		.uleb128 0x3f
 2572 0176 19       		.uleb128 0x19
 2573 0177 03       		.uleb128 0x3
 2574 0178 0E       		.uleb128 0xe
 2575 0179 3A       		.uleb128 0x3a
 2576 017a 0B       		.uleb128 0xb
 2577 017b 3B       		.uleb128 0x3b
 2578 017c 0B       		.uleb128 0xb
 2579 017d 39       		.uleb128 0x39
 2580 017e 0B       		.uleb128 0xb
 2581 017f 27       		.uleb128 0x27
 2582 0180 19       		.uleb128 0x19
 2583 0181 49       		.uleb128 0x49
 2584 0182 13       		.uleb128 0x13
 2585 0183 11       		.uleb128 0x11
 2586 0184 01       		.uleb128 0x1
 2587 0185 12       		.uleb128 0x12
 2588 0186 06       		.uleb128 0x6
 2589 0187 40       		.uleb128 0x40
 2590 0188 18       		.uleb128 0x18
 2591 0189 9742     		.uleb128 0x2117
 2592 018b 19       		.uleb128 0x19
 2593 018c 01       		.uleb128 0x1
 2594 018d 13       		.uleb128 0x13
 2595 018e 00       		.byte	0
 2596 018f 00       		.byte	0
 2597 0190 1E       		.uleb128 0x1e
 2598 0191 05       		.uleb128 0x5
 2599 0192 00       		.byte	0
 2600 0193 03       		.uleb128 0x3
 2601 0194 0E       		.uleb128 0xe
 2602 0195 3A       		.uleb128 0x3a
 2603 0196 0B       		.uleb128 0xb
 2604 0197 3B       		.uleb128 0x3b
 2605 0198 0B       		.uleb128 0xb
 2606 0199 39       		.uleb128 0x39
 2607 019a 0B       		.uleb128 0xb
 2608 019b 49       		.uleb128 0x49
 2609 019c 13       		.uleb128 0x13
 2610 019d 02       		.uleb128 0x2
 2611 019e 17       		.uleb128 0x17
 2612 019f B742     		.uleb128 0x2137
 2613 01a1 17       		.uleb128 0x17
 2614 01a2 00       		.byte	0
 2615 01a3 00       		.byte	0
 2616 01a4 1F       		.uleb128 0x1f
 2617 01a5 05       		.uleb128 0x5
 2618 01a6 00       		.byte	0
 2619 01a7 03       		.uleb128 0x3
 2620 01a8 08       		.uleb128 0x8
 2621 01a9 3A       		.uleb128 0x3a
 2622 01aa 0B       		.uleb128 0xb
ARM GAS  /tmp/ccBb80lR.s 			page 47


 2623 01ab 3B       		.uleb128 0x3b
 2624 01ac 0B       		.uleb128 0xb
 2625 01ad 39       		.uleb128 0x39
 2626 01ae 0B       		.uleb128 0xb
 2627 01af 49       		.uleb128 0x49
 2628 01b0 13       		.uleb128 0x13
 2629 01b1 02       		.uleb128 0x2
 2630 01b2 18       		.uleb128 0x18
 2631 01b3 00       		.byte	0
 2632 01b4 00       		.byte	0
 2633 01b5 20       		.uleb128 0x20
 2634 01b6 05       		.uleb128 0x5
 2635 01b7 00       		.byte	0
 2636 01b8 03       		.uleb128 0x3
 2637 01b9 0E       		.uleb128 0xe
 2638 01ba 3A       		.uleb128 0x3a
 2639 01bb 0B       		.uleb128 0xb
 2640 01bc 3B       		.uleb128 0x3b
 2641 01bd 0B       		.uleb128 0xb
 2642 01be 39       		.uleb128 0x39
 2643 01bf 0B       		.uleb128 0xb
 2644 01c0 49       		.uleb128 0x49
 2645 01c1 13       		.uleb128 0x13
 2646 01c2 02       		.uleb128 0x2
 2647 01c3 18       		.uleb128 0x18
 2648 01c4 00       		.byte	0
 2649 01c5 00       		.byte	0
 2650 01c6 21       		.uleb128 0x21
 2651 01c7 0B       		.uleb128 0xb
 2652 01c8 01       		.byte	0x1
 2653 01c9 55       		.uleb128 0x55
 2654 01ca 17       		.uleb128 0x17
 2655 01cb 00       		.byte	0
 2656 01cc 00       		.byte	0
 2657 01cd 22       		.uleb128 0x22
 2658 01ce 34       		.uleb128 0x34
 2659 01cf 00       		.byte	0
 2660 01d0 03       		.uleb128 0x3
 2661 01d1 08       		.uleb128 0x8
 2662 01d2 3A       		.uleb128 0x3a
 2663 01d3 0B       		.uleb128 0xb
 2664 01d4 3B       		.uleb128 0x3b
 2665 01d5 0B       		.uleb128 0xb
 2666 01d6 39       		.uleb128 0x39
 2667 01d7 0B       		.uleb128 0xb
 2668 01d8 49       		.uleb128 0x49
 2669 01d9 13       		.uleb128 0x13
 2670 01da 02       		.uleb128 0x2
 2671 01db 17       		.uleb128 0x17
 2672 01dc B742     		.uleb128 0x2137
 2673 01de 17       		.uleb128 0x17
 2674 01df 00       		.byte	0
 2675 01e0 00       		.byte	0
 2676 01e1 23       		.uleb128 0x23
 2677 01e2 898201   		.uleb128 0x4109
 2678 01e5 01       		.byte	0x1
 2679 01e6 11       		.uleb128 0x11
ARM GAS  /tmp/ccBb80lR.s 			page 48


 2680 01e7 01       		.uleb128 0x1
 2681 01e8 31       		.uleb128 0x31
 2682 01e9 13       		.uleb128 0x13
 2683 01ea 00       		.byte	0
 2684 01eb 00       		.byte	0
 2685 01ec 24       		.uleb128 0x24
 2686 01ed 8A8201   		.uleb128 0x410a
 2687 01f0 00       		.byte	0
 2688 01f1 02       		.uleb128 0x2
 2689 01f2 18       		.uleb128 0x18
 2690 01f3 9142     		.uleb128 0x2111
 2691 01f5 18       		.uleb128 0x18
 2692 01f6 00       		.byte	0
 2693 01f7 00       		.byte	0
 2694 01f8 25       		.uleb128 0x25
 2695 01f9 2E       		.uleb128 0x2e
 2696 01fa 01       		.byte	0x1
 2697 01fb 3F       		.uleb128 0x3f
 2698 01fc 19       		.uleb128 0x19
 2699 01fd 03       		.uleb128 0x3
 2700 01fe 0E       		.uleb128 0xe
 2701 01ff 3A       		.uleb128 0x3a
 2702 0200 0B       		.uleb128 0xb
 2703 0201 3B       		.uleb128 0x3b
 2704 0202 0B       		.uleb128 0xb
 2705 0203 39       		.uleb128 0x39
 2706 0204 0B       		.uleb128 0xb
 2707 0205 27       		.uleb128 0x27
 2708 0206 19       		.uleb128 0x19
 2709 0207 49       		.uleb128 0x49
 2710 0208 13       		.uleb128 0x13
 2711 0209 01       		.uleb128 0x1
 2712 020a 13       		.uleb128 0x13
 2713 020b 00       		.byte	0
 2714 020c 00       		.byte	0
 2715 020d 26       		.uleb128 0x26
 2716 020e 05       		.uleb128 0x5
 2717 020f 00       		.byte	0
 2718 0210 03       		.uleb128 0x3
 2719 0211 0E       		.uleb128 0xe
 2720 0212 3A       		.uleb128 0x3a
 2721 0213 0B       		.uleb128 0xb
 2722 0214 3B       		.uleb128 0x3b
 2723 0215 0B       		.uleb128 0xb
 2724 0216 39       		.uleb128 0x39
 2725 0217 0B       		.uleb128 0xb
 2726 0218 49       		.uleb128 0x49
 2727 0219 13       		.uleb128 0x13
 2728 021a 00       		.byte	0
 2729 021b 00       		.byte	0
 2730 021c 27       		.uleb128 0x27
 2731 021d 34       		.uleb128 0x34
 2732 021e 00       		.byte	0
 2733 021f 03       		.uleb128 0x3
 2734 0220 0E       		.uleb128 0xe
 2735 0221 3A       		.uleb128 0x3a
 2736 0222 0B       		.uleb128 0xb
ARM GAS  /tmp/ccBb80lR.s 			page 49


 2737 0223 3B       		.uleb128 0x3b
 2738 0224 0B       		.uleb128 0xb
 2739 0225 39       		.uleb128 0x39
 2740 0226 0B       		.uleb128 0xb
 2741 0227 49       		.uleb128 0x49
 2742 0228 13       		.uleb128 0x13
 2743 0229 00       		.byte	0
 2744 022a 00       		.byte	0
 2745 022b 28       		.uleb128 0x28
 2746 022c 34       		.uleb128 0x34
 2747 022d 00       		.byte	0
 2748 022e 03       		.uleb128 0x3
 2749 022f 0E       		.uleb128 0xe
 2750 0230 3A       		.uleb128 0x3a
 2751 0231 0B       		.uleb128 0xb
 2752 0232 3B       		.uleb128 0x3b
 2753 0233 0B       		.uleb128 0xb
 2754 0234 39       		.uleb128 0x39
 2755 0235 0B       		.uleb128 0xb
 2756 0236 49       		.uleb128 0x49
 2757 0237 13       		.uleb128 0x13
 2758 0238 02       		.uleb128 0x2
 2759 0239 17       		.uleb128 0x17
 2760 023a B742     		.uleb128 0x2137
 2761 023c 17       		.uleb128 0x17
 2762 023d 00       		.byte	0
 2763 023e 00       		.byte	0
 2764 023f 29       		.uleb128 0x29
 2765 0240 898201   		.uleb128 0x4109
 2766 0243 00       		.byte	0
 2767 0244 11       		.uleb128 0x11
 2768 0245 01       		.uleb128 0x1
 2769 0246 31       		.uleb128 0x31
 2770 0247 13       		.uleb128 0x13
 2771 0248 00       		.byte	0
 2772 0249 00       		.byte	0
 2773 024a 2A       		.uleb128 0x2a
 2774 024b 2E       		.uleb128 0x2e
 2775 024c 00       		.byte	0
 2776 024d 3F       		.uleb128 0x3f
 2777 024e 19       		.uleb128 0x19
 2778 024f 3C       		.uleb128 0x3c
 2779 0250 19       		.uleb128 0x19
 2780 0251 6E       		.uleb128 0x6e
 2781 0252 0E       		.uleb128 0xe
 2782 0253 03       		.uleb128 0x3
 2783 0254 0E       		.uleb128 0xe
 2784 0255 3A       		.uleb128 0x3a
 2785 0256 0B       		.uleb128 0xb
 2786 0257 3B       		.uleb128 0x3b
 2787 0258 0B       		.uleb128 0xb
 2788 0259 39       		.uleb128 0x39
 2789 025a 0B       		.uleb128 0xb
 2790 025b 00       		.byte	0
 2791 025c 00       		.byte	0
 2792 025d 2B       		.uleb128 0x2b
 2793 025e 2E       		.uleb128 0x2e
ARM GAS  /tmp/ccBb80lR.s 			page 50


 2794 025f 00       		.byte	0
 2795 0260 3F       		.uleb128 0x3f
 2796 0261 19       		.uleb128 0x19
 2797 0262 3C       		.uleb128 0x3c
 2798 0263 19       		.uleb128 0x19
 2799 0264 6E       		.uleb128 0x6e
 2800 0265 0E       		.uleb128 0xe
 2801 0266 03       		.uleb128 0x3
 2802 0267 0E       		.uleb128 0xe
 2803 0268 3A       		.uleb128 0x3a
 2804 0269 0B       		.uleb128 0xb
 2805 026a 3B       		.uleb128 0x3b
 2806 026b 05       		.uleb128 0x5
 2807 026c 39       		.uleb128 0x39
 2808 026d 0B       		.uleb128 0xb
 2809 026e 00       		.byte	0
 2810 026f 00       		.byte	0
 2811 0270 00       		.byte	0
 2812              		.section	.debug_loc,"",%progbits
 2813              	.Ldebug_loc0:
 2814              	.LVUS12:
 2815 0000 00       		.uleb128 0
 2816 0001 00       		.uleb128 .LVU55
 2817 0002 00       		.uleb128 .LVU55
 2818 0003 00       		.uleb128 .LVU56
 2819 0004 00       		.uleb128 .LVU56
 2820 0005 00       		.uleb128 .LVU64
 2821 0006 00       		.uleb128 .LVU64
 2822 0007 00       		.uleb128 0
 2823              	.LLST12:
 2824 0008 00000000 		.4byte	.LVL23
 2825 000c 10000000 		.4byte	.LVL24
 2826 0010 0100     		.2byte	0x1
 2827 0012 50       		.byte	0x50
 2828 0013 10000000 		.4byte	.LVL24
 2829 0017 12000000 		.4byte	.LVL25
 2830 001b 0400     		.2byte	0x4
 2831 001d F3       		.byte	0xf3
 2832 001e 01       		.uleb128 0x1
 2833 001f 50       		.byte	0x50
 2834 0020 9F       		.byte	0x9f
 2835 0021 12000000 		.4byte	.LVL25
 2836 0025 22000000 		.4byte	.LVL26
 2837 0029 0100     		.2byte	0x1
 2838 002b 50       		.byte	0x50
 2839 002c 22000000 		.4byte	.LVL26
 2840 0030 28000000 		.4byte	.LFE338
 2841 0034 0400     		.2byte	0x4
 2842 0036 F3       		.byte	0xf3
 2843 0037 01       		.uleb128 0x1
 2844 0038 50       		.byte	0x50
 2845 0039 9F       		.byte	0x9f
 2846 003a 00000000 		.4byte	0
 2847 003e 00000000 		.4byte	0
 2848              	.LVUS7:
 2849 0042 00       		.uleb128 0
 2850 0043 00       		.uleb128 .LVU43
ARM GAS  /tmp/ccBb80lR.s 			page 51


 2851 0044 00       		.uleb128 .LVU43
 2852 0045 00       		.uleb128 .LVU49
 2853 0046 00       		.uleb128 .LVU49
 2854 0047 00       		.uleb128 .LVU50
 2855 0048 00       		.uleb128 .LVU50
 2856 0049 00       		.uleb128 0
 2857              	.LLST7:
 2858 004a 00000000 		.4byte	.LVL15
 2859 004e 1E000000 		.4byte	.LVL16
 2860 0052 0100     		.2byte	0x1
 2861 0054 50       		.byte	0x50
 2862 0055 1E000000 		.4byte	.LVL16
 2863 0059 3C000000 		.4byte	.LVL21
 2864 005d 0400     		.2byte	0x4
 2865 005f F3       		.byte	0xf3
 2866 0060 01       		.uleb128 0x1
 2867 0061 50       		.byte	0x50
 2868 0062 9F       		.byte	0x9f
 2869 0063 3C000000 		.4byte	.LVL21
 2870 0067 40000000 		.4byte	.LVL22
 2871 006b 0100     		.2byte	0x1
 2872 006d 50       		.byte	0x50
 2873 006e 40000000 		.4byte	.LVL22
 2874 0072 48000000 		.4byte	.LFE337
 2875 0076 0400     		.2byte	0x4
 2876 0078 F3       		.byte	0xf3
 2877 0079 01       		.uleb128 0x1
 2878 007a 50       		.byte	0x50
 2879 007b 9F       		.byte	0x9f
 2880 007c 00000000 		.4byte	0
 2881 0080 00000000 		.4byte	0
 2882              	.LVUS8:
 2883 0084 00       		.uleb128 0
 2884 0085 00       		.uleb128 .LVU43
 2885 0086 00       		.uleb128 .LVU43
 2886 0087 00       		.uleb128 .LVU49
 2887 0088 00       		.uleb128 .LVU49
 2888 0089 00       		.uleb128 .LVU50
 2889 008a 00       		.uleb128 .LVU50
 2890 008b 00       		.uleb128 0
 2891              	.LLST8:
 2892 008c 00000000 		.4byte	.LVL15
 2893 0090 1E000000 		.4byte	.LVL16
 2894 0094 0100     		.2byte	0x1
 2895 0096 51       		.byte	0x51
 2896 0097 1E000000 		.4byte	.LVL16
 2897 009b 3C000000 		.4byte	.LVL21
 2898 009f 0100     		.2byte	0x1
 2899 00a1 57       		.byte	0x57
 2900 00a2 3C000000 		.4byte	.LVL21
 2901 00a6 40000000 		.4byte	.LVL22
 2902 00aa 0100     		.2byte	0x1
 2903 00ac 51       		.byte	0x51
 2904 00ad 40000000 		.4byte	.LVL22
 2905 00b1 48000000 		.4byte	.LFE337
 2906 00b5 0100     		.2byte	0x1
 2907 00b7 57       		.byte	0x57
ARM GAS  /tmp/ccBb80lR.s 			page 52


 2908 00b8 00000000 		.4byte	0
 2909 00bc 00000000 		.4byte	0
 2910              	.LVUS9:
 2911 00c0 00       		.uleb128 0
 2912 00c1 00       		.uleb128 .LVU43
 2913 00c2 00       		.uleb128 .LVU43
 2914 00c3 00       		.uleb128 .LVU49
 2915 00c4 00       		.uleb128 .LVU49
 2916 00c5 00       		.uleb128 .LVU50
 2917 00c6 00       		.uleb128 .LVU50
 2918 00c7 00       		.uleb128 0
 2919              	.LLST9:
 2920 00c8 00000000 		.4byte	.LVL15
 2921 00cc 1E000000 		.4byte	.LVL16
 2922 00d0 0100     		.2byte	0x1
 2923 00d2 52       		.byte	0x52
 2924 00d3 1E000000 		.4byte	.LVL16
 2925 00d7 3C000000 		.4byte	.LVL21
 2926 00db 0100     		.2byte	0x1
 2927 00dd 56       		.byte	0x56
 2928 00de 3C000000 		.4byte	.LVL21
 2929 00e2 40000000 		.4byte	.LVL22
 2930 00e6 0100     		.2byte	0x1
 2931 00e8 52       		.byte	0x52
 2932 00e9 40000000 		.4byte	.LVL22
 2933 00ed 48000000 		.4byte	.LFE337
 2934 00f1 0100     		.2byte	0x1
 2935 00f3 56       		.byte	0x56
 2936 00f4 00000000 		.4byte	0
 2937 00f8 00000000 		.4byte	0
 2938              	.LVUS10:
 2939 00fc 00       		.uleb128 0
 2940 00fd 00       		.uleb128 .LVU43
 2941 00fe 00       		.uleb128 .LVU43
 2942 00ff 00       		.uleb128 .LVU49
 2943 0100 00       		.uleb128 .LVU49
 2944 0101 00       		.uleb128 .LVU50
 2945 0102 00       		.uleb128 .LVU50
 2946 0103 00       		.uleb128 0
 2947              	.LLST10:
 2948 0104 00000000 		.4byte	.LVL15
 2949 0108 1E000000 		.4byte	.LVL16
 2950 010c 0100     		.2byte	0x1
 2951 010e 53       		.byte	0x53
 2952 010f 1E000000 		.4byte	.LVL16
 2953 0113 3C000000 		.4byte	.LVL21
 2954 0117 0100     		.2byte	0x1
 2955 0119 59       		.byte	0x59
 2956 011a 3C000000 		.4byte	.LVL21
 2957 011e 40000000 		.4byte	.LVL22
 2958 0122 0100     		.2byte	0x1
 2959 0124 53       		.byte	0x53
 2960 0125 40000000 		.4byte	.LVL22
 2961 0129 48000000 		.4byte	.LFE337
 2962 012d 0100     		.2byte	0x1
 2963 012f 59       		.byte	0x59
 2964 0130 00000000 		.4byte	0
ARM GAS  /tmp/ccBb80lR.s 			page 53


 2965 0134 00000000 		.4byte	0
 2966              	.LVUS11:
 2967 0138 00       		.uleb128 .LVU43
 2968 0139 00       		.uleb128 .LVU44
 2969 013a 00       		.uleb128 .LVU45
 2970 013b 00       		.uleb128 .LVU47
 2971              	.LLST11:
 2972 013c 1E000000 		.4byte	.LVL16
 2973 0140 20000000 		.4byte	.LVL17
 2974 0144 0500     		.2byte	0x5
 2975 0146 35       		.byte	0x35
 2976 0147 75       		.byte	0x75
 2977 0148 00       		.sleb128 0
 2978 0149 1C       		.byte	0x1c
 2979 014a 9F       		.byte	0x9f
 2980 014b 26000000 		.4byte	.LVL18
 2981 014f 36000000 		.4byte	.LVL20
 2982 0153 0500     		.2byte	0x5
 2983 0155 35       		.byte	0x35
 2984 0156 75       		.byte	0x75
 2985 0157 00       		.sleb128 0
 2986 0158 1C       		.byte	0x1c
 2987 0159 9F       		.byte	0x9f
 2988 015a 00000000 		.4byte	0
 2989 015e 00000000 		.4byte	0
 2990              	.LVUS2:
 2991 0162 00       		.uleb128 0
 2992 0163 00       		.uleb128 .LVU26
 2993 0164 00       		.uleb128 .LVU26
 2994 0165 00       		.uleb128 .LVU32
 2995 0166 00       		.uleb128 .LVU32
 2996 0167 00       		.uleb128 .LVU33
 2997 0168 00       		.uleb128 .LVU33
 2998 0169 00       		.uleb128 0
 2999              	.LLST2:
 3000 016a 00000000 		.4byte	.LVL7
 3001 016e 1E000000 		.4byte	.LVL8
 3002 0172 0100     		.2byte	0x1
 3003 0174 50       		.byte	0x50
 3004 0175 1E000000 		.4byte	.LVL8
 3005 0179 3C000000 		.4byte	.LVL13
 3006 017d 0400     		.2byte	0x4
 3007 017f F3       		.byte	0xf3
 3008 0180 01       		.uleb128 0x1
 3009 0181 50       		.byte	0x50
 3010 0182 9F       		.byte	0x9f
 3011 0183 3C000000 		.4byte	.LVL13
 3012 0187 40000000 		.4byte	.LVL14
 3013 018b 0100     		.2byte	0x1
 3014 018d 50       		.byte	0x50
 3015 018e 40000000 		.4byte	.LVL14
 3016 0192 48000000 		.4byte	.LFE336
 3017 0196 0400     		.2byte	0x4
 3018 0198 F3       		.byte	0xf3
 3019 0199 01       		.uleb128 0x1
 3020 019a 50       		.byte	0x50
 3021 019b 9F       		.byte	0x9f
ARM GAS  /tmp/ccBb80lR.s 			page 54


 3022 019c 00000000 		.4byte	0
 3023 01a0 00000000 		.4byte	0
 3024              	.LVUS3:
 3025 01a4 00       		.uleb128 0
 3026 01a5 00       		.uleb128 .LVU26
 3027 01a6 00       		.uleb128 .LVU26
 3028 01a7 00       		.uleb128 .LVU32
 3029 01a8 00       		.uleb128 .LVU32
 3030 01a9 00       		.uleb128 .LVU33
 3031 01aa 00       		.uleb128 .LVU33
 3032 01ab 00       		.uleb128 0
 3033              	.LLST3:
 3034 01ac 00000000 		.4byte	.LVL7
 3035 01b0 1E000000 		.4byte	.LVL8
 3036 01b4 0100     		.2byte	0x1
 3037 01b6 51       		.byte	0x51
 3038 01b7 1E000000 		.4byte	.LVL8
 3039 01bb 3C000000 		.4byte	.LVL13
 3040 01bf 0100     		.2byte	0x1
 3041 01c1 57       		.byte	0x57
 3042 01c2 3C000000 		.4byte	.LVL13
 3043 01c6 40000000 		.4byte	.LVL14
 3044 01ca 0100     		.2byte	0x1
 3045 01cc 51       		.byte	0x51
 3046 01cd 40000000 		.4byte	.LVL14
 3047 01d1 48000000 		.4byte	.LFE336
 3048 01d5 0100     		.2byte	0x1
 3049 01d7 57       		.byte	0x57
 3050 01d8 00000000 		.4byte	0
 3051 01dc 00000000 		.4byte	0
 3052              	.LVUS4:
 3053 01e0 00       		.uleb128 0
 3054 01e1 00       		.uleb128 .LVU26
 3055 01e2 00       		.uleb128 .LVU26
 3056 01e3 00       		.uleb128 .LVU32
 3057 01e4 00       		.uleb128 .LVU32
 3058 01e5 00       		.uleb128 .LVU33
 3059 01e6 00       		.uleb128 .LVU33
 3060 01e7 00       		.uleb128 0
 3061              	.LLST4:
 3062 01e8 00000000 		.4byte	.LVL7
 3063 01ec 1E000000 		.4byte	.LVL8
 3064 01f0 0100     		.2byte	0x1
 3065 01f2 52       		.byte	0x52
 3066 01f3 1E000000 		.4byte	.LVL8
 3067 01f7 3C000000 		.4byte	.LVL13
 3068 01fb 0100     		.2byte	0x1
 3069 01fd 56       		.byte	0x56
 3070 01fe 3C000000 		.4byte	.LVL13
 3071 0202 40000000 		.4byte	.LVL14
 3072 0206 0100     		.2byte	0x1
 3073 0208 52       		.byte	0x52
 3074 0209 40000000 		.4byte	.LVL14
 3075 020d 48000000 		.4byte	.LFE336
 3076 0211 0100     		.2byte	0x1
 3077 0213 56       		.byte	0x56
 3078 0214 00000000 		.4byte	0
ARM GAS  /tmp/ccBb80lR.s 			page 55


 3079 0218 00000000 		.4byte	0
 3080              	.LVUS5:
 3081 021c 00       		.uleb128 0
 3082 021d 00       		.uleb128 .LVU26
 3083 021e 00       		.uleb128 .LVU26
 3084 021f 00       		.uleb128 .LVU32
 3085 0220 00       		.uleb128 .LVU32
 3086 0221 00       		.uleb128 .LVU33
 3087 0222 00       		.uleb128 .LVU33
 3088 0223 00       		.uleb128 0
 3089              	.LLST5:
 3090 0224 00000000 		.4byte	.LVL7
 3091 0228 1E000000 		.4byte	.LVL8
 3092 022c 0100     		.2byte	0x1
 3093 022e 53       		.byte	0x53
 3094 022f 1E000000 		.4byte	.LVL8
 3095 0233 3C000000 		.4byte	.LVL13
 3096 0237 0100     		.2byte	0x1
 3097 0239 59       		.byte	0x59
 3098 023a 3C000000 		.4byte	.LVL13
 3099 023e 40000000 		.4byte	.LVL14
 3100 0242 0100     		.2byte	0x1
 3101 0244 53       		.byte	0x53
 3102 0245 40000000 		.4byte	.LVL14
 3103 0249 48000000 		.4byte	.LFE336
 3104 024d 0100     		.2byte	0x1
 3105 024f 59       		.byte	0x59
 3106 0250 00000000 		.4byte	0
 3107 0254 00000000 		.4byte	0
 3108              	.LVUS6:
 3109 0258 00       		.uleb128 .LVU26
 3110 0259 00       		.uleb128 .LVU27
 3111 025a 00       		.uleb128 .LVU28
 3112 025b 00       		.uleb128 .LVU30
 3113              	.LLST6:
 3114 025c 1E000000 		.4byte	.LVL8
 3115 0260 20000000 		.4byte	.LVL9
 3116 0264 0500     		.2byte	0x5
 3117 0266 35       		.byte	0x35
 3118 0267 75       		.byte	0x75
 3119 0268 00       		.sleb128 0
 3120 0269 1C       		.byte	0x1c
 3121 026a 9F       		.byte	0x9f
 3122 026b 26000000 		.4byte	.LVL10
 3123 026f 36000000 		.4byte	.LVL12
 3124 0273 0500     		.2byte	0x5
 3125 0275 35       		.byte	0x35
 3126 0276 75       		.byte	0x75
 3127 0277 00       		.sleb128 0
 3128 0278 1C       		.byte	0x1c
 3129 0279 9F       		.byte	0x9f
 3130 027a 00000000 		.4byte	0
 3131 027e 00000000 		.4byte	0
 3132              	.LVUS0:
 3133 0282 00       		.uleb128 0
 3134 0283 00       		.uleb128 .LVU8
 3135 0284 00       		.uleb128 .LVU8
ARM GAS  /tmp/ccBb80lR.s 			page 56


 3136 0285 00       		.uleb128 .LVU16
 3137 0286 00       		.uleb128 .LVU16
 3138 0287 00       		.uleb128 0
 3139              	.LLST0:
 3140 0288 00000000 		.4byte	.LVL0
 3141 028c 06000000 		.4byte	.LVL2
 3142 0290 0100     		.2byte	0x1
 3143 0292 50       		.byte	0x50
 3144 0293 06000000 		.4byte	.LVL2
 3145 0297 1C000000 		.4byte	.LVL6
 3146 029b 0400     		.2byte	0x4
 3147 029d F3       		.byte	0xf3
 3148 029e 01       		.uleb128 0x1
 3149 029f 50       		.byte	0x50
 3150 02a0 9F       		.byte	0x9f
 3151 02a1 1C000000 		.4byte	.LVL6
 3152 02a5 24000000 		.4byte	.LFE334
 3153 02a9 0100     		.2byte	0x1
 3154 02ab 50       		.byte	0x50
 3155 02ac 00000000 		.4byte	0
 3156 02b0 00000000 		.4byte	0
 3157              	.LVUS1:
 3158 02b4 01       		.uleb128 .LVU6
 3159 02b5 00       		.uleb128 .LVU10
 3160 02b6 00       		.uleb128 .LVU10
 3161 02b7 00       		.uleb128 .LVU15
 3162              	.LLST1:
 3163 02b8 04000000 		.4byte	.LVL1
 3164 02bc 0E000000 		.4byte	.LVL3
 3165 02c0 0200     		.2byte	0x2
 3166 02c2 30       		.byte	0x30
 3167 02c3 9F       		.byte	0x9f
 3168 02c4 0E000000 		.4byte	.LVL3
 3169 02c8 18000000 		.4byte	.LVL5
 3170 02cc 0100     		.2byte	0x1
 3171 02ce 54       		.byte	0x54
 3172 02cf 00000000 		.4byte	0
 3173 02d3 00000000 		.4byte	0
 3174              		.section	.debug_aranges,"",%progbits
 3175 0000 34000000 		.4byte	0x34
 3176 0004 0200     		.2byte	0x2
 3177 0006 00000000 		.4byte	.Ldebug_info0
 3178 000a 04       		.byte	0x4
 3179 000b 00       		.byte	0
 3180 000c 0000     		.2byte	0
 3181 000e 0000     		.2byte	0
 3182 0010 00000000 		.4byte	.LFB334
 3183 0014 24000000 		.4byte	.LFE334-.LFB334
 3184 0018 00000000 		.4byte	.LFB336
 3185 001c 48000000 		.4byte	.LFE336-.LFB336
 3186 0020 00000000 		.4byte	.LFB337
 3187 0024 48000000 		.4byte	.LFE337-.LFB337
 3188 0028 00000000 		.4byte	.LFB338
 3189 002c 28000000 		.4byte	.LFE338-.LFB338
 3190 0030 00000000 		.4byte	0
 3191 0034 00000000 		.4byte	0
 3192              		.section	.debug_ranges,"",%progbits
ARM GAS  /tmp/ccBb80lR.s 			page 57


 3193              	.Ldebug_ranges0:
 3194 0000 1E000000 		.4byte	.LBB2
 3195 0004 36000000 		.4byte	.LBE2
 3196 0008 40000000 		.4byte	.LBB3
 3197 000c 48000000 		.4byte	.LBE3
 3198 0010 00000000 		.4byte	0
 3199 0014 00000000 		.4byte	0
 3200 0018 1E000000 		.4byte	.LBB4
 3201 001c 36000000 		.4byte	.LBE4
 3202 0020 40000000 		.4byte	.LBB5
 3203 0024 48000000 		.4byte	.LBE5
 3204 0028 00000000 		.4byte	0
 3205 002c 00000000 		.4byte	0
 3206 0030 00000000 		.4byte	.LFB334
 3207 0034 24000000 		.4byte	.LFE334
 3208 0038 00000000 		.4byte	.LFB336
 3209 003c 48000000 		.4byte	.LFE336
 3210 0040 00000000 		.4byte	.LFB337
 3211 0044 48000000 		.4byte	.LFE337
 3212 0048 00000000 		.4byte	.LFB338
 3213 004c 28000000 		.4byte	.LFE338
 3214 0050 00000000 		.4byte	0
 3215 0054 00000000 		.4byte	0
 3216              		.section	.debug_line,"",%progbits
 3217              	.Ldebug_line0:
 3218 0000 C8040000 		.section	.debug_str,"MS",%progbits,1
 3218      03009203 
 3218      00000201 
 3218      FB0E0D00 
 3218      01010101 
 3219              	.LASF117:
 3220 0000 426C6F63 		.ascii	"BlockDeviceInfo\000"
 3220      6B446576 
 3220      69636549 
 3220      6E666F00 
 3221              	.LASF61:
 3222 0010 52455350 		.ascii	"RESP1\000"
 3222      3100
 3223              	.LASF20:
 3224 0016 72747469 		.ascii	"rttime_t\000"
 3224      6D655F74 
 3224      00
 3225              	.LASF63:
 3226 001f 52455350 		.ascii	"RESP3\000"
 3226      3300
 3227              	.LASF55:
 3228 0025 4D304152 		.ascii	"M0AR\000"
 3228      00
 3229              	.LASF4:
 3230 002a 73697A65 		.ascii	"size_t\000"
 3230      5F7400
 3231              	.LASF116:
 3232 0031 626C6B5F 		.ascii	"blk_num\000"
 3232      6E756D00 
 3233              	.LASF84:
 3234 0039 7264796D 		.ascii	"rdymsg\000"
 3234      736700
ARM GAS  /tmp/ccBb80lR.s 			page 58


 3235              	.LASF18:
 3236 0040 75696E74 		.ascii	"uint64_t\000"
 3236      36345F74 
 3236      00
 3237              	.LASF124:
 3238 0049 53444344 		.ascii	"SDCDriver\000"
 3238      72697665 
 3238      7200
 3239              	.LASF5:
 3240 0053 5F5F7569 		.ascii	"__uint8_t\000"
 3240      6E74385F 
 3240      7400
 3241              	.LASF53:
 3242 005d 70726576 		.ascii	"prev\000"
 3242      00
 3243              	.LASF78:
 3244 0062 706F7274 		.ascii	"port_intctx\000"
 3244      5F696E74 
 3244      63747800 
 3245              	.LASF156:
 3246 006e 5245535F 		.ascii	"RES_NOTRDY\000"
 3246      4E4F5452 
 3246      445900
 3247              	.LASF125:
 3248 0079 63617061 		.ascii	"capacity\000"
 3248      63697479 
 3248      00
 3249              	.LASF98:
 3250 0082 73747265 		.ascii	"stream\000"
 3250      616D00
 3251              	.LASF80:
 3252 0089 776F7273 		.ascii	"worst\000"
 3252      7400
 3253              	.LASF83:
 3254 008f 74696D65 		.ascii	"time_measurement_t\000"
 3254      5F6D6561 
 3254      73757265 
 3254      6D656E74 
 3254      5F7400
 3255              	.LASF71:
 3256 00a2 4649464F 		.ascii	"FIFOCNT\000"
 3256      434E5400 
 3257              	.LASF14:
 3258 00aa 6C6F6E67 		.ascii	"long long unsigned int\000"
 3258      206C6F6E 
 3258      6720756E 
 3258      7369676E 
 3258      65642069 
 3259              	.LASF103:
 3260 00c1 76656374 		.ascii	"vector\000"
 3260      6F7200
 3261              	.LASF88:
 3262 00c8 73656E74 		.ascii	"sentmsg\000"
 3262      6D736700 
 3263              	.LASF50:
 3264 00d0 6E657874 		.ascii	"next\000"
 3264      00
ARM GAS  /tmp/ccBb80lR.s 			page 59


 3265              	.LASF52:
 3266 00d5 63685F74 		.ascii	"ch_threads_queue\000"
 3266      68726561 
 3266      64735F71 
 3266      75657565 
 3266      00
 3267              	.LASF161:
 3268 00e6 6469736B 		.ascii	"disk_write\000"
 3268      5F777269 
 3268      746500
 3269              	.LASF112:
 3270 00f1 424C4B5F 		.ascii	"BLK_WRITING\000"
 3270      57524954 
 3270      494E4700 
 3271              	.LASF168:
 3272 00fd 73746174 		.ascii	"stat\000"
 3272      00
 3273              	.LASF1:
 3274 0102 6C6F6E67 		.ascii	"long long int\000"
 3274      206C6F6E 
 3274      6720696E 
 3274      7400
 3275              	.LASF3:
 3276 0110 7369676E 		.ascii	"signed char\000"
 3276      65642063 
 3276      68617200 
 3277              	.LASF118:
 3278 011c 5344435F 		.ascii	"SDC_MODE_1BIT\000"
 3278      4D4F4445 
 3278      5F314249 
 3278      5400
 3279              	.LASF141:
 3280 012a 69735F69 		.ascii	"is_inserted\000"
 3280      6E736572 
 3280      74656400 
 3281              	.LASF159:
 3282 0136 62756666 		.ascii	"buff\000"
 3282      00
 3283              	.LASF12:
 3284 013b 6C6F6E67 		.ascii	"long unsigned int\000"
 3284      20756E73 
 3284      69676E65 
 3284      6420696E 
 3284      7400
 3285              	.LASF127:
 3286 014d 63617264 		.ascii	"cardmode\000"
 3286      6D6F6465 
 3286      00
 3287              	.LASF144:
 3288 0156 64697363 		.ascii	"disconnect\000"
 3288      6F6E6E65 
 3288      637400
 3289              	.LASF86:
 3290 0161 77746F62 		.ascii	"wtobjp\000"
 3290      6A7000
 3291              	.LASF106:
 3292 0168 424C4B5F 		.ascii	"BLK_STOP\000"
ARM GAS  /tmp/ccBb80lR.s 			page 60


 3292      53544F50 
 3292      00
 3293              	.LASF40:
 3294 0171 6D736771 		.ascii	"msgqueue\000"
 3294      75657565 
 3294      00
 3295              	.LASF105:
 3296 017a 424C4B5F 		.ascii	"BLK_UNINIT\000"
 3296      554E494E 
 3296      495400
 3297              	.LASF36:
 3298 0185 73746174 		.ascii	"state\000"
 3298      6500
 3299              	.LASF10:
 3300 018b 6C6F6E67 		.ascii	"long int\000"
 3300      20696E74 
 3300      00
 3301              	.LASF68:
 3302 0194 44434F55 		.ascii	"DCOUNT\000"
 3302      4E5400
 3303              	.LASF149:
 3304 019b 55494E54 		.ascii	"UINT\000"
 3304      00
 3305              	.LASF22:
 3306 01a0 74737461 		.ascii	"tstate_t\000"
 3306      74655F74 
 3306      00
 3307              	.LASF157:
 3308 01a9 5245535F 		.ascii	"RES_PARERR\000"
 3308      50415245 
 3308      525200
 3309              	.LASF45:
 3310 01b4 73746174 		.ascii	"stats\000"
 3310      7300
 3311              	.LASF151:
 3312 01ba 44574F52 		.ascii	"DWORD\000"
 3312      4400
 3313              	.LASF64:
 3314 01c0 52455350 		.ascii	"RESP4\000"
 3314      3400
 3315              	.LASF139:
 3316 01c6 53444344 		.ascii	"SDCDriverVMT\000"
 3316      72697665 
 3316      72564D54 
 3316      00
 3317              	.LASF114:
 3318 01d3 626C6B73 		.ascii	"blkstate_t\000"
 3318      74617465 
 3318      5F7400
 3319              	.LASF148:
 3320 01de 6765745F 		.ascii	"get_info\000"
 3320      696E666F 
 3320      00
 3321              	.LASF85:
 3322 01e7 65786974 		.ascii	"exitcode\000"
 3322      636F6465 
 3322      00
ARM GAS  /tmp/ccBb80lR.s 			page 61


 3323              	.LASF11:
 3324 01f0 5F5F7569 		.ascii	"__uint32_t\000"
 3324      6E743332 
 3324      5F7400
 3325              	.LASF167:
 3326 01fb 6469736B 		.ascii	"disk_initialize\000"
 3326      5F696E69 
 3326      7469616C 
 3326      697A6500 
 3327              	.LASF54:
 3328 020b 4E445452 		.ascii	"NDTR\000"
 3328      00
 3329              	.LASF39:
 3330 0210 77616974 		.ascii	"waiting\000"
 3330      696E6700 
 3331              	.LASF150:
 3332 0218 42595445 		.ascii	"BYTE\000"
 3332      00
 3333              	.LASF122:
 3334 021d 7364636D 		.ascii	"sdcmode_t\000"
 3334      6F64655F 
 3334      7400
 3335              	.LASF96:
 3336 0227 6D757465 		.ascii	"mutex_t\000"
 3336      785F7400 
 3337              	.LASF69:
 3338 022f 4D41534B 		.ascii	"MASK\000"
 3338      00
 3339              	.LASF27:
 3340 0234 636E745F 		.ascii	"cnt_t\000"
 3340      7400
 3341              	.LASF0:
 3342 023a 756E7369 		.ascii	"unsigned int\000"
 3342      676E6564 
 3342      20696E74 
 3342      00
 3343              	.LASF154:
 3344 0247 5245535F 		.ascii	"RES_ERROR\000"
 3344      4552524F 
 3344      5200
 3345              	.LASF89:
 3346 0251 77747365 		.ascii	"wtsemp\000"
 3346      6D7000
 3347              	.LASF128:
 3348 0258 6572726F 		.ascii	"errors\000"
 3348      727300
 3349              	.LASF176:
 3350 025f 6469736B 		.ascii	"disk_status\000"
 3350      5F737461 
 3350      74757300 
 3351              	.LASF34:
 3352 026b 6E616D65 		.ascii	"name\000"
 3352      00
 3353              	.LASF30:
 3354 0270 71756575 		.ascii	"queue\000"
 3354      6500
 3355              	.LASF120:
ARM GAS  /tmp/ccBb80lR.s 			page 62


 3356 0276 5344435F 		.ascii	"SDC_MODE_8BIT\000"
 3356      4D4F4445 
 3356      5F384249 
 3356      5400
 3357              	.LASF74:
 3358 0284 53444D4D 		.ascii	"SDMMC_TypeDef\000"
 3358      435F5479 
 3358      70654465 
 3358      6600
 3359              	.LASF8:
 3360 0292 73686F72 		.ascii	"short unsigned int\000"
 3360      7420756E 
 3360      7369676E 
 3360      65642069 
 3360      6E7400
 3361              	.LASF107:
 3362 02a5 424C4B5F 		.ascii	"BLK_ACTIVE\000"
 3362      41435449 
 3362      564500
 3363              	.LASF48:
 3364 02b0 63685F74 		.ascii	"ch_thread\000"
 3364      68726561 
 3364      6400
 3365              	.LASF171:
 3366 02ba 7364635F 		.ascii	"sdc_lld_is_write_protected\000"
 3366      6C6C645F 
 3366      69735F77 
 3366      72697465 
 3366      5F70726F 
 3367              	.LASF25:
 3368 02d5 6D73675F 		.ascii	"msg_t\000"
 3368      7400
 3369              	.LASF81:
 3370 02db 6C617374 		.ascii	"last\000"
 3370      00
 3371              	.LASF49:
 3372 02e0 63685F74 		.ascii	"ch_threads_list\000"
 3372      68726561 
 3372      64735F6C 
 3372      69737400 
 3373              	.LASF28:
 3374 02f0 75636E74 		.ascii	"ucnt_t\000"
 3374      5F7400
 3375              	.LASF41:
 3376 02f7 6570656E 		.ascii	"epending\000"
 3376      64696E67 
 3376      00
 3377              	.LASF108:
 3378 0300 424C4B5F 		.ascii	"BLK_CONNECTING\000"
 3378      434F4E4E 
 3378      45435449 
 3378      4E4700
 3379              	.LASF21:
 3380 030f 746D6F64 		.ascii	"tmode_t\000"
 3380      655F7400 
 3381              	.LASF60:
 3382 0317 52455350 		.ascii	"RESPCMD\000"
ARM GAS  /tmp/ccBb80lR.s 			page 63


 3382      434D4400 
 3383              	.LASF163:
 3384 031f 73656374 		.ascii	"sector\000"
 3384      6F7200
 3385              	.LASF26:
 3386 0326 6576656E 		.ascii	"eventmask_t\000"
 3386      746D6173 
 3386      6B5F7400 
 3387              	.LASF9:
 3388 0332 5F5F696E 		.ascii	"__int32_t\000"
 3388      7433325F 
 3388      7400
 3389              	.LASF160:
 3390 033c 6469736B 		.ascii	"disk_ioctl\000"
 3390      5F696F63 
 3390      746C00
 3391              	.LASF76:
 3392 0347 73746B61 		.ascii	"stkalign_t\000"
 3392      6C69676E 
 3392      5F7400
 3393              	.LASF32:
 3394 0352 6E657765 		.ascii	"newer\000"
 3394      7200
 3395              	.LASF66:
 3396 0358 444C454E 		.ascii	"DLEN\000"
 3396      00
 3397              	.LASF146:
 3398 035d 77726974 		.ascii	"write\000"
 3398      6500
 3399              	.LASF166:
 3400 0363 6469736B 		.ascii	"disk_read\000"
 3400      5F726561 
 3400      6400
 3401              	.LASF62:
 3402 036d 52455350 		.ascii	"RESP2\000"
 3402      3200
 3403              	.LASF43:
 3404 0373 7265616C 		.ascii	"realprio\000"
 3404      7072696F 
 3404      00
 3405              	.LASF111:
 3406 037c 424C4B5F 		.ascii	"BLK_READING\000"
 3406      52454144 
 3406      494E4700 
 3407              	.LASF19:
 3408 0388 7274636E 		.ascii	"rtcnt_t\000"
 3408      745F7400 
 3409              	.LASF46:
 3410 0390 74687265 		.ascii	"thread_reference_t\000"
 3410      61645F72 
 3410      65666572 
 3410      656E6365 
 3410      5F7400
 3411              	.LASF155:
 3412 03a3 5245535F 		.ascii	"RES_WRPRT\000"
 3412      57525052 
 3412      5400
ARM GAS  /tmp/ccBb80lR.s 			page 64


 3413              	.LASF87:
 3414 03ad 77747472 		.ascii	"wttrp\000"
 3414      7000
 3415              	.LASF164:
 3416 03b3 636F756E 		.ascii	"count\000"
 3416      7400
 3417              	.LASF58:
 3418 03b9 504F5745 		.ascii	"POWER\000"
 3418      5200
 3419              	.LASF153:
 3420 03bf 5245535F 		.ascii	"RES_OK\000"
 3420      4F4B00
 3421              	.LASF162:
 3422 03c6 70647276 		.ascii	"pdrv\000"
 3422      00
 3423              	.LASF169:
 3424 03cb 73646357 		.ascii	"sdcWrite\000"
 3424      72697465 
 3424      00
 3425              	.LASF110:
 3426 03d4 424C4B5F 		.ascii	"BLK_READY\000"
 3426      52454144 
 3426      5900
 3427              	.LASF77:
 3428 03de 706F7274 		.ascii	"port_context\000"
 3428      5F636F6E 
 3428      74657874 
 3428      00
 3429              	.LASF67:
 3430 03eb 44435452 		.ascii	"DCTRL\000"
 3430      4C00
 3431              	.LASF31:
 3432 03f1 7072696F 		.ascii	"prio\000"
 3432      00
 3433              	.LASF170:
 3434 03f6 73646352 		.ascii	"sdcRead\000"
 3434      65616400 
 3435              	.LASF101:
 3436 03fe 73686966 		.ascii	"shift\000"
 3436      7400
 3437              	.LASF13:
 3438 0404 5F5F7569 		.ascii	"__uint64_t\000"
 3438      6E743634 
 3438      5F7400
 3439              	.LASF82:
 3440 040f 63756D75 		.ascii	"cumulative\000"
 3440      6C617469 
 3440      766500
 3441              	.LASF59:
 3442 041a 434C4B43 		.ascii	"CLKCR\000"
 3442      5200
 3443              	.LASF23:
 3444 0420 74726566 		.ascii	"trefs_t\000"
 3444      735F7400 
 3445              	.LASF70:
 3446 0428 52455345 		.ascii	"RESERVED0\000"
 3446      52564544 
ARM GAS  /tmp/ccBb80lR.s 			page 65


 3446      3000
 3447              	.LASF72:
 3448 0432 52455345 		.ascii	"RESERVED1\000"
 3448      52564544 
 3448      3100
 3449              	.LASF38:
 3450 043c 72656673 		.ascii	"refs\000"
 3450      00
 3451              	.LASF165:
 3452 0441 53444344 		.ascii	"SDCD1\000"
 3452      3100
 3453              	.LASF137:
 3454 0447 736C6F77 		.ascii	"slowdown\000"
 3454      646F776E 
 3454      00
 3455              	.LASF24:
 3456 0450 74707269 		.ascii	"tprio_t\000"
 3456      6F5F7400 
 3457              	.LASF129:
 3458 0458 74687265 		.ascii	"thread\000"
 3458      616400
 3459              	.LASF97:
 3460 045f 5F426F6F 		.ascii	"_Bool\000"
 3460      6C00
 3461              	.LASF16:
 3462 0465 696E7433 		.ascii	"int32_t\000"
 3462      325F7400 
 3463              	.LASF6:
 3464 046d 756E7369 		.ascii	"unsigned char\000"
 3464      676E6564 
 3464      20636861 
 3464      7200
 3465              	.LASF104:
 3466 047b 73746D33 		.ascii	"stm32_dma_stream_t\000"
 3466      325F646D 
 3466      615F7374 
 3466      7265616D 
 3466      5F7400
 3467              	.LASF7:
 3468 048e 73686F72 		.ascii	"short int\000"
 3468      7420696E 
 3468      7400
 3469              	.LASF135:
 3470 0498 73637261 		.ascii	"scratchpad\000"
 3470      74636870 
 3470      616400
 3471              	.LASF91:
 3472 04a3 65776D61 		.ascii	"ewmask\000"
 3472      736B00
 3473              	.LASF173:
 3474 04aa 2E2E2F2E 		.ascii	"../../modules/ChibiOS/os/various/fatfs_bindings/fat"
 3474      2E2F6D6F 
 3474      64756C65 
 3474      732F4368 
 3474      6962694F 
 3475 04dd 66735F64 		.ascii	"fs_diskio.c\000"
 3475      69736B69 
ARM GAS  /tmp/ccBb80lR.s 			page 66


 3475      6F2E6300 
 3476              	.LASF35:
 3477 04e9 77616261 		.ascii	"wabase\000"
 3477      736500
 3478              	.LASF121:
 3479 04f0 73646362 		.ascii	"sdcbusmode_t\000"
 3479      75736D6F 
 3479      64655F74 
 3479      00
 3480              	.LASF92:
 3481 04fd 63685F73 		.ascii	"ch_semaphore\000"
 3481      656D6170 
 3481      686F7265 
 3481      00
 3482              	.LASF143:
 3483 050a 636F6E6E 		.ascii	"connect\000"
 3483      65637400 
 3484              	.LASF99:
 3485 0512 69666372 		.ascii	"ifcr\000"
 3485      00
 3486              	.LASF100:
 3487 0517 64756D6D 		.ascii	"dummy\000"
 3487      7900
 3488              	.LASF17:
 3489 051d 75696E74 		.ascii	"uint32_t\000"
 3489      33325F74 
 3489      00
 3490              	.LASF75:
 3491 0526 72656761 		.ascii	"regarm_t\000"
 3491      726D5F74 
 3491      00
 3492              	.LASF134:
 3493 052f 626F756E 		.ascii	"bouncebuffer\000"
 3493      63656275 
 3493      66666572 
 3493      00
 3494              	.LASF94:
 3495 053c 6F776E65 		.ascii	"owner\000"
 3495      7200
 3496              	.LASF158:
 3497 0542 44524553 		.ascii	"DRESULT\000"
 3497      554C5400 
 3498              	.LASF2:
 3499 054a 6C6F6E67 		.ascii	"long double\000"
 3499      20646F75 
 3499      626C6500 
 3500              	.LASF174:
 3501 0556 2F686F6D 		.ascii	"/home/mahathi/mathur407_payload2/4.0.7/build/CUAVv5"
 3501      652F6D61 
 3501      68617468 
 3501      692F6D61 
 3501      74687572 
 3502 0589 00       		.ascii	"\000"
 3503              	.LASF95:
 3504 058a 63686172 		.ascii	"char\000"
 3504      00
 3505              	.LASF33:
ARM GAS  /tmp/ccBb80lR.s 			page 67


 3506 058f 6F6C6465 		.ascii	"older\000"
 3506      7200
 3507              	.LASF109:
 3508 0595 424C4B5F 		.ascii	"BLK_DISCONNECTING\000"
 3508      44495343 
 3508      4F4E4E45 
 3508      4354494E 
 3508      4700
 3509              	.LASF126:
 3510 05a7 636F6E66 		.ascii	"config\000"
 3510      696700
 3511              	.LASF29:
 3512 05ae 74687265 		.ascii	"thread_t\000"
 3512      61645F74 
 3512      00
 3513              	.LASF79:
 3514 05b7 62657374 		.ascii	"best\000"
 3514      00
 3515              	.LASF115:
 3516 05bc 626C6B5F 		.ascii	"blk_size\000"
 3516      73697A65 
 3516      00
 3517              	.LASF152:
 3518 05c5 44535441 		.ascii	"DSTATUS\000"
 3518      54555300 
 3519              	.LASF65:
 3520 05cd 4454494D 		.ascii	"DTIMER\000"
 3520      455200
 3521              	.LASF57:
 3522 05d4 444D415F 		.ascii	"DMA_Stream_TypeDef\000"
 3522      53747265 
 3522      616D5F54 
 3522      79706544 
 3522      656600
 3523              	.LASF130:
 3524 05e7 72746D6F 		.ascii	"rtmo\000"
 3524      00
 3525              	.LASF119:
 3526 05ec 5344435F 		.ascii	"SDC_MODE_4BIT\000"
 3526      4D4F4445 
 3526      5F344249 
 3526      5400
 3527              	.LASF123:
 3528 05fa 73646366 		.ascii	"sdcflags_t\000"
 3528      6C616773 
 3528      5F7400
 3529              	.LASF90:
 3530 0605 77746D74 		.ascii	"wtmtxp\000"
 3530      787000
 3531              	.LASF142:
 3532 060c 69735F70 		.ascii	"is_protected\000"
 3532      726F7465 
 3532      63746564 
 3532      00
 3533              	.LASF56:
 3534 0619 4D314152 		.ascii	"M1AR\000"
 3534      00
ARM GAS  /tmp/ccBb80lR.s 			page 68


 3535              	.LASF102:
 3536 061e 73656C66 		.ascii	"selfindex\000"
 3536      696E6465 
 3536      7800
 3537              	.LASF133:
 3538 0628 73646D6D 		.ascii	"sdmmc\000"
 3538      6300
 3539              	.LASF44:
 3540 062e 6D706F6F 		.ascii	"mpool\000"
 3540      6C00
 3541              	.LASF51:
 3542 0634 74687265 		.ascii	"threads_queue_t\000"
 3542      6164735F 
 3542      71756575 
 3542      655F7400 
 3543              	.LASF93:
 3544 0644 63685F6D 		.ascii	"ch_mutex\000"
 3544      75746578 
 3544      00
 3545              	.LASF113:
 3546 064d 424C4B5F 		.ascii	"BLK_SYNCING\000"
 3546      53594E43 
 3546      494E4700 
 3547              	.LASF138:
 3548 0659 53444343 		.ascii	"SDCConfig\000"
 3548      6F6E6669 
 3548      6700
 3549              	.LASF172:
 3550 0663 474E5520 		.ascii	"GNU C17 10.2.1 20201103 (release) -mcpu=cortex-m7 -"
 3550      43313720 
 3550      31302E32 
 3550      2E312032 
 3550      30323031 
 3551 0696 6D666C6F 		.ascii	"mfloat-abi=hard -mfpu=fpv4-sp-d16 -mno-thumb-interw"
 3551      61742D61 
 3551      62693D68 
 3551      61726420 
 3551      2D6D6670 
 3552 06c9 6F726B20 		.ascii	"ork -mthumb -march=armv7e-m+fp -g -Os -fomit-frame-"
 3552      2D6D7468 
 3552      756D6220 
 3552      2D6D6172 
 3552      63683D61 
 3553 06fc 706F696E 		.ascii	"pointer -falign-functions=16 -ffunction-sections -f"
 3553      74657220 
 3553      2D66616C 
 3553      69676E2D 
 3553      66756E63 
 3554 072f 64617461 		.ascii	"data-sections -fno-common -fsingle-precision-consta"
 3554      2D736563 
 3554      74696F6E 
 3554      73202D66 
 3554      6E6F2D63 
 3555 0762 6E7400   		.ascii	"nt\000"
 3556              	.LASF15:
 3557 0765 75696E74 		.ascii	"uint8_t\000"
 3557      385F7400 
ARM GAS  /tmp/ccBb80lR.s 			page 69


 3558              	.LASF37:
 3559 076d 666C6167 		.ascii	"flags\000"
 3559      7300
 3560              	.LASF147:
 3561 0773 73796E63 		.ascii	"sync\000"
 3561      00
 3562              	.LASF132:
 3563 0778 646D616D 		.ascii	"dmamode\000"
 3563      6F646500 
 3564              	.LASF145:
 3565 0780 72656164 		.ascii	"read\000"
 3565      00
 3566              	.LASF73:
 3567 0785 4649464F 		.ascii	"FIFO\000"
 3567      00
 3568              	.LASF47:
 3569 078a 74687265 		.ascii	"threads_list_t\000"
 3569      6164735F 
 3569      6C697374 
 3569      5F7400
 3570              	.LASF136:
 3571 0799 6275735F 		.ascii	"bus_width\000"
 3571      77696474 
 3571      6800
 3572              	.LASF140:
 3573 07a3 696E7374 		.ascii	"instance_offset\000"
 3573      616E6365 
 3573      5F6F6666 
 3573      73657400 
 3574              	.LASF42:
 3575 07b3 6D74786C 		.ascii	"mtxlist\000"
 3575      69737400 
 3576              	.LASF131:
 3577 07bb 77746D6F 		.ascii	"wtmo\000"
 3577      00
 3578              	.LASF175:
 3579 07c0 626F756E 		.ascii	"bouncebuffer_t\000"
 3579      63656275 
 3579      66666572 
 3579      5F7400
 3580              		.ident	"GCC: (GNU Arm Embedded Toolchain 10-2020-q4-major) 10.2.1 20201103 (release)"
ARM GAS  /tmp/ccBb80lR.s 			page 70


DEFINED SYMBOLS
                            *ABS*:0000000000000000 fatfs_diskio.c
     /tmp/ccBb80lR.s:18     .text.disk_initialize:0000000000000000 $t
     /tmp/ccBb80lR.s:26     .text.disk_initialize:0000000000000000 disk_initialize
     /tmp/ccBb80lR.s:78     .text.disk_initialize:0000000000000020 $d
     /tmp/ccBb80lR.s:83     .text.disk_status:0000000000000000 $t
     /tmp/ccBb80lR.s:90     .text.disk_status:0000000000000000 disk_status
     /tmp/ccBb80lR.s:101    .text.disk_read:0000000000000000 $t
     /tmp/ccBb80lR.s:108    .text.disk_read:0000000000000000 disk_read
     /tmp/ccBb80lR.s:186    .text.disk_read:0000000000000044 $d
     /tmp/ccBb80lR.s:192    .text.disk_write:0000000000000000 $t
     /tmp/ccBb80lR.s:199    .text.disk_write:0000000000000000 disk_write
     /tmp/ccBb80lR.s:277    .text.disk_write:0000000000000044 $d
     /tmp/ccBb80lR.s:283    .text.disk_ioctl:0000000000000000 $t
     /tmp/ccBb80lR.s:290    .text.disk_ioctl:0000000000000000 disk_ioctl
     /tmp/ccBb80lR.s:338    .text.disk_ioctl:0000000000000024 $d

UNDEFINED SYMBOLS
sdc_lld_is_write_protected
SDCD1
sdcRead
sdcWrite
