ARM GAS  /tmp/ccQDH7ho.s 			page 1


   1              		.cpu cortex-m7
   2              		.eabi_attribute 27, 1
   3              		.eabi_attribute 28, 1
   4              		.eabi_attribute 20, 1
   5              		.eabi_attribute 21, 1
   6              		.eabi_attribute 23, 3
   7              		.eabi_attribute 24, 1
   8              		.eabi_attribute 25, 1
   9              		.eabi_attribute 26, 1
  10              		.eabi_attribute 30, 4
  11              		.eabi_attribute 34, 1
  12              		.eabi_attribute 18, 4
  13              		.file	"ffunicode.c"
  14              		.text
  15              	.Ltext0:
  16              		.cfi_sections	.debug_frame
  17              		.section	.text.ff_uni2oem,"ax",%progbits
  18              		.align	1
  19              		.global	ff_uni2oem
  20              		.arch armv7e-m
  21              		.syntax unified
  22              		.thumb
  23              		.thumb_func
  24              		.fpu fpv4-sp-d16
  25              		.type	ff_uni2oem, %function
  26              	ff_uni2oem:
  27              	.LVL0:
  28              	.LFB301:
  29              		.file 1 "../../modules/ChibiOS/ext/fatfs/src/ffunicode.c"
  30              		.loc 1 15251 1 view -0
  31              		.cfi_startproc
  32              		@ args = 0, pretend = 0, frame = 0
  33              		@ frame_needed = 0, uses_anonymous_args = 0
  34              		.loc 1 15252 2 view .LVU1
  35              		.loc 1 15253 2 view .LVU2
  36              		.loc 1 15256 2 view .LVU3
  37              		.loc 1 15256 5 is_stmt 0 view .LVU4
  38 0000 7F28     		cmp	r0, #127
  39              		.loc 1 15251 1 view .LVU5
  40 0002 10B5     		push	{r4, lr}
  41              		.cfi_def_cfa_offset 8
  42              		.cfi_offset 4, -8
  43              		.cfi_offset 14, -4
  44              		.loc 1 15256 5 view .LVU6
  45 0004 0DD9     		bls	.L2
  46              		.loc 1 15260 3 is_stmt 1 view .LVU7
  47              		.loc 1 15260 6 is_stmt 0 view .LVU8
  48 0006 40F25233 		movw	r3, #850
  49 000a 9942     		cmp	r1, r3
  50 000c 0FD1     		bne	.L6
  51 000e 0949     		ldr	r1, .L9
  52              	.LVL1:
  53              		.loc 1 15260 6 view .LVU9
  54 0010 0023     		movs	r3, #0
  55              	.LVL2:
  56              	.L3:
  57              		.loc 1 15261 36 discriminator 3 view .LVU10
ARM GAS  /tmp/ccQDH7ho.s 			page 2


  58 0012 31F8024B 		ldrh	r4, [r1], #2
  59 0016 9AB2     		uxth	r2, r3
  60              	.LVL3:
  61              		.loc 1 15261 25 discriminator 3 view .LVU11
  62 0018 8442     		cmp	r4, r0
  63 001a 03D1     		bne	.L5
  64              	.LVL4:
  65              	.L4:
  66              		.loc 1 15262 4 is_stmt 1 view .LVU12
  67              		.loc 1 15262 11 is_stmt 0 view .LVU13
  68 001c 02F18000 		add	r0, r2, #128
  69              	.LVL5:
  70              		.loc 1 15262 6 view .LVU14
  71 0020 C0B2     		uxtb	r0, r0
  72              	.LVL6:
  73              	.L2:
  74              		.loc 1 15265 2 is_stmt 1 view .LVU15
  75              		.loc 1 15266 1 is_stmt 0 view .LVU16
  76 0022 10BD     		pop	{r4, pc}
  77              	.LVL7:
  78              	.L5:
  79              		.loc 1 15261 46 is_stmt 1 discriminator 4 view .LVU17
  80              		.loc 1 15261 41 discriminator 4 view .LVU18
  81              		.loc 1 15261 16 discriminator 4 view .LVU19
  82              		.loc 1 15261 4 is_stmt 0 discriminator 4 view .LVU20
  83 0024 0133     		adds	r3, r3, #1
  84              	.LVL8:
  85              		.loc 1 15261 4 discriminator 4 view .LVU21
  86 0026 802B     		cmp	r3, #128
  87 0028 F3D1     		bne	.L3
  88 002a 1A46     		mov	r2, r3
  89              	.LVL9:
  90              		.loc 1 15261 4 discriminator 4 view .LVU22
  91 002c F6E7     		b	.L4
  92              	.LVL10:
  93              	.L6:
  94              		.loc 1 15252 8 view .LVU23
  95 002e 0020     		movs	r0, #0
  96              	.LVL11:
  97              		.loc 1 15252 8 view .LVU24
  98 0030 F7E7     		b	.L2
  99              	.L10:
 100 0032 00BF     		.align	2
 101              	.L9:
 102 0034 00000000 		.word	.LANCHOR0
 103              		.cfi_endproc
 104              	.LFE301:
 105              		.size	ff_uni2oem, .-ff_uni2oem
 106              		.section	.text.ff_oem2uni,"ax",%progbits
 107              		.align	1
 108              		.global	ff_oem2uni
 109              		.syntax unified
 110              		.thumb
 111              		.thumb_func
 112              		.fpu fpv4-sp-d16
 113              		.type	ff_oem2uni, %function
 114              	ff_oem2uni:
ARM GAS  /tmp/ccQDH7ho.s 			page 3


 115              	.LVL12:
 116              	.LFB302:
 117              		.loc 1 15272 1 is_stmt 1 view -0
 118              		.cfi_startproc
 119              		@ args = 0, pretend = 0, frame = 0
 120              		@ frame_needed = 0, uses_anonymous_args = 0
 121              		@ link register save eliminated.
 122              		.loc 1 15273 2 view .LVU26
 123              		.loc 1 15274 2 view .LVU27
 124              		.loc 1 15277 2 view .LVU28
 125              		.loc 1 15277 5 is_stmt 0 view .LVU29
 126 0000 7F28     		cmp	r0, #127
 127 0002 0DD9     		bls	.L12
 128              		.loc 1 15281 3 is_stmt 1 view .LVU30
 129              		.loc 1 15281 6 is_stmt 0 view .LVU31
 130 0004 40F25233 		movw	r3, #850
 131 0008 9942     		cmp	r1, r3
 132 000a 08D1     		bne	.L14
 133              		.loc 1 15282 4 is_stmt 1 view .LVU32
 134              		.loc 1 15282 7 is_stmt 0 view .LVU33
 135 000c FF28     		cmp	r0, #255
 136 000e 06D8     		bhi	.L14
 137              		.loc 1 15282 21 is_stmt 1 discriminator 1 view .LVU34
 138              		.loc 1 15282 26 is_stmt 0 discriminator 1 view .LVU35
 139 0010 00F10040 		add	r0, r0, #-2147483648
 140              	.LVL13:
 141              		.loc 1 15282 23 discriminator 1 view .LVU36
 142 0014 034B     		ldr	r3, .L15
 143              		.loc 1 15282 26 discriminator 1 view .LVU37
 144 0016 8038     		subs	r0, r0, #128
 145              		.loc 1 15282 23 discriminator 1 view .LVU38
 146 0018 33F81000 		ldrh	r0, [r3, r0, lsl #1]
 147              	.LVL14:
 148              		.loc 1 15282 23 discriminator 1 view .LVU39
 149 001c 7047     		bx	lr
 150              	.LVL15:
 151              	.L14:
 152              		.loc 1 15273 8 view .LVU40
 153 001e 0020     		movs	r0, #0
 154              	.LVL16:
 155              	.L12:
 156              		.loc 1 15285 2 is_stmt 1 view .LVU41
 157              		.loc 1 15286 1 is_stmt 0 view .LVU42
 158 0020 7047     		bx	lr
 159              	.L16:
 160 0022 00BF     		.align	2
 161              	.L15:
 162 0024 00000000 		.word	.LANCHOR0
 163              		.cfi_endproc
 164              	.LFE302:
 165              		.size	ff_oem2uni, .-ff_oem2uni
 166              		.section	.text.ff_wtoupper,"ax",%progbits
 167              		.align	1
 168              		.global	ff_wtoupper
 169              		.syntax unified
 170              		.thumb
 171              		.thumb_func
ARM GAS  /tmp/ccQDH7ho.s 			page 4


 172              		.fpu fpv4-sp-d16
 173              		.type	ff_wtoupper, %function
 174              	ff_wtoupper:
 175              	.LVL17:
 176              	.LFB303:
 177              		.loc 1 15482 1 is_stmt 1 view -0
 178              		.cfi_startproc
 179              		@ args = 0, pretend = 0, frame = 0
 180              		@ frame_needed = 0, uses_anonymous_args = 0
 181              		.loc 1 15484 2 view .LVU44
 182              		.loc 1 15508 2 view .LVU45
 183              		.loc 1 15536 2 view .LVU46
 184              		.loc 1 15537 2 view .LVU47
 185              		.loc 1 15540 2 view .LVU48
 186              		.loc 1 15540 26 is_stmt 0 view .LVU49
 187 0000 1E4B     		ldr	r3, .L39
 188 0002 1F4A     		ldr	r2, .L39+4
 189 0004 B0F5805F 		cmp	r0, #4096
 190 0008 28BF     		it	cs
 191 000a 1346     		movcs	r3, r2
 192              		.loc 1 15482 1 view .LVU50
 193 000c 70B5     		push	{r4, r5, r6, lr}
 194              		.cfi_def_cfa_offset 16
 195              		.cfi_offset 4, -16
 196              		.cfi_offset 5, -12
 197              		.cfi_offset 6, -8
 198              		.cfi_offset 14, -4
 199              	.L32:
 200 000e 191D     		adds	r1, r3, #4
 201              	.L31:
 202              	.LVL18:
 203              		.loc 1 15541 2 is_stmt 1 view .LVU51
 204              		.loc 1 15542 3 view .LVU52
 205              		.loc 1 15542 6 is_stmt 0 view .LVU53
 206 0010 31F8043C 		ldrh	r3, [r1, #-4]
 207              	.LVL19:
 208              		.loc 1 15543 3 is_stmt 1 view .LVU54
 209 0014 0A46     		mov	r2, r1
 210              		.loc 1 15543 6 is_stmt 0 view .LVU55
 211 0016 ABB1     		cbz	r3, .L19
 212              		.loc 1 15543 11 discriminator 1 view .LVU56
 213 0018 9842     		cmp	r0, r3
 214 001a 13D3     		bcc	.L19
 215              		.loc 1 15544 3 is_stmt 1 view .LVU57
 216              	.LVL20:
 217              		.loc 1 15544 6 is_stmt 0 view .LVU58
 218 001c 31F8024C 		ldrh	r4, [r1, #-2]
 219              	.LVL21:
 220              		.loc 1 15544 14 is_stmt 1 view .LVU59
 221              		.loc 1 15544 18 is_stmt 0 view .LVU60
 222 0020 250A     		lsrs	r5, r4, #8
 223              	.LVL22:
 224              		.loc 1 15544 29 is_stmt 1 view .LVU61
 225              		.loc 1 15544 32 is_stmt 0 view .LVU62
 226 0022 E6B2     		uxtb	r6, r4
 227              	.LVL23:
 228              		.loc 1 15545 3 is_stmt 1 view .LVU63
ARM GAS  /tmp/ccQDH7ho.s 			page 5


 229              		.loc 1 15545 16 is_stmt 0 view .LVU64
 230 0024 53FA84F4 		uxtab	r4, r3, r4
 231              		.loc 1 15545 6 view .LVU65
 232 0028 A042     		cmp	r0, r4
 233 002a 21DA     		bge	.L20
 234              		.loc 1 15546 4 is_stmt 1 view .LVU66
 235 002c 082D     		cmp	r5, #8
 236 002e 09D8     		bhi	.L19
 237 0030 DFE805F0 		tbb	[pc, r5]
 238              	.L22:
 239 0034 05       		.byte	(.L30-.L22)/2
 240 0035 09       		.byte	(.L29-.L22)/2
 241 0036 0F       		.byte	(.L28-.L22)/2
 242 0037 11       		.byte	(.L27-.L22)/2
 243 0038 13       		.byte	(.L26-.L22)/2
 244 0039 15       		.byte	(.L25-.L22)/2
 245 003a 17       		.byte	(.L24-.L22)/2
 246 003b 19       		.byte	(.L23-.L22)/2
 247 003c 1B       		.byte	(.L21-.L22)/2
 248 003d 00       		.p2align 1
 249              	.L30:
 250              		.loc 1 15547 12 view .LVU67
 251              		.loc 1 15547 24 is_stmt 0 view .LVU68
 252 003e C01A     		subs	r0, r0, r3
 253              	.LVL24:
 254              		.loc 1 15547 16 view .LVU69
 255 0040 31F81000 		ldrh	r0, [r1, r0, lsl #1]
 256              	.LVL25:
 257              		.loc 1 15547 31 is_stmt 1 view .LVU70
 258              	.L19:
 259              		.loc 1 15562 2 view .LVU71
 260              		.loc 1 15563 1 is_stmt 0 view .LVU72
 261 0044 70BD     		pop	{r4, r5, r6, pc}
 262              	.LVL26:
 263              	.L29:
 264              		.loc 1 15548 12 is_stmt 1 view .LVU73
 265              		.loc 1 15548 30 is_stmt 0 view .LVU74
 266 0046 C31A     		subs	r3, r0, r3
 267              	.LVL27:
 268              		.loc 1 15548 30 view .LVU75
 269 0048 03F00103 		and	r3, r3, #1
 270              		.loc 1 15548 16 view .LVU76
 271 004c C01A     		subs	r0, r0, r3
 272              	.LVL28:
 273              	.L38:
 274              		.loc 1 15555 16 view .LVU77
 275 004e 80B2     		uxth	r0, r0
 276              	.LVL29:
 277              		.loc 1 15555 27 is_stmt 1 view .LVU78
 278              		.loc 1 15555 4 is_stmt 0 view .LVU79
 279 0050 F8E7     		b	.L19
 280              	.LVL30:
 281              	.L28:
 282              		.loc 1 15549 12 is_stmt 1 view .LVU80
 283              		.loc 1 15549 16 is_stmt 0 view .LVU81
 284 0052 1038     		subs	r0, r0, #16
 285              	.LVL31:
ARM GAS  /tmp/ccQDH7ho.s 			page 6


 286              		.loc 1 15549 16 view .LVU82
 287 0054 FBE7     		b	.L38
 288              	.LVL32:
 289              	.L27:
 290              		.loc 1 15550 12 is_stmt 1 view .LVU83
 291              		.loc 1 15550 16 is_stmt 0 view .LVU84
 292 0056 2038     		subs	r0, r0, #32
 293              	.LVL33:
 294              		.loc 1 15550 16 view .LVU85
 295 0058 F9E7     		b	.L38
 296              	.LVL34:
 297              	.L26:
 298              		.loc 1 15551 12 is_stmt 1 view .LVU86
 299              		.loc 1 15551 16 is_stmt 0 view .LVU87
 300 005a 3038     		subs	r0, r0, #48
 301              	.LVL35:
 302              		.loc 1 15551 16 view .LVU88
 303 005c F7E7     		b	.L38
 304              	.LVL36:
 305              	.L25:
 306              		.loc 1 15552 12 is_stmt 1 view .LVU89
 307              		.loc 1 15552 16 is_stmt 0 view .LVU90
 308 005e 1A38     		subs	r0, r0, #26
 309              	.LVL37:
 310              		.loc 1 15552 16 view .LVU91
 311 0060 F5E7     		b	.L38
 312              	.LVL38:
 313              	.L24:
 314              		.loc 1 15553 12 is_stmt 1 view .LVU92
 315              		.loc 1 15553 16 is_stmt 0 view .LVU93
 316 0062 0830     		adds	r0, r0, #8
 317              	.LVL39:
 318              		.loc 1 15553 16 view .LVU94
 319 0064 F3E7     		b	.L38
 320              	.LVL40:
 321              	.L23:
 322              		.loc 1 15554 12 is_stmt 1 view .LVU95
 323              		.loc 1 15554 16 is_stmt 0 view .LVU96
 324 0066 5038     		subs	r0, r0, #80
 325              	.LVL41:
 326              		.loc 1 15554 16 view .LVU97
 327 0068 F1E7     		b	.L38
 328              	.LVL42:
 329              	.L21:
 330              		.loc 1 15555 12 is_stmt 1 view .LVU98
 331              		.loc 1 15555 16 is_stmt 0 view .LVU99
 332 006a A0F5E350 		sub	r0, r0, #7264
 333              	.LVL43:
 334              		.loc 1 15555 16 view .LVU100
 335 006e EEE7     		b	.L38
 336              	.LVL44:
 337              	.L20:
 338              		.loc 1 15559 3 is_stmt 1 view .LVU101
 339              		.loc 1 15559 6 is_stmt 0 view .LVU102
 340 0070 0431     		adds	r1, r1, #4
 341              	.LVL45:
 342              		.loc 1 15559 6 view .LVU103
ARM GAS  /tmp/ccQDH7ho.s 			page 7


 343 0072 002D     		cmp	r5, #0
 344 0074 CCD1     		bne	.L31
 345              		.loc 1 15559 13 is_stmt 1 discriminator 1 view .LVU104
 346              		.loc 1 15559 15 is_stmt 0 discriminator 1 view .LVU105
 347 0076 02EB4603 		add	r3, r2, r6, lsl #1
 348              	.LVL46:
 349              		.loc 1 15559 15 discriminator 1 view .LVU106
 350 007a C8E7     		b	.L32
 351              	.L40:
 352              		.align	2
 353              	.L39:
 354 007c 00000000 		.word	.LANCHOR1
 355 0080 00000000 		.word	.LANCHOR2
 356              		.cfi_endproc
 357              	.LFE303:
 358              		.size	ff_wtoupper, .-ff_wtoupper
 359              		.section	.rodata.cvt1.1,"a"
 360              		.align	1
 361              		.set	.LANCHOR1,. + 0
 362              		.type	cvt1.1, %object
 363              		.size	cvt1.1, 498
 364              	cvt1.1:
 365 0000 6100     		.short	97
 366 0002 1A03     		.short	794
 367 0004 E000     		.short	224
 368 0006 1703     		.short	791
 369 0008 F800     		.short	248
 370 000a 0703     		.short	775
 371 000c FF00     		.short	255
 372 000e 0100     		.short	1
 373 0010 7801     		.short	376
 374 0012 0001     		.short	256
 375 0014 3001     		.short	304
 376 0016 3201     		.short	306
 377 0018 0601     		.short	262
 378 001a 3901     		.short	313
 379 001c 1001     		.short	272
 380 001e 4A01     		.short	330
 381 0020 2E01     		.short	302
 382 0022 7901     		.short	377
 383 0024 0601     		.short	262
 384 0026 8001     		.short	384
 385 0028 4D00     		.short	77
 386 002a 4302     		.short	579
 387 002c 8101     		.short	385
 388 002e 8201     		.short	386
 389 0030 8201     		.short	386
 390 0032 8401     		.short	388
 391 0034 8401     		.short	388
 392 0036 8601     		.short	390
 393 0038 8701     		.short	391
 394 003a 8701     		.short	391
 395 003c 8901     		.short	393
 396 003e 8A01     		.short	394
 397 0040 8B01     		.short	395
 398 0042 8B01     		.short	395
 399 0044 8D01     		.short	397
ARM GAS  /tmp/ccQDH7ho.s 			page 8


 400 0046 8E01     		.short	398
 401 0048 8F01     		.short	399
 402 004a 9001     		.short	400
 403 004c 9101     		.short	401
 404 004e 9101     		.short	401
 405 0050 9301     		.short	403
 406 0052 9401     		.short	404
 407 0054 F601     		.short	502
 408 0056 9601     		.short	406
 409 0058 9701     		.short	407
 410 005a 9801     		.short	408
 411 005c 9801     		.short	408
 412 005e 3D02     		.short	573
 413 0060 9B01     		.short	411
 414 0062 9C01     		.short	412
 415 0064 9D01     		.short	413
 416 0066 2002     		.short	544
 417 0068 9F01     		.short	415
 418 006a A001     		.short	416
 419 006c A001     		.short	416
 420 006e A201     		.short	418
 421 0070 A201     		.short	418
 422 0072 A401     		.short	420
 423 0074 A401     		.short	420
 424 0076 A601     		.short	422
 425 0078 A701     		.short	423
 426 007a A701     		.short	423
 427 007c A901     		.short	425
 428 007e AA01     		.short	426
 429 0080 AB01     		.short	427
 430 0082 AC01     		.short	428
 431 0084 AC01     		.short	428
 432 0086 AE01     		.short	430
 433 0088 AF01     		.short	431
 434 008a AF01     		.short	431
 435 008c B101     		.short	433
 436 008e B201     		.short	434
 437 0090 B301     		.short	435
 438 0092 B301     		.short	435
 439 0094 B501     		.short	437
 440 0096 B501     		.short	437
 441 0098 B701     		.short	439
 442 009a B801     		.short	440
 443 009c B801     		.short	440
 444 009e BA01     		.short	442
 445 00a0 BB01     		.short	443
 446 00a2 BC01     		.short	444
 447 00a4 BC01     		.short	444
 448 00a6 BE01     		.short	446
 449 00a8 F701     		.short	503
 450 00aa C001     		.short	448
 451 00ac C101     		.short	449
 452 00ae C201     		.short	450
 453 00b0 C301     		.short	451
 454 00b2 C401     		.short	452
 455 00b4 C501     		.short	453
 456 00b6 C401     		.short	452
ARM GAS  /tmp/ccQDH7ho.s 			page 9


 457 00b8 C701     		.short	455
 458 00ba C801     		.short	456
 459 00bc C701     		.short	455
 460 00be CA01     		.short	458
 461 00c0 CB01     		.short	459
 462 00c2 CA01     		.short	458
 463 00c4 CD01     		.short	461
 464 00c6 1001     		.short	272
 465 00c8 DD01     		.short	477
 466 00ca 0100     		.short	1
 467 00cc 8E01     		.short	398
 468 00ce DE01     		.short	478
 469 00d0 1201     		.short	274
 470 00d2 F301     		.short	499
 471 00d4 0300     		.short	3
 472 00d6 F101     		.short	497
 473 00d8 F401     		.short	500
 474 00da F401     		.short	500
 475 00dc F801     		.short	504
 476 00de 2801     		.short	296
 477 00e0 2202     		.short	546
 478 00e2 1201     		.short	274
 479 00e4 3A02     		.short	570
 480 00e6 0900     		.short	9
 481 00e8 652C     		.short	11365
 482 00ea 3B02     		.short	571
 483 00ec 3B02     		.short	571
 484 00ee 3D02     		.short	573
 485 00f0 662C     		.short	11366
 486 00f2 3F02     		.short	575
 487 00f4 4002     		.short	576
 488 00f6 4102     		.short	577
 489 00f8 4102     		.short	577
 490 00fa 4602     		.short	582
 491 00fc 0A01     		.short	266
 492 00fe 5302     		.short	595
 493 0100 4000     		.short	64
 494 0102 8101     		.short	385
 495 0104 8601     		.short	390
 496 0106 5502     		.short	597
 497 0108 8901     		.short	393
 498 010a 8A01     		.short	394
 499 010c 5802     		.short	600
 500 010e 8F01     		.short	399
 501 0110 5A02     		.short	602
 502 0112 9001     		.short	400
 503 0114 5C02     		.short	604
 504 0116 5D02     		.short	605
 505 0118 5E02     		.short	606
 506 011a 5F02     		.short	607
 507 011c 9301     		.short	403
 508 011e 6102     		.short	609
 509 0120 6202     		.short	610
 510 0122 9401     		.short	404
 511 0124 6402     		.short	612
 512 0126 6502     		.short	613
 513 0128 6602     		.short	614
ARM GAS  /tmp/ccQDH7ho.s 			page 10


 514 012a 6702     		.short	615
 515 012c 9701     		.short	407
 516 012e 9601     		.short	406
 517 0130 6A02     		.short	618
 518 0132 622C     		.short	11362
 519 0134 6C02     		.short	620
 520 0136 6D02     		.short	621
 521 0138 6E02     		.short	622
 522 013a 9C01     		.short	412
 523 013c 7002     		.short	624
 524 013e 7102     		.short	625
 525 0140 9D01     		.short	413
 526 0142 7302     		.short	627
 527 0144 7402     		.short	628
 528 0146 9F01     		.short	415
 529 0148 7602     		.short	630
 530 014a 7702     		.short	631
 531 014c 7802     		.short	632
 532 014e 7902     		.short	633
 533 0150 7A02     		.short	634
 534 0152 7B02     		.short	635
 535 0154 7C02     		.short	636
 536 0156 642C     		.short	11364
 537 0158 7E02     		.short	638
 538 015a 7F02     		.short	639
 539 015c A601     		.short	422
 540 015e 8102     		.short	641
 541 0160 8202     		.short	642
 542 0162 A901     		.short	425
 543 0164 8402     		.short	644
 544 0166 8502     		.short	645
 545 0168 8602     		.short	646
 546 016a 8702     		.short	647
 547 016c AE01     		.short	430
 548 016e 4402     		.short	580
 549 0170 B101     		.short	433
 550 0172 B201     		.short	434
 551 0174 4502     		.short	581
 552 0176 8D02     		.short	653
 553 0178 8E02     		.short	654
 554 017a 8F02     		.short	655
 555 017c 9002     		.short	656
 556 017e 9102     		.short	657
 557 0180 B701     		.short	439
 558 0182 7B03     		.short	891
 559 0184 0300     		.short	3
 560 0186 FD03     		.short	1021
 561 0188 FE03     		.short	1022
 562 018a FF03     		.short	1023
 563 018c AC03     		.short	940
 564 018e 0400     		.short	4
 565 0190 8603     		.short	902
 566 0192 8803     		.short	904
 567 0194 8903     		.short	905
 568 0196 8A03     		.short	906
 569 0198 B103     		.short	945
 570 019a 1103     		.short	785
ARM GAS  /tmp/ccQDH7ho.s 			page 11


 571 019c C203     		.short	962
 572 019e 0200     		.short	2
 573 01a0 A303     		.short	931
 574 01a2 A303     		.short	931
 575 01a4 C403     		.short	964
 576 01a6 0803     		.short	776
 577 01a8 CC03     		.short	972
 578 01aa 0300     		.short	3
 579 01ac 8C03     		.short	908
 580 01ae 8E03     		.short	910
 581 01b0 8F03     		.short	911
 582 01b2 D803     		.short	984
 583 01b4 1801     		.short	280
 584 01b6 F203     		.short	1010
 585 01b8 0A00     		.short	10
 586 01ba F903     		.short	1017
 587 01bc F303     		.short	1011
 588 01be F403     		.short	1012
 589 01c0 F503     		.short	1013
 590 01c2 F603     		.short	1014
 591 01c4 F703     		.short	1015
 592 01c6 F703     		.short	1015
 593 01c8 F903     		.short	1017
 594 01ca FA03     		.short	1018
 595 01cc FA03     		.short	1018
 596 01ce 3004     		.short	1072
 597 01d0 2003     		.short	800
 598 01d2 5004     		.short	1104
 599 01d4 1007     		.short	1808
 600 01d6 6004     		.short	1120
 601 01d8 2201     		.short	290
 602 01da 8A04     		.short	1162
 603 01dc 3601     		.short	310
 604 01de C104     		.short	1217
 605 01e0 0E01     		.short	270
 606 01e2 CF04     		.short	1231
 607 01e4 0100     		.short	1
 608 01e6 C004     		.short	1216
 609 01e8 D004     		.short	1232
 610 01ea 4401     		.short	324
 611 01ec 6105     		.short	1377
 612 01ee 2604     		.short	1062
 613 01f0 0000     		.short	0
 614              		.section	.rodata.cvt2.0,"a"
 615              		.align	1
 616              		.set	.LANCHOR2,. + 0
 617              		.type	cvt2.0, %object
 618              		.size	cvt2.0, 188
 619              	cvt2.0:
 620 0000 7D1D     		.short	7549
 621 0002 0100     		.short	1
 622 0004 632C     		.short	11363
 623 0006 001E     		.short	7680
 624 0008 9601     		.short	406
 625 000a A01E     		.short	7840
 626 000c 5A01     		.short	346
 627 000e 001F     		.short	7936
ARM GAS  /tmp/ccQDH7ho.s 			page 12


 628 0010 0806     		.short	1544
 629 0012 101F     		.short	7952
 630 0014 0606     		.short	1542
 631 0016 201F     		.short	7968
 632 0018 0806     		.short	1544
 633 001a 301F     		.short	7984
 634 001c 0806     		.short	1544
 635 001e 401F     		.short	8000
 636 0020 0606     		.short	1542
 637 0022 511F     		.short	8017
 638 0024 0700     		.short	7
 639 0026 591F     		.short	8025
 640 0028 521F     		.short	8018
 641 002a 5B1F     		.short	8027
 642 002c 541F     		.short	8020
 643 002e 5D1F     		.short	8029
 644 0030 561F     		.short	8022
 645 0032 5F1F     		.short	8031
 646 0034 601F     		.short	8032
 647 0036 0806     		.short	1544
 648 0038 701F     		.short	8048
 649 003a 0E00     		.short	14
 650 003c BA1F     		.short	8122
 651 003e BB1F     		.short	8123
 652 0040 C81F     		.short	8136
 653 0042 C91F     		.short	8137
 654 0044 CA1F     		.short	8138
 655 0046 CB1F     		.short	8139
 656 0048 DA1F     		.short	8154
 657 004a DB1F     		.short	8155
 658 004c F81F     		.short	8184
 659 004e F91F     		.short	8185
 660 0050 EA1F     		.short	8170
 661 0052 EB1F     		.short	8171
 662 0054 FA1F     		.short	8186
 663 0056 FB1F     		.short	8187
 664 0058 801F     		.short	8064
 665 005a 0806     		.short	1544
 666 005c 901F     		.short	8080
 667 005e 0806     		.short	1544
 668 0060 A01F     		.short	8096
 669 0062 0806     		.short	1544
 670 0064 B01F     		.short	8112
 671 0066 0400     		.short	4
 672 0068 B81F     		.short	8120
 673 006a B91F     		.short	8121
 674 006c B21F     		.short	8114
 675 006e BC1F     		.short	8124
 676 0070 CC1F     		.short	8140
 677 0072 0100     		.short	1
 678 0074 C31F     		.short	8131
 679 0076 D01F     		.short	8144
 680 0078 0206     		.short	1538
 681 007a E01F     		.short	8160
 682 007c 0206     		.short	1538
 683 007e E51F     		.short	8165
 684 0080 0100     		.short	1
ARM GAS  /tmp/ccQDH7ho.s 			page 13


 685 0082 EC1F     		.short	8172
 686 0084 F31F     		.short	8179
 687 0086 0100     		.short	1
 688 0088 FC1F     		.short	8188
 689 008a 4E21     		.short	8526
 690 008c 0100     		.short	1
 691 008e 3221     		.short	8498
 692 0090 7021     		.short	8560
 693 0092 1002     		.short	528
 694 0094 8421     		.short	8580
 695 0096 0100     		.short	1
 696 0098 8321     		.short	8579
 697 009a D024     		.short	9424
 698 009c 1A05     		.short	1306
 699 009e 302C     		.short	11312
 700 00a0 2F04     		.short	1071
 701 00a2 602C     		.short	11360
 702 00a4 0201     		.short	258
 703 00a6 672C     		.short	11367
 704 00a8 0601     		.short	262
 705 00aa 752C     		.short	11381
 706 00ac 0201     		.short	258
 707 00ae 802C     		.short	11392
 708 00b0 6401     		.short	356
 709 00b2 002D     		.short	11520
 710 00b4 2608     		.short	2086
 711 00b6 41FF     		.short	-191
 712 00b8 1A03     		.short	794
 713 00ba 0000     		.short	0
 714              		.section	.rodata.uc850,"a"
 715              		.align	1
 716              		.set	.LANCHOR0,. + 0
 717              		.type	uc850, %object
 718              		.size	uc850, 256
 719              	uc850:
 720 0000 C700     		.short	199
 721 0002 FC00     		.short	252
 722 0004 E900     		.short	233
 723 0006 E200     		.short	226
 724 0008 E400     		.short	228
 725 000a E000     		.short	224
 726 000c E500     		.short	229
 727 000e E700     		.short	231
 728 0010 EA00     		.short	234
 729 0012 EB00     		.short	235
 730 0014 E800     		.short	232
 731 0016 EF00     		.short	239
 732 0018 EE00     		.short	238
 733 001a EC00     		.short	236
 734 001c C400     		.short	196
 735 001e C500     		.short	197
 736 0020 C900     		.short	201
 737 0022 E600     		.short	230
 738 0024 C600     		.short	198
 739 0026 F400     		.short	244
 740 0028 F600     		.short	246
 741 002a F200     		.short	242
ARM GAS  /tmp/ccQDH7ho.s 			page 14


 742 002c FB00     		.short	251
 743 002e F900     		.short	249
 744 0030 FF00     		.short	255
 745 0032 D600     		.short	214
 746 0034 DC00     		.short	220
 747 0036 F800     		.short	248
 748 0038 A300     		.short	163
 749 003a D800     		.short	216
 750 003c D700     		.short	215
 751 003e 9201     		.short	402
 752 0040 E100     		.short	225
 753 0042 ED00     		.short	237
 754 0044 F300     		.short	243
 755 0046 FA00     		.short	250
 756 0048 F100     		.short	241
 757 004a D100     		.short	209
 758 004c AA00     		.short	170
 759 004e BA00     		.short	186
 760 0050 BF00     		.short	191
 761 0052 AE00     		.short	174
 762 0054 AC00     		.short	172
 763 0056 BD00     		.short	189
 764 0058 BC00     		.short	188
 765 005a A100     		.short	161
 766 005c AB00     		.short	171
 767 005e BB00     		.short	187
 768 0060 9125     		.short	9617
 769 0062 9225     		.short	9618
 770 0064 9325     		.short	9619
 771 0066 0225     		.short	9474
 772 0068 2425     		.short	9508
 773 006a C100     		.short	193
 774 006c C200     		.short	194
 775 006e C000     		.short	192
 776 0070 A900     		.short	169
 777 0072 6325     		.short	9571
 778 0074 5125     		.short	9553
 779 0076 5725     		.short	9559
 780 0078 5D25     		.short	9565
 781 007a A200     		.short	162
 782 007c A500     		.short	165
 783 007e 1025     		.short	9488
 784 0080 1425     		.short	9492
 785 0082 3425     		.short	9524
 786 0084 2C25     		.short	9516
 787 0086 1C25     		.short	9500
 788 0088 0025     		.short	9472
 789 008a 3C25     		.short	9532
 790 008c E300     		.short	227
 791 008e C300     		.short	195
 792 0090 5A25     		.short	9562
 793 0092 5425     		.short	9556
 794 0094 6925     		.short	9577
 795 0096 6625     		.short	9574
 796 0098 6025     		.short	9568
 797 009a 5025     		.short	9552
 798 009c 6C25     		.short	9580
ARM GAS  /tmp/ccQDH7ho.s 			page 15


 799 009e A400     		.short	164
 800 00a0 F000     		.short	240
 801 00a2 D000     		.short	208
 802 00a4 CA00     		.short	202
 803 00a6 CB00     		.short	203
 804 00a8 C800     		.short	200
 805 00aa 3101     		.short	305
 806 00ac CD00     		.short	205
 807 00ae CE00     		.short	206
 808 00b0 CF00     		.short	207
 809 00b2 1825     		.short	9496
 810 00b4 0C25     		.short	9484
 811 00b6 8825     		.short	9608
 812 00b8 8425     		.short	9604
 813 00ba A600     		.short	166
 814 00bc CC00     		.short	204
 815 00be 8025     		.short	9600
 816 00c0 D300     		.short	211
 817 00c2 DF00     		.short	223
 818 00c4 D400     		.short	212
 819 00c6 D200     		.short	210
 820 00c8 F500     		.short	245
 821 00ca D500     		.short	213
 822 00cc B500     		.short	181
 823 00ce FE00     		.short	254
 824 00d0 DE00     		.short	222
 825 00d2 DA00     		.short	218
 826 00d4 DB00     		.short	219
 827 00d6 D900     		.short	217
 828 00d8 FD00     		.short	253
 829 00da DD00     		.short	221
 830 00dc AF00     		.short	175
 831 00de B400     		.short	180
 832 00e0 AD00     		.short	173
 833 00e2 B100     		.short	177
 834 00e4 1720     		.short	8215
 835 00e6 BE00     		.short	190
 836 00e8 B600     		.short	182
 837 00ea A700     		.short	167
 838 00ec F700     		.short	247
 839 00ee B800     		.short	184
 840 00f0 B000     		.short	176
 841 00f2 A800     		.short	168
 842 00f4 B700     		.short	183
 843 00f6 B900     		.short	185
 844 00f8 B300     		.short	179
 845 00fa B200     		.short	178
 846 00fc A025     		.short	9632
 847 00fe A000     		.short	160
 848              		.text
 849              	.Letext0:
 850              		.file 2 "../../modules/ChibiOS/ext/fatfs/src/integer.h"
 851              		.section	.debug_info,"",%progbits
 852              	.Ldebug_info0:
 853 0000 63020000 		.4byte	0x263
 854 0004 0400     		.2byte	0x4
 855 0006 00000000 		.4byte	.Ldebug_abbrev0
ARM GAS  /tmp/ccQDH7ho.s 			page 16


 856 000a 04       		.byte	0x4
 857 000b 01       		.uleb128 0x1
 858 000c 01010000 		.4byte	.LASF19
 859 0010 0C       		.byte	0xc
 860 0011 66000000 		.4byte	.LASF20
 861 0015 A3000000 		.4byte	.LASF21
 862 0019 00000000 		.4byte	.Ldebug_ranges0+0
 863 001d 00000000 		.4byte	0
 864 0021 00000000 		.4byte	.Ldebug_line0
 865 0025 02       		.uleb128 0x2
 866 0026 04       		.byte	0x4
 867 0027 05       		.byte	0x5
 868 0028 696E7400 		.ascii	"int\000"
 869 002c 03       		.uleb128 0x3
 870 002d 04       		.byte	0x4
 871 002e 07       		.byte	0x7
 872 002f 96000000 		.4byte	.LASF0
 873 0033 03       		.uleb128 0x3
 874 0034 01       		.byte	0x1
 875 0035 08       		.byte	0x8
 876 0036 33000000 		.4byte	.LASF1
 877 003a 03       		.uleb128 0x3
 878 003b 02       		.byte	0x2
 879 003c 05       		.byte	0x5
 880 003d 03020000 		.4byte	.LASF2
 881 0041 04       		.uleb128 0x4
 882 0042 06000000 		.4byte	.LASF4
 883 0046 02       		.byte	0x2
 884 0047 1A       		.byte	0x1a
 885 0048 18       		.byte	0x18
 886 0049 4D000000 		.4byte	0x4d
 887 004d 03       		.uleb128 0x3
 888 004e 02       		.byte	0x2
 889 004f 07       		.byte	0x7
 890 0050 53000000 		.4byte	.LASF3
 891 0054 04       		.uleb128 0x4
 892 0055 16000000 		.4byte	.LASF5
 893 0059 02       		.byte	0x2
 894 005a 1B       		.byte	0x1b
 895 005b 18       		.byte	0x18
 896 005c 4D000000 		.4byte	0x4d
 897 0060 05       		.uleb128 0x5
 898 0061 54000000 		.4byte	0x54
 899 0065 03       		.uleb128 0x3
 900 0066 04       		.byte	0x4
 901 0067 05       		.byte	0x5
 902 0068 0D020000 		.4byte	.LASF6
 903 006c 03       		.uleb128 0x3
 904 006d 04       		.byte	0x4
 905 006e 07       		.byte	0x7
 906 006f 41000000 		.4byte	.LASF7
 907 0073 03       		.uleb128 0x3
 908 0074 08       		.byte	0x8
 909 0075 07       		.byte	0x7
 910 0076 1C000000 		.4byte	.LASF8
 911 007a 03       		.uleb128 0x3
 912 007b 08       		.byte	0x8
ARM GAS  /tmp/ccQDH7ho.s 			page 17


 913 007c 05       		.byte	0x5
 914 007d F3000000 		.4byte	.LASF9
 915 0081 03       		.uleb128 0x3
 916 0082 08       		.byte	0x8
 917 0083 04       		.byte	0x4
 918 0084 16020000 		.4byte	.LASF10
 919 0088 03       		.uleb128 0x3
 920 0089 01       		.byte	0x1
 921 008a 06       		.byte	0x6
 922 008b 22020000 		.4byte	.LASF11
 923 008f 03       		.uleb128 0x3
 924 0090 01       		.byte	0x1
 925 0091 08       		.byte	0x8
 926 0092 D7000000 		.4byte	.LASF12
 927 0096 03       		.uleb128 0x3
 928 0097 01       		.byte	0x1
 929 0098 02       		.byte	0x2
 930 0099 2E020000 		.4byte	.LASF13
 931 009d 06       		.uleb128 0x6
 932 009e 60000000 		.4byte	0x60
 933 00a2 AD000000 		.4byte	0xad
 934 00a6 07       		.uleb128 0x7
 935 00a7 2C000000 		.4byte	0x2c
 936 00ab 7F       		.byte	0x7f
 937 00ac 00       		.byte	0
 938 00ad 05       		.uleb128 0x5
 939 00ae 9D000000 		.4byte	0x9d
 940 00b2 08       		.uleb128 0x8
 941 00b3 00000000 		.4byte	.LASF14
 942 00b7 01       		.byte	0x1
 943 00b8 EB3A     		.2byte	0x3aeb
 944 00ba 0D       		.byte	0xd
 945 00bb AD000000 		.4byte	0xad
 946 00bf 05       		.uleb128 0x5
 947 00c0 03       		.byte	0x3
 948 00c1 00000000 		.4byte	uc850
 949 00c5 09       		.uleb128 0x9
 950 00c6 DC000000 		.4byte	.LASF17
 951 00ca 01       		.byte	0x1
 952 00cb 773C     		.2byte	0x3c77
 953 00cd 07       		.byte	0x7
 954 00ce 54000000 		.4byte	0x54
 955 00d2 00000000 		.4byte	.LFB303
 956 00d6 84000000 		.4byte	.LFE303-.LFB303
 957 00da 01       		.uleb128 0x1
 958 00db 9C       		.byte	0x9c
 959 00dc 6C010000 		.4byte	0x16c
 960 00e0 0A       		.uleb128 0xa
 961 00e1 756E6900 		.ascii	"uni\000"
 962 00e5 01       		.byte	0x1
 963 00e6 783C     		.2byte	0x3c78
 964 00e8 08       		.byte	0x8
 965 00e9 54000000 		.4byte	0x54
 966 00ed 26000000 		.4byte	.LLST5
 967 00f1 00000000 		.4byte	.LVUS5
 968 00f5 08       		.uleb128 0x8
 969 00f6 34020000 		.4byte	.LASF15
ARM GAS  /tmp/ccQDH7ho.s 			page 18


 970 00fa 01       		.byte	0x1
 971 00fb 7C3C     		.2byte	0x3c7c
 972 00fd 15       		.byte	0x15
 973 00fe 7C010000 		.4byte	0x17c
 974 0102 05       		.uleb128 0x5
 975 0103 03       		.byte	0x3
 976 0104 00000000 		.4byte	cvt1.1
 977 0108 08       		.uleb128 0x8
 978 0109 39020000 		.4byte	.LASF16
 979 010d 01       		.byte	0x1
 980 010e 943C     		.2byte	0x3c94
 981 0110 15       		.byte	0x15
 982 0111 91010000 		.4byte	0x191
 983 0115 05       		.uleb128 0x5
 984 0116 03       		.byte	0x3
 985 0117 00000000 		.4byte	cvt2.0
 986 011b 0B       		.uleb128 0xb
 987 011c 7000     		.ascii	"p\000"
 988 011e 01       		.byte	0x1
 989 011f B03C     		.2byte	0x3cb0
 990 0121 0F       		.byte	0xf
 991 0122 96010000 		.4byte	0x196
 992 0126 26010000 		.4byte	.LLST6
 993 012a 1A010000 		.4byte	.LVUS6
 994 012e 0B       		.uleb128 0xb
 995 012f 626300   		.ascii	"bc\000"
 996 0132 01       		.byte	0x1
 997 0133 B13C     		.2byte	0x3cb1
 998 0135 08       		.byte	0x8
 999 0136 54000000 		.4byte	0x54
 1000 013a 80010000 		.4byte	.LLST7
 1001 013e 74010000 		.4byte	.LVUS7
 1002 0142 0B       		.uleb128 0xb
 1003 0143 6E6300   		.ascii	"nc\000"
 1004 0146 01       		.byte	0x1
 1005 0147 B13C     		.2byte	0x3cb1
 1006 0149 0C       		.byte	0xc
 1007 014a 54000000 		.4byte	0x54
 1008 014e D3010000 		.4byte	.LLST8
 1009 0152 CD010000 		.4byte	.LVUS8
 1010 0156 0B       		.uleb128 0xb
 1011 0157 636D6400 		.ascii	"cmd\000"
 1012 015b 01       		.byte	0x1
 1013 015c B13C     		.2byte	0x3cb1
 1014 015e 10       		.byte	0x10
 1015 015f 54000000 		.4byte	0x54
 1016 0163 00020000 		.4byte	.LLST9
 1017 0167 FC010000 		.4byte	.LVUS9
 1018 016b 00       		.byte	0
 1019 016c 06       		.uleb128 0x6
 1020 016d 60000000 		.4byte	0x60
 1021 0171 7C010000 		.4byte	0x17c
 1022 0175 07       		.uleb128 0x7
 1023 0176 2C000000 		.4byte	0x2c
 1024 017a F8       		.byte	0xf8
 1025 017b 00       		.byte	0
 1026 017c 05       		.uleb128 0x5
ARM GAS  /tmp/ccQDH7ho.s 			page 19


 1027 017d 6C010000 		.4byte	0x16c
 1028 0181 06       		.uleb128 0x6
 1029 0182 60000000 		.4byte	0x60
 1030 0186 91010000 		.4byte	0x191
 1031 018a 07       		.uleb128 0x7
 1032 018b 2C000000 		.4byte	0x2c
 1033 018f 5D       		.byte	0x5d
 1034 0190 00       		.byte	0
 1035 0191 05       		.uleb128 0x5
 1036 0192 81010000 		.4byte	0x181
 1037 0196 0C       		.uleb128 0xc
 1038 0197 04       		.byte	0x4
 1039 0198 60000000 		.4byte	0x60
 1040 019c 09       		.uleb128 0x9
 1041 019d 0B000000 		.4byte	.LASF18
 1042 01a1 01       		.byte	0x1
 1043 01a2 A43B     		.2byte	0x3ba4
 1044 01a4 07       		.byte	0x7
 1045 01a5 54000000 		.4byte	0x54
 1046 01a9 00000000 		.4byte	.LFB302
 1047 01ad 28000000 		.4byte	.LFE302-.LFB302
 1048 01b1 01       		.uleb128 0x1
 1049 01b2 9C       		.byte	0x9c
 1050 01b3 00020000 		.4byte	0x200
 1051 01b7 0A       		.uleb128 0xa
 1052 01b8 6F656D00 		.ascii	"oem\000"
 1053 01bc 01       		.byte	0x1
 1054 01bd A53B     		.2byte	0x3ba5
 1055 01bf 08       		.byte	0x8
 1056 01c0 54000000 		.4byte	0x54
 1057 01c4 26020000 		.4byte	.LLST3
 1058 01c8 1E020000 		.4byte	.LVUS3
 1059 01cc 0D       		.uleb128 0xd
 1060 01cd 637000   		.ascii	"cp\000"
 1061 01d0 01       		.byte	0x1
 1062 01d1 A63B     		.2byte	0x3ba6
 1063 01d3 07       		.byte	0x7
 1064 01d4 41000000 		.4byte	0x41
 1065 01d8 01       		.uleb128 0x1
 1066 01d9 51       		.byte	0x51
 1067 01da 0B       		.uleb128 0xb
 1068 01db 6300     		.ascii	"c\000"
 1069 01dd 01       		.byte	0x1
 1070 01de A93B     		.2byte	0x3ba9
 1071 01e0 08       		.byte	0x8
 1072 01e1 54000000 		.4byte	0x54
 1073 01e5 68020000 		.4byte	.LLST4
 1074 01e9 60020000 		.4byte	.LVUS4
 1075 01ed 0E       		.uleb128 0xe
 1076 01ee 7000     		.ascii	"p\000"
 1077 01f0 01       		.byte	0x1
 1078 01f1 AA3B     		.2byte	0x3baa
 1079 01f3 0F       		.byte	0xf
 1080 01f4 96010000 		.4byte	0x196
 1081 01f8 06       		.uleb128 0x6
 1082 01f9 03       		.byte	0x3
 1083 01fa 00000000 		.4byte	uc850
ARM GAS  /tmp/ccQDH7ho.s 			page 20


 1084 01fe 9F       		.byte	0x9f
 1085 01ff 00       		.byte	0
 1086 0200 0F       		.uleb128 0xf
 1087 0201 E8000000 		.4byte	.LASF22
 1088 0205 01       		.byte	0x1
 1089 0206 8F3B     		.2byte	0x3b8f
 1090 0208 07       		.byte	0x7
 1091 0209 54000000 		.4byte	0x54
 1092 020d 00000000 		.4byte	.LFB301
 1093 0211 38000000 		.4byte	.LFE301-.LFB301
 1094 0215 01       		.uleb128 0x1
 1095 0216 9C       		.byte	0x9c
 1096 0217 0A       		.uleb128 0xa
 1097 0218 756E6900 		.ascii	"uni\000"
 1098 021c 01       		.byte	0x1
 1099 021d 903B     		.2byte	0x3b90
 1100 021f 08       		.byte	0x8
 1101 0220 54000000 		.4byte	0x54
 1102 0224 A6020000 		.4byte	.LLST0
 1103 0228 9E020000 		.4byte	.LVUS0
 1104 022c 0A       		.uleb128 0xa
 1105 022d 637000   		.ascii	"cp\000"
 1106 0230 01       		.byte	0x1
 1107 0231 913B     		.2byte	0x3b91
 1108 0233 07       		.byte	0x7
 1109 0234 41000000 		.4byte	0x41
 1110 0238 E6020000 		.4byte	.LLST1
 1111 023c E0020000 		.4byte	.LVUS1
 1112 0240 0B       		.uleb128 0xb
 1113 0241 6300     		.ascii	"c\000"
 1114 0243 01       		.byte	0x1
 1115 0244 943B     		.2byte	0x3b94
 1116 0246 08       		.byte	0x8
 1117 0247 54000000 		.4byte	0x54
 1118 024b 20030000 		.4byte	.LLST2
 1119 024f 12030000 		.4byte	.LVUS2
 1120 0253 0E       		.uleb128 0xe
 1121 0254 7000     		.ascii	"p\000"
 1122 0256 01       		.byte	0x1
 1123 0257 953B     		.2byte	0x3b95
 1124 0259 0F       		.byte	0xf
 1125 025a 96010000 		.4byte	0x196
 1126 025e 06       		.uleb128 0x6
 1127 025f 03       		.byte	0x3
 1128 0260 00000000 		.4byte	uc850
 1129 0264 9F       		.byte	0x9f
 1130 0265 00       		.byte	0
 1131 0266 00       		.byte	0
 1132              		.section	.debug_abbrev,"",%progbits
 1133              	.Ldebug_abbrev0:
 1134 0000 01       		.uleb128 0x1
 1135 0001 11       		.uleb128 0x11
 1136 0002 01       		.byte	0x1
 1137 0003 25       		.uleb128 0x25
 1138 0004 0E       		.uleb128 0xe
 1139 0005 13       		.uleb128 0x13
 1140 0006 0B       		.uleb128 0xb
ARM GAS  /tmp/ccQDH7ho.s 			page 21


 1141 0007 03       		.uleb128 0x3
 1142 0008 0E       		.uleb128 0xe
 1143 0009 1B       		.uleb128 0x1b
 1144 000a 0E       		.uleb128 0xe
 1145 000b 55       		.uleb128 0x55
 1146 000c 17       		.uleb128 0x17
 1147 000d 11       		.uleb128 0x11
 1148 000e 01       		.uleb128 0x1
 1149 000f 10       		.uleb128 0x10
 1150 0010 17       		.uleb128 0x17
 1151 0011 00       		.byte	0
 1152 0012 00       		.byte	0
 1153 0013 02       		.uleb128 0x2
 1154 0014 24       		.uleb128 0x24
 1155 0015 00       		.byte	0
 1156 0016 0B       		.uleb128 0xb
 1157 0017 0B       		.uleb128 0xb
 1158 0018 3E       		.uleb128 0x3e
 1159 0019 0B       		.uleb128 0xb
 1160 001a 03       		.uleb128 0x3
 1161 001b 08       		.uleb128 0x8
 1162 001c 00       		.byte	0
 1163 001d 00       		.byte	0
 1164 001e 03       		.uleb128 0x3
 1165 001f 24       		.uleb128 0x24
 1166 0020 00       		.byte	0
 1167 0021 0B       		.uleb128 0xb
 1168 0022 0B       		.uleb128 0xb
 1169 0023 3E       		.uleb128 0x3e
 1170 0024 0B       		.uleb128 0xb
 1171 0025 03       		.uleb128 0x3
 1172 0026 0E       		.uleb128 0xe
 1173 0027 00       		.byte	0
 1174 0028 00       		.byte	0
 1175 0029 04       		.uleb128 0x4
 1176 002a 16       		.uleb128 0x16
 1177 002b 00       		.byte	0
 1178 002c 03       		.uleb128 0x3
 1179 002d 0E       		.uleb128 0xe
 1180 002e 3A       		.uleb128 0x3a
 1181 002f 0B       		.uleb128 0xb
 1182 0030 3B       		.uleb128 0x3b
 1183 0031 0B       		.uleb128 0xb
 1184 0032 39       		.uleb128 0x39
 1185 0033 0B       		.uleb128 0xb
 1186 0034 49       		.uleb128 0x49
 1187 0035 13       		.uleb128 0x13
 1188 0036 00       		.byte	0
 1189 0037 00       		.byte	0
 1190 0038 05       		.uleb128 0x5
 1191 0039 26       		.uleb128 0x26
 1192 003a 00       		.byte	0
 1193 003b 49       		.uleb128 0x49
 1194 003c 13       		.uleb128 0x13
 1195 003d 00       		.byte	0
 1196 003e 00       		.byte	0
 1197 003f 06       		.uleb128 0x6
ARM GAS  /tmp/ccQDH7ho.s 			page 22


 1198 0040 01       		.uleb128 0x1
 1199 0041 01       		.byte	0x1
 1200 0042 49       		.uleb128 0x49
 1201 0043 13       		.uleb128 0x13
 1202 0044 01       		.uleb128 0x1
 1203 0045 13       		.uleb128 0x13
 1204 0046 00       		.byte	0
 1205 0047 00       		.byte	0
 1206 0048 07       		.uleb128 0x7
 1207 0049 21       		.uleb128 0x21
 1208 004a 00       		.byte	0
 1209 004b 49       		.uleb128 0x49
 1210 004c 13       		.uleb128 0x13
 1211 004d 2F       		.uleb128 0x2f
 1212 004e 0B       		.uleb128 0xb
 1213 004f 00       		.byte	0
 1214 0050 00       		.byte	0
 1215 0051 08       		.uleb128 0x8
 1216 0052 34       		.uleb128 0x34
 1217 0053 00       		.byte	0
 1218 0054 03       		.uleb128 0x3
 1219 0055 0E       		.uleb128 0xe
 1220 0056 3A       		.uleb128 0x3a
 1221 0057 0B       		.uleb128 0xb
 1222 0058 3B       		.uleb128 0x3b
 1223 0059 05       		.uleb128 0x5
 1224 005a 39       		.uleb128 0x39
 1225 005b 0B       		.uleb128 0xb
 1226 005c 49       		.uleb128 0x49
 1227 005d 13       		.uleb128 0x13
 1228 005e 02       		.uleb128 0x2
 1229 005f 18       		.uleb128 0x18
 1230 0060 00       		.byte	0
 1231 0061 00       		.byte	0
 1232 0062 09       		.uleb128 0x9
 1233 0063 2E       		.uleb128 0x2e
 1234 0064 01       		.byte	0x1
 1235 0065 3F       		.uleb128 0x3f
 1236 0066 19       		.uleb128 0x19
 1237 0067 03       		.uleb128 0x3
 1238 0068 0E       		.uleb128 0xe
 1239 0069 3A       		.uleb128 0x3a
 1240 006a 0B       		.uleb128 0xb
 1241 006b 3B       		.uleb128 0x3b
 1242 006c 05       		.uleb128 0x5
 1243 006d 39       		.uleb128 0x39
 1244 006e 0B       		.uleb128 0xb
 1245 006f 27       		.uleb128 0x27
 1246 0070 19       		.uleb128 0x19
 1247 0071 49       		.uleb128 0x49
 1248 0072 13       		.uleb128 0x13
 1249 0073 11       		.uleb128 0x11
 1250 0074 01       		.uleb128 0x1
 1251 0075 12       		.uleb128 0x12
 1252 0076 06       		.uleb128 0x6
 1253 0077 40       		.uleb128 0x40
 1254 0078 18       		.uleb128 0x18
ARM GAS  /tmp/ccQDH7ho.s 			page 23


 1255 0079 9742     		.uleb128 0x2117
 1256 007b 19       		.uleb128 0x19
 1257 007c 01       		.uleb128 0x1
 1258 007d 13       		.uleb128 0x13
 1259 007e 00       		.byte	0
 1260 007f 00       		.byte	0
 1261 0080 0A       		.uleb128 0xa
 1262 0081 05       		.uleb128 0x5
 1263 0082 00       		.byte	0
 1264 0083 03       		.uleb128 0x3
 1265 0084 08       		.uleb128 0x8
 1266 0085 3A       		.uleb128 0x3a
 1267 0086 0B       		.uleb128 0xb
 1268 0087 3B       		.uleb128 0x3b
 1269 0088 05       		.uleb128 0x5
 1270 0089 39       		.uleb128 0x39
 1271 008a 0B       		.uleb128 0xb
 1272 008b 49       		.uleb128 0x49
 1273 008c 13       		.uleb128 0x13
 1274 008d 02       		.uleb128 0x2
 1275 008e 17       		.uleb128 0x17
 1276 008f B742     		.uleb128 0x2137
 1277 0091 17       		.uleb128 0x17
 1278 0092 00       		.byte	0
 1279 0093 00       		.byte	0
 1280 0094 0B       		.uleb128 0xb
 1281 0095 34       		.uleb128 0x34
 1282 0096 00       		.byte	0
 1283 0097 03       		.uleb128 0x3
 1284 0098 08       		.uleb128 0x8
 1285 0099 3A       		.uleb128 0x3a
 1286 009a 0B       		.uleb128 0xb
 1287 009b 3B       		.uleb128 0x3b
 1288 009c 05       		.uleb128 0x5
 1289 009d 39       		.uleb128 0x39
 1290 009e 0B       		.uleb128 0xb
 1291 009f 49       		.uleb128 0x49
 1292 00a0 13       		.uleb128 0x13
 1293 00a1 02       		.uleb128 0x2
 1294 00a2 17       		.uleb128 0x17
 1295 00a3 B742     		.uleb128 0x2137
 1296 00a5 17       		.uleb128 0x17
 1297 00a6 00       		.byte	0
 1298 00a7 00       		.byte	0
 1299 00a8 0C       		.uleb128 0xc
 1300 00a9 0F       		.uleb128 0xf
 1301 00aa 00       		.byte	0
 1302 00ab 0B       		.uleb128 0xb
 1303 00ac 0B       		.uleb128 0xb
 1304 00ad 49       		.uleb128 0x49
 1305 00ae 13       		.uleb128 0x13
 1306 00af 00       		.byte	0
 1307 00b0 00       		.byte	0
 1308 00b1 0D       		.uleb128 0xd
 1309 00b2 05       		.uleb128 0x5
 1310 00b3 00       		.byte	0
 1311 00b4 03       		.uleb128 0x3
ARM GAS  /tmp/ccQDH7ho.s 			page 24


 1312 00b5 08       		.uleb128 0x8
 1313 00b6 3A       		.uleb128 0x3a
 1314 00b7 0B       		.uleb128 0xb
 1315 00b8 3B       		.uleb128 0x3b
 1316 00b9 05       		.uleb128 0x5
 1317 00ba 39       		.uleb128 0x39
 1318 00bb 0B       		.uleb128 0xb
 1319 00bc 49       		.uleb128 0x49
 1320 00bd 13       		.uleb128 0x13
 1321 00be 02       		.uleb128 0x2
 1322 00bf 18       		.uleb128 0x18
 1323 00c0 00       		.byte	0
 1324 00c1 00       		.byte	0
 1325 00c2 0E       		.uleb128 0xe
 1326 00c3 34       		.uleb128 0x34
 1327 00c4 00       		.byte	0
 1328 00c5 03       		.uleb128 0x3
 1329 00c6 08       		.uleb128 0x8
 1330 00c7 3A       		.uleb128 0x3a
 1331 00c8 0B       		.uleb128 0xb
 1332 00c9 3B       		.uleb128 0x3b
 1333 00ca 05       		.uleb128 0x5
 1334 00cb 39       		.uleb128 0x39
 1335 00cc 0B       		.uleb128 0xb
 1336 00cd 49       		.uleb128 0x49
 1337 00ce 13       		.uleb128 0x13
 1338 00cf 02       		.uleb128 0x2
 1339 00d0 18       		.uleb128 0x18
 1340 00d1 00       		.byte	0
 1341 00d2 00       		.byte	0
 1342 00d3 0F       		.uleb128 0xf
 1343 00d4 2E       		.uleb128 0x2e
 1344 00d5 01       		.byte	0x1
 1345 00d6 3F       		.uleb128 0x3f
 1346 00d7 19       		.uleb128 0x19
 1347 00d8 03       		.uleb128 0x3
 1348 00d9 0E       		.uleb128 0xe
 1349 00da 3A       		.uleb128 0x3a
 1350 00db 0B       		.uleb128 0xb
 1351 00dc 3B       		.uleb128 0x3b
 1352 00dd 05       		.uleb128 0x5
 1353 00de 39       		.uleb128 0x39
 1354 00df 0B       		.uleb128 0xb
 1355 00e0 27       		.uleb128 0x27
 1356 00e1 19       		.uleb128 0x19
 1357 00e2 49       		.uleb128 0x49
 1358 00e3 13       		.uleb128 0x13
 1359 00e4 11       		.uleb128 0x11
 1360 00e5 01       		.uleb128 0x1
 1361 00e6 12       		.uleb128 0x12
 1362 00e7 06       		.uleb128 0x6
 1363 00e8 40       		.uleb128 0x40
 1364 00e9 18       		.uleb128 0x18
 1365 00ea 9742     		.uleb128 0x2117
 1366 00ec 19       		.uleb128 0x19
 1367 00ed 00       		.byte	0
 1368 00ee 00       		.byte	0
ARM GAS  /tmp/ccQDH7ho.s 			page 25


 1369 00ef 00       		.byte	0
 1370              		.section	.debug_loc,"",%progbits
 1371              	.Ldebug_loc0:
 1372              	.LVUS5:
 1373 0000 00       		.uleb128 0
 1374 0001 00       		.uleb128 .LVU69
 1375 0002 00       		.uleb128 .LVU69
 1376 0003 00       		.uleb128 .LVU70
 1377 0004 00       		.uleb128 .LVU70
 1378 0005 00       		.uleb128 .LVU77
 1379 0006 00       		.uleb128 .LVU77
 1380 0007 00       		.uleb128 .LVU78
 1381 0008 00       		.uleb128 .LVU78
 1382 0009 00       		.uleb128 .LVU82
 1383 000a 00       		.uleb128 .LVU82
 1384 000b 00       		.uleb128 .LVU83
 1385 000c 00       		.uleb128 .LVU83
 1386 000d 00       		.uleb128 .LVU85
 1387 000e 00       		.uleb128 .LVU85
 1388 000f 00       		.uleb128 .LVU86
 1389 0010 00       		.uleb128 .LVU86
 1390 0011 00       		.uleb128 .LVU88
 1391 0012 00       		.uleb128 .LVU88
 1392 0013 00       		.uleb128 .LVU89
 1393 0014 00       		.uleb128 .LVU89
 1394 0015 00       		.uleb128 .LVU91
 1395 0016 00       		.uleb128 .LVU91
 1396 0017 00       		.uleb128 .LVU92
 1397 0018 00       		.uleb128 .LVU92
 1398 0019 00       		.uleb128 .LVU94
 1399 001a 00       		.uleb128 .LVU94
 1400 001b 00       		.uleb128 .LVU95
 1401 001c 00       		.uleb128 .LVU95
 1402 001d 00       		.uleb128 .LVU97
 1403 001e 00       		.uleb128 .LVU97
 1404 001f 00       		.uleb128 .LVU98
 1405 0020 00       		.uleb128 .LVU98
 1406 0021 00       		.uleb128 .LVU100
 1407 0022 00       		.uleb128 .LVU100
 1408 0023 00       		.uleb128 .LVU101
 1409 0024 00       		.uleb128 .LVU101
 1410 0025 00       		.uleb128 0
 1411              	.LLST5:
 1412 0026 00000000 		.4byte	.LVL17
 1413 002a 40000000 		.4byte	.LVL24
 1414 002e 0100     		.2byte	0x1
 1415 0030 50       		.byte	0x50
 1416 0031 40000000 		.4byte	.LVL24
 1417 0035 44000000 		.4byte	.LVL25
 1418 0039 0400     		.2byte	0x4
 1419 003b F3       		.byte	0xf3
 1420 003c 01       		.uleb128 0x1
 1421 003d 50       		.byte	0x50
 1422 003e 9F       		.byte	0x9f
 1423 003f 44000000 		.4byte	.LVL25
 1424 0043 4E000000 		.4byte	.LVL28
 1425 0047 0100     		.2byte	0x1
ARM GAS  /tmp/ccQDH7ho.s 			page 26


 1426 0049 50       		.byte	0x50
 1427 004a 4E000000 		.4byte	.LVL28
 1428 004e 50000000 		.4byte	.LVL29
 1429 0052 0400     		.2byte	0x4
 1430 0054 F3       		.byte	0xf3
 1431 0055 01       		.uleb128 0x1
 1432 0056 50       		.byte	0x50
 1433 0057 9F       		.byte	0x9f
 1434 0058 50000000 		.4byte	.LVL29
 1435 005c 54000000 		.4byte	.LVL31
 1436 0060 0100     		.2byte	0x1
 1437 0062 50       		.byte	0x50
 1438 0063 54000000 		.4byte	.LVL31
 1439 0067 56000000 		.4byte	.LVL32
 1440 006b 0400     		.2byte	0x4
 1441 006d F3       		.byte	0xf3
 1442 006e 01       		.uleb128 0x1
 1443 006f 50       		.byte	0x50
 1444 0070 9F       		.byte	0x9f
 1445 0071 56000000 		.4byte	.LVL32
 1446 0075 58000000 		.4byte	.LVL33
 1447 0079 0100     		.2byte	0x1
 1448 007b 50       		.byte	0x50
 1449 007c 58000000 		.4byte	.LVL33
 1450 0080 5A000000 		.4byte	.LVL34
 1451 0084 0400     		.2byte	0x4
 1452 0086 F3       		.byte	0xf3
 1453 0087 01       		.uleb128 0x1
 1454 0088 50       		.byte	0x50
 1455 0089 9F       		.byte	0x9f
 1456 008a 5A000000 		.4byte	.LVL34
 1457 008e 5C000000 		.4byte	.LVL35
 1458 0092 0100     		.2byte	0x1
 1459 0094 50       		.byte	0x50
 1460 0095 5C000000 		.4byte	.LVL35
 1461 0099 5E000000 		.4byte	.LVL36
 1462 009d 0400     		.2byte	0x4
 1463 009f F3       		.byte	0xf3
 1464 00a0 01       		.uleb128 0x1
 1465 00a1 50       		.byte	0x50
 1466 00a2 9F       		.byte	0x9f
 1467 00a3 5E000000 		.4byte	.LVL36
 1468 00a7 60000000 		.4byte	.LVL37
 1469 00ab 0100     		.2byte	0x1
 1470 00ad 50       		.byte	0x50
 1471 00ae 60000000 		.4byte	.LVL37
 1472 00b2 62000000 		.4byte	.LVL38
 1473 00b6 0400     		.2byte	0x4
 1474 00b8 F3       		.byte	0xf3
 1475 00b9 01       		.uleb128 0x1
 1476 00ba 50       		.byte	0x50
 1477 00bb 9F       		.byte	0x9f
 1478 00bc 62000000 		.4byte	.LVL38
 1479 00c0 64000000 		.4byte	.LVL39
 1480 00c4 0100     		.2byte	0x1
 1481 00c6 50       		.byte	0x50
 1482 00c7 64000000 		.4byte	.LVL39
ARM GAS  /tmp/ccQDH7ho.s 			page 27


 1483 00cb 66000000 		.4byte	.LVL40
 1484 00cf 0400     		.2byte	0x4
 1485 00d1 F3       		.byte	0xf3
 1486 00d2 01       		.uleb128 0x1
 1487 00d3 50       		.byte	0x50
 1488 00d4 9F       		.byte	0x9f
 1489 00d5 66000000 		.4byte	.LVL40
 1490 00d9 68000000 		.4byte	.LVL41
 1491 00dd 0100     		.2byte	0x1
 1492 00df 50       		.byte	0x50
 1493 00e0 68000000 		.4byte	.LVL41
 1494 00e4 6A000000 		.4byte	.LVL42
 1495 00e8 0400     		.2byte	0x4
 1496 00ea F3       		.byte	0xf3
 1497 00eb 01       		.uleb128 0x1
 1498 00ec 50       		.byte	0x50
 1499 00ed 9F       		.byte	0x9f
 1500 00ee 6A000000 		.4byte	.LVL42
 1501 00f2 6E000000 		.4byte	.LVL43
 1502 00f6 0100     		.2byte	0x1
 1503 00f8 50       		.byte	0x50
 1504 00f9 6E000000 		.4byte	.LVL43
 1505 00fd 70000000 		.4byte	.LVL44
 1506 0101 0400     		.2byte	0x4
 1507 0103 F3       		.byte	0xf3
 1508 0104 01       		.uleb128 0x1
 1509 0105 50       		.byte	0x50
 1510 0106 9F       		.byte	0x9f
 1511 0107 70000000 		.4byte	.LVL44
 1512 010b 84000000 		.4byte	.LFE303
 1513 010f 0100     		.2byte	0x1
 1514 0111 50       		.byte	0x50
 1515 0112 00000000 		.4byte	0
 1516 0116 00000000 		.4byte	0
 1517              	.LVUS6:
 1518 011a 00       		.uleb128 .LVU51
 1519 011b 02       		.uleb128 .LVU53
 1520 011c 02       		.uleb128 .LVU53
 1521 011d 01       		.uleb128 .LVU58
 1522 011e 01       		.uleb128 .LVU58
 1523 011f 01       		.uleb128 .LVU71
 1524 0120 00       		.uleb128 .LVU73
 1525 0121 00       		.uleb128 .LVU103
 1526 0122 00       		.uleb128 .LVU103
 1527 0123 00       		.uleb128 .LVU106
 1528 0124 00       		.uleb128 .LVU106
 1529 0125 00       		.uleb128 0
 1530              	.LLST6:
 1531 0126 10000000 		.4byte	.LVL18
 1532 012a 10000000 		.4byte	.LVL18
 1533 012e 0300     		.2byte	0x3
 1534 0130 71       		.byte	0x71
 1535 0131 7C       		.sleb128 -4
 1536 0132 9F       		.byte	0x9f
 1537 0133 10000000 		.4byte	.LVL18
 1538 0137 1C000000 		.4byte	.LVL20
 1539 013b 0300     		.2byte	0x3
ARM GAS  /tmp/ccQDH7ho.s 			page 28


 1540 013d 71       		.byte	0x71
 1541 013e 7E       		.sleb128 -2
 1542 013f 9F       		.byte	0x9f
 1543 0140 1C000000 		.4byte	.LVL20
 1544 0144 44000000 		.4byte	.LVL25
 1545 0148 0100     		.2byte	0x1
 1546 014a 51       		.byte	0x51
 1547 014b 46000000 		.4byte	.LVL26
 1548 014f 72000000 		.4byte	.LVL45
 1549 0153 0100     		.2byte	0x1
 1550 0155 51       		.byte	0x51
 1551 0156 72000000 		.4byte	.LVL45
 1552 015a 7A000000 		.4byte	.LVL46
 1553 015e 0100     		.2byte	0x1
 1554 0160 52       		.byte	0x52
 1555 0161 7A000000 		.4byte	.LVL46
 1556 0165 84000000 		.4byte	.LFE303
 1557 0169 0100     		.2byte	0x1
 1558 016b 53       		.byte	0x53
 1559 016c 00000000 		.4byte	0
 1560 0170 00000000 		.4byte	0
 1561              	.LVUS7:
 1562 0174 00       		.uleb128 .LVU54
 1563 0175 01       		.uleb128 .LVU71
 1564 0176 01       		.uleb128 .LVU71
 1565 0177 00       		.uleb128 .LVU73
 1566 0178 00       		.uleb128 .LVU73
 1567 0179 00       		.uleb128 .LVU75
 1568 017a 00       		.uleb128 .LVU75
 1569 017b 00       		.uleb128 .LVU80
 1570 017c 00       		.uleb128 .LVU80
 1571 017d 00       		.uleb128 .LVU106
 1572 017e 00       		.uleb128 .LVU106
 1573 017f 00       		.uleb128 0
 1574              	.LLST7:
 1575 0180 14000000 		.4byte	.LVL19
 1576 0184 44000000 		.4byte	.LVL25
 1577 0188 0100     		.2byte	0x1
 1578 018a 53       		.byte	0x53
 1579 018b 44000000 		.4byte	.LVL25
 1580 018f 46000000 		.4byte	.LVL26
 1581 0193 0200     		.2byte	0x2
 1582 0195 71       		.byte	0x71
 1583 0196 7C       		.sleb128 -4
 1584 0197 46000000 		.4byte	.LVL26
 1585 019b 48000000 		.4byte	.LVL27
 1586 019f 0100     		.2byte	0x1
 1587 01a1 53       		.byte	0x53
 1588 01a2 48000000 		.4byte	.LVL27
 1589 01a6 52000000 		.4byte	.LVL30
 1590 01aa 0200     		.2byte	0x2
 1591 01ac 71       		.byte	0x71
 1592 01ad 7C       		.sleb128 -4
 1593 01ae 52000000 		.4byte	.LVL30
 1594 01b2 7A000000 		.4byte	.LVL46
 1595 01b6 0100     		.2byte	0x1
 1596 01b8 53       		.byte	0x53
ARM GAS  /tmp/ccQDH7ho.s 			page 29


 1597 01b9 7A000000 		.4byte	.LVL46
 1598 01bd 84000000 		.4byte	.LFE303
 1599 01c1 0200     		.2byte	0x2
 1600 01c3 72       		.byte	0x72
 1601 01c4 7C       		.sleb128 -4
 1602 01c5 00000000 		.4byte	0
 1603 01c9 00000000 		.4byte	0
 1604              	.LVUS8:
 1605 01cd 00       		.uleb128 .LVU59
 1606 01ce 00       		.uleb128 .LVU63
 1607 01cf 00       		.uleb128 .LVU63
 1608 01d0 01       		.uleb128 .LVU71
 1609 01d1 00       		.uleb128 .LVU73
 1610 01d2 00       		.uleb128 0
 1611              	.LLST8:
 1612 01d3 20000000 		.4byte	.LVL21
 1613 01d7 24000000 		.4byte	.LVL23
 1614 01db 0100     		.2byte	0x1
 1615 01dd 54       		.byte	0x54
 1616 01de 24000000 		.4byte	.LVL23
 1617 01e2 44000000 		.4byte	.LVL25
 1618 01e6 0100     		.2byte	0x1
 1619 01e8 56       		.byte	0x56
 1620 01e9 46000000 		.4byte	.LVL26
 1621 01ed 84000000 		.4byte	.LFE303
 1622 01f1 0100     		.2byte	0x1
 1623 01f3 56       		.byte	0x56
 1624 01f4 00000000 		.4byte	0
 1625 01f8 00000000 		.4byte	0
 1626              	.LVUS9:
 1627 01fc 00       		.uleb128 .LVU61
 1628 01fd 01       		.uleb128 .LVU71
 1629 01fe 00       		.uleb128 .LVU73
 1630 01ff 00       		.uleb128 0
 1631              	.LLST9:
 1632 0200 22000000 		.4byte	.LVL22
 1633 0204 44000000 		.4byte	.LVL25
 1634 0208 0100     		.2byte	0x1
 1635 020a 55       		.byte	0x55
 1636 020b 46000000 		.4byte	.LVL26
 1637 020f 84000000 		.4byte	.LFE303
 1638 0213 0100     		.2byte	0x1
 1639 0215 55       		.byte	0x55
 1640 0216 00000000 		.4byte	0
 1641 021a 00000000 		.4byte	0
 1642              	.LVUS3:
 1643 021e 00       		.uleb128 0
 1644 021f 00       		.uleb128 .LVU36
 1645 0220 00       		.uleb128 .LVU36
 1646 0221 00       		.uleb128 .LVU40
 1647 0222 00       		.uleb128 .LVU40
 1648 0223 00       		.uleb128 .LVU41
 1649 0224 00       		.uleb128 .LVU41
 1650 0225 00       		.uleb128 0
 1651              	.LLST3:
 1652 0226 00000000 		.4byte	.LVL12
 1653 022a 14000000 		.4byte	.LVL13
ARM GAS  /tmp/ccQDH7ho.s 			page 30


 1654 022e 0100     		.2byte	0x1
 1655 0230 50       		.byte	0x50
 1656 0231 14000000 		.4byte	.LVL13
 1657 0235 1E000000 		.4byte	.LVL15
 1658 0239 0400     		.2byte	0x4
 1659 023b F3       		.byte	0xf3
 1660 023c 01       		.uleb128 0x1
 1661 023d 50       		.byte	0x50
 1662 023e 9F       		.byte	0x9f
 1663 023f 1E000000 		.4byte	.LVL15
 1664 0243 20000000 		.4byte	.LVL16
 1665 0247 0100     		.2byte	0x1
 1666 0249 50       		.byte	0x50
 1667 024a 20000000 		.4byte	.LVL16
 1668 024e 28000000 		.4byte	.LFE302
 1669 0252 0400     		.2byte	0x4
 1670 0254 F3       		.byte	0xf3
 1671 0255 01       		.uleb128 0x1
 1672 0256 50       		.byte	0x50
 1673 0257 9F       		.byte	0x9f
 1674 0258 00000000 		.4byte	0
 1675 025c 00000000 		.4byte	0
 1676              	.LVUS4:
 1677 0260 02       		.uleb128 .LVU27
 1678 0261 00       		.uleb128 .LVU39
 1679 0262 00       		.uleb128 .LVU39
 1680 0263 00       		.uleb128 .LVU40
 1681 0264 00       		.uleb128 .LVU40
 1682 0265 00       		.uleb128 .LVU41
 1683 0266 00       		.uleb128 .LVU41
 1684 0267 00       		.uleb128 0
 1685              	.LLST4:
 1686 0268 00000000 		.4byte	.LVL12
 1687 026c 1C000000 		.4byte	.LVL14
 1688 0270 0200     		.2byte	0x2
 1689 0272 30       		.byte	0x30
 1690 0273 9F       		.byte	0x9f
 1691 0274 1C000000 		.4byte	.LVL14
 1692 0278 1E000000 		.4byte	.LVL15
 1693 027c 0100     		.2byte	0x1
 1694 027e 50       		.byte	0x50
 1695 027f 1E000000 		.4byte	.LVL15
 1696 0283 20000000 		.4byte	.LVL16
 1697 0287 0200     		.2byte	0x2
 1698 0289 30       		.byte	0x30
 1699 028a 9F       		.byte	0x9f
 1700 028b 20000000 		.4byte	.LVL16
 1701 028f 28000000 		.4byte	.LFE302
 1702 0293 0100     		.2byte	0x1
 1703 0295 50       		.byte	0x50
 1704 0296 00000000 		.4byte	0
 1705 029a 00000000 		.4byte	0
 1706              	.LVUS0:
 1707 029e 00       		.uleb128 0
 1708 029f 00       		.uleb128 .LVU14
 1709 02a0 00       		.uleb128 .LVU14
 1710 02a1 00       		.uleb128 .LVU17
ARM GAS  /tmp/ccQDH7ho.s 			page 31


 1711 02a2 00       		.uleb128 .LVU17
 1712 02a3 00       		.uleb128 .LVU24
 1713 02a4 00       		.uleb128 .LVU24
 1714 02a5 00       		.uleb128 0
 1715              	.LLST0:
 1716 02a6 00000000 		.4byte	.LVL0
 1717 02aa 20000000 		.4byte	.LVL5
 1718 02ae 0100     		.2byte	0x1
 1719 02b0 50       		.byte	0x50
 1720 02b1 20000000 		.4byte	.LVL5
 1721 02b5 24000000 		.4byte	.LVL7
 1722 02b9 0400     		.2byte	0x4
 1723 02bb F3       		.byte	0xf3
 1724 02bc 01       		.uleb128 0x1
 1725 02bd 50       		.byte	0x50
 1726 02be 9F       		.byte	0x9f
 1727 02bf 24000000 		.4byte	.LVL7
 1728 02c3 30000000 		.4byte	.LVL11
 1729 02c7 0100     		.2byte	0x1
 1730 02c9 50       		.byte	0x50
 1731 02ca 30000000 		.4byte	.LVL11
 1732 02ce 38000000 		.4byte	.LFE301
 1733 02d2 0400     		.2byte	0x4
 1734 02d4 F3       		.byte	0xf3
 1735 02d5 01       		.uleb128 0x1
 1736 02d6 50       		.byte	0x50
 1737 02d7 9F       		.byte	0x9f
 1738 02d8 00000000 		.4byte	0
 1739 02dc 00000000 		.4byte	0
 1740              	.LVUS1:
 1741 02e0 00       		.uleb128 0
 1742 02e1 00       		.uleb128 .LVU9
 1743 02e2 00       		.uleb128 .LVU9
 1744 02e3 00       		.uleb128 .LVU23
 1745 02e4 00       		.uleb128 .LVU23
 1746 02e5 00       		.uleb128 0
 1747              	.LLST1:
 1748 02e6 00000000 		.4byte	.LVL0
 1749 02ea 10000000 		.4byte	.LVL1
 1750 02ee 0100     		.2byte	0x1
 1751 02f0 51       		.byte	0x51
 1752 02f1 10000000 		.4byte	.LVL1
 1753 02f5 2E000000 		.4byte	.LVL10
 1754 02f9 0400     		.2byte	0x4
 1755 02fb F3       		.byte	0xf3
 1756 02fc 01       		.uleb128 0x1
 1757 02fd 51       		.byte	0x51
 1758 02fe 9F       		.byte	0x9f
 1759 02ff 2E000000 		.4byte	.LVL10
 1760 0303 38000000 		.4byte	.LFE301
 1761 0307 0100     		.2byte	0x1
 1762 0309 51       		.byte	0x51
 1763 030a 00000000 		.4byte	0
 1764 030e 00000000 		.4byte	0
 1765              	.LVUS2:
 1766 0312 02       		.uleb128 .LVU2
 1767 0313 00       		.uleb128 .LVU10
ARM GAS  /tmp/ccQDH7ho.s 			page 32


 1768 0314 00       		.uleb128 .LVU11
 1769 0315 00       		.uleb128 .LVU12
 1770 0316 00       		.uleb128 .LVU15
 1771 0317 00       		.uleb128 .LVU17
 1772 0318 00       		.uleb128 .LVU17
 1773 0319 02       		.uleb128 .LVU19
 1774 031a 02       		.uleb128 .LVU19
 1775 031b 00       		.uleb128 .LVU21
 1776 031c 00       		.uleb128 .LVU21
 1777 031d 00       		.uleb128 .LVU22
 1778 031e 00       		.uleb128 .LVU23
 1779 031f 00       		.uleb128 0
 1780              	.LLST2:
 1781 0320 00000000 		.4byte	.LVL0
 1782 0324 12000000 		.4byte	.LVL2
 1783 0328 0200     		.2byte	0x2
 1784 032a 30       		.byte	0x30
 1785 032b 9F       		.byte	0x9f
 1786 032c 18000000 		.4byte	.LVL3
 1787 0330 1C000000 		.4byte	.LVL4
 1788 0334 0100     		.2byte	0x1
 1789 0336 52       		.byte	0x52
 1790 0337 22000000 		.4byte	.LVL6
 1791 033b 24000000 		.4byte	.LVL7
 1792 033f 0100     		.2byte	0x1
 1793 0341 50       		.byte	0x50
 1794 0342 24000000 		.4byte	.LVL7
 1795 0346 24000000 		.4byte	.LVL7
 1796 034a 0100     		.2byte	0x1
 1797 034c 52       		.byte	0x52
 1798 034d 24000000 		.4byte	.LVL7
 1799 0351 26000000 		.4byte	.LVL8
 1800 0355 0300     		.2byte	0x3
 1801 0357 73       		.byte	0x73
 1802 0358 01       		.sleb128 1
 1803 0359 9F       		.byte	0x9f
 1804 035a 26000000 		.4byte	.LVL8
 1805 035e 2C000000 		.4byte	.LVL9
 1806 0362 0300     		.2byte	0x3
 1807 0364 72       		.byte	0x72
 1808 0365 01       		.sleb128 1
 1809 0366 9F       		.byte	0x9f
 1810 0367 2E000000 		.4byte	.LVL10
 1811 036b 38000000 		.4byte	.LFE301
 1812 036f 0200     		.2byte	0x2
 1813 0371 30       		.byte	0x30
 1814 0372 9F       		.byte	0x9f
 1815 0373 00000000 		.4byte	0
 1816 0377 00000000 		.4byte	0
 1817              		.section	.debug_aranges,"",%progbits
 1818 0000 2C000000 		.4byte	0x2c
 1819 0004 0200     		.2byte	0x2
 1820 0006 00000000 		.4byte	.Ldebug_info0
 1821 000a 04       		.byte	0x4
 1822 000b 00       		.byte	0
 1823 000c 0000     		.2byte	0
 1824 000e 0000     		.2byte	0
ARM GAS  /tmp/ccQDH7ho.s 			page 33


 1825 0010 00000000 		.4byte	.LFB301
 1826 0014 38000000 		.4byte	.LFE301-.LFB301
 1827 0018 00000000 		.4byte	.LFB302
 1828 001c 28000000 		.4byte	.LFE302-.LFB302
 1829 0020 00000000 		.4byte	.LFB303
 1830 0024 84000000 		.4byte	.LFE303-.LFB303
 1831 0028 00000000 		.4byte	0
 1832 002c 00000000 		.4byte	0
 1833              		.section	.debug_ranges,"",%progbits
 1834              	.Ldebug_ranges0:
 1835 0000 00000000 		.4byte	.LFB301
 1836 0004 38000000 		.4byte	.LFE301
 1837 0008 00000000 		.4byte	.LFB302
 1838 000c 28000000 		.4byte	.LFE302
 1839 0010 00000000 		.4byte	.LFB303
 1840 0014 84000000 		.4byte	.LFE303
 1841 0018 00000000 		.4byte	0
 1842 001c 00000000 		.4byte	0
 1843              		.section	.debug_line,"",%progbits
 1844              	.Ldebug_line0:
 1845 0000 2F020000 		.section	.debug_str,"MS",%progbits,1
 1845      03005300 
 1845      00000201 
 1845      FB0E0D00 
 1845      01010101 
 1846              	.LASF14:
 1847 0000 75633835 		.ascii	"uc850\000"
 1847      3000
 1848              	.LASF4:
 1849 0006 574F5244 		.ascii	"WORD\000"
 1849      00
 1850              	.LASF18:
 1851 000b 66665F6F 		.ascii	"ff_oem2uni\000"
 1851      656D3275 
 1851      6E6900
 1852              	.LASF5:
 1853 0016 57434841 		.ascii	"WCHAR\000"
 1853      5200
 1854              	.LASF8:
 1855 001c 6C6F6E67 		.ascii	"long long unsigned int\000"
 1855      206C6F6E 
 1855      6720756E 
 1855      7369676E 
 1855      65642069 
 1856              	.LASF1:
 1857 0033 756E7369 		.ascii	"unsigned char\000"
 1857      676E6564 
 1857      20636861 
 1857      7200
 1858              	.LASF7:
 1859 0041 6C6F6E67 		.ascii	"long unsigned int\000"
 1859      20756E73 
 1859      69676E65 
 1859      6420696E 
 1859      7400
 1860              	.LASF3:
 1861 0053 73686F72 		.ascii	"short unsigned int\000"
ARM GAS  /tmp/ccQDH7ho.s 			page 34


 1861      7420756E 
 1861      7369676E 
 1861      65642069 
 1861      6E7400
 1862              	.LASF20:
 1863 0066 2E2E2F2E 		.ascii	"../../modules/ChibiOS/ext/fatfs/src/ffunicode.c\000"
 1863      2E2F6D6F 
 1863      64756C65 
 1863      732F4368 
 1863      6962694F 
 1864              	.LASF0:
 1865 0096 756E7369 		.ascii	"unsigned int\000"
 1865      676E6564 
 1865      20696E74 
 1865      00
 1866              	.LASF21:
 1867 00a3 2F686F6D 		.ascii	"/home/mahathi/mathur407_payload2/4.0.7/build/CUAVv5"
 1867      652F6D61 
 1867      68617468 
 1867      692F6D61 
 1867      74687572 
 1868 00d6 00       		.ascii	"\000"
 1869              	.LASF12:
 1870 00d7 63686172 		.ascii	"char\000"
 1870      00
 1871              	.LASF17:
 1872 00dc 66665F77 		.ascii	"ff_wtoupper\000"
 1872      746F7570 
 1872      70657200 
 1873              	.LASF22:
 1874 00e8 66665F75 		.ascii	"ff_uni2oem\000"
 1874      6E69326F 
 1874      656D00
 1875              	.LASF9:
 1876 00f3 6C6F6E67 		.ascii	"long long int\000"
 1876      206C6F6E 
 1876      6720696E 
 1876      7400
 1877              	.LASF19:
 1878 0101 474E5520 		.ascii	"GNU C17 10.2.1 20201103 (release) -mcpu=cortex-m7 -"
 1878      43313720 
 1878      31302E32 
 1878      2E312032 
 1878      30323031 
 1879 0134 6D666C6F 		.ascii	"mfloat-abi=hard -mfpu=fpv4-sp-d16 -mno-thumb-interw"
 1879      61742D61 
 1879      62693D68 
 1879      61726420 
 1879      2D6D6670 
 1880 0167 6F726B20 		.ascii	"ork -mthumb -march=armv7e-m+fp -g -Os -fomit-frame-"
 1880      2D6D7468 
 1880      756D6220 
 1880      2D6D6172 
 1880      63683D61 
 1881 019a 706F696E 		.ascii	"pointer -falign-functions=16 -ffunction-sections -f"
 1881      74657220 
 1881      2D66616C 
ARM GAS  /tmp/ccQDH7ho.s 			page 35


 1881      69676E2D 
 1881      66756E63 
 1882 01cd 64617461 		.ascii	"data-sections -fno-common -fsingle-precision-consta"
 1882      2D736563 
 1882      74696F6E 
 1882      73202D66 
 1882      6E6F2D63 
 1883 0200 6E7400   		.ascii	"nt\000"
 1884              	.LASF2:
 1885 0203 73686F72 		.ascii	"short int\000"
 1885      7420696E 
 1885      7400
 1886              	.LASF6:
 1887 020d 6C6F6E67 		.ascii	"long int\000"
 1887      20696E74 
 1887      00
 1888              	.LASF10:
 1889 0216 6C6F6E67 		.ascii	"long double\000"
 1889      20646F75 
 1889      626C6500 
 1890              	.LASF11:
 1891 0222 7369676E 		.ascii	"signed char\000"
 1891      65642063 
 1891      68617200 
 1892              	.LASF13:
 1893 022e 5F426F6F 		.ascii	"_Bool\000"
 1893      6C00
 1894              	.LASF15:
 1895 0234 63767431 		.ascii	"cvt1\000"
 1895      00
 1896              	.LASF16:
 1897 0239 63767432 		.ascii	"cvt2\000"
 1897      00
 1898              		.ident	"GCC: (GNU Arm Embedded Toolchain 10-2020-q4-major) 10.2.1 20201103 (release)"
ARM GAS  /tmp/ccQDH7ho.s 			page 36


DEFINED SYMBOLS
                            *ABS*:0000000000000000 ffunicode.c
     /tmp/ccQDH7ho.s:18     .text.ff_uni2oem:0000000000000000 $t
     /tmp/ccQDH7ho.s:26     .text.ff_uni2oem:0000000000000000 ff_uni2oem
     /tmp/ccQDH7ho.s:102    .text.ff_uni2oem:0000000000000034 $d
     /tmp/ccQDH7ho.s:107    .text.ff_oem2uni:0000000000000000 $t
     /tmp/ccQDH7ho.s:114    .text.ff_oem2uni:0000000000000000 ff_oem2uni
     /tmp/ccQDH7ho.s:162    .text.ff_oem2uni:0000000000000024 $d
     /tmp/ccQDH7ho.s:167    .text.ff_wtoupper:0000000000000000 $t
     /tmp/ccQDH7ho.s:174    .text.ff_wtoupper:0000000000000000 ff_wtoupper
     /tmp/ccQDH7ho.s:239    .text.ff_wtoupper:0000000000000034 $d
     /tmp/ccQDH7ho.s:354    .text.ff_wtoupper:000000000000007c $d
     /tmp/ccQDH7ho.s:360    .rodata.cvt1.1:0000000000000000 $d
     /tmp/ccQDH7ho.s:364    .rodata.cvt1.1:0000000000000000 cvt1.1
     /tmp/ccQDH7ho.s:615    .rodata.cvt2.0:0000000000000000 $d
     /tmp/ccQDH7ho.s:619    .rodata.cvt2.0:0000000000000000 cvt2.0
     /tmp/ccQDH7ho.s:715    .rodata.uc850:0000000000000000 $d
     /tmp/ccQDH7ho.s:719    .rodata.uc850:0000000000000000 uc850
     /tmp/ccQDH7ho.s:248    .text.ff_wtoupper:000000000000003d $d
     /tmp/ccQDH7ho.s:248    .text.ff_wtoupper:000000000000003e $t

NO UNDEFINED SYMBOLS
