ARM GAS  /tmp/ccD4I0Zu.s 			page 1


   1              		.cpu cortex-m7
   2              		.eabi_attribute 27, 1
   3              		.eabi_attribute 28, 1
   4              		.eabi_attribute 20, 1
   5              		.eabi_attribute 21, 1
   6              		.eabi_attribute 23, 3
   7              		.eabi_attribute 24, 1
   8              		.eabi_attribute 25, 1
   9              		.eabi_attribute 26, 1
  10              		.eabi_attribute 30, 4
  11              		.eabi_attribute 34, 1
  12              		.eabi_attribute 18, 4
  13              		.file	"hal.c"
  14              		.text
  15              	.Ltext0:
  16              		.cfi_sections	.debug_frame
  17              		.section	.text.halInit,"ax",%progbits
  18              		.align	1
  19              		.global	halInit
  20              		.arch armv7e-m
  21              		.syntax unified
  22              		.thumb
  23              		.thumb_func
  24              		.fpu fpv4-sp-d16
  25              		.type	halInit, %function
  26              	halInit:
  27              	.LFB334:
  28              		.file 1 "../../modules/ChibiOS/os/hal/src/hal.c"
  29              		.loc 1 56 20 view -0
  30              		.cfi_startproc
  31              		@ args = 0, pretend = 0, frame = 0
  32              		@ frame_needed = 0, uses_anonymous_args = 0
  33              		.loc 1 59 3 view .LVU1
  34              		.file 2 "../../modules/ChibiOS/os/hal/osal/rt/osal.h"
  35              		.loc 2 469 1 view .LVU2
  36              		.loc 1 62 3 view .LVU3
  37              		.loc 1 56 20 is_stmt 0 view .LVU4
  38 0000 08B5     		push	{r3, lr}
  39              		.cfi_def_cfa_offset 8
  40              		.cfi_offset 3, -8
  41              		.cfi_offset 14, -4
  42              		.loc 1 62 3 view .LVU5
  43 0002 FFF7FEFF 		bl	hal_lld_init
  44              	.LVL0:
  45              		.loc 1 66 3 is_stmt 1 view .LVU6
  46 0006 FFF7FEFF 		bl	_pal_lld_init
  47              	.LVL1:
  48              		.loc 1 72 3 view .LVU7
  49 000a FFF7FEFF 		bl	adcInit
  50              	.LVL2:
  51              		.loc 1 87 3 view .LVU8
  52 000e FFF7FEFF 		bl	i2cInit
  53              	.LVL3:
  54              		.loc 1 102 3 view .LVU9
  55 0012 FFF7FEFF 		bl	pwmInit
  56              	.LVL4:
  57              		.loc 1 105 3 view .LVU10
ARM GAS  /tmp/ccD4I0Zu.s 			page 2


  58 0016 FFF7FEFF 		bl	sdInit
  59              	.LVL5:
  60              		.loc 1 108 3 view .LVU11
  61 001a FFF7FEFF 		bl	sdcInit
  62              	.LVL6:
  63              		.loc 1 111 3 view .LVU12
  64 001e FFF7FEFF 		bl	spiInit
  65              	.LVL7:
  66              		.loc 1 120 3 view .LVU13
  67 0022 FFF7FEFF 		bl	usbInit
  68              	.LVL8:
  69              		.loc 1 126 3 view .LVU14
  70 0026 FFF7FEFF 		bl	sduInit
  71              	.LVL9:
  72              		.loc 1 146 3 view .LVU15
  73 002a FFF7FEFF 		bl	boardInit
  74              	.LVL10:
  75              		.loc 1 153 3 view .LVU16
  76              		.loc 1 155 1 is_stmt 0 view .LVU17
  77 002e BDE80840 		pop	{r3, lr}
  78              		.cfi_restore 14
  79              		.cfi_restore 3
  80              		.cfi_def_cfa_offset 0
  81              		.loc 1 153 3 view .LVU18
  82 0032 FFF7FEBF 		b	stInit
  83              	.LVL11:
  84              		.cfi_endproc
  85              	.LFE334:
  86              		.size	halInit, .-halInit
  87              		.text
  88              	.Letext0:
  89              		.file 3 "../../modules/ChibiOS/os/hal/ports/STM32/STM32F7xx/hal_lld.h"
  90              		.file 4 "../../modules/ChibiOS/os/hal/ports/STM32/LLD/GPIOv2/hal_pal_lld.h"
  91              		.file 5 "../../modules/ChibiOS/os/hal/include/hal_adc.h"
  92              		.file 6 "../../modules/ChibiOS/os/hal/include/hal_i2c.h"
  93              		.file 7 "../../modules/ChibiOS/os/hal/include/hal_pwm.h"
  94              		.file 8 "../../modules/ChibiOS/os/hal/include/hal_serial.h"
  95              		.file 9 "../../modules/ChibiOS/os/hal/include/hal_sdc.h"
  96              		.file 10 "../../modules/ChibiOS/os/hal/include/hal_spi.h"
  97              		.file 11 "../../modules/ChibiOS/os/hal/include/hal_usb.h"
  98              		.file 12 "../../modules/ChibiOS/os/hal/include/hal_serial_usb.h"
  99              		.file 13 "../../libraries/AP_HAL_ChibiOS/hwdef/common/board.h"
 100              		.file 14 "../../modules/ChibiOS/os/hal/include/hal_st.h"