ARM GAS  /tmp/cckSfGhE.s 			page 1


   1              		.cpu cortex-m7
   2              		.eabi_attribute 27, 1
   3              		.eabi_attribute 28, 1
   4              		.eabi_attribute 20, 1
   5              		.eabi_attribute 21, 1
   6              		.eabi_attribute 23, 3
   7              		.eabi_attribute 24, 1
   8              		.eabi_attribute 25, 1
   9              		.eabi_attribute 26, 1
  10              		.eabi_attribute 30, 4
  11              		.eabi_attribute 34, 1
  12              		.eabi_attribute 18, 4
  13              		.file	"hal_serial_usb.c"
  14              		.text
  15              	.Ltext0:
  16              		.cfi_sections	.debug_frame
  17              		.section	.text.obnotify,"ax",%progbits
  18              		.align	1
  19              		.arch armv7e-m
  20              		.syntax unified
  21              		.thumb
  22              		.thumb_func
  23              		.fpu fpv4-sp-d16
  24              		.type	obnotify, %function
  25              	obnotify:
  26              	.LVL0:
  27              	.LFB345:
  28              		.file 1 "../../modules/ChibiOS/os/hal/src/hal_serial_usb.c"
  29              		.loc 1 178 47 view -0
  30              		.cfi_startproc
  31              		@ args = 0, pretend = 0, frame = 8
  32              		@ frame_needed = 0, uses_anonymous_args = 0
  33              		.loc 1 179 3 view .LVU1
  34              		.loc 1 180 3 view .LVU2
  35              		.loc 1 178 47 is_stmt 0 view .LVU3
  36 0000 13B5     		push	{r0, r1, r4, lr}
  37              		.cfi_def_cfa_offset 16
  38              		.cfi_offset 4, -8
  39              		.cfi_offset 14, -4
  40              		.loc 1 180 20 view .LVU4
  41 0002 446B     		ldr	r4, [r0, #52]
  42              	.LVL1:
  43              		.loc 1 184 3 is_stmt 1 view .LVU5
  44              		.loc 1 184 8 is_stmt 0 view .LVU6
  45 0004 D4F88C34 		ldr	r3, [r4, #1164]
  46 0008 1A68     		ldr	r2, [r3]
  47              		.loc 1 184 6 view .LVU7
  48 000a 1178     		ldrb	r1, [r2]	@ zero_extendqisi2
  49 000c 0429     		cmp	r1, #4
  50 000e 15D1     		bne	.L1
  51              		.loc 1 184 62 discriminator 1 view .LVU8
  52 0010 217A     		ldrb	r1, [r4, #8]	@ zero_extendqisi2
  53 0012 0229     		cmp	r1, #2
  54 0014 12D1     		bne	.L1
  55              		.loc 1 190 3 is_stmt 1 view .LVU9
  56              		.loc 1 190 8 is_stmt 0 view .LVU10
  57 0016 1979     		ldrb	r1, [r3, #4]	@ zero_extendqisi2
ARM GAS  /tmp/cckSfGhE.s 			page 2


  58 0018 0123     		movs	r3, #1
  59              		.loc 1 190 7 view .LVU11
  60 001a 1289     		ldrh	r2, [r2, #8]
  61              		.loc 1 190 8 view .LVU12
  62 001c 8B40     		lsls	r3, r3, r1
  63              		.loc 1 190 6 view .LVU13
  64 001e 1342     		tst	r3, r2
  65 0020 0CD1     		bne	.L1
  66              	.LBB74:
  67              		.loc 1 193 5 is_stmt 1 view .LVU14
  68              		.loc 1 193 20 is_stmt 0 view .LVU15
  69 0022 01A9     		add	r1, sp, #4
  70 0024 04F14400 		add	r0, r4, #68
  71              	.LVL2:
  72              		.loc 1 193 20 view .LVU16
  73 0028 FFF7FEFF 		bl	obqGetFullBufferI
  74              	.LVL3:
  75              		.loc 1 195 27 view .LVU17
  76 002c D4F88C44 		ldr	r4, [r4, #1164]
  77              	.LVL4:
  78              		.loc 1 193 20 view .LVU18
  79 0030 0246     		mov	r2, r0
  80              	.LVL5:
  81              		.loc 1 194 5 is_stmt 1 view .LVU19
  82              		.loc 1 194 5 view .LVU20
  83              		.loc 1 194 5 view .LVU21
  84              		.loc 1 195 5 view .LVU22
  85 0032 019B     		ldr	r3, [sp, #4]
  86 0034 2179     		ldrb	r1, [r4, #4]	@ zero_extendqisi2
  87 0036 2068     		ldr	r0, [r4]
  88              	.LVL6:
  89              		.loc 1 195 5 is_stmt 0 view .LVU23
  90 0038 FFF7FEFF 		bl	usbStartTransmitI
  91              	.LVL7:
  92              	.L1:
  93              		.loc 1 195 5 view .LVU24
  94              	.LBE74:
  95              		.loc 1 197 1 view .LVU25
  96 003c 02B0     		add	sp, sp, #8
  97              		.cfi_def_cfa_offset 8
  98              		@ sp needed
  99 003e 10BD     		pop	{r4, pc}
 100              		.cfi_endproc
 101              	.LFE345:
 102              		.size	obnotify, .-obnotify
 103              		.section	.text._readt,"ax",%progbits
 104              		.align	1
 105              		.syntax unified
 106              		.thumb
 107              		.thumb_func
 108              		.fpu fpv4-sp-d16
 109              		.type	_readt, %function
 110              	_readt:
 111              	.LVL8:
 112              	.LFB342:
 113              		.loc 1 124 45 is_stmt 1 view -0
 114              		.cfi_startproc
ARM GAS  /tmp/cckSfGhE.s 			page 3


 115              		@ args = 0, pretend = 0, frame = 0
 116              		@ frame_needed = 0, uses_anonymous_args = 0
 117              		@ link register save eliminated.
 118              		.loc 1 126 3 view .LVU27
 119              		.loc 1 126 10 is_stmt 0 view .LVU28
 120 0000 0C30     		adds	r0, r0, #12
 121              	.LVL9:
 122              		.loc 1 126 10 view .LVU29
 123 0002 FFF7FEBF 		b	ibqReadTimeout
 124              	.LVL10:
 125              		.loc 1 126 10 view .LVU30
 126              		.cfi_endproc
 127              	.LFE342:
 128              		.size	_readt, .-_readt
 129              		.section	.text._read,"ax",%progbits
 130              		.align	1
 131              		.syntax unified
 132              		.thumb
 133              		.thumb_func
 134              		.fpu fpv4-sp-d16
 135              		.type	_read, %function
 136              	_read:
 137              	.LVL11:
 138              	.LFB336:
 139              		.loc 1 91 54 is_stmt 1 view -0
 140              		.cfi_startproc
 141              		@ args = 0, pretend = 0, frame = 0
 142              		@ frame_needed = 0, uses_anonymous_args = 0
 143              		@ link register save eliminated.
 144              		.loc 1 93 3 view .LVU32
 145              		.loc 1 93 10 is_stmt 0 view .LVU33
 146 0000 4FF0FF33 		mov	r3, #-1
 147 0004 0C30     		adds	r0, r0, #12
 148              	.LVL12:
 149              		.loc 1 93 10 view .LVU34
 150 0006 FFF7FEBF 		b	ibqReadTimeout
 151              	.LVL13:
 152              		.loc 1 93 10 view .LVU35
 153              		.cfi_endproc
 154              	.LFE336:
 155              		.size	_read, .-_read
 156              		.section	.text._writet,"ax",%progbits
 157              		.align	1
 158              		.syntax unified
 159              		.thumb
 160              		.thumb_func
 161              		.fpu fpv4-sp-d16
 162              		.type	_writet, %function
 163              	_writet:
 164              	.LVL14:
 165              	.LFB341:
 166              		.loc 1 118 46 is_stmt 1 view -0
 167              		.cfi_startproc
 168              		@ args = 0, pretend = 0, frame = 0
 169              		@ frame_needed = 0, uses_anonymous_args = 0
 170              		@ link register save eliminated.
 171              		.loc 1 120 3 view .LVU37
ARM GAS  /tmp/cckSfGhE.s 			page 4


 172              		.loc 1 120 10 is_stmt 0 view .LVU38
 173 0000 4430     		adds	r0, r0, #68
 174              	.LVL15:
 175              		.loc 1 120 10 view .LVU39
 176 0002 FFF7FEBF 		b	obqWriteTimeout
 177              	.LVL16:
 178              		.loc 1 120 10 view .LVU40
 179              		.cfi_endproc
 180              	.LFE341:
 181              		.size	_writet, .-_writet
 182              		.section	.text._write,"ax",%progbits
 183              		.align	1
 184              		.syntax unified
 185              		.thumb
 186              		.thumb_func
 187              		.fpu fpv4-sp-d16
 188              		.type	_write, %function
 189              	_write:
 190              	.LVL17:
 191              	.LFB335:
 192              		.loc 1 85 61 is_stmt 1 view -0
 193              		.cfi_startproc
 194              		@ args = 0, pretend = 0, frame = 0
 195              		@ frame_needed = 0, uses_anonymous_args = 0
 196              		@ link register save eliminated.
 197              		.loc 1 87 3 view .LVU42
 198              		.loc 1 87 10 is_stmt 0 view .LVU43
 199 0000 4FF0FF33 		mov	r3, #-1
 200 0004 4430     		adds	r0, r0, #68
 201              	.LVL18:
 202              		.loc 1 87 10 view .LVU44
 203 0006 FFF7FEBF 		b	obqWriteTimeout
 204              	.LVL19:
 205              		.loc 1 87 10 view .LVU45
 206              		.cfi_endproc
 207              	.LFE335:
 208              		.size	_write, .-_write
 209              		.section	.text._gett,"ax",%progbits
 210              		.align	1
 211              		.syntax unified
 212              		.thumb
 213              		.thumb_func
 214              		.fpu fpv4-sp-d16
 215              		.type	_gett, %function
 216              	_gett:
 217              	.LVL20:
 218              	.LFB340:
 219              		.loc 1 112 53 is_stmt 1 view -0
 220              		.cfi_startproc
 221              		@ args = 0, pretend = 0, frame = 0
 222              		@ frame_needed = 0, uses_anonymous_args = 0
 223              		@ link register save eliminated.
 224              		.loc 1 114 3 view .LVU47
 225              		.loc 1 114 10 is_stmt 0 view .LVU48
 226 0000 0C30     		adds	r0, r0, #12
 227              	.LVL21:
 228              		.loc 1 114 10 view .LVU49
ARM GAS  /tmp/cckSfGhE.s 			page 5


 229 0002 FFF7FEBF 		b	ibqGetTimeout
 230              	.LVL22:
 231              		.loc 1 114 10 view .LVU50
 232              		.cfi_endproc
 233              	.LFE340:
 234              		.size	_gett, .-_gett
 235              		.section	.text._get,"ax",%progbits
 236              		.align	1
 237              		.syntax unified
 238              		.thumb
 239              		.thumb_func
 240              		.fpu fpv4-sp-d16
 241              		.type	_get, %function
 242              	_get:
 243              	.LVL23:
 244              	.LFB338:
 245              		.loc 1 102 29 is_stmt 1 view -0
 246              		.cfi_startproc
 247              		@ args = 0, pretend = 0, frame = 0
 248              		@ frame_needed = 0, uses_anonymous_args = 0
 249              		@ link register save eliminated.
 250              		.loc 1 104 3 view .LVU52
 251              		.loc 1 104 10 is_stmt 0 view .LVU53
 252 0000 4FF0FF31 		mov	r1, #-1
 253 0004 0C30     		adds	r0, r0, #12
 254              	.LVL24:
 255              		.loc 1 104 10 view .LVU54
 256 0006 FFF7FEBF 		b	ibqGetTimeout
 257              	.LVL25:
 258              		.loc 1 104 10 view .LVU55
 259              		.cfi_endproc
 260              	.LFE338:
 261              		.size	_get, .-_get
 262              		.section	.text._putt,"ax",%progbits
 263              		.align	1
 264              		.syntax unified
 265              		.thumb
 266              		.thumb_func
 267              		.fpu fpv4-sp-d16
 268              		.type	_putt, %function
 269              	_putt:
 270              	.LVL26:
 271              	.LFB339:
 272              		.loc 1 107 64 is_stmt 1 view -0
 273              		.cfi_startproc
 274              		@ args = 0, pretend = 0, frame = 0
 275              		@ frame_needed = 0, uses_anonymous_args = 0
 276              		@ link register save eliminated.
 277              		.loc 1 109 3 view .LVU57
 278              		.loc 1 109 10 is_stmt 0 view .LVU58
 279 0000 4430     		adds	r0, r0, #68
 280              	.LVL27:
 281              		.loc 1 109 10 view .LVU59
 282 0002 FFF7FEBF 		b	obqPutTimeout
 283              	.LVL28:
 284              		.loc 1 109 10 view .LVU60
 285              		.cfi_endproc
ARM GAS  /tmp/cckSfGhE.s 			page 6


 286              	.LFE339:
 287              		.size	_putt, .-_putt
 288              		.section	.text._put,"ax",%progbits
 289              		.align	1
 290              		.syntax unified
 291              		.thumb
 292              		.thumb_func
 293              		.fpu fpv4-sp-d16
 294              		.type	_put, %function
 295              	_put:
 296              	.LVL29:
 297              	.LFB337:
 298              		.loc 1 97 40 is_stmt 1 view -0
 299              		.cfi_startproc
 300              		@ args = 0, pretend = 0, frame = 0
 301              		@ frame_needed = 0, uses_anonymous_args = 0
 302              		@ link register save eliminated.
 303              		.loc 1 99 3 view .LVU62
 304              		.loc 1 99 10 is_stmt 0 view .LVU63
 305 0000 4FF0FF32 		mov	r2, #-1
 306 0004 4430     		adds	r0, r0, #68
 307              	.LVL30:
 308              		.loc 1 99 10 view .LVU64
 309 0006 FFF7FEBF 		b	obqPutTimeout
 310              	.LVL31:
 311              		.loc 1 99 10 view .LVU65
 312              		.cfi_endproc
 313              	.LFE337:
 314              		.size	_put, .-_put
 315              		.section	.text._ctl,"ax",%progbits
 316              		.align	1
 317              		.syntax unified
 318              		.thumb
 319              		.thumb_func
 320              		.fpu fpv4-sp-d16
 321              		.type	_ctl, %function
 322              	_ctl:
 323              	.LFB361:
 324              		.cfi_startproc
 325              		@ args = 0, pretend = 0, frame = 0
 326              		@ frame_needed = 0, uses_anonymous_args = 0
 327              		@ link register save eliminated.
 328 0000 0020     		movs	r0, #0
 329 0002 7047     		bx	lr
 330              		.cfi_endproc
 331              	.LFE361:
 332              		.size	_ctl, .-_ctl
 333              		.section	.text.sdu_start_receive.isra.0,"ax",%progbits
 334              		.align	1
 335              		.syntax unified
 336              		.thumb
 337              		.thumb_func
 338              		.fpu fpv4-sp-d16
 339              		.type	sdu_start_receive.isra.0, %function
 340              	sdu_start_receive.isra.0:
 341              	.LVL32:
 342              	.LFB362:
ARM GAS  /tmp/cckSfGhE.s 			page 7


 343              		.loc 1 53 13 is_stmt 1 view -0
 344              		.cfi_startproc
 345              		@ args = 0, pretend = 0, frame = 0
 346              		@ frame_needed = 0, uses_anonymous_args = 0
 347              		.loc 1 54 3 view .LVU67
 348              		.loc 1 58 3 view .LVU68
 349              		.loc 1 58 8 is_stmt 0 view .LVU69
 350 0000 D0F88C34 		ldr	r3, [r0, #1164]
 351 0004 1A68     		ldr	r2, [r3]
 352              		.loc 1 53 13 view .LVU70
 353 0006 10B5     		push	{r4, lr}
 354              		.cfi_def_cfa_offset 8
 355              		.cfi_offset 4, -8
 356              		.cfi_offset 14, -4
 357              		.loc 1 58 6 view .LVU71
 358 0008 1178     		ldrb	r1, [r2]	@ zero_extendqisi2
 359              		.loc 1 53 13 view .LVU72
 360 000a 0446     		mov	r4, r0
 361              		.loc 1 58 6 view .LVU73
 362 000c 0429     		cmp	r1, #4
 363 000e 17D1     		bne	.L13
 364              		.loc 1 58 62 view .LVU74
 365 0010 017A     		ldrb	r1, [r0, #8]	@ zero_extendqisi2
 366 0012 0229     		cmp	r1, #2
 367 0014 14D1     		bne	.L13
 368              		.loc 1 64 3 is_stmt 1 view .LVU75
 369              		.loc 1 64 7 is_stmt 0 view .LVU76
 370 0016 1979     		ldrb	r1, [r3, #4]	@ zero_extendqisi2
 371 0018 0123     		movs	r3, #1
 372 001a 5289     		ldrh	r2, [r2, #10]
 373 001c 8B40     		lsls	r3, r3, r1
 374              		.loc 1 64 6 view .LVU77
 375 001e 1342     		tst	r3, r2
 376 0020 0ED1     		bne	.L13
 377              	.LVL33:
 378              	.LBB77:
 379              	.LBI77:
 380              		.loc 1 53 13 is_stmt 1 view .LVU78
 381              	.LBB78:
 382              		.loc 1 69 3 view .LVU79
 383              		.loc 1 69 9 is_stmt 0 view .LVU80
 384 0022 0C30     		adds	r0, r0, #12
 385              	.LVL34:
 386              		.loc 1 69 9 view .LVU81
 387 0024 FFF7FEFF 		bl	ibqGetEmptyBufferI
 388              	.LVL35:
 389              		.loc 1 70 3 is_stmt 1 view .LVU82
 390              		.loc 1 70 6 is_stmt 0 view .LVU83
 391 0028 0246     		mov	r2, r0
 392 002a 48B1     		cbz	r0, .L13
 393              		.loc 1 75 3 is_stmt 1 view .LVU84
 394              		.loc 1 75 24 is_stmt 0 view .LVU85
 395 002c D4F88C44 		ldr	r4, [r4, #1164]
 396              	.LVL36:
 397              		.loc 1 75 3 view .LVU86
 398 0030 4FF48073 		mov	r3, #256
 399 0034 6179     		ldrb	r1, [r4, #5]	@ zero_extendqisi2
ARM GAS  /tmp/cckSfGhE.s 			page 8


 400 0036 2068     		ldr	r0, [r4]
 401              	.LVL37:
 402              		.loc 1 75 3 view .LVU87
 403              	.LBE78:
 404              	.LBE77:
 405              		.loc 1 79 1 view .LVU88
 406 0038 BDE81040 		pop	{r4, lr}
 407              		.cfi_remember_state
 408              		.cfi_restore 14
 409              		.cfi_restore 4
 410              		.cfi_def_cfa_offset 0
 411              	.LBB80:
 412              	.LBB79:
 413              		.loc 1 75 3 view .LVU89
 414 003c FFF7FEBF 		b	usbStartReceiveI
 415              	.LVL38:
 416              	.L13:
 417              		.cfi_restore_state
 418              		.loc 1 75 3 view .LVU90
 419              	.LBE79:
 420              	.LBE80:
 421              		.loc 1 79 1 view .LVU91
 422 0040 10BD     		pop	{r4, pc}
 423              		.loc 1 79 1 view .LVU92
 424              		.cfi_endproc
 425              	.LFE362:
 426              		.size	sdu_start_receive.isra.0, .-sdu_start_receive.isra.0
 427              		.section	.text.ibnotify,"ax",%progbits
 428              		.align	1
 429              		.syntax unified
 430              		.thumb
 431              		.thumb_func
 432              		.fpu fpv4-sp-d16
 433              		.type	ibnotify, %function
 434              	ibnotify:
 435              	.LVL39:
 436              	.LFB344:
 437              		.loc 1 168 47 is_stmt 1 view -0
 438              		.cfi_startproc
 439              		@ args = 0, pretend = 0, frame = 0
 440              		@ frame_needed = 0, uses_anonymous_args = 0
 441              		@ link register save eliminated.
 442              		.loc 1 169 3 view .LVU94
 443              		.loc 1 170 3 view .LVU95
 444              		.loc 1 170 10 is_stmt 0 view .LVU96
 445 0000 406B     		ldr	r0, [r0, #52]
 446              	.LVL40:
 447              		.loc 1 170 10 view .LVU97
 448 0002 FFF7FEBF 		b	sdu_start_receive.isra.0
 449              	.LVL41:
 450              		.loc 1 170 10 view .LVU98
 451              		.cfi_endproc
 452              	.LFE344:
 453              		.size	ibnotify, .-ibnotify
 454              		.section	.text.sduInit,"ax",%progbits
 455              		.align	1
 456              		.global	sduInit
ARM GAS  /tmp/cckSfGhE.s 			page 9


 457              		.syntax unified
 458              		.thumb
 459              		.thumb_func
 460              		.fpu fpv4-sp-d16
 461              		.type	sduInit, %function
 462              	sduInit:
 463              	.LFB346:
 464              		.loc 1 210 20 is_stmt 1 view -0
 465              		.cfi_startproc
 466              		@ args = 0, pretend = 0, frame = 0
 467              		@ frame_needed = 0, uses_anonymous_args = 0
 468              		@ link register save eliminated.
 469              		.loc 1 211 1 view .LVU100
 470 0000 7047     		bx	lr
 471              		.cfi_endproc
 472              	.LFE346:
 473              		.size	sduInit, .-sduInit
 474              		.section	.text.sduObjectInit,"ax",%progbits
 475              		.align	1
 476              		.global	sduObjectInit
 477              		.syntax unified
 478              		.thumb
 479              		.thumb_func
 480              		.fpu fpv4-sp-d16
 481              		.type	sduObjectInit, %function
 482              	sduObjectInit:
 483              	.LVL42:
 484              	.LFB347:
 485              		.loc 1 222 43 view -0
 486              		.cfi_startproc
 487              		@ args = 0, pretend = 0, frame = 0
 488              		@ frame_needed = 0, uses_anonymous_args = 0
 489              		.loc 1 224 3 view .LVU102
 490              		.loc 1 222 43 is_stmt 0 view .LVU103
 491 0000 7FB5     		push	{r0, r1, r2, r3, r4, r5, r6, lr}
 492              		.cfi_def_cfa_offset 32
 493              		.cfi_offset 4, -16
 494              		.cfi_offset 5, -12
 495              		.cfi_offset 6, -8
 496              		.cfi_offset 14, -4
 497              		.loc 1 224 13 view .LVU104
 498 0002 0346     		mov	r3, r0
 499 0004 114A     		ldr	r2, .L23
 500              		.loc 1 226 15 view .LVU105
 501 0006 0125     		movs	r5, #1
 502              		.loc 1 227 3 view .LVU106
 503 0008 0226     		movs	r6, #2
 504              		.loc 1 224 13 view .LVU107
 505 000a 43F8042B 		str	r2, [r3], #4
 506              		.loc 1 225 3 is_stmt 1 view .LVU108
 507              	.LVL43:
 508              	.LBB81:
 509              	.LBI81:
 510              		.file 2 "../../modules/ChibiOS/os/hal/osal/rt/osal.h"
 511              		.loc 2 868 20 view .LVU109
 512              	.LBE81:
 513              		.loc 2 870 3 view .LVU110
ARM GAS  /tmp/cckSfGhE.s 			page 10


 514              	.LBB86:
 515              	.LBB82:
 516              	.LBI82:
 517              		.file 3 "../../modules/ChibiOS/os/rt/include/chevents.h"
 518              		.loc 3 171 20 view .LVU111
 519              	.LBB83:
 520              		.loc 3 173 3 view .LVU112
 521              	.LBE83:
 522              	.LBE82:
 523              	.LBE86:
 524              		.loc 1 222 43 is_stmt 0 view .LVU113
 525 000e 0446     		mov	r4, r0
 526              	.LBB87:
 527              	.LBB85:
 528              	.LBB84:
 529              		.loc 3 173 13 view .LVU114
 530 0010 4360     		str	r3, [r0, #4]
 531              	.LVL44:
 532              		.loc 3 173 13 view .LVU115
 533              	.LBE84:
 534              	.LBE85:
 535              	.LBE87:
 536              		.loc 1 226 3 is_stmt 1 view .LVU116
 537              		.loc 1 227 3 is_stmt 0 view .LVU117
 538 0012 00F17C02 		add	r2, r0, #124
 539 0016 0E4B     		ldr	r3, .L23+4
 540 0018 2946     		mov	r1, r5
 541              		.loc 1 226 15 view .LVU118
 542 001a 0572     		strb	r5, [r0, #8]
 543              		.loc 1 227 3 is_stmt 1 view .LVU119
 544 001c 0290     		str	r0, [sp, #8]
 545 001e 0C30     		adds	r0, r0, #12
 546              	.LVL45:
 547              		.loc 1 227 3 is_stmt 0 view .LVU120
 548 0020 0193     		str	r3, [sp, #4]
 549 0022 4FF48073 		mov	r3, #256
 550 0026 0096     		str	r6, [sp]
 551 0028 FFF7FEFF 		bl	ibqObjectInit
 552              	.LVL46:
 553              		.loc 1 230 3 is_stmt 1 view .LVU121
 554 002c 094B     		ldr	r3, .L23+8
 555 002e 04F52172 		add	r2, r4, #644
 556 0032 2946     		mov	r1, r5
 557 0034 04F14400 		add	r0, r4, #68
 558 0038 0294     		str	r4, [sp, #8]
 559 003a CDE90063 		strd	r6, r3, [sp]
 560 003e 4FF48073 		mov	r3, #256
 561 0042 FFF7FEFF 		bl	obqObjectInit
 562              	.LVL47:
 563              		.loc 1 233 1 is_stmt 0 view .LVU122
 564 0046 04B0     		add	sp, sp, #16
 565              		.cfi_def_cfa_offset 16
 566              		@ sp needed
 567 0048 70BD     		pop	{r4, r5, r6, pc}
 568              	.LVL48:
 569              	.L24:
 570              		.loc 1 233 1 view .LVU123
ARM GAS  /tmp/cckSfGhE.s 			page 11


 571 004a 00BF     		.align	2
 572              	.L23:
 573 004c 00000000 		.word	.LANCHOR0
 574 0050 00000000 		.word	ibnotify
 575 0054 00000000 		.word	obnotify
 576              		.cfi_endproc
 577              	.LFE347:
 578              		.size	sduObjectInit, .-sduObjectInit
 579              		.section	.text.sduStart,"ax",%progbits
 580              		.align	1
 581              		.global	sduStart
 582              		.syntax unified
 583              		.thumb
 584              		.thumb_func
 585              		.fpu fpv4-sp-d16
 586              		.type	sduStart, %function
 587              	sduStart:
 588              	.LVL49:
 589              	.LFB348:
 590              		.loc 1 243 69 is_stmt 1 view -0
 591              		.cfi_startproc
 592              		@ args = 0, pretend = 0, frame = 0
 593              		@ frame_needed = 0, uses_anonymous_args = 0
 594              		.loc 1 244 3 view .LVU125
 595              		.loc 1 243 69 is_stmt 0 view .LVU126
 596 0000 70B5     		push	{r4, r5, r6, lr}
 597              		.cfi_def_cfa_offset 16
 598              		.cfi_offset 4, -16
 599              		.cfi_offset 5, -12
 600              		.cfi_offset 6, -8
 601              		.cfi_offset 14, -4
 602              	.LBB102:
 603              	.LBB103:
 604              	.LBB104:
 605              	.LBB105:
 606              	.LBB106:
 607              	.LBB107:
 608              		.file 4 "../../modules/ChibiOS/os/common/ext/ARM/CMSIS/Core/Include/cmsis_gcc.h"
 609              		.loc 4 493 3 view .LVU127
 610 0002 2023     		movs	r3, #32
 611              	.LBE107:
 612              	.LBE106:
 613              	.LBE105:
 614              	.LBE104:
 615              	.LBE103:
 616              	.LBE102:
 617              		.loc 1 243 69 view .LVU128
 618 0004 0446     		mov	r4, r0
 619 0006 0D46     		mov	r5, r1
 620              		.loc 1 244 14 view .LVU129
 621 0008 0E68     		ldr	r6, [r1]
 622              	.LVL50:
 623              		.loc 1 246 3 is_stmt 1 view .LVU130
 624              		.loc 1 246 3 view .LVU131
 625              		.loc 1 246 3 view .LVU132
 626              		.loc 1 248 3 view .LVU133
 627              	.LBB116:
ARM GAS  /tmp/cckSfGhE.s 			page 12


 628              	.LBI102:
 629              		.loc 2 509 20 view .LVU134
 630              	.LBE116:
 631              		.loc 2 511 3 view .LVU135
 632              	.LBB117:
 633              	.LBB114:
 634              	.LBI103:
 635              		.file 5 "../../modules/ChibiOS/os/rt/include/chsys.h"
 636              		.loc 5 353 20 view .LVU136
 637              	.LBB112:
 638              		.loc 5 355 3 view .LVU137
 639              	.LBB110:
 640              	.LBI105:
 641              		.file 6 "../../modules/ChibiOS/os/common/ports/ARMCMx/chcore_v7m.h"
 642              		.loc 6 602 20 view .LVU138
 643              	.LBE110:
 644              	.LBE112:
 645              	.LBE114:
 646              	.LBE117:
 647              		.loc 6 610 3 view .LVU139
 648              	.LBB118:
 649              	.LBB115:
 650              	.LBB113:
 651              	.LBB111:
 652              	.LBB109:
 653              	.LBI106:
 654              		.loc 4 491 27 view .LVU140
 655              	.LBB108:
 656              		.loc 4 493 3 view .LVU141
 657              		.syntax unified
 658              	@ 493 "../../modules/ChibiOS/os/common/ext/ARM/CMSIS/Core/Include/cmsis_gcc.h" 1
 659 000a 83F31188 		MSR basepri, r3
 660              	@ 0 "" 2
 661              	.LVL51:
 662              		.loc 4 493 3 is_stmt 0 view .LVU142
 663              		.thumb
 664              		.syntax unified
 665              	.LBE108:
 666              	.LBE109:
 667              	.LBE111:
 668              		.loc 5 356 3 is_stmt 1 view .LVU143
 669 000e FFF7FEFF 		bl	_stats_start_measure_crit_thd
 670              	.LVL52:
 671              		.loc 5 357 20 view .LVU144
 672              	.LBE113:
 673              	.LBE115:
 674              	.LBE118:
 675              		.loc 1 249 3 view .LVU145
 676              		.loc 1 249 3 view .LVU146
 677              		.loc 1 249 3 view .LVU147
 678              		.loc 1 251 3 view .LVU148
 679              		.loc 1 251 25 is_stmt 0 view .LVU149
 680 0012 2B79     		ldrb	r3, [r5, #4]	@ zero_extendqisi2
 681              		.loc 1 251 43 view .LVU150
 682 0014 06EB8303 		add	r3, r6, r3, lsl #2
 683 0018 1C62     		str	r4, [r3, #32]
 684              		.loc 1 252 3 is_stmt 1 view .LVU151
ARM GAS  /tmp/cckSfGhE.s 			page 13


 685              		.loc 1 252 26 is_stmt 0 view .LVU152
 686 001a 6B79     		ldrb	r3, [r5, #5]	@ zero_extendqisi2
 687              		.loc 1 252 43 view .LVU153
 688 001c 0D33     		adds	r3, r3, #13
 689 001e 46F82340 		str	r4, [r6, r3, lsl #2]
 690              		.loc 1 253 3 is_stmt 1 view .LVU154
 691              		.loc 1 253 13 is_stmt 0 view .LVU155
 692 0022 AB79     		ldrb	r3, [r5, #6]	@ zero_extendqisi2
 693              		.loc 1 253 6 view .LVU156
 694 0024 13B1     		cbz	r3, .L26
 695              		.loc 1 254 5 is_stmt 1 view .LVU157
 696              		.loc 1 254 43 is_stmt 0 view .LVU158
 697 0026 06EB8306 		add	r6, r6, r3, lsl #2
 698              	.LVL53:
 699              		.loc 1 254 43 view .LVU159
 700 002a 3462     		str	r4, [r6, #32]
 701              	.L26:
 702              		.loc 1 256 3 is_stmt 1 view .LVU160
 703              		.loc 1 257 15 is_stmt 0 view .LVU161
 704 002c 0223     		movs	r3, #2
 705              		.loc 1 256 16 view .LVU162
 706 002e C4F88C54 		str	r5, [r4, #1164]
 707              		.loc 1 257 3 is_stmt 1 view .LVU163
 708              		.loc 1 257 15 is_stmt 0 view .LVU164
 709 0032 2372     		strb	r3, [r4, #8]
 710              		.loc 1 258 3 is_stmt 1 view .LVU165
 711              	.LBB119:
 712              	.LBI119:
 713              		.loc 2 520 20 view .LVU166
 714              	.LBE119:
 715              		.loc 2 522 3 view .LVU167
 716              	.LBB128:
 717              	.LBB120:
 718              	.LBI120:
 719              		.loc 5 365 20 view .LVU168
 720              	.LBB121:
 721              		.loc 5 367 22 view .LVU169
 722              		.loc 5 368 3 view .LVU170
 723 0034 FFF7FEFF 		bl	_stats_stop_measure_crit_thd
 724              	.LVL54:
 725              		.loc 5 374 3 view .LVU171
 726              		.loc 5 374 3 view .LVU172
 727              		.loc 5 374 3 view .LVU173
 728              		.loc 5 378 3 view .LVU174
 729              	.LBB122:
 730              	.LBI122:
 731              		.loc 6 626 20 view .LVU175
 732              	.LBE122:
 733              	.LBE121:
 734              	.LBE120:
 735              	.LBE128:
 736              		.loc 6 629 3 view .LVU176
 737              	.LBB129:
 738              	.LBB127:
 739              	.LBB126:
 740              	.LBB125:
 741              	.LBB123:
ARM GAS  /tmp/cckSfGhE.s 			page 14


 742              	.LBI123:
 743              		.loc 4 491 27 view .LVU177
 744              	.LBB124:
 745              		.loc 4 493 3 view .LVU178
 746 0038 0023     		movs	r3, #0
 747              		.syntax unified
 748              	@ 493 "../../modules/ChibiOS/os/common/ext/ARM/CMSIS/Core/Include/cmsis_gcc.h" 1
 749 003a 83F31188 		MSR basepri, r3
 750              	@ 0 "" 2
 751              	.LVL55:
 752              		.loc 4 493 3 is_stmt 0 view .LVU179
 753              		.thumb
 754              		.syntax unified
 755              	.LBE124:
 756              	.LBE123:
 757              	.LBE125:
 758              	.LBE126:
 759              	.LBE127:
 760              	.LBE129:
 761              		.loc 1 259 1 view .LVU180
 762 003e 70BD     		pop	{r4, r5, r6, pc}
 763              		.loc 1 259 1 view .LVU181
 764              		.cfi_endproc
 765              	.LFE348:
 766              		.size	sduStart, .-sduStart
 767              		.section	.text.sduStop,"ax",%progbits
 768              		.align	1
 769              		.global	sduStop
 770              		.syntax unified
 771              		.thumb
 772              		.thumb_func
 773              		.fpu fpv4-sp-d16
 774              		.type	sduStop, %function
 775              	sduStop:
 776              	.LVL56:
 777              	.LFB349:
 778              		.loc 1 270 37 is_stmt 1 view -0
 779              		.cfi_startproc
 780              		@ args = 0, pretend = 0, frame = 0
 781              		@ frame_needed = 0, uses_anonymous_args = 0
 782              		.loc 1 271 3 view .LVU183
 783              		.loc 1 270 37 is_stmt 0 view .LVU184
 784 0000 38B5     		push	{r3, r4, r5, lr}
 785              		.cfi_def_cfa_offset 16
 786              		.cfi_offset 3, -16
 787              		.cfi_offset 4, -12
 788              		.cfi_offset 5, -8
 789              		.cfi_offset 14, -4
 790              		.loc 1 271 14 view .LVU185
 791 0002 D0F88C34 		ldr	r3, [r0, #1164]
 792              		.loc 1 270 37 view .LVU186
 793 0006 0446     		mov	r4, r0
 794              		.loc 1 271 14 view .LVU187
 795 0008 1D68     		ldr	r5, [r3]
 796              	.LVL57:
 797              		.loc 1 273 3 is_stmt 1 view .LVU188
 798              		.loc 1 273 3 view .LVU189
ARM GAS  /tmp/cckSfGhE.s 			page 15


 799              		.loc 1 273 3 view .LVU190
 800              		.loc 1 275 3 view .LVU191
 801              	.LBB148:
 802              	.LBI148:
 803              		.loc 2 509 20 view .LVU192
 804              	.LBE148:
 805              		.loc 2 511 3 view .LVU193
 806              	.LBB157:
 807              	.LBB149:
 808              	.LBI149:
 809              		.loc 5 353 20 view .LVU194
 810              	.LBB150:
 811              		.loc 5 355 3 view .LVU195
 812              	.LBB151:
 813              	.LBI151:
 814              		.loc 6 602 20 view .LVU196
 815              	.LBE151:
 816              	.LBE150:
 817              	.LBE149:
 818              	.LBE157:
 819              		.loc 6 610 3 view .LVU197
 820              	.LBB158:
 821              	.LBB156:
 822              	.LBB155:
 823              	.LBB154:
 824              	.LBB152:
 825              	.LBI152:
 826              		.loc 4 491 27 view .LVU198
 827              	.LBB153:
 828              		.loc 4 493 3 view .LVU199
 829 000a 2023     		movs	r3, #32
 830              		.syntax unified
 831              	@ 493 "../../modules/ChibiOS/os/common/ext/ARM/CMSIS/Core/Include/cmsis_gcc.h" 1
 832 000c 83F31188 		MSR basepri, r3
 833              	@ 0 "" 2
 834              	.LVL58:
 835              		.loc 4 493 3 is_stmt 0 view .LVU200
 836              		.thumb
 837              		.syntax unified
 838              	.LBE153:
 839              	.LBE152:
 840              	.LBE154:
 841              		.loc 5 356 3 is_stmt 1 view .LVU201
 842 0010 FFF7FEFF 		bl	_stats_start_measure_crit_thd
 843              	.LVL59:
 844              		.loc 5 357 20 view .LVU202
 845              	.LBE155:
 846              	.LBE156:
 847              	.LBE158:
 848              		.loc 1 277 3 view .LVU203
 849              		.loc 1 277 3 view .LVU204
 850              		.loc 1 277 3 view .LVU205
 851              		.loc 1 281 3 view .LVU206
 852              		.loc 1 281 23 is_stmt 0 view .LVU207
 853 0014 D4F88C14 		ldr	r1, [r4, #1164]
 854              		.loc 1 281 49 view .LVU208
 855 0018 0022     		movs	r2, #0
ARM GAS  /tmp/cckSfGhE.s 			page 16


 856              		.loc 1 281 31 view .LVU209
 857 001a 0B79     		ldrb	r3, [r1, #4]	@ zero_extendqisi2
 858              		.loc 1 281 49 view .LVU210
 859 001c 0733     		adds	r3, r3, #7
 860 001e 05EB8303 		add	r3, r5, r3, lsl #2
 861 0022 5A60     		str	r2, [r3, #4]
 862              		.loc 1 282 3 is_stmt 1 view .LVU211
 863              		.loc 1 282 32 is_stmt 0 view .LVU212
 864 0024 4B79     		ldrb	r3, [r1, #5]	@ zero_extendqisi2
 865              		.loc 1 282 49 view .LVU213
 866 0026 0D33     		adds	r3, r3, #13
 867 0028 45F82320 		str	r2, [r5, r3, lsl #2]
 868              		.loc 1 283 3 is_stmt 1 view .LVU214
 869              		.loc 1 283 19 is_stmt 0 view .LVU215
 870 002c 8B79     		ldrb	r3, [r1, #6]	@ zero_extendqisi2
 871              		.loc 1 283 6 view .LVU216
 872 002e 1BB1     		cbz	r3, .L31
 873              		.loc 1 284 5 is_stmt 1 view .LVU217
 874              		.loc 1 284 49 is_stmt 0 view .LVU218
 875 0030 0733     		adds	r3, r3, #7
 876 0032 05EB8305 		add	r5, r5, r3, lsl #2
 877              	.LVL60:
 878              		.loc 1 284 49 view .LVU219
 879 0036 6A60     		str	r2, [r5, #4]
 880              	.L31:
 881              		.loc 1 286 3 is_stmt 1 view .LVU220
 882              		.loc 1 287 16 is_stmt 0 view .LVU221
 883 0038 0123     		movs	r3, #1
 884              		.loc 1 286 16 view .LVU222
 885 003a 0025     		movs	r5, #0
 886              	.LBB159:
 887              	.LBB160:
 888              		.loc 2 895 3 view .LVU223
 889 003c 0221     		movs	r1, #2
 890 003e 201D     		adds	r0, r4, #4
 891              	.LBE160:
 892              	.LBE159:
 893              		.loc 1 287 16 view .LVU224
 894 0040 2372     		strb	r3, [r4, #8]
 895              		.loc 1 286 16 view .LVU225
 896 0042 C4F88C54 		str	r5, [r4, #1164]
 897              		.loc 1 287 3 is_stmt 1 view .LVU226
 898              		.loc 1 290 3 view .LVU227
 899              	.LVL61:
 900              	.LBB162:
 901              	.LBI159:
 902              		.loc 2 892 20 view .LVU228
 903              	.LBB161:
 904              		.loc 2 895 3 view .LVU229
 905 0046 FFF7FEFF 		bl	chEvtBroadcastFlagsI
 906              	.LVL62:
 907              		.loc 2 895 3 is_stmt 0 view .LVU230
 908              	.LBE161:
 909              	.LBE162:
 910              		.loc 1 290 39 is_stmt 1 view .LVU231
 911              		.loc 1 291 3 view .LVU232
 912 004a 04F10C00 		add	r0, r4, #12
ARM GAS  /tmp/cckSfGhE.s 			page 17


 913 004e FFF7FEFF 		bl	ibqResetI
 914              	.LVL63:
 915              		.loc 1 292 3 view .LVU233
 916 0052 04F14400 		add	r0, r4, #68
 917 0056 FFF7FEFF 		bl	obqResetI
 918              	.LVL64:
 919              		.loc 1 293 3 view .LVU234
 920              	.LBB163:
 921              	.LBI163:
 922              		.loc 2 616 20 view .LVU235
 923              	.LBB164:
 924              		.loc 2 618 3 view .LVU236
 925 005a FFF7FEFF 		bl	chSchRescheduleS
 926              	.LVL65:
 927              	.LBE164:
 928              	.LBE163:
 929              		.loc 1 295 3 view .LVU237
 930              	.LBB165:
 931              	.LBI165:
 932              		.loc 2 520 20 view .LVU238
 933              	.LBE165:
 934              		.loc 2 522 3 view .LVU239
 935              	.LBB174:
 936              	.LBB166:
 937              	.LBI166:
 938              		.loc 5 365 20 view .LVU240
 939              	.LBB167:
 940              		.loc 5 367 22 view .LVU241
 941              		.loc 5 368 3 view .LVU242
 942 005e FFF7FEFF 		bl	_stats_stop_measure_crit_thd
 943              	.LVL66:
 944              		.loc 5 374 3 view .LVU243
 945              		.loc 5 374 3 view .LVU244
 946              		.loc 5 374 3 view .LVU245
 947              		.loc 5 378 3 view .LVU246
 948              	.LBB168:
 949              	.LBI168:
 950              		.loc 6 626 20 view .LVU247
 951              	.LBE168:
 952              	.LBE167:
 953              	.LBE166:
 954              	.LBE174:
 955              		.loc 6 629 3 view .LVU248
 956              	.LBB175:
 957              	.LBB173:
 958              	.LBB172:
 959              	.LBB171:
 960              	.LBB169:
 961              	.LBI169:
 962              		.loc 4 491 27 view .LVU249
 963              	.LBB170:
 964              		.loc 4 493 3 view .LVU250
 965              		.syntax unified
 966              	@ 493 "../../modules/ChibiOS/os/common/ext/ARM/CMSIS/Core/Include/cmsis_gcc.h" 1
 967 0062 85F31188 		MSR basepri, r5
 968              	@ 0 "" 2
 969              	.LVL67:
ARM GAS  /tmp/cckSfGhE.s 			page 18


 970              		.loc 4 493 3 is_stmt 0 view .LVU251
 971              		.thumb
 972              		.syntax unified
 973              	.LBE170:
 974              	.LBE169:
 975              	.LBE171:
 976              	.LBE172:
 977              	.LBE173:
 978              	.LBE175:
 979              		.loc 1 296 1 view .LVU252
 980 0066 38BD     		pop	{r3, r4, r5, pc}
 981              		.loc 1 296 1 view .LVU253
 982              		.cfi_endproc
 983              	.LFE349:
 984              		.size	sduStop, .-sduStop
 985              		.section	.text.sduSuspendHookI,"ax",%progbits
 986              		.align	1
 987              		.global	sduSuspendHookI
 988              		.syntax unified
 989              		.thumb
 990              		.thumb_func
 991              		.fpu fpv4-sp-d16
 992              		.type	sduSuspendHookI, %function
 993              	sduSuspendHookI:
 994              	.LVL68:
 995              	.LFB350:
 996              		.loc 1 310 45 is_stmt 1 view -0
 997              		.cfi_startproc
 998              		@ args = 0, pretend = 0, frame = 0
 999              		@ frame_needed = 0, uses_anonymous_args = 0
 1000              		.loc 1 313 3 view .LVU255
 1001              		.loc 1 310 45 is_stmt 0 view .LVU256
 1002 0000 38B5     		push	{r3, r4, r5, lr}
 1003              		.cfi_def_cfa_offset 16
 1004              		.cfi_offset 3, -16
 1005              		.cfi_offset 4, -12
 1006              		.cfi_offset 5, -8
 1007              		.cfi_offset 14, -4
 1008              		.loc 1 313 5 view .LVU257
 1009 0002 037D     		ldrb	r3, [r0, #20]	@ zero_extendqisi2
 1010              		.loc 1 310 45 view .LVU258
 1011 0004 0446     		mov	r4, r0
 1012              		.loc 1 313 5 view .LVU259
 1013 0006 13B1     		cbz	r3, .L36
 1014              		.loc 1 313 37 discriminator 1 view .LVU260
 1015 0008 90F84C30 		ldrb	r3, [r0, #76]	@ zero_extendqisi2
 1016 000c ABB9     		cbnz	r3, .L35
 1017              	.L36:
 1018              		.loc 1 316 3 is_stmt 1 view .LVU261
 1019              	.LVL69:
 1020              	.LBB176:
 1021              	.LBI176:
 1022              		.loc 2 892 20 view .LVU262
 1023              	.LBB177:
 1024              		.loc 2 895 3 view .LVU263
 1025              	.LBE177:
 1026              	.LBE176:
ARM GAS  /tmp/cckSfGhE.s 			page 19


 1027              		.loc 1 317 3 is_stmt 0 view .LVU264
 1028 000e 0125     		movs	r5, #1
 1029              	.LBB179:
 1030              	.LBB178:
 1031              		.loc 2 895 3 view .LVU265
 1032 0010 201D     		adds	r0, r4, #4
 1033              	.LVL70:
 1034              		.loc 2 895 3 view .LVU266
 1035 0012 0221     		movs	r1, #2
 1036 0014 FFF7FEFF 		bl	chEvtBroadcastFlagsI
 1037              	.LVL71:
 1038              		.loc 2 895 3 view .LVU267
 1039              	.LBE178:
 1040              	.LBE179:
 1041              		.loc 1 316 39 is_stmt 1 view .LVU268
 1042              		.loc 1 317 3 view .LVU269
 1043              	.LBB180:
 1044              	.LBB181:
 1045              		.loc 2 857 3 is_stmt 0 view .LVU270
 1046 0018 04F10C00 		add	r0, r4, #12
 1047 001c 6FF00101 		mvn	r1, #1
 1048              	.LBE181:
 1049              	.LBE180:
 1050              		.loc 1 317 3 view .LVU271
 1051 0020 2575     		strb	r5, [r4, #20]
 1052              		.loc 1 317 3 is_stmt 1 view .LVU272
 1053              	.LVL72:
 1054              	.LBB183:
 1055              	.LBI180:
 1056              		.loc 2 855 20 view .LVU273
 1057              	.LBB182:
 1058              		.loc 2 857 3 view .LVU274
 1059 0022 FFF7FEFF 		bl	chThdDequeueAllI
 1060              	.LVL73:
 1061              		.loc 2 857 3 is_stmt 0 view .LVU275
 1062              	.LBE182:
 1063              	.LBE183:
 1064              		.loc 1 317 29 is_stmt 1 view .LVU276
 1065              		.loc 1 318 3 view .LVU277
 1066              	.LBB184:
 1067              	.LBB185:
 1068              		.loc 2 857 3 is_stmt 0 view .LVU278
 1069 0026 04F14400 		add	r0, r4, #68
 1070              	.LBE185:
 1071              	.LBE184:
 1072              		.loc 1 318 3 view .LVU279
 1073 002a 84F84C50 		strb	r5, [r4, #76]
 1074              		.loc 1 318 3 is_stmt 1 view .LVU280
 1075              	.LVL74:
 1076              	.LBB188:
 1077              	.LBI184:
 1078              		.loc 2 855 20 view .LVU281
 1079              	.LBB186:
 1080              		.loc 2 857 3 view .LVU282
 1081 002e 6FF00101 		mvn	r1, #1
 1082              	.LBE186:
 1083              	.LBE188:
ARM GAS  /tmp/cckSfGhE.s 			page 20


 1084              		.loc 1 319 1 is_stmt 0 view .LVU283
 1085 0032 BDE83840 		pop	{r3, r4, r5, lr}
 1086              		.cfi_remember_state
 1087              		.cfi_restore 14
 1088              		.cfi_restore 5
 1089              		.cfi_restore 4
 1090              		.cfi_restore 3
 1091              		.cfi_def_cfa_offset 0
 1092              	.LVL75:
 1093              	.LBB189:
 1094              	.LBB187:
 1095              		.loc 2 857 3 view .LVU284
 1096 0036 FFF7FEBF 		b	chThdDequeueAllI
 1097              	.LVL76:
 1098              	.L35:
 1099              		.cfi_restore_state
 1100              		.loc 2 857 3 view .LVU285
 1101              	.LBE187:
 1102              	.LBE189:
 1103              		.loc 1 319 1 view .LVU286
 1104 003a 38BD     		pop	{r3, r4, r5, pc}
 1105              		.cfi_endproc
 1106              	.LFE350:
 1107              		.size	sduSuspendHookI, .-sduSuspendHookI
 1108              		.section	.text.sduWakeupHookI,"ax",%progbits
 1109              		.align	1
 1110              		.global	sduWakeupHookI
 1111              		.syntax unified
 1112              		.thumb
 1113              		.thumb_func
 1114              		.fpu fpv4-sp-d16
 1115              		.type	sduWakeupHookI, %function
 1116              	sduWakeupHookI:
 1117              	.LVL77:
 1118              	.LFB351:
 1119              		.loc 1 333 44 is_stmt 1 view -0
 1120              		.cfi_startproc
 1121              		@ args = 0, pretend = 0, frame = 0
 1122              		@ frame_needed = 0, uses_anonymous_args = 0
 1123              		.loc 1 335 3 view .LVU288
 1124              	.LBB190:
 1125              	.LBI190:
 1126              		.loc 2 892 20 view .LVU289
 1127              	.LBB191:
 1128              		.loc 2 895 3 view .LVU290
 1129              	.LBE191:
 1130              	.LBE190:
 1131              		.loc 1 333 44 is_stmt 0 view .LVU291
 1132 0000 10B5     		push	{r4, lr}
 1133              		.cfi_def_cfa_offset 8
 1134              		.cfi_offset 4, -8
 1135              		.cfi_offset 14, -4
 1136              	.LBB194:
 1137              	.LBB192:
 1138              		.loc 2 895 3 view .LVU292
 1139 0002 0121     		movs	r1, #1
 1140              	.LBE192:
ARM GAS  /tmp/cckSfGhE.s 			page 21


 1141              	.LBE194:
 1142              		.loc 1 333 44 view .LVU293
 1143 0004 0446     		mov	r4, r0
 1144              	.LBB195:
 1145              	.LBB193:
 1146              		.loc 2 895 3 view .LVU294
 1147 0006 0430     		adds	r0, r0, #4
 1148              	.LVL78:
 1149              		.loc 2 895 3 view .LVU295
 1150 0008 FFF7FEFF 		bl	chEvtBroadcastFlagsI
 1151              	.LVL79:
 1152              		.loc 2 895 3 view .LVU296
 1153              	.LBE193:
 1154              	.LBE195:
 1155              		.loc 1 335 36 is_stmt 1 view .LVU297
 1156              		.loc 1 336 3 view .LVU298
 1157 000c 0023     		movs	r3, #0
 1158 000e 2375     		strb	r3, [r4, #20]
 1159              		.loc 1 336 28 view .LVU299
 1160              		.loc 1 337 3 view .LVU300
 1161 0010 84F84C30 		strb	r3, [r4, #76]
 1162              		.loc 1 337 28 view .LVU301
 1163              		.loc 1 338 1 is_stmt 0 view .LVU302
 1164 0014 10BD     		pop	{r4, pc}
 1165              		.loc 1 338 1 view .LVU303
 1166              		.cfi_endproc
 1167              	.LFE351:
 1168              		.size	sduWakeupHookI, .-sduWakeupHookI
 1169              		.section	.text.sduConfigureHookI,"ax",%progbits
 1170              		.align	1
 1171              		.global	sduConfigureHookI
 1172              		.syntax unified
 1173              		.thumb
 1174              		.thumb_func
 1175              		.fpu fpv4-sp-d16
 1176              		.type	sduConfigureHookI, %function
 1177              	sduConfigureHookI:
 1178              	.LVL80:
 1179              	.LFB352:
 1180              		.loc 1 347 47 is_stmt 1 view -0
 1181              		.cfi_startproc
 1182              		@ args = 0, pretend = 0, frame = 0
 1183              		@ frame_needed = 0, uses_anonymous_args = 0
 1184              		.loc 1 349 3 view .LVU305
 1185              		.loc 1 347 47 is_stmt 0 view .LVU306
 1186 0000 38B5     		push	{r3, r4, r5, lr}
 1187              		.cfi_def_cfa_offset 16
 1188              		.cfi_offset 3, -16
 1189              		.cfi_offset 4, -12
 1190              		.cfi_offset 5, -8
 1191              		.cfi_offset 14, -4
 1192              		.loc 1 347 47 view .LVU307
 1193 0002 0446     		mov	r4, r0
 1194              		.loc 1 350 3 view .LVU308
 1195 0004 0025     		movs	r5, #0
 1196              		.loc 1 349 3 view .LVU309
 1197 0006 0C30     		adds	r0, r0, #12
ARM GAS  /tmp/cckSfGhE.s 			page 22


 1198              	.LVL81:
 1199              		.loc 1 349 3 view .LVU310
 1200 0008 FFF7FEFF 		bl	ibqResetI
 1201              	.LVL82:
 1202              		.loc 1 350 3 is_stmt 1 view .LVU311
 1203              		.loc 1 351 3 is_stmt 0 view .LVU312
 1204 000c 04F14400 		add	r0, r4, #68
 1205              		.loc 1 350 3 view .LVU313
 1206 0010 2575     		strb	r5, [r4, #20]
 1207              		.loc 1 350 28 is_stmt 1 view .LVU314
 1208              		.loc 1 351 3 view .LVU315
 1209 0012 FFF7FEFF 		bl	obqResetI
 1210              	.LVL83:
 1211              		.loc 1 352 3 view .LVU316
 1212              	.LBB196:
 1213              	.LBB197:
 1214              		.loc 2 895 3 is_stmt 0 view .LVU317
 1215 0016 201D     		adds	r0, r4, #4
 1216              	.LBE197:
 1217              	.LBE196:
 1218              		.loc 1 352 3 view .LVU318
 1219 0018 84F84C50 		strb	r5, [r4, #76]
 1220              		.loc 1 352 28 is_stmt 1 view .LVU319
 1221              		.loc 1 353 3 view .LVU320
 1222              	.LVL84:
 1223              	.LBB199:
 1224              	.LBI196:
 1225              		.loc 2 892 20 view .LVU321
 1226              	.LBB198:
 1227              		.loc 2 895 3 view .LVU322
 1228 001c 0121     		movs	r1, #1
 1229 001e FFF7FEFF 		bl	chEvtBroadcastFlagsI
 1230              	.LVL85:
 1231              		.loc 2 895 3 is_stmt 0 view .LVU323
 1232              	.LBE198:
 1233              	.LBE199:
 1234              		.loc 1 353 36 is_stmt 1 view .LVU324
 1235              		.loc 1 354 3 view .LVU325
 1236              		.loc 1 354 10 is_stmt 0 view .LVU326
 1237 0022 2046     		mov	r0, r4
 1238              		.loc 1 355 1 view .LVU327
 1239 0024 BDE83840 		pop	{r3, r4, r5, lr}
 1240              		.cfi_restore 14
 1241              		.cfi_restore 5
 1242              		.cfi_restore 4
 1243              		.cfi_restore 3
 1244              		.cfi_def_cfa_offset 0
 1245              	.LVL86:
 1246              		.loc 1 354 10 view .LVU328
 1247 0028 FFF7FEBF 		b	sdu_start_receive.isra.0
 1248              	.LVL87:
 1249              		.loc 1 354 10 view .LVU329
 1250              		.cfi_endproc
 1251              	.LFE352:
 1252              		.size	sduConfigureHookI, .-sduConfigureHookI
 1253              		.section	.text.sduRequestsHook,"ax",%progbits
 1254              		.align	1
ARM GAS  /tmp/cckSfGhE.s 			page 23


 1255              		.global	sduRequestsHook
 1256              		.syntax unified
 1257              		.thumb
 1258              		.thumb_func
 1259              		.fpu fpv4-sp-d16
 1260              		.type	sduRequestsHook, %function
 1261              	sduRequestsHook:
 1262              	.LVL88:
 1263              	.LFB353:
 1264              		.loc 1 372 39 is_stmt 1 view -0
 1265              		.cfi_startproc
 1266              		@ args = 0, pretend = 0, frame = 0
 1267              		@ frame_needed = 0, uses_anonymous_args = 0
 1268              		@ link register save eliminated.
 1269              		.loc 1 374 3 view .LVU331
 1270              		.loc 1 374 6 is_stmt 0 view .LVU332
 1271 0000 90F85C30 		ldrb	r3, [r0, #92]	@ zero_extendqisi2
 1272 0004 03F06003 		and	r3, r3, #96
 1273 0008 202B     		cmp	r3, #32
 1274 000a 06D1     		bne	.L48
 1275              		.loc 1 375 5 is_stmt 1 view .LVU333
 1276              		.loc 1 375 24 is_stmt 0 view .LVU334
 1277 000c 90F85D20 		ldrb	r2, [r0, #93]	@ zero_extendqisi2
 1278 0010 0023     		movs	r3, #0
 1279              		.loc 1 375 5 view .LVU335
 1280 0012 212A     		cmp	r2, #33
 1281 0014 03D8     		bhi	.L45
 1282 0016 1F2A     		cmp	r2, #31
 1283 0018 06D8     		bhi	.L46
 1284              	.L48:
 1285              		.loc 1 390 10 view .LVU336
 1286 001a 0020     		movs	r0, #0
 1287              	.LVL89:
 1288              		.loc 1 391 1 view .LVU337
 1289 001c 7047     		bx	lr
 1290              	.LVL90:
 1291              	.L45:
 1292              		.loc 1 375 5 view .LVU338
 1293 001e 222A     		cmp	r2, #34
 1294 0020 FBD1     		bne	.L48
 1295              		.loc 1 384 7 is_stmt 1 view .LVU339
 1296 0022 C0E91433 		strd	r3, r3, [r0, #80]
 1297 0026 03E0     		b	.L49
 1298              	.L46:
 1299              		.loc 1 377 7 view .LVU340
 1300 0028 034A     		ldr	r2, .L50
 1301 002a 0265     		str	r2, [r0, #80]
 1302              		.loc 1 377 7 view .LVU341
 1303 002c 0722     		movs	r2, #7
 1304 002e 4265     		str	r2, [r0, #84]
 1305              		.loc 1 377 7 view .LVU342
 1306              	.L49:
 1307              		.loc 1 384 7 view .LVU343
 1308 0030 8365     		str	r3, [r0, #88]
 1309              		.loc 1 384 44 view .LVU344
 1310              		.loc 1 385 7 view .LVU345
 1311              		.loc 1 385 14 is_stmt 0 view .LVU346
ARM GAS  /tmp/cckSfGhE.s 			page 24


 1312 0032 0120     		movs	r0, #1
 1313              	.LVL91:
 1314              		.loc 1 385 14 view .LVU347
 1315 0034 7047     		bx	lr
 1316              	.L51:
 1317 0036 00BF     		.align	2
 1318              	.L50:
 1319 0038 00000000 		.word	.LANCHOR1
 1320              		.cfi_endproc
 1321              	.LFE353:
 1322              		.size	sduRequestsHook, .-sduRequestsHook
 1323              		.section	.text.sduSOFHookI,"ax",%progbits
 1324              		.align	1
 1325              		.global	sduSOFHookI
 1326              		.syntax unified
 1327              		.thumb
 1328              		.thumb_func
 1329              		.fpu fpv4-sp-d16
 1330              		.type	sduSOFHookI, %function
 1331              	sduSOFHookI:
 1332              	.LVL92:
 1333              	.LFB354:
 1334              		.loc 1 402 41 is_stmt 1 view -0
 1335              		.cfi_startproc
 1336              		@ args = 0, pretend = 0, frame = 8
 1337              		@ frame_needed = 0, uses_anonymous_args = 0
 1338              		.loc 1 406 3 view .LVU349
 1339              		.loc 1 406 8 is_stmt 0 view .LVU350
 1340 0000 D0F88C34 		ldr	r3, [r0, #1164]
 1341              		.loc 1 402 41 view .LVU351
 1342 0004 37B5     		push	{r0, r1, r2, r4, r5, lr}
 1343              		.cfi_def_cfa_offset 24
 1344              		.cfi_offset 4, -12
 1345              		.cfi_offset 5, -8
 1346              		.cfi_offset 14, -4
 1347              		.loc 1 406 8 view .LVU352
 1348 0006 1A68     		ldr	r2, [r3]
 1349              		.loc 1 402 41 view .LVU353
 1350 0008 0446     		mov	r4, r0
 1351              		.loc 1 406 6 view .LVU354
 1352 000a 1178     		ldrb	r1, [r2]	@ zero_extendqisi2
 1353 000c 0429     		cmp	r1, #4
 1354 000e 1AD1     		bne	.L52
 1355              		.loc 1 406 62 discriminator 1 view .LVU355
 1356 0010 017A     		ldrb	r1, [r0, #8]	@ zero_extendqisi2
 1357 0012 0229     		cmp	r1, #2
 1358 0014 17D1     		bne	.L52
 1359              		.loc 1 413 3 is_stmt 1 view .LVU356
 1360              		.loc 1 413 7 is_stmt 0 view .LVU357
 1361 0016 1979     		ldrb	r1, [r3, #4]	@ zero_extendqisi2
 1362 0018 0123     		movs	r3, #1
 1363 001a 1289     		ldrh	r2, [r2, #8]
 1364 001c 8B40     		lsls	r3, r3, r1
 1365              		.loc 1 413 6 view .LVU358
 1366 001e 1342     		tst	r3, r2
 1367 0020 11D1     		bne	.L52
 1368              		.loc 1 419 3 is_stmt 1 view .LVU359
ARM GAS  /tmp/cckSfGhE.s 			page 25


 1369              		.loc 1 419 7 is_stmt 0 view .LVU360
 1370 0022 00F14405 		add	r5, r0, #68
 1371 0026 2846     		mov	r0, r5
 1372              	.LVL93:
 1373              		.loc 1 419 7 view .LVU361
 1374 0028 FFF7FEFF 		bl	obqTryFlushI
 1375              	.LVL94:
 1376              		.loc 1 419 6 view .LVU362
 1377 002c 58B1     		cbz	r0, .L52
 1378              	.LBB200:
 1379              		.loc 1 420 5 is_stmt 1 view .LVU363
 1380              		.loc 1 421 5 view .LVU364
 1381              		.loc 1 421 20 is_stmt 0 view .LVU365
 1382 002e 01A9     		add	r1, sp, #4
 1383 0030 2846     		mov	r0, r5
 1384 0032 FFF7FEFF 		bl	obqGetFullBufferI
 1385              	.LVL95:
 1386              		.loc 1 425 27 view .LVU366
 1387 0036 D4F88C44 		ldr	r4, [r4, #1164]
 1388              	.LVL96:
 1389              		.loc 1 421 20 view .LVU367
 1390 003a 0246     		mov	r2, r0
 1391              	.LVL97:
 1392              		.loc 1 423 5 is_stmt 1 view .LVU368
 1393              		.loc 1 423 5 view .LVU369
 1394              		.loc 1 423 5 view .LVU370
 1395              		.loc 1 425 5 view .LVU371
 1396 003c 019B     		ldr	r3, [sp, #4]
 1397 003e 2179     		ldrb	r1, [r4, #4]	@ zero_extendqisi2
 1398 0040 2068     		ldr	r0, [r4]
 1399              	.LVL98:
 1400              		.loc 1 425 5 is_stmt 0 view .LVU372
 1401 0042 FFF7FEFF 		bl	usbStartTransmitI
 1402              	.LVL99:
 1403              	.L52:
 1404              		.loc 1 425 5 view .LVU373
 1405              	.LBE200:
 1406              		.loc 1 427 1 view .LVU374
 1407 0046 03B0     		add	sp, sp, #12
 1408              		.cfi_def_cfa_offset 12
 1409              		@ sp needed
 1410 0048 30BD     		pop	{r4, r5, pc}
 1411              		.cfi_endproc
 1412              	.LFE354:
 1413              		.size	sduSOFHookI, .-sduSOFHookI
 1414              		.section	.text.sduDataTransmitted,"ax",%progbits
 1415              		.align	1
 1416              		.global	sduDataTransmitted
 1417              		.syntax unified
 1418              		.thumb
 1419              		.thumb_func
 1420              		.fpu fpv4-sp-d16
 1421              		.type	sduDataTransmitted, %function
 1422              	sduDataTransmitted:
 1423              	.LVL100:
 1424              	.LFB355:
 1425              		.loc 1 437 54 is_stmt 1 view -0
ARM GAS  /tmp/cckSfGhE.s 			page 26


 1426              		.cfi_startproc
 1427              		@ args = 0, pretend = 0, frame = 16
 1428              		@ frame_needed = 0, uses_anonymous_args = 0
 1429              		.loc 1 438 3 view .LVU376
 1430              		.loc 1 439 3 view .LVU377
 1431              		.loc 1 440 3 view .LVU378
 1432              		.loc 1 440 20 is_stmt 0 view .LVU379
 1433 0000 00EB8103 		add	r3, r0, r1, lsl #2
 1434              		.loc 1 437 54 view .LVU380
 1435 0004 F0B5     		push	{r4, r5, r6, r7, lr}
 1436              		.cfi_def_cfa_offset 20
 1437              		.cfi_offset 4, -20
 1438              		.cfi_offset 5, -16
 1439              		.cfi_offset 6, -12
 1440              		.cfi_offset 7, -8
 1441              		.cfi_offset 14, -4
 1442              		.loc 1 440 20 view .LVU381
 1443 0006 1E6A     		ldr	r6, [r3, #32]
 1444              	.LVL101:
 1445              		.loc 1 442 3 is_stmt 1 view .LVU382
 1446              		.loc 1 437 54 is_stmt 0 view .LVU383
 1447 0008 85B0     		sub	sp, sp, #20
 1448              		.cfi_def_cfa_offset 40
 1449              		.loc 1 437 54 view .LVU384
 1450 000a 0446     		mov	r4, r0
 1451 000c 0D46     		mov	r5, r1
 1452              		.loc 1 442 6 view .LVU385
 1453 000e 1EB3     		cbz	r6, .L59
 1454              		.loc 1 446 3 is_stmt 1 view .LVU386
 1455              	.LBB219:
 1456              	.LBI219:
 1457              		.loc 2 531 20 view .LVU387
 1458              	.LBE219:
 1459              		.loc 2 533 3 view .LVU388
 1460              	.LBB233:
 1461              	.LBB220:
 1462              	.LBI220:
 1463              		.loc 5 393 20 view .LVU389
 1464              	.LBB221:
 1465              		.loc 5 395 3 view .LVU390
 1466              	.LBB222:
 1467              	.LBI222:
 1468              		.loc 6 641 20 view .LVU391
 1469              	.LBE222:
 1470              	.LBE221:
 1471              	.LBE220:
 1472              	.LBE233:
 1473              		.loc 6 643 3 view .LVU392
 1474              	.LBB234:
 1475              	.LBB231:
 1476              	.LBB229:
 1477              	.LBB227:
 1478              	.LBB223:
 1479              	.LBI223:
 1480              		.loc 6 602 20 view .LVU393
 1481              	.LBE223:
 1482              	.LBE227:
ARM GAS  /tmp/cckSfGhE.s 			page 27


 1483              	.LBE229:
 1484              	.LBE231:
 1485              	.LBE234:
 1486              		.loc 6 610 3 view .LVU394
 1487              	.LVL102:
 1488              	.LBB235:
 1489              	.LBB232:
 1490              	.LBB230:
 1491              	.LBB228:
 1492              	.LBB226:
 1493              	.LBB224:
 1494              	.LBI224:
 1495              		.loc 4 491 27 view .LVU395
 1496              	.LBB225:
 1497              		.loc 4 493 3 view .LVU396
 1498 0010 2023     		movs	r3, #32
 1499              		.syntax unified
 1500              	@ 493 "../../modules/ChibiOS/os/common/ext/ARM/CMSIS/Core/Include/cmsis_gcc.h" 1
 1501 0012 83F31188 		MSR basepri, r3
 1502              	@ 0 "" 2
 1503              	.LVL103:
 1504              		.loc 4 493 3 is_stmt 0 view .LVU397
 1505              		.thumb
 1506              		.syntax unified
 1507              	.LBE225:
 1508              	.LBE224:
 1509              	.LBE226:
 1510              	.LBE228:
 1511              		.loc 5 396 3 is_stmt 1 view .LVU398
 1512 0016 04EB8507 		add	r7, r4, r5, lsl #2
 1513 001a FFF7FEFF 		bl	_stats_start_measure_crit_isr
 1514              	.LVL104:
 1515              		.loc 5 397 29 view .LVU399
 1516              	.LBE230:
 1517              	.LBE232:
 1518              	.LBE235:
 1519              		.loc 1 449 3 view .LVU400
 1520              	.LBB236:
 1521              	.LBI236:
 1522              		.loc 2 892 20 view .LVU401
 1523              	.LBB237:
 1524              		.loc 2 895 3 view .LVU402
 1525 001e 301D     		adds	r0, r6, #4
 1526              	.LVL105:
 1527              		.loc 2 895 3 is_stmt 0 view .LVU403
 1528 0020 0821     		movs	r1, #8
 1529 0022 FFF7FEFF 		bl	chEvtBroadcastFlagsI
 1530              	.LVL106:
 1531              		.loc 2 895 3 view .LVU404
 1532              	.LBE237:
 1533              	.LBE236:
 1534              		.loc 1 449 39 is_stmt 1 view .LVU405
 1535              		.loc 1 452 3 view .LVU406
 1536              		.loc 1 452 20 is_stmt 0 view .LVU407
 1537 0026 FB68     		ldr	r3, [r7, #12]
 1538              		.loc 1 453 5 view .LVU408
 1539 0028 06F14400 		add	r0, r6, #68
ARM GAS  /tmp/cckSfGhE.s 			page 28


 1540              		.loc 1 452 30 view .LVU409
 1541 002c 5B69     		ldr	r3, [r3, #20]
 1542              		.loc 1 452 6 view .LVU410
 1543 002e 1B68     		ldr	r3, [r3]
 1544 0030 1BB1     		cbz	r3, .L62
 1545              		.loc 1 453 5 is_stmt 1 view .LVU411
 1546 0032 0190     		str	r0, [sp, #4]
 1547 0034 FFF7FEFF 		bl	obqReleaseEmptyBufferI
 1548              	.LVL107:
 1549 0038 0198     		ldr	r0, [sp, #4]
 1550              	.L62:
 1551              		.loc 1 457 3 view .LVU412
 1552              		.loc 1 457 9 is_stmt 0 view .LVU413
 1553 003a 03A9     		add	r1, sp, #12
 1554 003c FFF7FEFF 		bl	obqGetFullBufferI
 1555              	.LVL108:
 1556              		.loc 1 459 3 is_stmt 1 view .LVU414
 1557              		.loc 1 459 6 is_stmt 0 view .LVU415
 1558 0040 0246     		mov	r2, r0
 1559 0042 58B1     		cbz	r0, .L63
 1560              		.loc 1 462 5 is_stmt 1 view .LVU416
 1561 0044 039B     		ldr	r3, [sp, #12]
 1562              	.L71:
 1563              		.loc 1 471 5 is_stmt 0 view .LVU417
 1564 0046 2946     		mov	r1, r5
 1565 0048 2046     		mov	r0, r4
 1566              	.LVL109:
 1567              		.loc 1 471 5 view .LVU418
 1568 004a FFF7FEFF 		bl	usbStartTransmitI
 1569              	.LVL110:
 1570              	.L64:
 1571              		.loc 1 476 3 is_stmt 1 view .LVU419
 1572              		.loc 1 478 3 view .LVU420
 1573              	.LBB238:
 1574              	.LBI238:
 1575              		.loc 2 542 20 view .LVU421
 1576              	.LBE238:
 1577              		.loc 2 544 3 view .LVU422
 1578              	.LBB252:
 1579              	.LBB239:
 1580              	.LBI239:
 1581              		.loc 5 413 20 view .LVU423
 1582              	.LBB240:
 1583              		.loc 5 415 31 view .LVU424
 1584              		.loc 5 416 3 view .LVU425
 1585 004e FFF7FEFF 		bl	_stats_stop_measure_crit_isr
 1586              	.LVL111:
 1587              		.loc 5 417 3 view .LVU426
 1588              	.LBB241:
 1589              	.LBI241:
 1590              		.loc 6 652 20 view .LVU427
 1591              	.LBE241:
 1592              	.LBE240:
 1593              	.LBE239:
 1594              	.LBE252:
 1595              		.loc 6 654 3 view .LVU428
 1596              	.LBB253:
ARM GAS  /tmp/cckSfGhE.s 			page 29


 1597              	.LBB250:
 1598              	.LBB248:
 1599              	.LBB246:
 1600              	.LBB242:
 1601              	.LBI242:
 1602              		.loc 6 626 20 view .LVU429
 1603              	.LBE242:
 1604              	.LBE246:
 1605              	.LBE248:
 1606              	.LBE250:
 1607              	.LBE253:
 1608              		.loc 6 629 3 view .LVU430
 1609              	.LBB254:
 1610              	.LBB251:
 1611              	.LBB249:
 1612              	.LBB247:
 1613              	.LBB245:
 1614              	.LBB243:
 1615              	.LBI243:
 1616              		.loc 4 491 27 view .LVU431
 1617              	.LBB244:
 1618              		.loc 4 493 3 view .LVU432
 1619 0052 0023     		movs	r3, #0
 1620              		.syntax unified
 1621              	@ 493 "../../modules/ChibiOS/os/common/ext/ARM/CMSIS/Core/Include/cmsis_gcc.h" 1
 1622 0054 83F31188 		MSR basepri, r3
 1623              	@ 0 "" 2
 1624              	.LVL112:
 1625              		.thumb
 1626              		.syntax unified
 1627              	.L59:
 1628              		.loc 4 493 3 is_stmt 0 view .LVU433
 1629              	.LBE244:
 1630              	.LBE243:
 1631              	.LBE245:
 1632              	.LBE247:
 1633              	.LBE249:
 1634              	.LBE251:
 1635              	.LBE254:
 1636              		.loc 1 479 1 view .LVU434
 1637 0058 05B0     		add	sp, sp, #20
 1638              		.cfi_remember_state
 1639              		.cfi_def_cfa_offset 20
 1640              		@ sp needed
 1641 005a F0BD     		pop	{r4, r5, r6, r7, pc}
 1642              	.LVL113:
 1643              	.L63:
 1644              		.cfi_restore_state
 1645              		.loc 1 464 8 is_stmt 1 view .LVU435
 1646              		.loc 1 464 22 is_stmt 0 view .LVU436
 1647 005c FB68     		ldr	r3, [r7, #12]
 1648              		.loc 1 464 36 view .LVU437
 1649 005e 5A69     		ldr	r2, [r3, #20]
 1650 0060 1268     		ldr	r2, [r2]
 1651              		.loc 1 464 11 view .LVU438
 1652 0062 002A     		cmp	r2, #0
 1653 0064 F3D0     		beq	.L64
ARM GAS  /tmp/cckSfGhE.s 			page 30


 1654              		.loc 1 466 14 discriminator 1 view .LVU439
 1655 0066 1B8A     		ldrh	r3, [r3, #16]
 1656              		.loc 1 466 48 discriminator 1 view .LVU440
 1657 0068 013B     		subs	r3, r3, #1
 1658              		.loc 1 464 51 discriminator 1 view .LVU441
 1659 006a 1340     		ands	r3, r3, r2
 1660 006c EFD1     		bne	.L64
 1661              		.loc 1 471 5 is_stmt 1 view .LVU442
 1662 006e 04F15C02 		add	r2, r4, #92
 1663 0072 E8E7     		b	.L71
 1664              		.cfi_endproc
 1665              	.LFE355:
 1666              		.size	sduDataTransmitted, .-sduDataTransmitted
 1667              		.section	.text.sduDataReceived,"ax",%progbits
 1668              		.align	1
 1669              		.global	sduDataReceived
 1670              		.syntax unified
 1671              		.thumb
 1672              		.thumb_func
 1673              		.fpu fpv4-sp-d16
 1674              		.type	sduDataReceived, %function
 1675              	sduDataReceived:
 1676              	.LVL114:
 1677              	.LFB356:
 1678              		.loc 1 489 51 view -0
 1679              		.cfi_startproc
 1680              		@ args = 0, pretend = 0, frame = 0
 1681              		@ frame_needed = 0, uses_anonymous_args = 0
 1682              		.loc 1 490 3 view .LVU444
 1683              		.loc 1 491 3 view .LVU445
 1684              		.loc 1 491 20 is_stmt 0 view .LVU446
 1685 0000 0D31     		adds	r1, r1, #13
 1686              	.LVL115:
 1687              		.loc 1 489 51 view .LVU447
 1688 0002 38B5     		push	{r3, r4, r5, lr}
 1689              		.cfi_def_cfa_offset 16
 1690              		.cfi_offset 3, -16
 1691              		.cfi_offset 4, -12
 1692              		.cfi_offset 5, -8
 1693              		.cfi_offset 14, -4
 1694              		.loc 1 491 20 view .LVU448
 1695 0004 50F82140 		ldr	r4, [r0, r1, lsl #2]
 1696              	.LVL116:
 1697              		.loc 1 493 3 is_stmt 1 view .LVU449
 1698              		.loc 1 493 6 is_stmt 0 view .LVU450
 1699 0008 FCB1     		cbz	r4, .L72
 1700              		.loc 1 497 3 is_stmt 1 view .LVU451
 1701              	.LBB273:
 1702              	.LBI273:
 1703              		.loc 2 531 20 view .LVU452
 1704              	.LBE273:
 1705              		.loc 2 533 3 view .LVU453
 1706              	.LBB287:
 1707              	.LBB274:
 1708              	.LBI274:
 1709              		.loc 5 393 20 view .LVU454
 1710              	.LBB275:
ARM GAS  /tmp/cckSfGhE.s 			page 31


 1711              		.loc 5 395 3 view .LVU455
 1712              	.LBB276:
 1713              	.LBI276:
 1714              		.loc 6 641 20 view .LVU456
 1715              	.LBE276:
 1716              	.LBE275:
 1717              	.LBE274:
 1718              	.LBE287:
 1719              		.loc 6 643 3 view .LVU457
 1720              	.LBB288:
 1721              	.LBB285:
 1722              	.LBB283:
 1723              	.LBB281:
 1724              	.LBB277:
 1725              	.LBI277:
 1726              		.loc 6 602 20 view .LVU458
 1727              	.LBE277:
 1728              	.LBE281:
 1729              	.LBE283:
 1730              	.LBE285:
 1731              	.LBE288:
 1732              		.loc 6 610 3 view .LVU459
 1733              	.LVL117:
 1734              	.LBB289:
 1735              	.LBB286:
 1736              	.LBB284:
 1737              	.LBB282:
 1738              	.LBB280:
 1739              	.LBB278:
 1740              	.LBI278:
 1741              		.loc 4 491 27 view .LVU460
 1742              	.LBB279:
 1743              		.loc 4 493 3 view .LVU461
 1744 000a 2023     		movs	r3, #32
 1745              		.syntax unified
 1746              	@ 493 "../../modules/ChibiOS/os/common/ext/ARM/CMSIS/Core/Include/cmsis_gcc.h" 1
 1747 000c 83F31188 		MSR basepri, r3
 1748              	@ 0 "" 2
 1749              	.LVL118:
 1750              		.loc 4 493 3 is_stmt 0 view .LVU462
 1751              		.thumb
 1752              		.syntax unified
 1753              	.LBE279:
 1754              	.LBE278:
 1755              	.LBE280:
 1756              	.LBE282:
 1757              		.loc 5 396 3 is_stmt 1 view .LVU463
 1758 0010 FFF7FEFF 		bl	_stats_start_measure_crit_isr
 1759              	.LVL119:
 1760              		.loc 5 397 29 view .LVU464
 1761              	.LBE284:
 1762              	.LBE286:
 1763              	.LBE289:
 1764              		.loc 1 500 3 view .LVU465
 1765              		.loc 1 500 10 is_stmt 0 view .LVU466
 1766 0014 D4F88C24 		ldr	r2, [r4, #1164]
 1767 0018 1368     		ldr	r3, [r2]
ARM GAS  /tmp/cckSfGhE.s 			page 32


 1768 001a 5279     		ldrb	r2, [r2, #5]	@ zero_extendqisi2
 1769 001c 03EB8203 		add	r3, r3, r2, lsl #2
 1770 0020 DB68     		ldr	r3, [r3, #12]
 1771              		.loc 1 500 8 view .LVU467
 1772 0022 9B69     		ldr	r3, [r3, #24]
 1773 0024 5D68     		ldr	r5, [r3, #4]
 1774              	.LVL120:
 1775              		.loc 1 502 3 is_stmt 1 view .LVU468
 1776              		.loc 1 502 6 is_stmt 0 view .LVU469
 1777 0026 45B1     		cbz	r5, .L74
 1778              		.loc 1 504 5 is_stmt 1 view .LVU470
 1779              	.LVL121:
 1780              	.LBB290:
 1781              	.LBI290:
 1782              		.loc 2 892 20 view .LVU471
 1783              	.LBB291:
 1784              		.loc 2 895 3 view .LVU472
 1785 0028 0421     		movs	r1, #4
 1786 002a 6018     		adds	r0, r4, r1
 1787              	.LVL122:
 1788              		.loc 2 895 3 is_stmt 0 view .LVU473
 1789 002c FFF7FEFF 		bl	chEvtBroadcastFlagsI
 1790              	.LVL123:
 1791              		.loc 2 895 3 view .LVU474
 1792              	.LBE291:
 1793              	.LBE290:
 1794              		.loc 1 504 44 is_stmt 1 view .LVU475
 1795              		.loc 1 507 5 view .LVU476
 1796 0030 2946     		mov	r1, r5
 1797 0032 04F10C00 		add	r0, r4, #12
 1798 0036 FFF7FEFF 		bl	ibqPostFullBufferI
 1799              	.LVL124:
 1800              	.L74:
 1801              		.loc 1 513 3 view .LVU477
 1802              		.loc 1 513 10 is_stmt 0 view .LVU478
 1803 003a 2046     		mov	r0, r4
 1804 003c FFF7FEFF 		bl	sdu_start_receive.isra.0
 1805              	.LVL125:
 1806              		.loc 1 515 3 is_stmt 1 view .LVU479
 1807              	.LBB292:
 1808              	.LBI292:
 1809              		.loc 2 542 20 view .LVU480
 1810              	.LBE292:
 1811              		.loc 2 544 3 view .LVU481
 1812              	.LBB306:
 1813              	.LBB293:
 1814              	.LBI293:
 1815              		.loc 5 413 20 view .LVU482
 1816              	.LBB294:
 1817              		.loc 5 415 31 view .LVU483
 1818              		.loc 5 416 3 view .LVU484
 1819 0040 FFF7FEFF 		bl	_stats_stop_measure_crit_isr
 1820              	.LVL126:
 1821              		.loc 5 417 3 view .LVU485
 1822              	.LBB295:
 1823              	.LBI295:
 1824              		.loc 6 652 20 view .LVU486
ARM GAS  /tmp/cckSfGhE.s 			page 33


 1825              	.LBE295:
 1826              	.LBE294:
 1827              	.LBE293:
 1828              	.LBE306:
 1829              		.loc 6 654 3 view .LVU487
 1830              	.LBB307:
 1831              	.LBB304:
 1832              	.LBB302:
 1833              	.LBB300:
 1834              	.LBB296:
 1835              	.LBI296:
 1836              		.loc 6 626 20 view .LVU488
 1837              	.LBE296:
 1838              	.LBE300:
 1839              	.LBE302:
 1840              	.LBE304:
 1841              	.LBE307:
 1842              		.loc 6 629 3 view .LVU489
 1843              	.LBB308:
 1844              	.LBB305:
 1845              	.LBB303:
 1846              	.LBB301:
 1847              	.LBB299:
 1848              	.LBB297:
 1849              	.LBI297:
 1850              		.loc 4 491 27 view .LVU490
 1851              	.LBB298:
 1852              		.loc 4 493 3 view .LVU491
 1853 0044 0023     		movs	r3, #0
 1854              		.syntax unified
 1855              	@ 493 "../../modules/ChibiOS/os/common/ext/ARM/CMSIS/Core/Include/cmsis_gcc.h" 1
 1856 0046 83F31188 		MSR basepri, r3
 1857              	@ 0 "" 2
 1858              	.LVL127:
 1859              		.thumb
 1860              		.syntax unified
 1861              	.L72:
 1862              		.loc 4 493 3 is_stmt 0 view .LVU492
 1863              	.LBE298:
 1864              	.LBE297:
 1865              	.LBE299:
 1866              	.LBE301:
 1867              	.LBE303:
 1868              	.LBE305:
 1869              	.LBE308:
 1870              		.loc 1 516 1 view .LVU493
 1871 004a 38BD     		pop	{r3, r4, r5, pc}
 1872              		.loc 1 516 1 view .LVU494
 1873              		.cfi_endproc
 1874              	.LFE356:
 1875              		.size	sduDataReceived, .-sduDataReceived
 1876              		.section	.text.sduInterruptTransmitted,"ax",%progbits
 1877              		.align	1
 1878              		.global	sduInterruptTransmitted
 1879              		.syntax unified
 1880              		.thumb
 1881              		.thumb_func
ARM GAS  /tmp/cckSfGhE.s 			page 34


 1882              		.fpu fpv4-sp-d16
 1883              		.type	sduInterruptTransmitted, %function
 1884              	sduInterruptTransmitted:
 1885              	.LVL128:
 1886              	.LFB357:
 1887              		.loc 1 526 59 is_stmt 1 view -0
 1888              		.cfi_startproc
 1889              		@ args = 0, pretend = 0, frame = 0
 1890              		@ frame_needed = 0, uses_anonymous_args = 0
 1891              		@ link register save eliminated.
 1892              		.loc 1 528 3 view .LVU496
 1893              		.loc 1 529 3 view .LVU497
 1894              		.loc 1 530 1 is_stmt 0 view .LVU498
 1895 0000 7047     		bx	lr
 1896              		.cfi_endproc
 1897              	.LFE357:
 1898              		.size	sduInterruptTransmitted, .-sduInterruptTransmitted
 1899              		.section	.text.sduControl,"ax",%progbits
 1900              		.align	1
 1901              		.global	sduControl
 1902              		.syntax unified
 1903              		.thumb
 1904              		.thumb_func
 1905              		.fpu fpv4-sp-d16
 1906              		.type	sduControl, %function
 1907              	sduControl:
 1908              	.LVL129:
 1909              	.LFB358:
 1910              		.loc 1 546 70 is_stmt 1 view -0
 1911              		.cfi_startproc
 1912              		@ args = 0, pretend = 0, frame = 0
 1913              		@ frame_needed = 0, uses_anonymous_args = 0
 1914              		@ link register save eliminated.
 1915              		.loc 1 548 3 view .LVU500
 1916              		.loc 1 130 3 view .LVU501
 1917              		.loc 1 132 3 view .LVU502
 1918              		.loc 1 132 3 view .LVU503
 1919              		.loc 1 132 3 view .LVU504
 1920              		.loc 1 134 3 view .LVU505
 1921              		.loc 1 153 3 view .LVU506
 1922              		.loc 1 549 1 is_stmt 0 view .LVU507
 1923 0000 0020     		movs	r0, #0
 1924              	.LVL130:
 1925              		.loc 1 549 1 view .LVU508
 1926 0002 7047     		bx	lr
 1927              		.cfi_endproc
 1928              	.LFE358:
 1929              		.size	sduControl, .-sduControl
 1930              		.section	.data.linecoding,"aw"
 1931              		.set	.LANCHOR1,. + 0
 1932              		.type	linecoding, %object
 1933              		.size	linecoding, 7
 1934              	linecoding:
 1935 0000 00960000 		.ascii	"\000\226\000\000"
 1936 0004 00       		.byte	0
 1937 0005 00       		.byte	0
 1938 0006 08       		.byte	8
ARM GAS  /tmp/cckSfGhE.s 			page 35


 1939              		.section	.rodata.vmt,"a"
 1940              		.align	2
 1941              		.set	.LANCHOR0,. + 0
 1942              		.type	vmt, %object
 1943              		.size	vmt, 40
 1944              	vmt:
 1945 0000 00000000 		.word	0
 1946 0004 00000000 		.word	_write
 1947 0008 00000000 		.word	_read
 1948 000c 00000000 		.word	_put
 1949 0010 00000000 		.word	_get
 1950 0014 00000000 		.word	_putt
 1951 0018 00000000 		.word	_gett
 1952 001c 00000000 		.word	_writet
 1953 0020 00000000 		.word	_readt
 1954 0024 00000000 		.word	_ctl
 1955              		.text
 1956              	.Letext0:
 1957              		.file 7 "/opt/gcc-arm-none-eabi-10-2020-q4-major/lib/gcc/arm-none-eabi/10.2.1/include/stddef.h"
 1958              		.file 8 "/opt/gcc-arm-none-eabi-10-2020-q4-major/arm-none-eabi/include/machine/_default_types.h"
 1959              		.file 9 "/opt/gcc-arm-none-eabi-10-2020-q4-major/arm-none-eabi/include/sys/_stdint.h"
 1960              		.file 10 "../../modules/ChibiOS/os/common/ports/ARMCMx/compilers/GCC/chtypes.h"
 1961              		.file 11 "../../modules/ChibiOS/os/rt/include/chsystypes.h"
 1962              		.file 12 "../../modules/ChibiOS/os/rt/include/chschd.h"
 1963              		.file 13 "../../modules/ChibiOS/os/rt/include/chtime.h"
 1964              		.file 14 "../../modules/ChibiOS/os/common/ports/ARMCMx/chcore.h"
 1965              		.file 15 "../../modules/ChibiOS/os/rt/include/chtm.h"
 1966              		.file 16 "../../modules/ChibiOS/os/rt/include/chsem.h"
 1967              		.file 17 "../../modules/ChibiOS/os/rt/include/chmtx.h"
 1968              		.file 18 "../../modules/ChibiOS/os/hal/include/hal_buffers.h"
 1969              		.file 19 "../../modules/ChibiOS/os/hal/include/hal_usb.h"
 1970              		.file 20 "../../modules/ChibiOS/os/hal/ports/STM32/LLD/OTGv1/hal_usb_lld.h"
 1971              		.file 21 "../../modules/ChibiOS/os/hal/ports/STM32/LLD/OTGv1/stm32_otg.h"
 1972              		.file 22 "../../modules/ChibiOS/os/hal/include/hal_usb_cdc.h"
 1973              		.file 23 "../../modules/ChibiOS/os/hal/include/hal_serial_usb.h"
 1974              		.file 24 "../../modules/ChibiOS/os/rt/include/chstats.h"
 1975              		.file 25 "../../modules/ChibiOS/os/rt/include/chthreads.h"