ARM GAS  /tmp/cc8MnlZj.s 			page 1


   1              		.cpu cortex-m7
   2              		.eabi_attribute 27, 1
   3              		.eabi_attribute 28, 1
   4              		.eabi_attribute 20, 1
   5              		.eabi_attribute 21, 1
   6              		.eabi_attribute 23, 3
   7              		.eabi_attribute 24, 1
   8              		.eabi_attribute 25, 1
   9              		.eabi_attribute 26, 1
  10              		.eabi_attribute 30, 4
  11              		.eabi_attribute 34, 1
  12              		.eabi_attribute 18, 4
  13              		.file	"hal_adc_lld.c"
  14              		.text
  15              	.Ltext0:
  16              		.cfi_sections	.debug_frame
  17              		.section	.text.adc_lld_init,"ax",%progbits
  18              		.align	1
  19              		.global	adc_lld_init
  20              		.arch armv7e-m
  21              		.syntax unified
  22              		.thumb
  23              		.thumb_func
  24              		.fpu fpv4-sp-d16
  25              		.type	adc_lld_init, %function
  26              	adc_lld_init:
  27              	.LFB336:
  28              		.file 1 "../../modules/ChibiOS/os/hal/ports/STM32/LLD/ADCv2/hal_adc_lld.c"
  29              		.loc 1 192 25 view -0
  30              		.cfi_startproc
  31              		@ args = 0, pretend = 0, frame = 0
  32              		@ frame_needed = 0, uses_anonymous_args = 0
  33              		.loc 1 196 3 view .LVU1
  34              		.loc 1 192 25 is_stmt 0 view .LVU2
  35 0000 10B5     		push	{r4, lr}
  36              		.cfi_def_cfa_offset 8
  37              		.cfi_offset 4, -8
  38              		.cfi_offset 14, -4
  39              		.loc 1 196 3 view .LVU3
  40 0002 084C     		ldr	r4, .L2
  41 0004 2046     		mov	r0, r4
  42 0006 FFF7FEFF 		bl	adcObjectInit
  43              	.LVL0:
  44              		.loc 1 197 3 is_stmt 1 view .LVU4
  45              		.loc 1 198 17 is_stmt 0 view .LVU5
  46 000a 0023     		movs	r3, #0
  47 000c 064A     		ldr	r2, .L2+4
  48              		.loc 1 235 3 view .LVU6
  49 000e 0621     		movs	r1, #6
  50 0010 1220     		movs	r0, #18
  51              		.loc 1 198 17 view .LVU7
  52 0012 C4E90623 		strd	r2, r3, [r4, #24]
  53              		.loc 1 199 3 is_stmt 1 view .LVU8
  54              		.loc 1 199 17 is_stmt 0 view .LVU9
  55 0016 054B     		ldr	r3, .L2+8
  56 0018 2362     		str	r3, [r4, #32]
  57              		.loc 1 235 3 is_stmt 1 view .LVU10
ARM GAS  /tmp/cc8MnlZj.s 			page 2


  58              		.loc 1 236 1 is_stmt 0 view .LVU11
  59 001a BDE81040 		pop	{r4, lr}
  60              		.cfi_restore 14
  61              		.cfi_restore 4
  62              		.cfi_def_cfa_offset 0
  63              		.loc 1 235 3 view .LVU12
  64 001e FFF7FEBF 		b	nvicEnableVector
  65              	.LVL1:
  66              	.L3:
  67 0022 00BF     		.align	2
  68              	.L2:
  69 0024 00000000 		.word	.LANCHOR0
  70 0028 00200140 		.word	1073815552
  71 002c 162C0200 		.word	142358
  72              		.cfi_endproc
  73              	.LFE336:
  74              		.size	adc_lld_init, .-adc_lld_init
  75              		.section	.text.adc_lld_start,"ax",%progbits
  76              		.align	1
  77              		.global	adc_lld_start
  78              		.syntax unified
  79              		.thumb
  80              		.thumb_func
  81              		.fpu fpv4-sp-d16
  82              		.type	adc_lld_start, %function
  83              	adc_lld_start:
  84              	.LVL2:
  85              	.LFB337:
  86              		.loc 1 245 37 is_stmt 1 view -0
  87              		.cfi_startproc
  88              		@ args = 0, pretend = 0, frame = 0
  89              		@ frame_needed = 0, uses_anonymous_args = 0
  90              		.loc 1 248 3 view .LVU14
  91              		.loc 1 245 37 is_stmt 0 view .LVU15
  92 0000 10B5     		push	{r4, lr}
  93              		.cfi_def_cfa_offset 8
  94              		.cfi_offset 4, -8
  95              		.cfi_offset 14, -4
  96              		.loc 1 248 6 view .LVU16
  97 0002 0378     		ldrb	r3, [r0]	@ zero_extendqisi2
  98              		.loc 1 245 37 view .LVU17
  99 0004 0446     		mov	r4, r0
 100              		.loc 1 248 6 view .LVU18
 101 0006 012B     		cmp	r3, #1
 102 0008 23D1     		bne	.L4
 103              		.loc 1 250 5 is_stmt 1 view .LVU19
 104              		.loc 1 250 8 is_stmt 0 view .LVU20
 105 000a 124B     		ldr	r3, .L7
 106 000c 9842     		cmp	r0, r3
 107 000e 13D1     		bne	.L6
 108              		.loc 1 251 7 is_stmt 1 view .LVU21
 109              		.loc 1 251 22 is_stmt 0 view .LVU22
 110 0010 0346     		mov	r3, r0
 111 0012 114A     		ldr	r2, .L7+4
 112 0014 0621     		movs	r1, #6
 113 0016 0C20     		movs	r0, #12
 114              	.LVL3:
ARM GAS  /tmp/cc8MnlZj.s 			page 3


 115              		.loc 1 251 22 view .LVU23
 116 0018 FFF7FEFF 		bl	dmaStreamAllocI
 117              	.LVL4:
 118              		.loc 1 256 7 view .LVU24
 119 001c 0F4A     		ldr	r2, .L7+8
 120 001e 0368     		ldr	r3, [r0]
 121              		.loc 1 251 20 view .LVU25
 122 0020 E061     		str	r0, [r4, #28]
 123              		.loc 1 255 7 is_stmt 1 view .LVU26
 124              		.loc 1 255 7 view .LVU27
 125              		.loc 1 255 7 view .LVU28
 126              		.loc 1 256 7 view .LVU29
 127 0022 9A60     		str	r2, [r3, #8]
 128              		.loc 1 256 54 view .LVU30
 129              		.loc 1 257 7 view .LVU31
 130 0024 0E4B     		ldr	r3, .L7+12
 131 0026 5A6C     		ldr	r2, [r3, #68]
 132 0028 42F48072 		orr	r2, r2, #256
 133 002c 5A64     		str	r2, [r3, #68]
 134              		.loc 1 257 7 view .LVU32
 135              		.loc 1 257 7 view .LVU33
 136 002e 5A6E     		ldr	r2, [r3, #100]
 137 0030 42F48072 		orr	r2, r2, #256
 138 0034 5A66     		str	r2, [r3, #100]
 139              		.loc 1 257 7 view .LVU34
 140 0036 5B6E     		ldr	r3, [r3, #100]
 141              	.L6:
 142              		.loc 1 257 26 discriminator 5 view .LVU35
 143              		.loc 1 287 5 discriminator 5 view .LVU36
 144              		.loc 1 287 20 is_stmt 0 discriminator 5 view .LVU37
 145 0038 0A4A     		ldr	r2, .L7+16
 146 003a 5368     		ldr	r3, [r2, #4]
 147              		.loc 1 287 26 discriminator 5 view .LVU38
 148 003c 03F44003 		and	r3, r3, #12582912
 149              		.loc 1 287 63 discriminator 5 view .LVU39
 150 0040 43F48033 		orr	r3, r3, #65536
 151              		.loc 1 287 14 discriminator 5 view .LVU40
 152 0044 5360     		str	r3, [r2, #4]
 153              		.loc 1 292 5 is_stmt 1 discriminator 5 view .LVU41
 154              		.loc 1 292 20 is_stmt 0 discriminator 5 view .LVU42
 155 0046 0022     		movs	r2, #0
 156              		.loc 1 292 9 discriminator 5 view .LVU43
 157 0048 A369     		ldr	r3, [r4, #24]
 158              		.loc 1 292 20 discriminator 5 view .LVU44
 159 004a 5A60     		str	r2, [r3, #4]
 160              		.loc 1 293 5 is_stmt 1 discriminator 5 view .LVU45
 161              		.loc 1 293 20 is_stmt 0 discriminator 5 view .LVU46
 162 004c 9A60     		str	r2, [r3, #8]
 163              		.loc 1 294 5 is_stmt 1 discriminator 5 view .LVU47
 164              		.loc 1 294 20 is_stmt 0 discriminator 5 view .LVU48
 165 004e 0122     		movs	r2, #1
 166 0050 9A60     		str	r2, [r3, #8]
 167              	.L4:
 168              		.loc 1 296 1 view .LVU49
 169 0052 10BD     		pop	{r4, pc}
 170              	.LVL5:
 171              	.L8:
ARM GAS  /tmp/cc8MnlZj.s 			page 4


 172              		.loc 1 296 1 view .LVU50
 173              		.align	2
 174              	.L7:
 175 0054 00000000 		.word	.LANCHOR0
 176 0058 00000000 		.word	adc_lld_serve_rx_interrupt
 177 005c 4C200140 		.word	1073815628
 178 0060 00380240 		.word	1073887232
 179 0064 00230140 		.word	1073816320
 180              		.cfi_endproc
 181              	.LFE337:
 182              		.size	adc_lld_start, .-adc_lld_start
 183              		.section	.text.adc_lld_stop,"ax",%progbits
 184              		.align	1
 185              		.global	adc_lld_stop
 186              		.syntax unified
 187              		.thumb
 188              		.thumb_func
 189              		.fpu fpv4-sp-d16
 190              		.type	adc_lld_stop, %function
 191              	adc_lld_stop:
 192              	.LVL6:
 193              	.LFB338:
 194              		.loc 1 305 36 is_stmt 1 view -0
 195              		.cfi_startproc
 196              		@ args = 0, pretend = 0, frame = 0
 197              		@ frame_needed = 0, uses_anonymous_args = 0
 198              		.loc 1 308 3 view .LVU52
 199              		.loc 1 305 36 is_stmt 0 view .LVU53
 200 0000 10B5     		push	{r4, lr}
 201              		.cfi_def_cfa_offset 8
 202              		.cfi_offset 4, -8
 203              		.cfi_offset 14, -4
 204              		.loc 1 308 6 view .LVU54
 205 0002 0378     		ldrb	r3, [r0]	@ zero_extendqisi2
 206              		.loc 1 305 36 view .LVU55
 207 0004 0446     		mov	r4, r0
 208              		.loc 1 308 6 view .LVU56
 209 0006 022B     		cmp	r3, #2
 210 0008 14D1     		bne	.L9
 211              		.loc 1 310 5 is_stmt 1 view .LVU57
 212 000a C069     		ldr	r0, [r0, #28]
 213              	.LVL7:
 214              		.loc 1 310 5 is_stmt 0 view .LVU58
 215 000c FFF7FEFF 		bl	dmaStreamFreeI
 216              	.LVL8:
 217              		.loc 1 311 5 is_stmt 1 view .LVU59
 218              		.loc 1 311 18 is_stmt 0 view .LVU60
 219 0010 0023     		movs	r3, #0
 220              		.loc 1 313 9 view .LVU61
 221 0012 A269     		ldr	r2, [r4, #24]
 222              		.loc 1 311 18 view .LVU62
 223 0014 E361     		str	r3, [r4, #28]
 224              		.loc 1 313 5 is_stmt 1 view .LVU63
 225              		.loc 1 313 20 is_stmt 0 view .LVU64
 226 0016 5360     		str	r3, [r2, #4]
 227              		.loc 1 314 5 is_stmt 1 view .LVU65
 228              		.loc 1 314 20 is_stmt 0 view .LVU66
ARM GAS  /tmp/cc8MnlZj.s 			page 5


 229 0018 9360     		str	r3, [r2, #8]
 230              		.loc 1 317 5 is_stmt 1 view .LVU67
 231              		.loc 1 317 8 is_stmt 0 view .LVU68
 232 001a 074B     		ldr	r3, .L13
 233 001c 9C42     		cmp	r4, r3
 234 001e 09D1     		bne	.L9
 235              		.loc 1 318 7 is_stmt 1 view .LVU69
 236 0020 064B     		ldr	r3, .L13+4
 237 0022 5A6C     		ldr	r2, [r3, #68]
 238 0024 22F48072 		bic	r2, r2, #256
 239 0028 5A64     		str	r2, [r3, #68]
 240              		.loc 1 318 7 view .LVU70
 241 002a 5A6E     		ldr	r2, [r3, #100]
 242 002c 22F48072 		bic	r2, r2, #256
 243 0030 5A66     		str	r2, [r3, #100]
 244              		.loc 1 318 7 view .LVU71
 245 0032 5B6E     		ldr	r3, [r3, #100]
 246              		.loc 1 318 23 view .LVU72
 247              	.L9:
 248              		.loc 1 331 1 is_stmt 0 view .LVU73
 249 0034 10BD     		pop	{r4, pc}
 250              	.LVL9:
 251              	.L14:
 252              		.loc 1 331 1 view .LVU74
 253 0036 00BF     		.align	2
 254              	.L13:
 255 0038 00000000 		.word	.LANCHOR0
 256 003c 00380240 		.word	1073887232
 257              		.cfi_endproc
 258              	.LFE338:
 259              		.size	adc_lld_stop, .-adc_lld_stop
 260              		.section	.text.adc_lld_start_conversion,"ax",%progbits
 261              		.align	1
 262              		.global	adc_lld_start_conversion
 263              		.syntax unified
 264              		.thumb
 265              		.thumb_func
 266              		.fpu fpv4-sp-d16
 267              		.type	adc_lld_start_conversion, %function
 268              	adc_lld_start_conversion:
 269              	.LVL10:
 270              	.LFB339:
 271              		.loc 1 340 48 is_stmt 1 view -0
 272              		.cfi_startproc
 273              		@ args = 0, pretend = 0, frame = 0
 274              		@ frame_needed = 0, uses_anonymous_args = 0
 275              		.loc 1 341 3 view .LVU76
 276              		.loc 1 342 3 view .LVU77
 277              		.loc 1 343 3 view .LVU78
 278              		.loc 1 343 29 is_stmt 0 view .LVU79
 279 0000 0269     		ldr	r2, [r0, #16]
 280              	.LVL11:
 281              		.loc 1 346 3 is_stmt 1 view .LVU80
 282              		.loc 1 346 8 is_stmt 0 view .LVU81
 283 0002 016A     		ldr	r1, [r0, #32]
 284              	.LVL12:
 285              		.loc 1 347 3 is_stmt 1 view .LVU82
ARM GAS  /tmp/cc8MnlZj.s 			page 6


 286              		.loc 1 347 6 is_stmt 0 view .LVU83
 287 0004 1378     		ldrb	r3, [r2]	@ zero_extendqisi2
 288              		.loc 1 340 48 view .LVU84
 289 0006 30B5     		push	{r4, r5, lr}
 290              		.cfi_def_cfa_offset 12
 291              		.cfi_offset 4, -12
 292              		.cfi_offset 5, -8
 293              		.cfi_offset 14, -4
 294              		.loc 1 349 13 view .LVU85
 295 0008 C568     		ldr	r5, [r0, #12]
 296              		.loc 1 347 6 view .LVU86
 297 000a 2BB1     		cbz	r3, .L16
 298              		.loc 1 348 5 is_stmt 1 view .LVU87
 299              	.LVL13:
 300              		.loc 1 349 5 view .LVU88
 301              		.loc 1 349 8 is_stmt 0 view .LVU89
 302 000c 012D     		cmp	r5, #1
 303              		.loc 1 348 10 view .LVU90
 304 000e 94BF     		ite	ls
 305 0010 41F48071 		orrls	r1, r1, #256
 306              	.LVL14:
 307              		.loc 1 352 7 is_stmt 1 view .LVU91
 308              		.loc 1 352 12 is_stmt 0 view .LVU92
 309 0014 41F48471 		orrhi	r1, r1, #264
 310              	.LVL15:
 311              	.L16:
 312              		.loc 1 355 3 is_stmt 1 view .LVU93
 313 0018 C369     		ldr	r3, [r0, #28]
 314 001a 8468     		ldr	r4, [r0, #8]
 315 001c 1B68     		ldr	r3, [r3]
 316 001e DC60     		str	r4, [r3, #12]
 317              		.loc 1 355 51 view .LVU94
 318              		.loc 1 356 3 view .LVU95
 319 0020 5488     		ldrh	r4, [r2, #2]
 320 0022 6543     		muls	r5, r4, r5
 321              		.loc 1 367 35 is_stmt 0 view .LVU96
 322 0024 013C     		subs	r4, r4, #1
 323              		.loc 1 356 3 view .LVU97
 324 0026 5D60     		str	r5, [r3, #4]
 325              		.loc 1 357 67 is_stmt 1 view .LVU98
 326              		.loc 1 358 3 view .LVU99
 327 0028 1960     		str	r1, [r3]
 328              		.loc 1 358 39 view .LVU100
 329              		.loc 1 359 3 view .LVU101
 330 002a 1968     		ldr	r1, [r3]
 331              	.LVL16:
 332              		.loc 1 359 3 is_stmt 0 view .LVU102
 333 002c 41F00101 		orr	r1, r1, #1
 334 0030 1960     		str	r1, [r3]
 335              	.LVL17:
 336              		.loc 1 359 32 is_stmt 1 view .LVU103
 337              		.loc 1 362 3 view .LVU104
 338              		.loc 1 362 20 is_stmt 0 view .LVU105
 339 0032 0021     		movs	r1, #0
 340              		.loc 1 362 7 view .LVU106
 341 0034 8369     		ldr	r3, [r0, #24]
 342              		.loc 1 362 20 view .LVU107
ARM GAS  /tmp/cc8MnlZj.s 			page 7


 343 0036 1960     		str	r1, [r3]
 344              		.loc 1 363 3 is_stmt 1 view .LVU108
 345              		.loc 1 363 26 is_stmt 0 view .LVU109
 346 0038 5169     		ldr	r1, [r2, #20]
 347              		.loc 1 363 20 view .LVU110
 348 003a D960     		str	r1, [r3, #12]
 349              		.loc 1 364 3 is_stmt 1 view .LVU111
 350              		.loc 1 364 26 is_stmt 0 view .LVU112
 351 003c 9169     		ldr	r1, [r2, #24]
 352              		.loc 1 364 20 view .LVU113
 353 003e 1961     		str	r1, [r3, #16]
 354              		.loc 1 365 3 is_stmt 1 view .LVU114
 355              		.loc 1 365 26 is_stmt 0 view .LVU115
 356 0040 918B     		ldrh	r1, [r2, #28]
 357              		.loc 1 365 20 view .LVU116
 358 0042 5962     		str	r1, [r3, #36]
 359              		.loc 1 366 3 is_stmt 1 view .LVU117
 360              		.loc 1 366 26 is_stmt 0 view .LVU118
 361 0044 D18B     		ldrh	r1, [r2, #30]
 362              		.loc 1 366 20 view .LVU119
 363 0046 9962     		str	r1, [r3, #40]
 364              		.loc 1 367 3 is_stmt 1 view .LVU120
 365              		.loc 1 367 33 is_stmt 0 view .LVU121
 366 0048 116A     		ldr	r1, [r2, #32]
 367 004a 41EA0454 		orr	r4, r1, r4, lsl #20
 368              		.loc 1 368 26 view .LVU122
 369 004e 516A     		ldr	r1, [r2, #36]
 370              		.loc 1 367 20 view .LVU123
 371 0050 DC62     		str	r4, [r3, #44]
 372              		.loc 1 368 3 is_stmt 1 view .LVU124
 373              		.loc 1 368 20 is_stmt 0 view .LVU125
 374 0052 1963     		str	r1, [r3, #48]
 375              		.loc 1 369 3 is_stmt 1 view .LVU126
 376              		.loc 1 369 26 is_stmt 0 view .LVU127
 377 0054 916A     		ldr	r1, [r2, #40]
 378              		.loc 1 369 20 view .LVU128
 379 0056 5963     		str	r1, [r3, #52]
 380              		.loc 1 372 3 is_stmt 1 view .LVU129
 381              		.loc 1 372 48 is_stmt 0 view .LVU130
 382 0058 D168     		ldr	r1, [r2, #12]
 383              		.loc 1 375 13 view .LVU131
 384 005a 1269     		ldr	r2, [r2, #16]
 385              	.LVL18:
 386              		.loc 1 372 48 view .LVU132
 387 005c 41F08061 		orr	r1, r1, #67108864
 388 0060 41F48071 		orr	r1, r1, #256
 389              		.loc 1 372 20 view .LVU133
 390 0064 5960     		str	r1, [r3, #4]
 391              		.loc 1 375 3 is_stmt 1 view .LVU134
 392              	.LVL19:
 393              		.loc 1 379 3 view .LVU135
 394              		.loc 1 379 6 is_stmt 0 view .LVU136
 395 0066 5100     		lsls	r1, r2, #1
 396 0068 0AD5     		bpl	.L18
 397              		.loc 1 381 5 is_stmt 1 view .LVU137
 398              		.loc 1 381 43 is_stmt 0 view .LVU138
 399 006a 22F08041 		bic	r1, r2, #1073741824
ARM GAS  /tmp/cc8MnlZj.s 			page 8


 400 006e 40F20330 		movw	r0, #771
 401              	.LVL20:
 402              		.loc 1 381 43 view .LVU139
 403 0072 21F00201 		bic	r1, r1, #2
 404              		.loc 1 384 27 view .LVU140
 405 0076 0243     		orrs	r2, r2, r0
 406              	.LVL21:
 407              		.loc 1 381 43 view .LVU141
 408 0078 0143     		orrs	r1, r1, r0
 409              		.loc 1 381 20 view .LVU142
 410 007a 9960     		str	r1, [r3, #8]
 411              		.loc 1 384 5 is_stmt 1 view .LVU143
 412              	.L23:
 413              		.loc 1 387 20 is_stmt 0 view .LVU144
 414 007c 9A60     		str	r2, [r3, #8]
 415              	.LVL22:
 416              		.loc 1 388 1 view .LVU145
 417 007e 30BD     		pop	{r4, r5, pc}
 418              	.LVL23:
 419              	.L18:
 420              		.loc 1 387 5 is_stmt 1 view .LVU146
 421              		.loc 1 375 7 is_stmt 0 view .LVU147
 422 0080 42F44072 		orr	r2, r2, #768
 423              	.LVL24:
 424              		.loc 1 375 7 view .LVU148
 425 0084 42F00102 		orr	r2, r2, #1
 426 0088 F8E7     		b	.L23
 427              		.cfi_endproc
 428              	.LFE339:
 429              		.size	adc_lld_start_conversion, .-adc_lld_start_conversion
 430              		.section	.text.adc_lld_stop_conversion,"ax",%progbits
 431              		.align	1
 432              		.global	adc_lld_stop_conversion
 433              		.syntax unified
 434              		.thumb
 435              		.thumb_func
 436              		.fpu fpv4-sp-d16
 437              		.type	adc_lld_stop_conversion, %function
 438              	adc_lld_stop_conversion:
 439              	.LVL25:
 440              	.LFB340:
 441              		.loc 1 397 47 is_stmt 1 view -0
 442              		.cfi_startproc
 443              		@ args = 0, pretend = 0, frame = 0
 444              		@ frame_needed = 0, uses_anonymous_args = 0
 445              		.loc 1 399 3 view .LVU150
 446 0000 C169     		ldr	r1, [r0, #28]
 447              		.loc 1 397 47 is_stmt 0 view .LVU151
 448 0002 10B5     		push	{r4, lr}
 449              		.cfi_def_cfa_offset 8
 450              		.cfi_offset 4, -8
 451              		.cfi_offset 14, -4
 452              		.loc 1 399 3 view .LVU152
 453 0004 0C68     		ldr	r4, [r1]
 454 0006 2368     		ldr	r3, [r4]
 455 0008 23F01F03 		bic	r3, r3, #31
 456 000c 2360     		str	r3, [r4]
ARM GAS  /tmp/cc8MnlZj.s 			page 9


 457              		.loc 1 399 3 is_stmt 1 view .LVU153
 458              	.L25:
 459              		.loc 1 399 3 discriminator 2 view .LVU154
 460              		.loc 1 399 3 discriminator 2 view .LVU155
 461 000e 2268     		ldr	r2, [r4]
 462 0010 12F00102 		ands	r2, r2, #1
 463 0014 FBD1     		bne	.L25
 464              		.loc 1 399 3 discriminator 3 view .LVU156
 465 0016 4C68     		ldr	r4, [r1, #4]
 466 0018 3D23     		movs	r3, #61
 467 001a 497A     		ldrb	r1, [r1, #9]	@ zero_extendqisi2
 468 001c 8B40     		lsls	r3, r3, r1
 469 001e 2360     		str	r3, [r4]
 470              		.loc 1 399 3 discriminator 3 view .LVU157
 471              		.loc 1 399 33 discriminator 3 view .LVU158
 472              		.loc 1 400 3 discriminator 3 view .LVU159
 473              		.loc 1 400 7 is_stmt 0 discriminator 3 view .LVU160
 474 0020 8369     		ldr	r3, [r0, #24]
 475              		.loc 1 400 18 discriminator 3 view .LVU161
 476 0022 5A60     		str	r2, [r3, #4]
 477              		.loc 1 402 3 is_stmt 1 discriminator 3 view .LVU162
 478              		.loc 1 402 18 is_stmt 0 discriminator 3 view .LVU163
 479 0024 9A68     		ldr	r2, [r3, #8]
 480 0026 22F08042 		bic	r2, r2, #1073741824
 481 002a 9A60     		str	r2, [r3, #8]
 482              		.loc 1 403 3 is_stmt 1 discriminator 3 view .LVU164
 483              		.loc 1 403 18 is_stmt 0 discriminator 3 view .LVU165
 484 002c 0122     		movs	r2, #1
 485 002e 9A60     		str	r2, [r3, #8]
 486              		.loc 1 404 1 discriminator 3 view .LVU166
 487 0030 10BD     		pop	{r4, pc}
 488              		.cfi_endproc
 489              	.LFE340:
 490              		.size	adc_lld_stop_conversion, .-adc_lld_stop_conversion
 491              		.section	.text.Vector88,"ax",%progbits
 492              		.align	1
 493              		.global	Vector88
 494              		.syntax unified
 495              		.thumb
 496              		.thumb_func
 497              		.fpu fpv4-sp-d16
 498              		.type	Vector88, %function
 499              	Vector88:
 500              	.LFB335:
 501              		.loc 1 111 37 is_stmt 1 view -0
 502              		.cfi_startproc
 503              		@ args = 0, pretend = 0, frame = 0
 504              		@ frame_needed = 0, uses_anonymous_args = 0
 505              		.loc 1 112 3 view .LVU168
 506              		.loc 1 114 3 view .LVU169
 507              		.loc 1 114 3 view .LVU170
 508              		.loc 1 114 3 view .LVU171
 509              		.loc 1 114 3 view .LVU172
 510              		.loc 1 111 37 is_stmt 0 view .LVU173
 511 0000 38B5     		push	{r3, r4, r5, lr}
 512              		.cfi_def_cfa_offset 16
 513              		.cfi_offset 3, -16
ARM GAS  /tmp/cc8MnlZj.s 			page 10


 514              		.cfi_offset 4, -12
 515              		.cfi_offset 5, -8
 516              		.cfi_offset 14, -4
 517              		.loc 1 114 3 view .LVU174
 518 0002 FFF7FEFF 		bl	_stats_increase_irq
 519              	.LVL26:
 520              		.loc 1 114 3 is_stmt 1 view .LVU175
 521              		.loc 1 114 22 view .LVU176
 522              		.loc 1 117 3 view .LVU177
 523              		.loc 1 117 6 is_stmt 0 view .LVU178
 524 0006 2E4B     		ldr	r3, .L53
 525              		.loc 1 118 12 view .LVU179
 526 0008 0022     		movs	r2, #0
 527              		.loc 1 117 6 view .LVU180
 528 000a 1D68     		ldr	r5, [r3]
 529              	.LVL27:
 530              		.loc 1 118 3 is_stmt 1 view .LVU181
 531              		.loc 1 118 12 is_stmt 0 view .LVU182
 532 000c 1A60     		str	r2, [r3]
 533              		.loc 1 121 3 is_stmt 1 view .LVU183
 534              		.loc 1 121 6 is_stmt 0 view .LVU184
 535 000e AA06     		lsls	r2, r5, #26
 536 0010 27D5     		bpl	.L28
 537              		.loc 1 121 29 discriminator 1 view .LVU185
 538 0012 2C4C     		ldr	r4, .L53+4
 539 0014 E369     		ldr	r3, [r4, #28]
 540 0016 1B68     		ldr	r3, [r3]
 541 0018 5B68     		ldr	r3, [r3, #4]
 542              		.loc 1 121 25 discriminator 1 view .LVU186
 543 001a 13B3     		cbz	r3, .L28
 544              		.loc 1 124 5 is_stmt 1 view .LVU187
 545              		.loc 1 124 8 is_stmt 0 view .LVU188
 546 001c 2369     		ldr	r3, [r4, #16]
 547 001e 03B3     		cbz	r3, .L28
 548              		.loc 1 125 7 is_stmt 1 view .LVU189
 549 0020 2046     		mov	r0, r4
 550 0022 FFF7FEFF 		bl	adc_lld_stop_conversion
 551              	.LVL28:
 552              		.loc 1 125 7 view .LVU190
 553 0026 2369     		ldr	r3, [r4, #16]
 554 0028 9B68     		ldr	r3, [r3, #8]
 555 002a 002B     		cmp	r3, #0
 556 002c 42D0     		beq	.L29
 557              		.loc 1 125 7 discriminator 1 view .LVU191
 558 002e 0522     		movs	r2, #5
 559 0030 0121     		movs	r1, #1
 560 0032 2270     		strb	r2, [r4]
 561              		.loc 1 125 7 discriminator 1 view .LVU192
 562 0034 9847     		blx	r3
 563              	.LVL29:
 564              		.loc 1 125 7 discriminator 1 view .LVU193
 565 0036 2378     		ldrb	r3, [r4]	@ zero_extendqisi2
 566 0038 052B     		cmp	r3, #5
 567              		.loc 1 125 7 discriminator 1 view .LVU194
 568 003a 04BF     		itt	eq
 569 003c 0223     		moveq	r3, #2
 570 003e 2370     		strbeq	r3, [r4]
ARM GAS  /tmp/cc8MnlZj.s 			page 11


 571              		.loc 1 125 7 discriminator 1 view .LVU195
 572 0040 0023     		movs	r3, #0
 573              	.L51:
 574              		.loc 1 125 7 discriminator 2 view .LVU196
 575 0042 2361     		str	r3, [r4, #16]
 576              		.loc 1 125 7 discriminator 2 view .LVU197
 577              	.LBB84:
 578              	.LBI84:
 579              		.file 2 "../../modules/ChibiOS/os/hal/osal/rt/osal.h"
 580              		.loc 2 531 20 discriminator 2 view .LVU198
 581              	.LBE84:
 582              		.loc 2 533 3 discriminator 2 view .LVU199
 583              	.LBB98:
 584              	.LBB85:
 585              	.LBI85:
 586              		.file 3 "../../modules/ChibiOS/os/rt/include/chsys.h"
 587              		.loc 3 393 20 discriminator 2 view .LVU200
 588              	.LBB86:
 589              		.loc 3 395 3 discriminator 2 view .LVU201
 590              	.LBB87:
 591              	.LBI87:
 592              		.file 4 "../../modules/ChibiOS/os/common/ports/ARMCMx/chcore_v7m.h"
 593              		.loc 4 641 20 discriminator 2 view .LVU202
 594              	.LBE87:
 595              	.LBE86:
 596              	.LBE85:
 597              	.LBE98:
 598              		.loc 4 643 3 discriminator 2 view .LVU203
 599              	.LBB99:
 600              	.LBB96:
 601              	.LBB94:
 602              	.LBB92:
 603              	.LBB88:
 604              	.LBI88:
 605              		.loc 4 602 20 discriminator 2 view .LVU204
 606              	.LBE88:
 607              	.LBE92:
 608              	.LBE94:
 609              	.LBE96:
 610              	.LBE99:
 611              		.loc 4 610 3 discriminator 2 view .LVU205
 612              	.LVL30:
 613              	.LBB100:
 614              	.LBB97:
 615              	.LBB95:
 616              	.LBB93:
 617              	.LBB91:
 618              	.LBB89:
 619              	.LBI89:
 620              		.file 5 "../../modules/ChibiOS/os/common/ext/ARM/CMSIS/Core/Include/cmsis_gcc.h"
 621              		.loc 5 491 27 discriminator 2 view .LVU206
 622              	.LBB90:
 623              		.loc 5 493 3 discriminator 2 view .LVU207
 624 0044 2023     		movs	r3, #32
 625              		.syntax unified
 626              	@ 493 "../../modules/ChibiOS/os/common/ext/ARM/CMSIS/Core/Include/cmsis_gcc.h" 1
 627 0046 83F31188 		MSR basepri, r3
ARM GAS  /tmp/cc8MnlZj.s 			page 12


 628              	@ 0 "" 2
 629              	.LVL31:
 630              		.loc 5 493 3 is_stmt 0 discriminator 2 view .LVU208
 631              		.thumb
 632              		.syntax unified
 633              	.LBE90:
 634              	.LBE89:
 635              	.LBE91:
 636              	.LBE93:
 637              		.loc 3 396 3 is_stmt 1 discriminator 2 view .LVU209
 638 004a FFF7FEFF 		bl	_stats_start_measure_crit_isr
 639              	.LVL32:
 640              		.loc 3 397 29 discriminator 2 view .LVU210
 641              	.LBE95:
 642              	.LBE97:
 643              	.LBE100:
 644              		.loc 1 125 7 discriminator 2 view .LVU211
 645              	.LBB101:
 646              	.LBI101:
 647              		.loc 2 773 20 discriminator 2 view .LVU212
 648              	.LBB102:
 649              		.loc 2 775 3 discriminator 2 view .LVU213
 650 004e 4FF0FF31 		mov	r1, #-1
 651 0052 1D48     		ldr	r0, .L53+8
 652 0054 FFF7FEFF 		bl	chThdResumeI
 653              	.LVL33:
 654              		.loc 2 775 3 is_stmt 0 discriminator 2 view .LVU214
 655              	.LBE102:
 656              	.LBE101:
 657              		.loc 1 125 7 is_stmt 1 discriminator 2 view .LVU215
 658              	.LBB103:
 659              	.LBI103:
 660              		.loc 2 542 20 discriminator 2 view .LVU216
 661              	.LBE103:
 662              		.loc 2 544 3 discriminator 2 view .LVU217
 663              	.LBB117:
 664              	.LBB104:
 665              	.LBI104:
 666              		.loc 3 413 20 discriminator 2 view .LVU218
 667              	.LBB105:
 668              		.loc 3 415 31 discriminator 2 view .LVU219
 669              		.loc 3 416 3 discriminator 2 view .LVU220
 670 0058 FFF7FEFF 		bl	_stats_stop_measure_crit_isr
 671              	.LVL34:
 672              		.loc 3 417 3 discriminator 2 view .LVU221
 673              	.LBB106:
 674              	.LBI106:
 675              		.loc 4 652 20 discriminator 2 view .LVU222
 676              	.LBE106:
 677              	.LBE105:
 678              	.LBE104:
 679              	.LBE117:
 680              		.loc 4 654 3 discriminator 2 view .LVU223
 681              	.LBB118:
 682              	.LBB115:
 683              	.LBB113:
 684              	.LBB111:
ARM GAS  /tmp/cc8MnlZj.s 			page 13


 685              	.LBB107:
 686              	.LBI107:
 687              		.loc 4 626 20 discriminator 2 view .LVU224
 688              	.LBE107:
 689              	.LBE111:
 690              	.LBE113:
 691              	.LBE115:
 692              	.LBE118:
 693              		.loc 4 629 3 discriminator 2 view .LVU225
 694              	.LBB119:
 695              	.LBB116:
 696              	.LBB114:
 697              	.LBB112:
 698              	.LBB110:
 699              	.LBB108:
 700              	.LBI108:
 701              		.loc 5 491 27 discriminator 2 view .LVU226
 702              	.LBB109:
 703              		.loc 5 493 3 discriminator 2 view .LVU227
 704 005c 0023     		movs	r3, #0
 705              		.syntax unified
 706              	@ 493 "../../modules/ChibiOS/os/common/ext/ARM/CMSIS/Core/Include/cmsis_gcc.h" 1
 707 005e 83F31188 		MSR basepri, r3
 708              	@ 0 "" 2
 709              	.LVL35:
 710              		.thumb
 711              		.syntax unified
 712              	.L28:
 713              		.loc 5 493 3 is_stmt 0 discriminator 2 view .LVU228
 714              	.LBE109:
 715              	.LBE108:
 716              	.LBE110:
 717              	.LBE112:
 718              	.LBE114:
 719              	.LBE116:
 720              	.LBE119:
 721              		.loc 1 125 7 is_stmt 1 discriminator 8 view .LVU229
 722              		.loc 1 125 52 discriminator 8 view .LVU230
 723              		.loc 1 127 3 discriminator 8 view .LVU231
 724              		.loc 1 127 6 is_stmt 0 discriminator 8 view .LVU232
 725 0062 EB07     		lsls	r3, r5, #31
 726 0064 22D5     		bpl	.L32
 727              		.loc 1 128 5 is_stmt 1 view .LVU233
 728              		.loc 1 128 14 is_stmt 0 view .LVU234
 729 0066 174C     		ldr	r4, .L53+4
 730              		.loc 1 128 8 view .LVU235
 731 0068 2369     		ldr	r3, [r4, #16]
 732 006a FBB1     		cbz	r3, .L32
 733              		.loc 1 129 7 is_stmt 1 view .LVU236
 734 006c 2046     		mov	r0, r4
 735 006e FFF7FEFF 		bl	adc_lld_stop_conversion
 736              	.LVL36:
 737              		.loc 1 129 7 view .LVU237
 738 0072 2369     		ldr	r3, [r4, #16]
 739 0074 9B68     		ldr	r3, [r3, #8]
 740 0076 03B3     		cbz	r3, .L33
 741              		.loc 1 129 7 discriminator 1 view .LVU238
ARM GAS  /tmp/cc8MnlZj.s 			page 14


 742 0078 0522     		movs	r2, #5
 743 007a 0221     		movs	r1, #2
 744 007c 2270     		strb	r2, [r4]
 745              		.loc 1 129 7 discriminator 1 view .LVU239
 746 007e 9847     		blx	r3
 747              	.LVL37:
 748              		.loc 1 129 7 discriminator 1 view .LVU240
 749 0080 2378     		ldrb	r3, [r4]	@ zero_extendqisi2
 750 0082 052B     		cmp	r3, #5
 751              		.loc 1 129 7 discriminator 1 view .LVU241
 752 0084 04BF     		itt	eq
 753 0086 0223     		moveq	r3, #2
 754 0088 2370     		strbeq	r3, [r4]
 755              		.loc 1 129 7 discriminator 1 view .LVU242
 756 008a 0023     		movs	r3, #0
 757              	.L52:
 758              		.loc 1 129 7 discriminator 2 view .LVU243
 759 008c 2361     		str	r3, [r4, #16]
 760              		.loc 1 129 7 discriminator 2 view .LVU244
 761              	.LBB120:
 762              	.LBI120:
 763              		.loc 2 531 20 discriminator 2 view .LVU245
 764              	.LBE120:
 765              		.loc 2 533 3 discriminator 2 view .LVU246
 766              	.LBB134:
 767              	.LBB121:
 768              	.LBI121:
 769              		.loc 3 393 20 discriminator 2 view .LVU247
 770              	.LBB122:
 771              		.loc 3 395 3 discriminator 2 view .LVU248
 772              	.LBB123:
 773              	.LBI123:
 774              		.loc 4 641 20 discriminator 2 view .LVU249
 775              	.LBE123:
 776              	.LBE122:
 777              	.LBE121:
 778              	.LBE134:
 779              		.loc 4 643 3 discriminator 2 view .LVU250
 780              	.LBB135:
 781              	.LBB132:
 782              	.LBB130:
 783              	.LBB128:
 784              	.LBB124:
 785              	.LBI124:
 786              		.loc 4 602 20 discriminator 2 view .LVU251
 787              	.LBE124:
 788              	.LBE128:
 789              	.LBE130:
 790              	.LBE132:
 791              	.LBE135:
 792              		.loc 4 610 3 discriminator 2 view .LVU252
 793              	.LVL38:
 794              	.LBB136:
 795              	.LBB133:
 796              	.LBB131:
 797              	.LBB129:
 798              	.LBB127:
ARM GAS  /tmp/cc8MnlZj.s 			page 15


 799              	.LBB125:
 800              	.LBI125:
 801              		.loc 5 491 27 discriminator 2 view .LVU253
 802              	.LBB126:
 803              		.loc 5 493 3 discriminator 2 view .LVU254
 804 008e 2023     		movs	r3, #32
 805              		.syntax unified
 806              	@ 493 "../../modules/ChibiOS/os/common/ext/ARM/CMSIS/Core/Include/cmsis_gcc.h" 1
 807 0090 83F31188 		MSR basepri, r3
 808              	@ 0 "" 2
 809              	.LVL39:
 810              		.loc 5 493 3 is_stmt 0 discriminator 2 view .LVU255
 811              		.thumb
 812              		.syntax unified
 813              	.LBE126:
 814              	.LBE125:
 815              	.LBE127:
 816              	.LBE129:
 817              		.loc 3 396 3 is_stmt 1 discriminator 2 view .LVU256
 818 0094 FFF7FEFF 		bl	_stats_start_measure_crit_isr
 819              	.LVL40:
 820              		.loc 3 397 29 discriminator 2 view .LVU257
 821              	.LBE131:
 822              	.LBE133:
 823              	.LBE136:
 824              		.loc 1 129 7 discriminator 2 view .LVU258
 825              	.LBB137:
 826              	.LBI137:
 827              		.loc 2 773 20 discriminator 2 view .LVU259
 828              	.LBB138:
 829              		.loc 2 775 3 discriminator 2 view .LVU260
 830 0098 4FF0FF31 		mov	r1, #-1
 831 009c 0A48     		ldr	r0, .L53+8
 832 009e FFF7FEFF 		bl	chThdResumeI
 833              	.LVL41:
 834              		.loc 2 775 3 is_stmt 0 discriminator 2 view .LVU261
 835              	.LBE138:
 836              	.LBE137:
 837              		.loc 1 129 7 is_stmt 1 discriminator 2 view .LVU262
 838              	.LBB139:
 839              	.LBI139:
 840              		.loc 2 542 20 discriminator 2 view .LVU263
 841              	.LBE139:
 842              		.loc 2 544 3 discriminator 2 view .LVU264
 843              	.LBB153:
 844              	.LBB140:
 845              	.LBI140:
 846              		.loc 3 413 20 discriminator 2 view .LVU265
 847              	.LBB141:
 848              		.loc 3 415 31 discriminator 2 view .LVU266
 849              		.loc 3 416 3 discriminator 2 view .LVU267
 850 00a2 FFF7FEFF 		bl	_stats_stop_measure_crit_isr
 851              	.LVL42:
 852              		.loc 3 417 3 discriminator 2 view .LVU268
 853              	.LBB142:
 854              	.LBI142:
 855              		.loc 4 652 20 discriminator 2 view .LVU269
ARM GAS  /tmp/cc8MnlZj.s 			page 16


 856              	.LBE142:
 857              	.LBE141:
 858              	.LBE140:
 859              	.LBE153:
 860              		.loc 4 654 3 discriminator 2 view .LVU270
 861              	.LBB154:
 862              	.LBB151:
 863              	.LBB149:
 864              	.LBB147:
 865              	.LBB143:
 866              	.LBI143:
 867              		.loc 4 626 20 discriminator 2 view .LVU271
 868              	.LBE143:
 869              	.LBE147:
 870              	.LBE149:
 871              	.LBE151:
 872              	.LBE154:
 873              		.loc 4 629 3 discriminator 2 view .LVU272
 874              	.LBB155:
 875              	.LBB152:
 876              	.LBB150:
 877              	.LBB148:
 878              	.LBB146:
 879              	.LBB144:
 880              	.LBI144:
 881              		.loc 5 491 27 discriminator 2 view .LVU273
 882              	.LBB145:
 883              		.loc 5 493 3 discriminator 2 view .LVU274
 884 00a6 0023     		movs	r3, #0
 885              		.syntax unified
 886              	@ 493 "../../modules/ChibiOS/os/common/ext/ARM/CMSIS/Core/Include/cmsis_gcc.h" 1
 887 00a8 83F31188 		MSR basepri, r3
 888              	@ 0 "" 2
 889              	.LVL43:
 890              		.thumb
 891              		.syntax unified
 892              	.L32:
 893              		.loc 5 493 3 is_stmt 0 discriminator 2 view .LVU275
 894              	.LBE145:
 895              	.LBE144:
 896              	.LBE146:
 897              	.LBE148:
 898              	.LBE150:
 899              	.LBE152:
 900              	.LBE155:
 901              		.loc 1 129 7 is_stmt 1 discriminator 8 view .LVU276
 902              		.loc 1 129 52 discriminator 8 view .LVU277
 903              		.loc 1 179 3 discriminator 8 view .LVU278
 904              		.loc 1 179 3 discriminator 8 view .LVU279
 905              		.loc 1 179 3 discriminator 8 view .LVU280
 906              		.loc 1 179 3 discriminator 8 view .LVU281
 907              		.loc 1 179 3 discriminator 8 view .LVU282
 908              		.loc 1 180 1 is_stmt 0 discriminator 8 view .LVU283
 909 00ac BDE83840 		pop	{r3, r4, r5, lr}
 910              		.cfi_remember_state
 911              		.cfi_restore 14
 912              		.cfi_restore 5
ARM GAS  /tmp/cc8MnlZj.s 			page 17


 913              		.cfi_restore 4
 914              		.cfi_restore 3
 915              		.cfi_def_cfa_offset 0
 916              	.LVL44:
 917              		.loc 1 179 3 discriminator 8 view .LVU284
 918 00b0 FFF7FEBF 		b	_port_irq_epilogue
 919              	.LVL45:
 920              	.L29:
 921              		.cfi_restore_state
 922              		.loc 1 125 7 is_stmt 1 discriminator 2 view .LVU285
 923 00b4 0222     		movs	r2, #2
 924 00b6 2270     		strb	r2, [r4]
 925 00b8 C3E7     		b	.L51
 926              	.L33:
 927              		.loc 1 129 7 discriminator 2 view .LVU286
 928 00ba 0222     		movs	r2, #2
 929 00bc 2270     		strb	r2, [r4]
 930 00be E5E7     		b	.L52
 931              	.L54:
 932              		.align	2
 933              	.L53:
 934 00c0 00200140 		.word	1073815552
 935 00c4 00000000 		.word	.LANCHOR0
 936 00c8 14000000 		.word	.LANCHOR0+20
 937              		.cfi_endproc
 938              	.LFE335:
 939              		.size	Vector88, .-Vector88
 940              		.section	.text.adc_lld_serve_rx_interrupt,"ax",%progbits
 941              		.align	1
 942              		.syntax unified
 943              		.thumb
 944              		.thumb_func
 945              		.fpu fpv4-sp-d16
 946              		.type	adc_lld_serve_rx_interrupt, %function
 947              	adc_lld_serve_rx_interrupt:
 948              	.LVL46:
 949              	.LFB334:
 950              		.loc 1 75 73 view -0
 951              		.cfi_startproc
 952              		@ args = 0, pretend = 0, frame = 0
 953              		@ frame_needed = 0, uses_anonymous_args = 0
 954              		.loc 1 78 3 view .LVU288
 955              		.loc 1 78 6 is_stmt 0 view .LVU289
 956 0000 11F00C0F 		tst	r1, #12
 957              		.loc 1 75 73 view .LVU290
 958 0004 10B5     		push	{r4, lr}
 959              		.cfi_def_cfa_offset 8
 960              		.cfi_offset 4, -8
 961              		.cfi_offset 14, -4
 962              		.loc 1 75 73 view .LVU291
 963 0006 0446     		mov	r4, r0
 964              		.loc 1 78 6 view .LVU292
 965 0008 23D0     		beq	.L56
 966              		.loc 1 81 5 is_stmt 1 view .LVU293
 967 000a FFF7FEFF 		bl	adc_lld_stop_conversion
 968              	.LVL47:
 969              		.loc 1 81 5 view .LVU294
ARM GAS  /tmp/cc8MnlZj.s 			page 18


 970 000e 0369     		ldr	r3, [r0, #16]
 971 0010 9B68     		ldr	r3, [r3, #8]
 972 0012 DBB1     		cbz	r3, .L57
 973              		.loc 1 81 5 discriminator 1 view .LVU295
 974 0014 0522     		movs	r2, #5
 975 0016 0021     		movs	r1, #0
 976 0018 0270     		strb	r2, [r0]
 977              		.loc 1 81 5 discriminator 1 view .LVU296
 978 001a 9847     		blx	r3
 979              	.LVL48:
 980              		.loc 1 81 5 discriminator 1 view .LVU297
 981 001c 2378     		ldrb	r3, [r4]	@ zero_extendqisi2
 982 001e 052B     		cmp	r3, #5
 983              		.loc 1 81 5 discriminator 1 view .LVU298
 984 0020 04BF     		itt	eq
 985 0022 0223     		moveq	r3, #2
 986 0024 2370     		strbeq	r3, [r4]
 987              		.loc 1 81 5 discriminator 1 view .LVU299
 988 0026 0023     		movs	r3, #0
 989              	.L79:
 990              		.loc 1 81 5 discriminator 2 view .LVU300
 991 0028 2361     		str	r3, [r4, #16]
 992              		.loc 1 81 5 discriminator 2 view .LVU301
 993              	.LBB192:
 994              	.LBI192:
 995              		.loc 2 531 20 discriminator 2 view .LVU302
 996              	.LBE192:
 997              		.loc 2 533 3 discriminator 2 view .LVU303
 998              	.LBB206:
 999              	.LBB193:
 1000              	.LBI193:
 1001              		.loc 3 393 20 discriminator 2 view .LVU304
 1002              	.LBB194:
 1003              		.loc 3 395 3 discriminator 2 view .LVU305
 1004              	.LBB195:
 1005              	.LBI195:
 1006              		.loc 4 641 20 discriminator 2 view .LVU306
 1007              	.LBE195:
 1008              	.LBE194:
 1009              	.LBE193:
 1010              	.LBE206:
 1011              		.loc 4 643 3 discriminator 2 view .LVU307
 1012              	.LBB207:
 1013              	.LBB204:
 1014              	.LBB202:
 1015              	.LBB200:
 1016              	.LBB196:
 1017              	.LBI196:
 1018              		.loc 4 602 20 discriminator 2 view .LVU308
 1019              	.LBE196:
 1020              	.LBE200:
 1021              	.LBE202:
 1022              	.LBE204:
 1023              	.LBE207:
 1024              		.loc 4 610 3 discriminator 2 view .LVU309
 1025              	.LVL49:
 1026              	.LBB208:
ARM GAS  /tmp/cc8MnlZj.s 			page 19


 1027              	.LBB205:
 1028              	.LBB203:
 1029              	.LBB201:
 1030              	.LBB199:
 1031              	.LBB197:
 1032              	.LBI197:
 1033              		.loc 5 491 27 discriminator 2 view .LVU310
 1034              	.LBB198:
 1035              		.loc 5 493 3 discriminator 2 view .LVU311
 1036 002a 2023     		movs	r3, #32
 1037              		.syntax unified
 1038              	@ 493 "../../modules/ChibiOS/os/common/ext/ARM/CMSIS/Core/Include/cmsis_gcc.h" 1
 1039 002c 83F31188 		MSR basepri, r3
 1040              	@ 0 "" 2
 1041              	.LVL50:
 1042              		.loc 5 493 3 is_stmt 0 discriminator 2 view .LVU312
 1043              		.thumb
 1044              		.syntax unified
 1045              	.LBE198:
 1046              	.LBE197:
 1047              	.LBE199:
 1048              	.LBE201:
 1049              		.loc 3 396 3 is_stmt 1 discriminator 2 view .LVU313
 1050 0030 FFF7FEFF 		bl	_stats_start_measure_crit_isr
 1051              	.LVL51:
 1052              		.loc 3 397 29 discriminator 2 view .LVU314
 1053              	.LBE203:
 1054              	.LBE205:
 1055              	.LBE208:
 1056              		.loc 1 81 5 discriminator 2 view .LVU315
 1057              	.LBB209:
 1058              	.LBI209:
 1059              		.loc 2 773 20 discriminator 2 view .LVU316
 1060              	.LBB210:
 1061              		.loc 2 775 3 discriminator 2 view .LVU317
 1062 0034 4FF0FF31 		mov	r1, #-1
 1063              	.LVL52:
 1064              	.L80:
 1065              		.loc 2 775 3 is_stmt 0 discriminator 2 view .LVU318
 1066              	.LBE210:
 1067              	.LBE209:
 1068              	.LBB211:
 1069              	.LBB212:
 1070              		.loc 2 775 3 discriminator 8 view .LVU319
 1071 0038 04F11400 		add	r0, r4, #20
 1072 003c FFF7FEFF 		bl	chThdResumeI
 1073              	.LVL53:
 1074              	.LBE212:
 1075              	.LBE211:
 1076              		.loc 1 90 9 is_stmt 1 discriminator 8 view .LVU320
 1077              	.LBB214:
 1078              	.LBI214:
 1079              		.loc 2 542 20 discriminator 8 view .LVU321
 1080              	.LBE214:
 1081              		.loc 2 544 3 discriminator 8 view .LVU322
 1082              	.LBB228:
 1083              	.LBB215:
ARM GAS  /tmp/cc8MnlZj.s 			page 20


 1084              	.LBI215:
 1085              		.loc 3 413 20 discriminator 8 view .LVU323
 1086              	.LBB216:
 1087              		.loc 3 415 31 discriminator 8 view .LVU324
 1088              		.loc 3 416 3 discriminator 8 view .LVU325
 1089 0040 FFF7FEFF 		bl	_stats_stop_measure_crit_isr
 1090              	.LVL54:
 1091              		.loc 3 417 3 discriminator 8 view .LVU326
 1092              	.LBB217:
 1093              	.LBI217:
 1094              		.loc 4 652 20 discriminator 8 view .LVU327
 1095              	.LBE217:
 1096              	.LBE216:
 1097              	.LBE215:
 1098              	.LBE228:
 1099              		.loc 4 654 3 discriminator 8 view .LVU328
 1100              	.LBB229:
 1101              	.LBB226:
 1102              	.LBB224:
 1103              	.LBB222:
 1104              	.LBB218:
 1105              	.LBI218:
 1106              		.loc 4 626 20 discriminator 8 view .LVU329
 1107              	.LBE218:
 1108              	.LBE222:
 1109              	.LBE224:
 1110              	.LBE226:
 1111              	.LBE229:
 1112              		.loc 4 629 3 discriminator 8 view .LVU330
 1113              	.LBB230:
 1114              	.LBB227:
 1115              	.LBB225:
 1116              	.LBB223:
 1117              	.LBB221:
 1118              	.LBB219:
 1119              	.LBI219:
 1120              		.loc 5 491 27 discriminator 8 view .LVU331
 1121              	.LBB220:
 1122              		.loc 5 493 3 discriminator 8 view .LVU332
 1123 0044 0023     		movs	r3, #0
 1124              		.syntax unified
 1125              	@ 493 "../../modules/ChibiOS/os/common/ext/ARM/CMSIS/Core/Include/cmsis_gcc.h" 1
 1126 0046 83F31188 		MSR basepri, r3
 1127              	@ 0 "" 2
 1128              	.LVL55:
 1129              		.loc 5 493 3 is_stmt 0 discriminator 8 view .LVU333
 1130              		.thumb
 1131              		.syntax unified
 1132              	.LBE220:
 1133              	.LBE219:
 1134              	.LBE221:
 1135              	.LBE223:
 1136              		.loc 3 418 1 discriminator 8 view .LVU334
 1137 004a 12E0     		b	.L55
 1138              	.LVL56:
 1139              	.L57:
 1140              		.loc 3 418 1 discriminator 8 view .LVU335
ARM GAS  /tmp/cc8MnlZj.s 			page 21


 1141              	.LBE225:
 1142              	.LBE227:
 1143              	.LBE230:
 1144              		.loc 1 81 5 is_stmt 1 discriminator 2 view .LVU336
 1145 004c 0222     		movs	r2, #2
 1146 004e 0270     		strb	r2, [r0]
 1147 0050 EAE7     		b	.L79
 1148              	.LVL57:
 1149              	.L56:
 1150              		.loc 1 86 5 view .LVU337
 1151              		.loc 1 86 13 is_stmt 0 view .LVU338
 1152 0052 0369     		ldr	r3, [r0, #16]
 1153              		.loc 1 86 8 view .LVU339
 1154 0054 6BB1     		cbz	r3, .L55
 1155              		.loc 1 88 7 is_stmt 1 view .LVU340
 1156              		.loc 1 88 10 is_stmt 0 view .LVU341
 1157 0056 8A06     		lsls	r2, r1, #26
 1158 0058 22D5     		bpl	.L62
 1159              		.loc 1 90 9 is_stmt 1 view .LVU342
 1160 005a 1A78     		ldrb	r2, [r3]	@ zero_extendqisi2
 1161 005c 52B1     		cbz	r2, .L63
 1162              		.loc 1 90 9 discriminator 1 view .LVU343
 1163 005e 5B68     		ldr	r3, [r3, #4]
 1164 0060 3BB1     		cbz	r3, .L55
 1165              		.loc 1 90 9 discriminator 3 view .LVU344
 1166 0062 0422     		movs	r2, #4
 1167 0064 0270     		strb	r2, [r0]
 1168              		.loc 1 90 9 discriminator 3 view .LVU345
 1169 0066 9847     		blx	r3
 1170              	.LVL58:
 1171              		.loc 1 90 9 discriminator 3 view .LVU346
 1172 0068 2378     		ldrb	r3, [r4]	@ zero_extendqisi2
 1173 006a 042B     		cmp	r3, #4
 1174 006c 01D1     		bne	.L55
 1175              		.loc 1 90 9 discriminator 4 view .LVU347
 1176 006e 0323     		movs	r3, #3
 1177 0070 2370     		strb	r3, [r4]
 1178              	.L55:
 1179              		.loc 1 98 1 is_stmt 0 view .LVU348
 1180 0072 10BD     		pop	{r4, pc}
 1181              	.LVL59:
 1182              	.L63:
 1183              		.loc 1 90 9 is_stmt 1 discriminator 2 view .LVU349
 1184 0074 FFF7FEFF 		bl	adc_lld_stop_conversion
 1185              	.LVL60:
 1186              		.loc 1 90 9 discriminator 2 view .LVU350
 1187 0078 0369     		ldr	r3, [r0, #16]
 1188 007a 5B68     		ldr	r3, [r3, #4]
 1189 007c 2BB1     		cbz	r3, .L65
 1190              		.loc 1 90 9 discriminator 5 view .LVU351
 1191 007e 0422     		movs	r2, #4
 1192 0080 0270     		strb	r2, [r0]
 1193              		.loc 1 90 9 discriminator 5 view .LVU352
 1194 0082 9847     		blx	r3
 1195              	.LVL61:
 1196              		.loc 1 90 9 discriminator 5 view .LVU353
 1197 0084 2378     		ldrb	r3, [r4]	@ zero_extendqisi2
ARM GAS  /tmp/cc8MnlZj.s 			page 22


 1198 0086 042B     		cmp	r3, #4
 1199 0088 03D1     		bne	.L66
 1200              	.L65:
 1201              		.loc 1 90 9 discriminator 7 view .LVU354
 1202 008a 0223     		movs	r3, #2
 1203 008c 2370     		strb	r3, [r4]
 1204              		.loc 1 90 9 discriminator 7 view .LVU355
 1205 008e 0023     		movs	r3, #0
 1206 0090 2361     		str	r3, [r4, #16]
 1207              	.L66:
 1208              		.loc 1 90 9 discriminator 8 view .LVU356
 1209              	.LBB231:
 1210              	.LBI231:
 1211              		.loc 2 531 20 discriminator 8 view .LVU357
 1212              	.LBE231:
 1213              		.loc 2 533 3 discriminator 8 view .LVU358
 1214              	.LBB245:
 1215              	.LBB232:
 1216              	.LBI232:
 1217              		.loc 3 393 20 discriminator 8 view .LVU359
 1218              	.LBB233:
 1219              		.loc 3 395 3 discriminator 8 view .LVU360
 1220              	.LBB234:
 1221              	.LBI234:
 1222              		.loc 4 641 20 discriminator 8 view .LVU361
 1223              	.LBE234:
 1224              	.LBE233:
 1225              	.LBE232:
 1226              	.LBE245:
 1227              		.loc 4 643 3 discriminator 8 view .LVU362
 1228              	.LBB246:
 1229              	.LBB243:
 1230              	.LBB241:
 1231              	.LBB239:
 1232              	.LBB235:
 1233              	.LBI235:
 1234              		.loc 4 602 20 discriminator 8 view .LVU363
 1235              	.LBE235:
 1236              	.LBE239:
 1237              	.LBE241:
 1238              	.LBE243:
 1239              	.LBE246:
 1240              		.loc 4 610 3 discriminator 8 view .LVU364
 1241              	.LVL62:
 1242              	.LBB247:
 1243              	.LBB244:
 1244              	.LBB242:
 1245              	.LBB240:
 1246              	.LBB238:
 1247              	.LBB236:
 1248              	.LBI236:
 1249              		.loc 5 491 27 discriminator 8 view .LVU365
 1250              	.LBB237:
 1251              		.loc 5 493 3 discriminator 8 view .LVU366
 1252 0092 2023     		movs	r3, #32
 1253              		.syntax unified
 1254              	@ 493 "../../modules/ChibiOS/os/common/ext/ARM/CMSIS/Core/Include/cmsis_gcc.h" 1
ARM GAS  /tmp/cc8MnlZj.s 			page 23


 1255 0094 83F31188 		MSR basepri, r3
 1256              	@ 0 "" 2
 1257              	.LVL63:
 1258              		.loc 5 493 3 is_stmt 0 discriminator 8 view .LVU367
 1259              		.thumb
 1260              		.syntax unified
 1261              	.LBE237:
 1262              	.LBE236:
 1263              	.LBE238:
 1264              	.LBE240:
 1265              		.loc 3 396 3 is_stmt 1 discriminator 8 view .LVU368
 1266 0098 FFF7FEFF 		bl	_stats_start_measure_crit_isr
 1267              	.LVL64:
 1268              		.loc 3 397 29 discriminator 8 view .LVU369
 1269              	.LBE242:
 1270              	.LBE244:
 1271              	.LBE247:
 1272              		.loc 1 90 9 discriminator 8 view .LVU370
 1273              	.LBB248:
 1274              	.LBI211:
 1275              		.loc 2 773 20 discriminator 8 view .LVU371
 1276              	.LBB213:
 1277              		.loc 2 775 3 discriminator 8 view .LVU372
 1278 009c 0021     		movs	r1, #0
 1279 009e CBE7     		b	.L80
 1280              	.LVL65:
 1281              	.L62:
 1282              		.loc 2 775 3 is_stmt 0 discriminator 8 view .LVU373
 1283              	.LBE213:
 1284              	.LBE248:
 1285              		.loc 1 92 12 is_stmt 1 view .LVU374
 1286              		.loc 1 92 15 is_stmt 0 view .LVU375
 1287 00a0 CA06     		lsls	r2, r1, #27
 1288 00a2 E6D5     		bpl	.L55
 1289              		.loc 1 94 9 is_stmt 1 view .LVU376
 1290 00a4 5B68     		ldr	r3, [r3, #4]
 1291 00a6 002B     		cmp	r3, #0
 1292 00a8 E3D0     		beq	.L55
 1293              		.loc 1 94 9 discriminator 1 view .LVU377
 1294              		.loc 1 98 1 is_stmt 0 discriminator 1 view .LVU378
 1295 00aa BDE81040 		pop	{r4, lr}
 1296              		.cfi_restore 14
 1297              		.cfi_restore 4
 1298              		.cfi_def_cfa_offset 0
 1299              		.loc 1 94 9 discriminator 1 view .LVU379
 1300 00ae 1847     		bx	r3	@ indirect register sibling call
 1301              	.LVL66:
 1302              		.loc 1 94 9 discriminator 1 view .LVU380
 1303              		.cfi_endproc
 1304              	.LFE334:
 1305              		.size	adc_lld_serve_rx_interrupt, .-adc_lld_serve_rx_interrupt
 1306              		.section	.text.adcSTM32EnableTSVREFE,"ax",%progbits
 1307              		.align	1
 1308              		.global	adcSTM32EnableTSVREFE
 1309              		.syntax unified
 1310              		.thumb
 1311              		.thumb_func
ARM GAS  /tmp/cc8MnlZj.s 			page 24


 1312              		.fpu fpv4-sp-d16
 1313              		.type	adcSTM32EnableTSVREFE, %function
 1314              	adcSTM32EnableTSVREFE:
 1315              	.LFB341:
 1316              		.loc 1 412 34 is_stmt 1 view -0
 1317              		.cfi_startproc
 1318              		@ args = 0, pretend = 0, frame = 0
 1319              		@ frame_needed = 0, uses_anonymous_args = 0
 1320              		@ link register save eliminated.
 1321              		.loc 1 414 3 view .LVU382
 1322              		.loc 1 414 12 is_stmt 0 view .LVU383
 1323 0000 024A     		ldr	r2, .L82
 1324 0002 5368     		ldr	r3, [r2, #4]
 1325 0004 43F40003 		orr	r3, r3, #8388608
 1326 0008 5360     		str	r3, [r2, #4]
 1327              		.loc 1 415 1 view .LVU384
 1328 000a 7047     		bx	lr
 1329              	.L83:
 1330              		.align	2
 1331              	.L82:
 1332 000c 00230140 		.word	1073816320
 1333              		.cfi_endproc
 1334              	.LFE341:
 1335              		.size	adcSTM32EnableTSVREFE, .-adcSTM32EnableTSVREFE
 1336              		.section	.text.adcSTM32DisableTSVREFE,"ax",%progbits
 1337              		.align	1
 1338              		.global	adcSTM32DisableTSVREFE
 1339              		.syntax unified
 1340              		.thumb
 1341              		.thumb_func
 1342              		.fpu fpv4-sp-d16
 1343              		.type	adcSTM32DisableTSVREFE, %function
 1344              	adcSTM32DisableTSVREFE:
 1345              	.LFB342:
 1346              		.loc 1 423 35 is_stmt 1 view -0
 1347              		.cfi_startproc
 1348              		@ args = 0, pretend = 0, frame = 0
 1349              		@ frame_needed = 0, uses_anonymous_args = 0
 1350              		@ link register save eliminated.
 1351              		.loc 1 425 3 view .LVU386
 1352              		.loc 1 425 12 is_stmt 0 view .LVU387
 1353 0000 024A     		ldr	r2, .L85
 1354 0002 5368     		ldr	r3, [r2, #4]
 1355 0004 23F40003 		bic	r3, r3, #8388608
 1356 0008 5360     		str	r3, [r2, #4]
 1357              		.loc 1 426 1 view .LVU388
 1358 000a 7047     		bx	lr
 1359              	.L86:
 1360              		.align	2
 1361              	.L85:
 1362 000c 00230140 		.word	1073816320
 1363              		.cfi_endproc
 1364              	.LFE342:
 1365              		.size	adcSTM32DisableTSVREFE, .-adcSTM32DisableTSVREFE
 1366              		.section	.text.adcSTM32EnableVBATE,"ax",%progbits
 1367              		.align	1
 1368              		.global	adcSTM32EnableVBATE
ARM GAS  /tmp/cc8MnlZj.s 			page 25


 1369              		.syntax unified
 1370              		.thumb
 1371              		.thumb_func
 1372              		.fpu fpv4-sp-d16
 1373              		.type	adcSTM32EnableVBATE, %function
 1374              	adcSTM32EnableVBATE:
 1375              	.LFB343:
 1376              		.loc 1 434 32 is_stmt 1 view -0
 1377              		.cfi_startproc
 1378              		@ args = 0, pretend = 0, frame = 0
 1379              		@ frame_needed = 0, uses_anonymous_args = 0
 1380              		@ link register save eliminated.
 1381              		.loc 1 436 3 view .LVU390
 1382              		.loc 1 436 12 is_stmt 0 view .LVU391
 1383 0000 024A     		ldr	r2, .L88
 1384 0002 5368     		ldr	r3, [r2, #4]
 1385 0004 43F48003 		orr	r3, r3, #4194304
 1386 0008 5360     		str	r3, [r2, #4]
 1387              		.loc 1 437 1 view .LVU392
 1388 000a 7047     		bx	lr
 1389              	.L89:
 1390              		.align	2
 1391              	.L88:
 1392 000c 00230140 		.word	1073816320
 1393              		.cfi_endproc
 1394              	.LFE343:
 1395              		.size	adcSTM32EnableVBATE, .-adcSTM32EnableVBATE
 1396              		.section	.text.adcSTM32DisableVBATE,"ax",%progbits
 1397              		.align	1
 1398              		.global	adcSTM32DisableVBATE
 1399              		.syntax unified
 1400              		.thumb
 1401              		.thumb_func
 1402              		.fpu fpv4-sp-d16
 1403              		.type	adcSTM32DisableVBATE, %function
 1404              	adcSTM32DisableVBATE:
 1405              	.LFB344:
 1406              		.loc 1 445 33 is_stmt 1 view -0
 1407              		.cfi_startproc
 1408              		@ args = 0, pretend = 0, frame = 0
 1409              		@ frame_needed = 0, uses_anonymous_args = 0
 1410              		@ link register save eliminated.
 1411              		.loc 1 447 3 view .LVU394
 1412              		.loc 1 447 12 is_stmt 0 view .LVU395
 1413 0000 024A     		ldr	r2, .L91
 1414 0002 5368     		ldr	r3, [r2, #4]
 1415 0004 23F48003 		bic	r3, r3, #4194304
 1416 0008 5360     		str	r3, [r2, #4]
 1417              		.loc 1 448 1 view .LVU396
 1418 000a 7047     		bx	lr
 1419              	.L92:
 1420              		.align	2
 1421              	.L91:
 1422 000c 00230140 		.word	1073816320
 1423              		.cfi_endproc
 1424              	.LFE344:
 1425              		.size	adcSTM32DisableVBATE, .-adcSTM32DisableVBATE
ARM GAS  /tmp/cc8MnlZj.s 			page 26


 1426              		.global	ADCD1
 1427              		.section	.bss.ADCD1,"aw",%nobits
 1428              		.align	2
 1429              		.set	.LANCHOR0,. + 0
 1430              		.type	ADCD1, %object
 1431              		.size	ADCD1, 36
 1432              	ADCD1:
 1433 0000 00000000 		.space	36
 1433      00000000 
 1433      00000000 
 1433      00000000 
 1433      00000000 
 1434              		.text
 1435              	.Letext0:
 1436              		.file 6 "/opt/gcc-arm-none-eabi-10-2020-q4-major/lib/gcc/arm-none-eabi/10.2.1/include/stddef.h"
 1437              		.file 7 "/opt/gcc-arm-none-eabi-10-2020-q4-major/arm-none-eabi/include/machine/_default_types.h"
 1438              		.file 8 "/opt/gcc-arm-none-eabi-10-2020-q4-major/arm-none-eabi/include/sys/_stdint.h"
 1439              		.file 9 "../../modules/ChibiOS/os/common/ports/ARMCMx/compilers/GCC/chtypes.h"
 1440              		.file 10 "../../modules/ChibiOS/os/rt/include/chsystypes.h"
 1441              		.file 11 "../../modules/ChibiOS/os/rt/include/chschd.h"
 1442              		.file 12 "../../modules/ChibiOS/os/common/ext/ST/STM32F7xx/stm32f767xx.h"
 1443              		.file 13 "../../modules/ChibiOS/os/common/ports/ARMCMx/chcore.h"
 1444              		.file 14 "../../modules/ChibiOS/os/rt/include/chtm.h"
 1445              		.file 15 "../../modules/ChibiOS/os/rt/include/chsem.h"
 1446              		.file 16 "../../modules/ChibiOS/os/rt/include/chmtx.h"
 1447              		.file 17 "../../modules/ChibiOS/os/hal/ports/STM32/LLD/DMAv2/stm32_dma.h"
 1448              		.file 18 "../../modules/ChibiOS/os/hal/include/hal_adc.h"
 1449              		.file 19 "../../modules/ChibiOS/os/hal/ports/STM32/LLD/ADCv2/hal_adc_lld.h"
 1450              		.file 20 "../../modules/ChibiOS/os/hal/ports/common/ARMCMx/nvic.h"
 1451              		.file 21 "../../modules/ChibiOS/os/rt/include/chstats.h"
 1452              		.file 22 "../../modules/ChibiOS/os/rt/include/chthreads.h"