ARM GAS  /tmp/ccaQnwEu.s 			page 1


   1              		.cpu cortex-m7
   2              		.eabi_attribute 27, 1
   3              		.eabi_attribute 28, 1
   4              		.eabi_attribute 20, 1
   5              		.eabi_attribute 21, 1
   6              		.eabi_attribute 23, 3
   7              		.eabi_attribute 24, 1
   8              		.eabi_attribute 25, 1
   9              		.eabi_attribute 26, 1
  10              		.eabi_attribute 30, 4
  11              		.eabi_attribute 34, 1
  12              		.eabi_attribute 18, 4
  13              		.file	"hal_lld.c"
  14              		.text
  15              	.Ltext0:
  16              		.cfi_sections	.debug_frame
  17              		.section	.text.hal_lld_init,"ax",%progbits
  18              		.align	1
  19              		.global	hal_lld_init
  20              		.arch armv7e-m
  21              		.syntax unified
  22              		.thumb
  23              		.thumb_func
  24              		.fpu fpv4-sp-d16
  25              		.type	hal_lld_init, %function
  26              	hal_lld_init:
  27              	.LFB335:
  28              		.file 1 "../../modules/ChibiOS/os/hal/ports/STM32/STM32F7xx/hal_lld.c"
  29              		.loc 1 114 25 view -0
  30              		.cfi_startproc
  31              		@ args = 0, pretend = 0, frame = 0
  32              		@ frame_needed = 0, uses_anonymous_args = 0
  33              		.loc 1 120 3 view .LVU1
  34              		.loc 1 114 25 is_stmt 0 view .LVU2
  35 0000 08B5     		push	{r3, lr}
  36              		.cfi_def_cfa_offset 8
  37              		.cfi_offset 3, -8
  38              		.cfi_offset 14, -4
  39              		.loc 1 120 3 view .LVU3
  40 0002 1D4B     		ldr	r3, .L6
  41              		.loc 1 121 3 view .LVU4
  42 0004 4FF0FF30 		mov	r0, #-1
  43 0008 0021     		movs	r1, #0
  44              		.loc 1 120 3 view .LVU5
  45 000a 1A69     		ldr	r2, [r3, #16]
  46 000c 6FEA4252 		mvn	r2, r2, lsl #21
  47 0010 6FEA5252 		mvn	r2, r2, lsr #21
  48 0014 1A61     		str	r2, [r3, #16]
  49              		.loc 1 120 3 is_stmt 1 view .LVU6
  50 0016 1A69     		ldr	r2, [r3, #16]
  51 0018 C2F30A02 		ubfx	r2, r2, #0, #11
  52 001c 1A61     		str	r2, [r3, #16]
  53              		.loc 1 120 3 view .LVU7
  54 001e 1A69     		ldr	r2, [r3, #16]
  55              		.loc 1 120 36 view .LVU8
  56              		.loc 1 121 3 view .LVU9
  57 0020 5A69     		ldr	r2, [r3, #20]
ARM GAS  /tmp/ccaQnwEu.s 			page 2


  58 0022 5861     		str	r0, [r3, #20]
  59              		.loc 1 121 3 view .LVU10
  60 0024 5A69     		ldr	r2, [r3, #20]
  61 0026 5961     		str	r1, [r3, #20]
  62              		.loc 1 121 3 view .LVU11
  63 0028 5A69     		ldr	r2, [r3, #20]
  64              		.loc 1 121 19 view .LVU12
  65              		.loc 1 122 3 view .LVU13
  66 002a 1A6A     		ldr	r2, [r3, #32]
  67 002c 62F08052 		orn	r2, r2, #268435456
  68 0030 1A62     		str	r2, [r3, #32]
  69              		.loc 1 122 3 view .LVU14
  70 0032 1A6A     		ldr	r2, [r3, #32]
  71 0034 02F08052 		and	r2, r2, #268435456
  72 0038 1A62     		str	r2, [r3, #32]
  73              		.loc 1 122 3 view .LVU15
  74 003a 1A6A     		ldr	r2, [r3, #32]
  75              		.loc 1 122 37 view .LVU16
  76              		.loc 1 123 3 view .LVU17
  77 003c 5A6A     		ldr	r2, [r3, #36]
  78 003e 5862     		str	r0, [r3, #36]
  79              		.loc 1 123 3 view .LVU18
  80 0040 5A6A     		ldr	r2, [r3, #36]
  81 0042 5962     		str	r1, [r3, #36]
  82              		.loc 1 123 3 view .LVU19
  83 0044 5A6A     		ldr	r2, [r3, #36]
  84              		.loc 1 123 19 view .LVU20
  85              		.loc 1 126 3 view .LVU21
  86              	.LBB4:
  87              	.LBI4:
  88              		.loc 1 54 13 view .LVU22
  89              	.LBB5:
  90              		.loc 1 57 3 view .LVU23
  91              		.loc 1 57 12 is_stmt 0 view .LVU24
  92 0046 0D4A     		ldr	r2, .L6+4
  93 0048 1068     		ldr	r0, [r2]
  94 004a 40F48070 		orr	r0, r0, #256
  95 004e 1060     		str	r0, [r2]
  96              		.loc 1 60 3 is_stmt 1 view .LVU25
  97              		.loc 1 60 11 is_stmt 0 view .LVU26
  98 0050 186F     		ldr	r0, [r3, #112]
  99              		.loc 1 60 18 view .LVU27
 100 0052 00F44070 		and	r0, r0, #768
 101              		.loc 1 60 6 view .LVU28
 102 0056 B0F5007F 		cmp	r0, #512
 103 005a 03D0     		beq	.L2
 104              		.loc 1 62 5 is_stmt 1 view .LVU29
 105              		.loc 1 62 15 is_stmt 0 view .LVU30
 106 005c 4FF48030 		mov	r0, #65536
 107 0060 1867     		str	r0, [r3, #112]
 108              		.loc 1 63 5 is_stmt 1 view .LVU31
 109              		.loc 1 63 15 is_stmt 0 view .LVU32
 110 0062 1967     		str	r1, [r3, #112]
 111              	.L2:
 112              		.loc 1 97 3 is_stmt 1 view .LVU33
 113              		.loc 1 97 13 is_stmt 0 view .LVU34
 114 0064 5368     		ldr	r3, [r2, #4]
ARM GAS  /tmp/ccaQnwEu.s 			page 3


 115 0066 23F40073 		bic	r3, r3, #512
 116 006a 5360     		str	r3, [r2, #4]
 117              	.LBE5:
 118              	.LBE4:
 119              		.loc 1 130 3 is_stmt 1 view .LVU35
 120 006c FFF7FEFF 		bl	dmaInit
 121              	.LVL0:
 122              		.loc 1 134 3 view .LVU36
 123              		.loc 1 156 1 is_stmt 0 view .LVU37
 124 0070 BDE80840 		pop	{r3, lr}
 125              		.cfi_restore 14
 126              		.cfi_restore 3
 127              		.cfi_def_cfa_offset 0
 128              		.loc 1 134 3 view .LVU38
 129 0074 FFF7FEBF 		b	irqInit
 130              	.LVL1:
 131              	.L7:
 132              		.align	2
 133              	.L6:
 134 0078 00380240 		.word	1073887232
 135 007c 00700040 		.word	1073770496
 136              		.cfi_endproc
 137              	.LFE335:
 138              		.size	hal_lld_init, .-hal_lld_init
 139              		.section	.text.stm32_clock_init,"ax",%progbits
 140              		.align	1
 141              		.global	stm32_clock_init
 142              		.syntax unified
 143              		.thumb
 144              		.thumb_func
 145              		.fpu fpv4-sp-d16
 146              		.type	stm32_clock_init, %function
 147              	stm32_clock_init:
 148              	.LFB336:
 149              		.loc 1 165 29 is_stmt 1 view -0
 150              		.cfi_startproc
 151              		@ args = 0, pretend = 0, frame = 0
 152              		@ frame_needed = 0, uses_anonymous_args = 0
 153              		@ link register save eliminated.
 154              		.loc 1 170 3 view .LVU40
 155              		.loc 1 170 16 is_stmt 0 view .LVU41
 156 0000 344B     		ldr	r3, .L34
 157              		.loc 1 176 12 view .LVU42
 158 0002 4FF44041 		mov	r1, #49152
 159              		.loc 1 170 16 view .LVU43
 160 0006 344A     		ldr	r2, .L34+4
 161 0008 1A64     		str	r2, [r3, #64]
 162              		.loc 1 176 3 is_stmt 1 view .LVU44
 163              		.loc 1 176 12 is_stmt 0 view .LVU45
 164 000a 344A     		ldr	r2, .L34+8
 165 000c 1160     		str	r1, [r2]
 166              		.loc 1 180 3 is_stmt 1 view .LVU46
 167              		.loc 1 180 11 is_stmt 0 view .LVU47
 168 000e 1A68     		ldr	r2, [r3]
 169 0010 42F00102 		orr	r2, r2, #1
 170 0014 1A60     		str	r2, [r3]
 171              		.loc 1 181 3 is_stmt 1 view .LVU48
ARM GAS  /tmp/ccaQnwEu.s 			page 4


 172              	.L9:
 173              		.loc 1 182 5 discriminator 1 view .LVU49
 174              		.loc 1 181 9 discriminator 1 view .LVU50
 175              		.loc 1 181 15 is_stmt 0 discriminator 1 view .LVU51
 176 0016 1A68     		ldr	r2, [r3]
 177              		.loc 1 181 9 discriminator 1 view .LVU52
 178 0018 9207     		lsls	r2, r2, #30
 179 001a FCD5     		bpl	.L9
 180              		.loc 1 187 3 is_stmt 1 view .LVU53
 181              		.loc 1 187 13 is_stmt 0 view .LVU54
 182 001c 9A68     		ldr	r2, [r3, #8]
 183 001e 22F00302 		bic	r2, r2, #3
 184 0022 9A60     		str	r2, [r3, #8]
 185              		.loc 1 188 3 is_stmt 1 view .LVU55
 186              		.loc 1 188 14 is_stmt 0 view .LVU56
 187 0024 2B4B     		ldr	r3, .L34
 188              	.L10:
 189              		.loc 1 189 5 is_stmt 1 discriminator 1 view .LVU57
 190              		.loc 1 188 9 discriminator 1 view .LVU58
 191              		.loc 1 188 14 is_stmt 0 discriminator 1 view .LVU59
 192 0026 9A68     		ldr	r2, [r3, #8]
 193              		.loc 1 188 9 discriminator 1 view .LVU60
 194 0028 12F00C02 		ands	r2, r2, #12
 195 002c FBD1     		bne	.L10
 196              		.loc 1 192 3 is_stmt 1 view .LVU61
 197              		.loc 1 192 11 is_stmt 0 view .LVU62
 198 002e 1968     		ldr	r1, [r3]
 199 0030 01F0F901 		and	r1, r1, #249
 200 0034 1960     		str	r1, [r3]
 201              		.loc 1 193 3 is_stmt 1 view .LVU63
 202              		.loc 1 193 13 is_stmt 0 view .LVU64
 203 0036 9A60     		str	r2, [r3, #8]
 204              		.loc 1 202 3 is_stmt 1 view .LVU65
 205              		.loc 1 202 11 is_stmt 0 view .LVU66
 206 0038 1A68     		ldr	r2, [r3]
 207 003a 42F48032 		orr	r2, r2, #65536
 208 003e 1A60     		str	r2, [r3]
 209              		.loc 1 204 3 is_stmt 1 view .LVU67
 210              	.L11:
 211              		.loc 1 205 5 discriminator 1 view .LVU68
 212              		.loc 1 204 9 discriminator 1 view .LVU69
 213              		.loc 1 204 14 is_stmt 0 discriminator 1 view .LVU70
 214 0040 1A68     		ldr	r2, [r3]
 215              		.loc 1 204 9 discriminator 1 view .LVU71
 216 0042 9003     		lsls	r0, r2, #14
 217 0044 FCD5     		bpl	.L11
 218              		.loc 1 210 3 is_stmt 1 view .LVU72
 219              		.loc 1 210 12 is_stmt 0 view .LVU73
 220 0046 5A6F     		ldr	r2, [r3, #116]
 221 0048 42F00102 		orr	r2, r2, #1
 222 004c 5A67     		str	r2, [r3, #116]
 223              		.loc 1 211 3 is_stmt 1 view .LVU74
 224              		.loc 1 211 14 is_stmt 0 view .LVU75
 225 004e 214B     		ldr	r3, .L34
 226              	.L12:
 227              		.loc 1 212 5 is_stmt 1 discriminator 1 view .LVU76
 228              		.loc 1 211 9 discriminator 1 view .LVU77
ARM GAS  /tmp/ccaQnwEu.s 			page 5


 229              		.loc 1 211 14 is_stmt 0 discriminator 1 view .LVU78
 230 0050 5A6F     		ldr	r2, [r3, #116]
 231              		.loc 1 211 9 discriminator 1 view .LVU79
 232 0052 9107     		lsls	r1, r2, #30
 233 0054 FCD5     		bpl	.L12
 234              		.loc 1 217 3 is_stmt 1 view .LVU80
 235              		.loc 1 217 16 is_stmt 0 view .LVU81
 236 0056 224A     		ldr	r2, .L34+12
 237 0058 5A60     		str	r2, [r3, #4]
 238              		.loc 1 219 3 is_stmt 1 view .LVU82
 239              		.loc 1 219 11 is_stmt 0 view .LVU83
 240 005a 1A68     		ldr	r2, [r3]
 241 005c 42F08072 		orr	r2, r2, #16777216
 242 0060 1A60     		str	r2, [r3]
 243              		.loc 1 222 3 is_stmt 1 view .LVU84
 244              		.loc 1 222 14 is_stmt 0 view .LVU85
 245 0062 1E4B     		ldr	r3, .L34+8
 246              	.L13:
 247              		.loc 1 223 5 is_stmt 1 discriminator 1 view .LVU86
 248              		.loc 1 222 9 discriminator 1 view .LVU87
 249              		.loc 1 222 14 is_stmt 0 discriminator 1 view .LVU88
 250 0064 5A68     		ldr	r2, [r3, #4]
 251              		.loc 1 222 9 discriminator 1 view .LVU89
 252 0066 5204     		lsls	r2, r2, #17
 253 0068 FCD5     		bpl	.L13
 254              		.loc 1 228 3 is_stmt 1 view .LVU90
 255              		.loc 1 228 12 is_stmt 0 view .LVU91
 256 006a 1A68     		ldr	r2, [r3]
 257 006c 42F48032 		orr	r2, r2, #65536
 258 0070 1A60     		str	r2, [r3]
 259              		.loc 1 229 3 is_stmt 1 view .LVU92
 260              	.L14:
 261              		.loc 1 230 7 discriminator 1 view .LVU93
 262              		.loc 1 229 9 discriminator 1 view .LVU94
 263              		.loc 1 229 15 is_stmt 0 discriminator 1 view .LVU95
 264 0072 5A68     		ldr	r2, [r3, #4]
 265              		.loc 1 229 9 discriminator 1 view .LVU96
 266 0074 D003     		lsls	r0, r2, #15
 267 0076 FCD5     		bpl	.L14
 268              		.loc 1 231 3 is_stmt 1 view .LVU97
 269              		.loc 1 231 12 is_stmt 0 view .LVU98
 270 0078 1A68     		ldr	r2, [r3]
 271 007a 42F40032 		orr	r2, r2, #131072
 272 007e 1A60     		str	r2, [r3]
 273              		.loc 1 232 3 is_stmt 1 view .LVU99
 274              		.loc 1 232 15 is_stmt 0 view .LVU100
 275 0080 164A     		ldr	r2, .L34+8
 276              	.L15:
 277              		.loc 1 233 7 is_stmt 1 discriminator 1 view .LVU101
 278              		.loc 1 232 9 discriminator 1 view .LVU102
 279              		.loc 1 232 15 is_stmt 0 discriminator 1 view .LVU103
 280 0082 5368     		ldr	r3, [r2, #4]
 281              		.loc 1 232 9 discriminator 1 view .LVU104
 282 0084 9903     		lsls	r1, r3, #14
 283 0086 FCD5     		bpl	.L15
 284              		.loc 1 237 15 view .LVU105
 285 0088 124B     		ldr	r3, .L34
ARM GAS  /tmp/ccaQnwEu.s 			page 6


 286              	.L16:
 287              		.loc 1 238 5 is_stmt 1 discriminator 1 view .LVU106
 288              		.loc 1 237 9 discriminator 1 view .LVU107
 289              		.loc 1 237 15 is_stmt 0 discriminator 1 view .LVU108
 290 008a 1A68     		ldr	r2, [r3]
 291              		.loc 1 237 9 discriminator 1 view .LVU109
 292 008c 9201     		lsls	r2, r2, #6
 293 008e FCD5     		bpl	.L16
 294              		.loc 1 264 3 is_stmt 1 view .LVU110
 295              		.loc 1 264 13 is_stmt 0 view .LVU111
 296 0090 144A     		ldr	r2, .L34+16
 297              		.loc 1 290 14 view .LVU112
 298 0092 40F20731 		movw	r1, #775
 299              		.loc 1 264 13 view .LVU113
 300 0096 9A60     		str	r2, [r3, #8]
 301              	.LBB6:
 302              		.loc 1 271 5 is_stmt 1 view .LVU114
 303              	.LVL2:
 304              		.loc 1 278 5 view .LVU115
 305              		.loc 1 278 19 is_stmt 0 view .LVU116
 306 0098 40F20112 		movw	r2, #257
 307 009c C3F88C20 		str	r2, [r3, #140]
 308              	.LBE6:
 309              		.loc 1 282 3 is_stmt 1 view .LVU117
 310              		.loc 1 282 17 is_stmt 0 view .LVU118
 311 00a0 0022     		movs	r2, #0
 312 00a2 C3F89020 		str	r2, [r3, #144]
 313              		.loc 1 290 3 is_stmt 1 view .LVU119
 314              		.loc 1 290 14 is_stmt 0 view .LVU120
 315 00a6 104A     		ldr	r2, .L34+20
 316 00a8 1160     		str	r1, [r2]
 317              		.loc 1 294 3 is_stmt 1 view .LVU121
 318              		.loc 1 294 13 is_stmt 0 view .LVU122
 319 00aa 9A68     		ldr	r2, [r3, #8]
 320 00ac 42F00202 		orr	r2, r2, #2
 321 00b0 9A60     		str	r2, [r3, #8]
 322              		.loc 1 295 3 is_stmt 1 view .LVU123
 323              		.loc 1 295 14 is_stmt 0 view .LVU124
 324 00b2 084B     		ldr	r3, .L34
 325              	.L17:
 326              		.loc 1 296 5 is_stmt 1 discriminator 1 view .LVU125
 327              		.loc 1 295 9 discriminator 1 view .LVU126
 328              		.loc 1 295 14 is_stmt 0 discriminator 1 view .LVU127
 329 00b4 9A68     		ldr	r2, [r3, #8]
 330              		.loc 1 295 21 discriminator 1 view .LVU128
 331 00b6 02F00C02 		and	r2, r2, #12
 332              		.loc 1 295 9 discriminator 1 view .LVU129
 333 00ba 082A     		cmp	r2, #8
 334 00bc FAD1     		bne	.L17
 335              		.loc 1 302 3 is_stmt 1 view .LVU130
 336 00be 5A6C     		ldr	r2, [r3, #68]
 337 00c0 42F48042 		orr	r2, r2, #16384
 338 00c4 5A64     		str	r2, [r3, #68]
 339              		.loc 1 302 3 view .LVU131
 340              		.loc 1 302 3 view .LVU132
 341 00c6 5A6E     		ldr	r2, [r3, #100]
 342 00c8 42F48042 		orr	r2, r2, #16384
ARM GAS  /tmp/ccaQnwEu.s 			page 7


 343 00cc 5A66     		str	r2, [r3, #100]
 344              		.loc 1 302 3 view .LVU133
 345 00ce 5B6E     		ldr	r3, [r3, #100]
 346              		.loc 1 302 44 view .LVU134
 347              		.loc 1 303 1 is_stmt 0 view .LVU135
 348 00d0 7047     		bx	lr
 349              	.L35:
 350 00d2 00BF     		.align	2
 351              	.L34:
 352 00d4 00380240 		.word	1073887232
 353 00d8 00040010 		.word	268436480
 354 00dc 00700040 		.word	1073770496
 355 00e0 08364009 		.word	155203080
 356 00e4 00948838 		.word	948474880
 357 00e8 003C0240 		.word	1073888256
 358              		.cfi_endproc
 359              	.LFE336:
 360              		.size	stm32_clock_init, .-stm32_clock_init
 361              		.global	SystemCoreClock
 362              		.section	.data.SystemCoreClock,"aw"
 363              		.align	2
 364              		.type	SystemCoreClock, %object
 365              		.size	SystemCoreClock, 4
 366              	SystemCoreClock:
 367 0000 00E6DF0C 		.word	216000000
 368              		.text
 369              	.Letext0:
 370              		.file 2 "/opt/gcc-arm-none-eabi-10-2020-q4-major/lib/gcc/arm-none-eabi/10.2.1/include/stddef.h"
 371              		.file 3 "/opt/gcc-arm-none-eabi-10-2020-q4-major/arm-none-eabi/include/machine/_default_types.h"
 372              		.file 4 "/opt/gcc-arm-none-eabi-10-2020-q4-major/arm-none-eabi/include/sys/_stdint.h"
 373              		.file 5 "../../modules/ChibiOS/os/common/ext/ST/STM32F7xx/stm32f767xx.h"
 374              		.file 6 "../../modules/ChibiOS/os/hal/ports/STM32/LLD/DMAv2/stm32_dma.h"
 375              		.file 7 "../../modules/ChibiOS/os/hal/ports/STM32/STM32F7xx/stm32_isr.h"
 376              		.file 8 "../../modules/ChibiOS/os/common/ext/ST/STM32F7xx/system_stm32f7xx.h"