ARM GAS  /tmp/cc2gg5CB.s 			page 1


   1              		.cpu cortex-m7
   2              		.eabi_attribute 27, 1
   3              		.eabi_attribute 28, 1
   4              		.eabi_attribute 20, 1
   5              		.eabi_attribute 21, 1
   6              		.eabi_attribute 23, 3
   7              		.eabi_attribute 24, 1
   8              		.eabi_attribute 25, 1
   9              		.eabi_attribute 26, 1
  10              		.eabi_attribute 30, 4
  11              		.eabi_attribute 34, 1
  12              		.eabi_attribute 18, 4
  13              		.file	"hal_mmcsd.c"
  14              		.text
  15              	.Ltext0:
  16              		.cfi_sections	.debug_frame
  17              		.section	.text._mmcsd_get_slice,"ax",%progbits
  18              		.align	1
  19              		.global	_mmcsd_get_slice
  20              		.arch armv7e-m
  21              		.syntax unified
  22              		.thumb
  23              		.thumb_func
  24              		.fpu fpv4-sp-d16
  25              		.type	_mmcsd_get_slice, %function
  26              	_mmcsd_get_slice:
  27              	.LVL0:
  28              	.LFB334:
  29              		.file 1 "../../modules/ChibiOS/os/hal/src/hal_mmcsd.c"
  30              		.loc 1 63 43 view -0
  31              		.cfi_startproc
  32              		@ args = 0, pretend = 0, frame = 0
  33              		@ frame_needed = 0, uses_anonymous_args = 0
  34              		.loc 1 64 3 view .LVU1
  35              		.loc 1 65 3 view .LVU2
  36              		.loc 1 67 3 view .LVU3
  37              		.loc 1 67 3 view .LVU4
  38              		.loc 1 67 3 view .LVU5
  39              		.loc 1 69 3 view .LVU6
  40              		.loc 1 72 37 is_stmt 0 view .LVU7
  41 0000 01F01F03 		and	r3, r1, #31
  42              		.loc 1 63 43 view .LVU8
  43 0004 F0B5     		push	{r4, r5, r6, r7, lr}
  44              		.cfi_def_cfa_offset 20
  45              		.cfi_offset 4, -20
  46              		.cfi_offset 5, -16
  47              		.cfi_offset 6, -12
  48              		.cfi_offset 7, -8
  49              		.cfi_offset 14, -4
  50              		.loc 1 70 12 view .LVU9
  51 0006 02F01F04 		and	r4, r2, #31
  52              		.loc 1 69 12 view .LVU10
  53 000a 5609     		lsrs	r6, r2, #5
  54              	.LVL1:
  55              		.loc 1 70 3 is_stmt 1 view .LVU11
  56              		.loc 1 71 3 view .LVU12
  57              		.loc 1 72 44 is_stmt 0 view .LVU13
ARM GAS  /tmp/cc2gg5CB.s 			page 2


  58 000c 5A1C     		adds	r2, r3, #1
  59              	.LVL2:
  60              		.loc 1 72 28 view .LVU14
  61 000e 0123     		movs	r3, #1
  62              		.loc 1 75 6 view .LVU15
  63 0010 B6EB511F 		cmp	r6, r1, lsr #5
  64              		.loc 1 76 17 view .LVU16
  65 0014 50F82650 		ldr	r5, [r0, r6, lsl #2]
  66              		.loc 1 72 28 view .LVU17
  67 0018 03FA02F3 		lsl	r3, r3, r2
  68              		.loc 1 71 12 view .LVU18
  69 001c 4FEA5117 		lsr	r7, r1, #5
  70              	.LVL3:
  71              		.loc 1 72 3 is_stmt 1 view .LVU19
  72              		.loc 1 72 12 is_stmt 0 view .LVU20
  73 0020 03F1FF33 		add	r3, r3, #-1
  74              	.LVL4:
  75              		.loc 1 75 3 is_stmt 1 view .LVU21
  76              		.loc 1 76 5 view .LVU22
  77              		.loc 1 77 27 is_stmt 0 view .LVU23
  78 0024 3DBF     		ittte	cc
  79 0026 50F82720 		ldrcc	r2, [r0, r7, lsl #2]
  80              		.loc 1 77 46 view .LVU24
  81 002a C4F12000 		rsbcc	r0, r4, #32
  82              	.LVL5:
  83              		.loc 1 77 27 view .LVU25
  84 002e 1340     		andcc	r3, r3, r2
  85              	.LVL6:
  86              		.loc 1 79 26 view .LVU26
  87 0030 03EA0500 		andcs	r0, r3, r5
  88              		.loc 1 77 38 view .LVU27
  89 0034 3BBF     		ittet	cc
  90 0036 03FA00F2 		lslcc	r2, r3, r0
  91              		.loc 1 76 28 view .LVU28
  92 003a 25FA04F0 		lsrcc	r0, r5, r4
  93              		.loc 1 79 37 view .LVU29
  94 003e E040     		lsrcs	r0, r0, r4
  95              		.loc 1 76 41 view .LVU30
  96 0040 1043     		orrcc	r0, r0, r2
  97              		.loc 1 79 3 is_stmt 1 view .LVU31
  98              		.loc 1 80 1 is_stmt 0 view .LVU32
  99 0042 F0BD     		pop	{r4, r5, r6, r7, pc}
 100              		.loc 1 80 1 view .LVU33
 101              		.cfi_endproc
 102              	.LFE334:
 103              		.size	_mmcsd_get_slice, .-_mmcsd_get_slice
 104              		.section	.text._mmcsd_get_capacity,"ax",%progbits
 105              		.align	1
 106              		.global	_mmcsd_get_capacity
 107              		.syntax unified
 108              		.thumb
 109              		.thumb_func
 110              		.fpu fpv4-sp-d16
 111              		.type	_mmcsd_get_capacity, %function
 112              	_mmcsd_get_capacity:
 113              	.LVL7:
 114              	.LFB335:
ARM GAS  /tmp/cc2gg5CB.s 			page 3


 115              		.loc 1 93 51 is_stmt 1 view -0
 116              		.cfi_startproc
 117              		@ args = 0, pretend = 0, frame = 0
 118              		@ frame_needed = 0, uses_anonymous_args = 0
 119              		.loc 1 94 3 view .LVU35
 120              		.loc 1 96 3 view .LVU36
 121              		.loc 1 96 3 view .LVU37
 122              		.loc 1 96 3 view .LVU38
 123              		.loc 1 98 3 view .LVU39
 124              		.loc 1 93 51 is_stmt 0 view .LVU40
 125 0000 70B5     		push	{r4, r5, r6, lr}
 126              		.cfi_def_cfa_offset 16
 127              		.cfi_offset 4, -16
 128              		.cfi_offset 5, -12
 129              		.cfi_offset 6, -8
 130              		.cfi_offset 14, -4
 131              		.loc 1 98 11 view .LVU41
 132 0002 7E22     		movs	r2, #126
 133 0004 7F21     		movs	r1, #127
 134              		.loc 1 93 51 view .LVU42
 135 0006 0546     		mov	r5, r0
 136              		.loc 1 98 11 view .LVU43
 137 0008 FFF7FEFF 		bl	_mmcsd_get_slice
 138              	.LVL8:
 139              		.loc 1 98 3 view .LVU44
 140 000c 18B1     		cbz	r0, .L5
 141 000e 0128     		cmp	r0, #1
 142 0010 19D0     		beq	.L6
 143 0012 0020     		movs	r0, #0
 144              	.L4:
 145              		.loc 1 113 1 view .LVU45
 146 0014 70BD     		pop	{r4, r5, r6, pc}
 147              	.LVL9:
 148              	.L5:
 149              		.loc 1 101 5 is_stmt 1 view .LVU46
 150              		.loc 1 101 9 is_stmt 0 view .LVU47
 151 0016 3E22     		movs	r2, #62
 152 0018 4921     		movs	r1, #73
 153 001a 2846     		mov	r0, r5
 154 001c FFF7FEFF 		bl	_mmcsd_get_slice
 155              	.LVL10:
 156              		.loc 1 102 9 view .LVU48
 157 0020 2F22     		movs	r2, #47
 158              		.loc 1 101 9 view .LVU49
 159 0022 0446     		mov	r4, r0
 160              	.LVL11:
 161              		.loc 1 102 5 is_stmt 1 view .LVU50
 162              		.loc 1 102 9 is_stmt 0 view .LVU51
 163 0024 3121     		movs	r1, #49
 164 0026 2846     		mov	r0, r5
 165              	.LVL12:
 166              		.loc 1 102 9 view .LVU52
 167 0028 FFF7FEFF 		bl	_mmcsd_get_slice
 168              	.LVL13:
 169 002c 0646     		mov	r6, r0
 170              	.LVL14:
 171              		.loc 1 103 5 is_stmt 1 view .LVU53
ARM GAS  /tmp/cc2gg5CB.s 			page 4


 172              		.loc 1 104 16 is_stmt 0 view .LVU54
 173 002e 0134     		adds	r4, r4, #1
 174              	.LVL15:
 175              		.loc 1 103 9 view .LVU55
 176 0030 5022     		movs	r2, #80
 177              		.loc 1 104 28 view .LVU56
 178 0032 0236     		adds	r6, r6, #2
 179              		.loc 1 103 9 view .LVU57
 180 0034 5321     		movs	r1, #83
 181 0036 2846     		mov	r0, r5
 182              	.LVL16:
 183              		.loc 1 104 22 view .LVU58
 184 0038 B440     		lsls	r4, r4, r6
 185              	.LVL17:
 186              		.loc 1 103 9 view .LVU59
 187 003a FFF7FEFF 		bl	_mmcsd_get_slice
 188              	.LVL18:
 189              		.loc 1 104 5 is_stmt 1 view .LVU60
 190              		.loc 1 104 41 is_stmt 0 view .LVU61
 191 003e 0938     		subs	r0, r0, #9
 192              	.LVL19:
 193              		.loc 1 104 35 view .LVU62
 194 0040 04FA00F0 		lsl	r0, r4, r0
 195              	.LVL20:
 196              		.loc 1 104 35 view .LVU63
 197 0044 E6E7     		b	.L4
 198              	.LVL21:
 199              	.L6:
 200              		.loc 1 107 5 is_stmt 1 view .LVU64
 201              		.loc 1 107 21 is_stmt 0 view .LVU65
 202 0046 3022     		movs	r2, #48
 203 0048 4521     		movs	r1, #69
 204 004a 2846     		mov	r0, r5
 205 004c FFF7FEFF 		bl	_mmcsd_get_slice
 206              	.LVL22:
 207              		.loc 1 107 70 view .LVU66
 208 0050 0130     		adds	r0, r0, #1
 209              		.loc 1 107 18 view .LVU67
 210 0052 8002     		lsls	r0, r0, #10
 211 0054 DEE7     		b	.L4
 212              		.cfi_endproc
 213              	.LFE335:
 214              		.size	_mmcsd_get_capacity, .-_mmcsd_get_capacity
 215              		.section	.text._mmcsd_get_capacity_ext,"ax",%progbits
 216              		.align	1
 217              		.global	_mmcsd_get_capacity_ext
 218              		.syntax unified
 219              		.thumb
 220              		.thumb_func
 221              		.fpu fpv4-sp-d16
 222              		.type	_mmcsd_get_capacity_ext, %function
 223              	_mmcsd_get_capacity_ext:
 224              	.LVL23:
 225              	.LFB336:
 226              		.loc 1 125 58 is_stmt 1 view -0
 227              		.cfi_startproc
 228              		@ args = 0, pretend = 0, frame = 0
ARM GAS  /tmp/cc2gg5CB.s 			page 5


 229              		@ frame_needed = 0, uses_anonymous_args = 0
 230              		@ link register save eliminated.
 231              		.loc 1 127 3 view .LVU69
 232              		.loc 1 127 3 view .LVU70
 233              		.loc 1 127 3 view .LVU71
 234              		.loc 1 129 3 view .LVU72
 235              		.loc 1 130 11 is_stmt 0 view .LVU73
 236 0000 90F8D630 		ldrb	r3, [r0, #214]	@ zero_extendqisi2
 237              		.loc 1 129 11 view .LVU74
 238 0004 90F8D720 		ldrb	r2, [r0, #215]	@ zero_extendqisi2
 239              		.loc 1 130 34 view .LVU75
 240 0008 1B04     		lsls	r3, r3, #16
 241              		.loc 1 129 42 view .LVU76
 242 000a 03EB0263 		add	r3, r3, r2, lsl #24
 243              		.loc 1 132 10 view .LVU77
 244 000e 90F8D420 		ldrb	r2, [r0, #212]	@ zero_extendqisi2
 245              		.loc 1 131 11 view .LVU78
 246 0012 90F8D500 		ldrb	r0, [r0, #213]	@ zero_extendqisi2
 247              	.LVL24:
 248              		.loc 1 131 42 view .LVU79
 249 0016 1344     		add	r3, r3, r2
 250              		.loc 1 133 1 view .LVU80
 251 0018 03EB0020 		add	r0, r3, r0, lsl #8
 252 001c 7047     		bx	lr
 253              		.cfi_endproc
 254              	.LFE336:
 255              		.size	_mmcsd_get_capacity_ext, .-_mmcsd_get_capacity_ext
 256              		.section	.text._mmcsd_unpack_sdc_cid,"ax",%progbits
 257              		.align	1
 258              		.global	_mmcsd_unpack_sdc_cid
 259              		.syntax unified
 260              		.thumb
 261              		.thumb_func
 262              		.fpu fpv4-sp-d16
 263              		.type	_mmcsd_unpack_sdc_cid, %function
 264              	_mmcsd_unpack_sdc_cid:
 265              	.LVL25:
 266              	.LFB337:
 267              		.loc 1 144 56 is_stmt 1 view -0
 268              		.cfi_startproc
 269              		@ args = 0, pretend = 0, frame = 0
 270              		@ frame_needed = 0, uses_anonymous_args = 0
 271              		.loc 1 145 3 view .LVU82
 272              		.loc 1 147 3 view .LVU83
 273              		.loc 1 147 3 view .LVU84
 274              		.loc 1 147 3 view .LVU85
 275              		.loc 1 149 3 view .LVU86
 276              		.loc 1 144 56 is_stmt 0 view .LVU87
 277 0000 38B5     		push	{r3, r4, r5, lr}
 278              		.cfi_def_cfa_offset 16
 279              		.cfi_offset 3, -16
 280              		.cfi_offset 4, -12
 281              		.cfi_offset 5, -8
 282              		.cfi_offset 14, -4
 283              		.loc 1 149 7 view .LVU88
 284 0002 00F10805 		add	r5, r0, #8
 285              	.LVL26:
ARM GAS  /tmp/cc2gg5CB.s 			page 6


 286              		.loc 1 150 3 is_stmt 1 view .LVU89
 287              		.loc 1 144 56 is_stmt 0 view .LVU90
 288 0006 0C46     		mov	r4, r1
 289              		.loc 1 150 30 view .LVU91
 290 0008 0122     		movs	r2, #1
 291 000a 0721     		movs	r1, #7
 292              	.LVL27:
 293              		.loc 1 150 30 view .LVU92
 294 000c 2846     		mov	r0, r5
 295              	.LVL28:
 296              		.loc 1 150 30 view .LVU93
 297 000e FFF7FEFF 		bl	_mmcsd_get_slice
 298              	.LVL29:
 299              		.loc 1 151 30 view .LVU94
 300 0012 0C22     		movs	r2, #12
 301 0014 1321     		movs	r1, #19
 302              		.loc 1 150 20 view .LVU95
 303 0016 2075     		strb	r0, [r4, #20]
 304              		.loc 1 151 3 is_stmt 1 view .LVU96
 305              		.loc 1 151 30 is_stmt 0 view .LVU97
 306 0018 2846     		mov	r0, r5
 307 001a FFF7FEFF 		bl	_mmcsd_get_slice
 308              	.LVL30:
 309              		.loc 1 151 79 view .LVU98
 310 001e 00F5FA60 		add	r0, r0, #2000
 311              		.loc 1 153 30 view .LVU99
 312 0022 0822     		movs	r2, #8
 313 0024 0B21     		movs	r1, #11
 314              		.loc 1 151 18 view .LVU100
 315 0026 6082     		strh	r0, [r4, #18]	@ movhi
 316              		.loc 1 153 3 is_stmt 1 view .LVU101
 317              		.loc 1 153 30 is_stmt 0 view .LVU102
 318 0028 2846     		mov	r0, r5
 319 002a FFF7FEFF 		bl	_mmcsd_get_slice
 320              	.LVL31:
 321              		.loc 1 154 30 view .LVU103
 322 002e 7822     		movs	r2, #120
 323 0030 7F21     		movs	r1, #127
 324              		.loc 1 153 20 view .LVU104
 325 0032 2074     		strb	r0, [r4, #16]
 326              		.loc 1 154 3 is_stmt 1 view .LVU105
 327              		.loc 1 154 30 is_stmt 0 view .LVU106
 328 0034 2846     		mov	r0, r5
 329 0036 FFF7FEFF 		bl	_mmcsd_get_slice
 330              	.LVL32:
 331              		.loc 1 155 30 view .LVU107
 332 003a 6822     		movs	r2, #104
 333 003c 7721     		movs	r1, #119
 334              		.loc 1 154 20 view .LVU108
 335 003e 2070     		strb	r0, [r4]
 336              		.loc 1 155 3 is_stmt 1 view .LVU109
 337              		.loc 1 155 30 is_stmt 0 view .LVU110
 338 0040 2846     		mov	r0, r5
 339 0042 FFF7FEFF 		bl	_mmcsd_get_slice
 340              	.LVL33:
 341              		.loc 1 156 30 view .LVU111
 342 0046 4022     		movs	r2, #64
ARM GAS  /tmp/cc2gg5CB.s 			page 7


 343 0048 4721     		movs	r1, #71
 344              		.loc 1 155 20 view .LVU112
 345 004a 6080     		strh	r0, [r4, #2]	@ movhi
 346              		.loc 1 156 3 is_stmt 1 view .LVU113
 347              		.loc 1 156 30 is_stmt 0 view .LVU114
 348 004c 2846     		mov	r0, r5
 349 004e FFF7FEFF 		bl	_mmcsd_get_slice
 350              	.LVL34:
 351              		.loc 1 157 30 view .LVU115
 352 0052 4822     		movs	r2, #72
 353 0054 4F21     		movs	r1, #79
 354              		.loc 1 156 20 view .LVU116
 355 0056 2072     		strb	r0, [r4, #8]
 356              		.loc 1 157 3 is_stmt 1 view .LVU117
 357              		.loc 1 157 30 is_stmt 0 view .LVU118
 358 0058 2846     		mov	r0, r5
 359 005a FFF7FEFF 		bl	_mmcsd_get_slice
 360              	.LVL35:
 361              		.loc 1 158 30 view .LVU119
 362 005e 5022     		movs	r2, #80
 363 0060 5721     		movs	r1, #87
 364              		.loc 1 157 20 view .LVU120
 365 0062 E071     		strb	r0, [r4, #7]
 366              		.loc 1 158 3 is_stmt 1 view .LVU121
 367              		.loc 1 158 30 is_stmt 0 view .LVU122
 368 0064 2846     		mov	r0, r5
 369 0066 FFF7FEFF 		bl	_mmcsd_get_slice
 370              	.LVL36:
 371              		.loc 1 159 30 view .LVU123
 372 006a 5822     		movs	r2, #88
 373 006c 5F21     		movs	r1, #95
 374              		.loc 1 158 20 view .LVU124
 375 006e A071     		strb	r0, [r4, #6]
 376              		.loc 1 159 3 is_stmt 1 view .LVU125
 377              		.loc 1 159 30 is_stmt 0 view .LVU126
 378 0070 2846     		mov	r0, r5
 379 0072 FFF7FEFF 		bl	_mmcsd_get_slice
 380              	.LVL37:
 381              		.loc 1 160 30 view .LVU127
 382 0076 6022     		movs	r2, #96
 383 0078 6721     		movs	r1, #103
 384              		.loc 1 159 20 view .LVU128
 385 007a 6071     		strb	r0, [r4, #5]
 386              		.loc 1 160 3 is_stmt 1 view .LVU129
 387              		.loc 1 160 30 is_stmt 0 view .LVU130
 388 007c 2846     		mov	r0, r5
 389 007e FFF7FEFF 		bl	_mmcsd_get_slice
 390              	.LVL38:
 391              		.loc 1 161 30 view .LVU131
 392 0082 3C22     		movs	r2, #60
 393 0084 3F21     		movs	r1, #63
 394              		.loc 1 160 20 view .LVU132
 395 0086 2071     		strb	r0, [r4, #4]
 396              		.loc 1 161 3 is_stmt 1 view .LVU133
 397              		.loc 1 161 30 is_stmt 0 view .LVU134
 398 0088 2846     		mov	r0, r5
 399 008a FFF7FEFF 		bl	_mmcsd_get_slice
ARM GAS  /tmp/cc2gg5CB.s 			page 8


 400              	.LVL39:
 401              		.loc 1 162 30 view .LVU135
 402 008e 3822     		movs	r2, #56
 403 0090 3B21     		movs	r1, #59
 404              		.loc 1 161 20 view .LVU136
 405 0092 6072     		strb	r0, [r4, #9]
 406              		.loc 1 162 3 is_stmt 1 view .LVU137
 407              		.loc 1 162 30 is_stmt 0 view .LVU138
 408 0094 2846     		mov	r0, r5
 409 0096 FFF7FEFF 		bl	_mmcsd_get_slice
 410              	.LVL40:
 411              		.loc 1 163 30 view .LVU139
 412 009a 1822     		movs	r2, #24
 413              		.loc 1 162 20 view .LVU140
 414 009c A072     		strb	r0, [r4, #10]
 415              		.loc 1 163 3 is_stmt 1 view .LVU141
 416              		.loc 1 163 30 is_stmt 0 view .LVU142
 417 009e 3721     		movs	r1, #55
 418 00a0 2846     		mov	r0, r5
 419 00a2 FFF7FEFF 		bl	_mmcsd_get_slice
 420              	.LVL41:
 421              		.loc 1 163 18 view .LVU143
 422 00a6 E060     		str	r0, [r4, #12]
 423              		.loc 1 164 1 view .LVU144
 424 00a8 38BD     		pop	{r3, r4, r5, pc}
 425              		.loc 1 164 1 view .LVU145
 426              		.cfi_endproc
 427              	.LFE337:
 428              		.size	_mmcsd_unpack_sdc_cid, .-_mmcsd_unpack_sdc_cid
 429              		.section	.text._mmcsd_unpack_mmc_cid,"ax",%progbits
 430              		.align	1
 431              		.global	_mmcsd_unpack_mmc_cid
 432              		.syntax unified
 433              		.thumb
 434              		.thumb_func
 435              		.fpu fpv4-sp-d16
 436              		.type	_mmcsd_unpack_mmc_cid, %function
 437              	_mmcsd_unpack_mmc_cid:
 438              	.LVL42:
 439              	.LFB338:
 440              		.loc 1 175 56 is_stmt 1 view -0
 441              		.cfi_startproc
 442              		@ args = 0, pretend = 0, frame = 0
 443              		@ frame_needed = 0, uses_anonymous_args = 0
 444              		.loc 1 176 3 view .LVU147
 445              		.loc 1 178 3 view .LVU148
 446              		.loc 1 178 3 view .LVU149
 447              		.loc 1 178 3 view .LVU150
 448              		.loc 1 180 3 view .LVU151
 449              		.loc 1 175 56 is_stmt 0 view .LVU152
 450 0000 38B5     		push	{r3, r4, r5, lr}
 451              		.cfi_def_cfa_offset 16
 452              		.cfi_offset 3, -16
 453              		.cfi_offset 4, -12
 454              		.cfi_offset 5, -8
 455              		.cfi_offset 14, -4
 456              		.loc 1 180 7 view .LVU153
ARM GAS  /tmp/cc2gg5CB.s 			page 9


 457 0002 00F10805 		add	r5, r0, #8
 458              	.LVL43:
 459              		.loc 1 181 3 is_stmt 1 view .LVU154
 460              		.loc 1 175 56 is_stmt 0 view .LVU155
 461 0006 0C46     		mov	r4, r1
 462              		.loc 1 181 30 view .LVU156
 463 0008 0122     		movs	r2, #1
 464 000a 0721     		movs	r1, #7
 465              	.LVL44:
 466              		.loc 1 181 30 view .LVU157
 467 000c 2846     		mov	r0, r5
 468              	.LVL45:
 469              		.loc 1 181 30 view .LVU158
 470 000e FFF7FEFF 		bl	_mmcsd_get_slice
 471              	.LVL46:
 472              		.loc 1 182 30 view .LVU159
 473 0012 0822     		movs	r2, #8
 474 0014 0B21     		movs	r1, #11
 475              		.loc 1 181 20 view .LVU160
 476 0016 2075     		strb	r0, [r4, #20]
 477              		.loc 1 182 3 is_stmt 1 view .LVU161
 478              		.loc 1 182 30 is_stmt 0 view .LVU162
 479 0018 2846     		mov	r0, r5
 480 001a FFF7FEFF 		bl	_mmcsd_get_slice
 481              	.LVL47:
 482              		.loc 1 182 79 view .LVU163
 483 001e 00F2CD70 		addw	r0, r0, #1997
 484              		.loc 1 184 30 view .LVU164
 485 0022 0C22     		movs	r2, #12
 486 0024 0F21     		movs	r1, #15
 487              		.loc 1 182 18 view .LVU165
 488 0026 6082     		strh	r0, [r4, #18]	@ movhi
 489              		.loc 1 184 3 is_stmt 1 view .LVU166
 490              		.loc 1 184 30 is_stmt 0 view .LVU167
 491 0028 2846     		mov	r0, r5
 492 002a FFF7FEFF 		bl	_mmcsd_get_slice
 493              	.LVL48:
 494              		.loc 1 185 30 view .LVU168
 495 002e 7822     		movs	r2, #120
 496 0030 7F21     		movs	r1, #127
 497              		.loc 1 184 20 view .LVU169
 498 0032 2074     		strb	r0, [r4, #16]
 499              		.loc 1 185 3 is_stmt 1 view .LVU170
 500              		.loc 1 185 30 is_stmt 0 view .LVU171
 501 0034 2846     		mov	r0, r5
 502 0036 FFF7FEFF 		bl	_mmcsd_get_slice
 503              	.LVL49:
 504              		.loc 1 186 30 view .LVU172
 505 003a 6822     		movs	r2, #104
 506 003c 7721     		movs	r1, #119
 507              		.loc 1 185 20 view .LVU173
 508 003e 2070     		strb	r0, [r4]
 509              		.loc 1 186 3 is_stmt 1 view .LVU174
 510              		.loc 1 186 30 is_stmt 0 view .LVU175
 511 0040 2846     		mov	r0, r5
 512 0042 FFF7FEFF 		bl	_mmcsd_get_slice
 513              	.LVL50:
ARM GAS  /tmp/cc2gg5CB.s 			page 10


 514              		.loc 1 187 30 view .LVU176
 515 0046 3822     		movs	r2, #56
 516 0048 3F21     		movs	r1, #63
 517              		.loc 1 186 20 view .LVU177
 518 004a 6080     		strh	r0, [r4, #2]	@ movhi
 519              		.loc 1 187 3 is_stmt 1 view .LVU178
 520              		.loc 1 187 30 is_stmt 0 view .LVU179
 521 004c 2846     		mov	r0, r5
 522 004e FFF7FEFF 		bl	_mmcsd_get_slice
 523              	.LVL51:
 524              		.loc 1 188 30 view .LVU180
 525 0052 4022     		movs	r2, #64
 526 0054 4721     		movs	r1, #71
 527              		.loc 1 187 20 view .LVU181
 528 0056 6072     		strb	r0, [r4, #9]
 529              		.loc 1 188 3 is_stmt 1 view .LVU182
 530              		.loc 1 188 30 is_stmt 0 view .LVU183
 531 0058 2846     		mov	r0, r5
 532 005a FFF7FEFF 		bl	_mmcsd_get_slice
 533              	.LVL52:
 534              		.loc 1 189 30 view .LVU184
 535 005e 4822     		movs	r2, #72
 536 0060 4F21     		movs	r1, #79
 537              		.loc 1 188 20 view .LVU185
 538 0062 2072     		strb	r0, [r4, #8]
 539              		.loc 1 189 3 is_stmt 1 view .LVU186
 540              		.loc 1 189 30 is_stmt 0 view .LVU187
 541 0064 2846     		mov	r0, r5
 542 0066 FFF7FEFF 		bl	_mmcsd_get_slice
 543              	.LVL53:
 544              		.loc 1 190 30 view .LVU188
 545 006a 5022     		movs	r2, #80
 546 006c 5721     		movs	r1, #87
 547              		.loc 1 189 20 view .LVU189
 548 006e E071     		strb	r0, [r4, #7]
 549              		.loc 1 190 3 is_stmt 1 view .LVU190
 550              		.loc 1 190 30 is_stmt 0 view .LVU191
 551 0070 2846     		mov	r0, r5
 552 0072 FFF7FEFF 		bl	_mmcsd_get_slice
 553              	.LVL54:
 554              		.loc 1 191 30 view .LVU192
 555 0076 5822     		movs	r2, #88
 556 0078 5F21     		movs	r1, #95
 557              		.loc 1 190 20 view .LVU193
 558 007a A071     		strb	r0, [r4, #6]
 559              		.loc 1 191 3 is_stmt 1 view .LVU194
 560              		.loc 1 191 30 is_stmt 0 view .LVU195
 561 007c 2846     		mov	r0, r5
 562 007e FFF7FEFF 		bl	_mmcsd_get_slice
 563              	.LVL55:
 564              		.loc 1 192 30 view .LVU196
 565 0082 6022     		movs	r2, #96
 566 0084 6721     		movs	r1, #103
 567              		.loc 1 191 20 view .LVU197
 568 0086 6071     		strb	r0, [r4, #5]
 569              		.loc 1 192 3 is_stmt 1 view .LVU198
 570              		.loc 1 192 30 is_stmt 0 view .LVU199
ARM GAS  /tmp/cc2gg5CB.s 			page 11


 571 0088 2846     		mov	r0, r5
 572 008a FFF7FEFF 		bl	_mmcsd_get_slice
 573              	.LVL56:
 574              		.loc 1 193 30 view .LVU200
 575 008e 3422     		movs	r2, #52
 576 0090 3721     		movs	r1, #55
 577              		.loc 1 192 20 view .LVU201
 578 0092 2071     		strb	r0, [r4, #4]
 579              		.loc 1 193 3 is_stmt 1 view .LVU202
 580              		.loc 1 193 30 is_stmt 0 view .LVU203
 581 0094 2846     		mov	r0, r5
 582 0096 FFF7FEFF 		bl	_mmcsd_get_slice
 583              	.LVL57:
 584              		.loc 1 194 30 view .LVU204
 585 009a 3022     		movs	r2, #48
 586 009c 3321     		movs	r1, #51
 587              		.loc 1 193 20 view .LVU205
 588 009e A072     		strb	r0, [r4, #10]
 589              		.loc 1 194 3 is_stmt 1 view .LVU206
 590              		.loc 1 194 30 is_stmt 0 view .LVU207
 591 00a0 2846     		mov	r0, r5
 592 00a2 FFF7FEFF 		bl	_mmcsd_get_slice
 593              	.LVL58:
 594              		.loc 1 195 30 view .LVU208
 595 00a6 1022     		movs	r2, #16
 596              		.loc 1 194 20 view .LVU209
 597 00a8 E072     		strb	r0, [r4, #11]
 598              		.loc 1 195 3 is_stmt 1 view .LVU210
 599              		.loc 1 195 30 is_stmt 0 view .LVU211
 600 00aa 2F21     		movs	r1, #47
 601 00ac 2846     		mov	r0, r5
 602 00ae FFF7FEFF 		bl	_mmcsd_get_slice
 603              	.LVL59:
 604              		.loc 1 195 18 view .LVU212
 605 00b2 E060     		str	r0, [r4, #12]
 606              		.loc 1 196 1 view .LVU213
 607 00b4 38BD     		pop	{r3, r4, r5, pc}
 608              		.loc 1 196 1 view .LVU214
 609              		.cfi_endproc
 610              	.LFE338:
 611              		.size	_mmcsd_unpack_mmc_cid, .-_mmcsd_unpack_mmc_cid
 612              		.section	.text._mmcsd_unpack_csd_mmc,"ax",%progbits
 613              		.align	1
 614              		.global	_mmcsd_unpack_csd_mmc
 615              		.syntax unified
 616              		.thumb
 617              		.thumb_func
 618              		.fpu fpv4-sp-d16
 619              		.type	_mmcsd_unpack_csd_mmc, %function
 620              	_mmcsd_unpack_csd_mmc:
 621              	.LVL60:
 622              	.LFB339:
 623              		.loc 1 207 56 is_stmt 1 view -0
 624              		.cfi_startproc
 625              		@ args = 0, pretend = 0, frame = 0
 626              		@ frame_needed = 0, uses_anonymous_args = 0
 627              		.loc 1 208 3 view .LVU216
ARM GAS  /tmp/cc2gg5CB.s 			page 12


 628              		.loc 1 210 3 view .LVU217
 629              		.loc 1 210 3 view .LVU218
 630              		.loc 1 210 3 view .LVU219
 631              		.loc 1 212 3 view .LVU220
 632              		.loc 1 207 56 is_stmt 0 view .LVU221
 633 0000 38B5     		push	{r3, r4, r5, lr}
 634              		.cfi_def_cfa_offset 16
 635              		.cfi_offset 3, -16
 636              		.cfi_offset 4, -12
 637              		.cfi_offset 5, -8
 638              		.cfi_offset 14, -4
 639              		.loc 1 212 7 view .LVU222
 640 0002 00F11805 		add	r5, r0, #24
 641              	.LVL61:
 642              		.loc 1 213 3 is_stmt 1 view .LVU223
 643              		.loc 1 207 56 is_stmt 0 view .LVU224
 644 0006 0C46     		mov	r4, r1
 645              		.loc 1 213 42 view .LVU225
 646 0008 3E22     		movs	r2, #62
 647 000a 4921     		movs	r1, #73
 648              	.LVL62:
 649              		.loc 1 213 42 view .LVU226
 650 000c 2846     		mov	r0, r5
 651              	.LVL63:
 652              		.loc 1 213 42 view .LVU227
 653 000e FFF7FEFF 		bl	_mmcsd_get_slice
 654              	.LVL64:
 655              		.loc 1 214 42 view .LVU228
 656 0012 2F22     		movs	r2, #47
 657 0014 3121     		movs	r1, #49
 658              		.loc 1 213 32 view .LVU229
 659 0016 E081     		strh	r0, [r4, #14]	@ movhi
 660              		.loc 1 214 3 is_stmt 1 view .LVU230
 661              		.loc 1 214 42 is_stmt 0 view .LVU231
 662 0018 2846     		mov	r0, r5
 663 001a FFF7FEFF 		bl	_mmcsd_get_slice
 664              	.LVL65:
 665              		.loc 1 215 42 view .LVU232
 666 001e 5422     		movs	r2, #84
 667 0020 5F21     		movs	r1, #95
 668              		.loc 1 214 32 view .LVU233
 669 0022 2075     		strb	r0, [r4, #20]
 670              		.loc 1 215 3 is_stmt 1 view .LVU234
 671              		.loc 1 215 42 is_stmt 0 view .LVU235
 672 0024 2846     		mov	r0, r5
 673 0026 FFF7FEFF 		bl	_mmcsd_get_slice
 674              	.LVL66:
 675              		.loc 1 216 42 view .LVU236
 676 002a 0E22     		movs	r2, #14
 677              		.loc 1 215 32 view .LVU237
 678 002c E080     		strh	r0, [r4, #6]	@ movhi
 679              		.loc 1 216 3 is_stmt 1 view .LVU238
 680              		.loc 1 216 42 is_stmt 0 view .LVU239
 681 002e 2846     		mov	r0, r5
 682 0030 1146     		mov	r1, r2
 683 0032 FFF7FEFF 		bl	_mmcsd_get_slice
 684              	.LVL67:
ARM GAS  /tmp/cc2gg5CB.s 			page 13


 685              		.loc 1 217 42 view .LVU240
 686 0036 0122     		movs	r2, #1
 687 0038 0721     		movs	r1, #7
 688              		.loc 1 216 32 view .LVU241
 689 003a E077     		strb	r0, [r4, #31]
 690              		.loc 1 217 3 is_stmt 1 view .LVU242
 691              		.loc 1 217 42 is_stmt 0 view .LVU243
 692 003c 2846     		mov	r0, r5
 693 003e FFF7FEFF 		bl	_mmcsd_get_slice
 694              	.LVL68:
 695              		.loc 1 218 42 view .LVU244
 696 0042 7E22     		movs	r2, #126
 697 0044 7F21     		movs	r1, #127
 698              		.loc 1 217 32 view .LVU245
 699 0046 84F82400 		strb	r0, [r4, #36]
 700              		.loc 1 218 3 is_stmt 1 view .LVU246
 701              		.loc 1 218 42 is_stmt 0 view .LVU247
 702 004a 2846     		mov	r0, r5
 703 004c FFF7FEFF 		bl	_mmcsd_get_slice
 704              	.LVL69:
 705              		.loc 1 219 42 view .LVU248
 706 0050 4C22     		movs	r2, #76
 707              		.loc 1 218 32 view .LVU249
 708 0052 2070     		strb	r0, [r4]
 709              		.loc 1 219 3 is_stmt 1 view .LVU250
 710              		.loc 1 219 42 is_stmt 0 view .LVU251
 711 0054 2846     		mov	r0, r5
 712 0056 1146     		mov	r1, r2
 713 0058 FFF7FEFF 		bl	_mmcsd_get_slice
 714              	.LVL70:
 715              		.loc 1 220 42 view .LVU252
 716 005c 0822     		movs	r2, #8
 717 005e 0921     		movs	r1, #9
 718              		.loc 1 219 32 view .LVU253
 719 0060 2073     		strb	r0, [r4, #12]
 720              		.loc 1 220 3 is_stmt 1 view .LVU254
 721              		.loc 1 220 42 is_stmt 0 view .LVU255
 722 0062 2846     		mov	r0, r5
 723 0064 FFF7FEFF 		bl	_mmcsd_get_slice
 724              	.LVL71:
 725              		.loc 1 221 42 view .LVU256
 726 0068 2522     		movs	r2, #37
 727 006a 2921     		movs	r1, #41
 728              		.loc 1 220 32 view .LVU257
 729 006c 84F82300 		strb	r0, [r4, #35]
 730              		.loc 1 221 3 is_stmt 1 view .LVU258
 731              		.loc 1 221 42 is_stmt 0 view .LVU259
 732 0070 2846     		mov	r0, r5
 733 0072 FFF7FEFF 		bl	_mmcsd_get_slice
 734              	.LVL72:
 735              		.loc 1 222 42 view .LVU260
 736 0076 2A22     		movs	r2, #42
 737 0078 2E21     		movs	r1, #46
 738              		.loc 1 221 32 view .LVU261
 739 007a A075     		strb	r0, [r4, #22]
 740              		.loc 1 222 3 is_stmt 1 view .LVU262
 741              		.loc 1 222 42 is_stmt 0 view .LVU263
ARM GAS  /tmp/cc2gg5CB.s 			page 14


 742 007c 2846     		mov	r0, r5
 743 007e FFF7FEFF 		bl	_mmcsd_get_slice
 744              	.LVL73:
 745              		.loc 1 223 42 view .LVU264
 746 0082 0A22     		movs	r2, #10
 747 0084 0B21     		movs	r1, #11
 748              		.loc 1 222 32 view .LVU265
 749 0086 6075     		strb	r0, [r4, #21]
 750              		.loc 1 223 3 is_stmt 1 view .LVU266
 751              		.loc 1 223 42 is_stmt 0 view .LVU267
 752 0088 2846     		mov	r0, r5
 753 008a FFF7FEFF 		bl	_mmcsd_get_slice
 754              	.LVL74:
 755              		.loc 1 224 42 view .LVU268
 756 008e 0F22     		movs	r2, #15
 757              		.loc 1 223 32 view .LVU269
 758 0090 84F82200 		strb	r0, [r4, #34]
 759              		.loc 1 224 3 is_stmt 1 view .LVU270
 760              		.loc 1 224 42 is_stmt 0 view .LVU271
 761 0094 2846     		mov	r0, r5
 762 0096 1146     		mov	r1, r2
 763 0098 FFF7FEFF 		bl	_mmcsd_get_slice
 764              	.LVL75:
 765              		.loc 1 225 42 view .LVU272
 766 009c 6822     		movs	r2, #104
 767 009e 6F21     		movs	r1, #111
 768              		.loc 1 224 32 view .LVU273
 769 00a0 A077     		strb	r0, [r4, #30]
 770              		.loc 1 225 3 is_stmt 1 view .LVU274
 771              		.loc 1 225 42 is_stmt 0 view .LVU275
 772 00a2 2846     		mov	r0, r5
 773 00a4 FFF7FEFF 		bl	_mmcsd_get_slice
 774              	.LVL76:
 775              		.loc 1 226 42 view .LVU276
 776 00a8 0D22     		movs	r2, #13
 777              		.loc 1 225 32 view .LVU277
 778 00aa E070     		strb	r0, [r4, #3]
 779              		.loc 1 226 3 is_stmt 1 view .LVU278
 780              		.loc 1 226 42 is_stmt 0 view .LVU279
 781 00ac 2846     		mov	r0, r5
 782 00ae 1146     		mov	r1, r2
 783 00b0 FFF7FEFF 		bl	_mmcsd_get_slice
 784              	.LVL77:
 785              		.loc 1 227 42 view .LVU280
 786 00b4 1A22     		movs	r2, #26
 787 00b6 1C21     		movs	r1, #28
 788              		.loc 1 226 32 view .LVU281
 789 00b8 84F82000 		strb	r0, [r4, #32]
 790              		.loc 1 227 3 is_stmt 1 view .LVU282
 791              		.loc 1 227 42 is_stmt 0 view .LVU283
 792 00bc 2846     		mov	r0, r5
 793 00be FFF7FEFF 		bl	_mmcsd_get_slice
 794              	.LVL78:
 795              		.loc 1 228 42 view .LVU284
 796 00c2 5022     		movs	r2, #80
 797 00c4 5321     		movs	r1, #83
 798              		.loc 1 227 32 view .LVU285
ARM GAS  /tmp/cc2gg5CB.s 			page 15


 799 00c6 A076     		strb	r0, [r4, #26]
 800              		.loc 1 228 3 is_stmt 1 view .LVU286
 801              		.loc 1 228 42 is_stmt 0 view .LVU287
 802 00c8 2846     		mov	r0, r5
 803 00ca FFF7FEFF 		bl	_mmcsd_get_slice
 804              	.LVL79:
 805              		.loc 1 229 42 view .LVU288
 806 00ce 4F22     		movs	r2, #79
 807              		.loc 1 228 32 view .LVU289
 808 00d0 2072     		strb	r0, [r4, #8]
 809              		.loc 1 229 3 is_stmt 1 view .LVU290
 810              		.loc 1 229 42 is_stmt 0 view .LVU291
 811 00d2 2846     		mov	r0, r5
 812 00d4 1146     		mov	r1, r2
 813 00d6 FFF7FEFF 		bl	_mmcsd_get_slice
 814              	.LVL80:
 815              		.loc 1 230 42 view .LVU292
 816 00da 4D22     		movs	r2, #77
 817              		.loc 1 229 32 view .LVU293
 818 00dc 6072     		strb	r0, [r4, #9]
 819              		.loc 1 230 3 is_stmt 1 view .LVU294
 820              		.loc 1 230 42 is_stmt 0 view .LVU295
 821 00de 2846     		mov	r0, r5
 822 00e0 1146     		mov	r1, r2
 823 00e2 FFF7FEFF 		bl	_mmcsd_get_slice
 824              	.LVL81:
 825              		.loc 1 231 42 view .LVU296
 826 00e6 7A22     		movs	r2, #122
 827 00e8 7D21     		movs	r1, #125
 828              		.loc 1 230 32 view .LVU297
 829 00ea E072     		strb	r0, [r4, #11]
 830              		.loc 1 231 3 is_stmt 1 view .LVU298
 831              		.loc 1 231 42 is_stmt 0 view .LVU299
 832 00ec 2846     		mov	r0, r5
 833 00ee FFF7FEFF 		bl	_mmcsd_get_slice
 834              	.LVL82:
 835              		.loc 1 232 42 view .LVU300
 836 00f2 7022     		movs	r2, #112
 837 00f4 7721     		movs	r1, #119
 838              		.loc 1 231 32 view .LVU301
 839 00f6 6070     		strb	r0, [r4, #1]
 840              		.loc 1 232 3 is_stmt 1 view .LVU302
 841              		.loc 1 232 42 is_stmt 0 view .LVU303
 842 00f8 2846     		mov	r0, r5
 843 00fa FFF7FEFF 		bl	_mmcsd_get_slice
 844              	.LVL83:
 845              		.loc 1 233 42 view .LVU304
 846 00fe 0C22     		movs	r2, #12
 847              		.loc 1 232 32 view .LVU305
 848 0100 A070     		strb	r0, [r4, #2]
 849              		.loc 1 233 3 is_stmt 1 view .LVU306
 850              		.loc 1 233 42 is_stmt 0 view .LVU307
 851 0102 2846     		mov	r0, r5
 852 0104 1146     		mov	r1, r2
 853 0106 FFF7FEFF 		bl	_mmcsd_get_slice
 854              	.LVL84:
 855              		.loc 1 234 42 view .LVU308
ARM GAS  /tmp/cc2gg5CB.s 			page 16


 856 010a 6022     		movs	r2, #96
 857 010c 6721     		movs	r1, #103
 858              		.loc 1 233 32 view .LVU309
 859 010e 84F82100 		strb	r0, [r4, #33]
 860              		.loc 1 234 3 is_stmt 1 view .LVU310
 861              		.loc 1 234 42 is_stmt 0 view .LVU311
 862 0112 2846     		mov	r0, r5
 863 0114 FFF7FEFF 		bl	_mmcsd_get_slice
 864              	.LVL85:
 865              		.loc 1 235 42 view .LVU312
 866 0118 3822     		movs	r2, #56
 867 011a 3A21     		movs	r1, #58
 868              		.loc 1 234 32 view .LVU313
 869 011c 2071     		strb	r0, [r4, #4]
 870              		.loc 1 235 3 is_stmt 1 view .LVU314
 871              		.loc 1 235 42 is_stmt 0 view .LVU315
 872 011e 2846     		mov	r0, r5
 873 0120 FFF7FEFF 		bl	_mmcsd_get_slice
 874              	.LVL86:
 875              		.loc 1 236 42 view .LVU316
 876 0124 3B22     		movs	r2, #59
 877 0126 3D21     		movs	r1, #61
 878              		.loc 1 235 32 view .LVU317
 879 0128 6074     		strb	r0, [r4, #17]
 880              		.loc 1 236 3 is_stmt 1 view .LVU318
 881              		.loc 1 236 42 is_stmt 0 view .LVU319
 882 012a 2846     		mov	r0, r5
 883 012c FFF7FEFF 		bl	_mmcsd_get_slice
 884              	.LVL87:
 885              		.loc 1 237 42 view .LVU320
 886 0130 3222     		movs	r2, #50
 887 0132 3421     		movs	r1, #52
 888              		.loc 1 236 32 view .LVU321
 889 0134 2074     		strb	r0, [r4, #16]
 890              		.loc 1 237 3 is_stmt 1 view .LVU322
 891              		.loc 1 237 42 is_stmt 0 view .LVU323
 892 0136 2846     		mov	r0, r5
 893 0138 FFF7FEFF 		bl	_mmcsd_get_slice
 894              	.LVL88:
 895              		.loc 1 238 42 view .LVU324
 896 013c 3522     		movs	r2, #53
 897 013e 3721     		movs	r1, #55
 898              		.loc 1 237 32 view .LVU325
 899 0140 E074     		strb	r0, [r4, #19]
 900              		.loc 1 238 3 is_stmt 1 view .LVU326
 901              		.loc 1 238 42 is_stmt 0 view .LVU327
 902 0142 2846     		mov	r0, r5
 903 0144 FFF7FEFF 		bl	_mmcsd_get_slice
 904              	.LVL89:
 905              		.loc 1 239 42 view .LVU328
 906 0148 1F22     		movs	r2, #31
 907              		.loc 1 238 32 view .LVU329
 908 014a A074     		strb	r0, [r4, #18]
 909              		.loc 1 239 3 is_stmt 1 view .LVU330
 910              		.loc 1 239 42 is_stmt 0 view .LVU331
 911 014c 2846     		mov	r0, r5
 912 014e 1146     		mov	r1, r2
ARM GAS  /tmp/cc2gg5CB.s 			page 17


 913 0150 FFF7FEFF 		bl	_mmcsd_get_slice
 914              	.LVL90:
 915              		.loc 1 240 42 view .LVU332
 916 0154 2022     		movs	r2, #32
 917 0156 2421     		movs	r1, #36
 918              		.loc 1 239 32 view .LVU333
 919 0158 2076     		strb	r0, [r4, #24]
 920              		.loc 1 240 3 is_stmt 1 view .LVU334
 921              		.loc 1 240 42 is_stmt 0 view .LVU335
 922 015a 2846     		mov	r0, r5
 923 015c FFF7FEFF 		bl	_mmcsd_get_slice
 924              	.LVL91:
 925              		.loc 1 241 42 view .LVU336
 926 0160 1622     		movs	r2, #22
 927 0162 1921     		movs	r1, #25
 928              		.loc 1 240 32 view .LVU337
 929 0164 E075     		strb	r0, [r4, #23]
 930              		.loc 1 241 3 is_stmt 1 view .LVU338
 931              		.loc 1 241 42 is_stmt 0 view .LVU339
 932 0166 2846     		mov	r0, r5
 933 0168 FFF7FEFF 		bl	_mmcsd_get_slice
 934              	.LVL92:
 935              		.loc 1 242 42 view .LVU340
 936 016c 1522     		movs	r2, #21
 937              		.loc 1 241 32 view .LVU341
 938 016e E076     		strb	r0, [r4, #27]
 939              		.loc 1 242 3 is_stmt 1 view .LVU342
 940              		.loc 1 242 42 is_stmt 0 view .LVU343
 941 0170 2846     		mov	r0, r5
 942 0172 1146     		mov	r1, r2
 943 0174 FFF7FEFF 		bl	_mmcsd_get_slice
 944              	.LVL93:
 945              		.loc 1 243 42 view .LVU344
 946 0178 4E22     		movs	r2, #78
 947              		.loc 1 242 32 view .LVU345
 948 017a 2077     		strb	r0, [r4, #28]
 949              		.loc 1 243 3 is_stmt 1 view .LVU346
 950              		.loc 1 243 42 is_stmt 0 view .LVU347
 951 017c 2846     		mov	r0, r5
 952 017e 1146     		mov	r1, r2
 953 0180 FFF7FEFF 		bl	_mmcsd_get_slice
 954              	.LVL94:
 955              		.loc 1 243 32 view .LVU348
 956 0184 A072     		strb	r0, [r4, #10]
 957              		.loc 1 244 1 view .LVU349
 958 0186 38BD     		pop	{r3, r4, r5, pc}
 959              		.loc 1 244 1 view .LVU350
 960              		.cfi_endproc
 961              	.LFE339:
 962              		.size	_mmcsd_unpack_csd_mmc, .-_mmcsd_unpack_csd_mmc
 963              		.section	.text._mmcsd_unpack_csd_v10,"ax",%progbits
 964              		.align	1
 965              		.global	_mmcsd_unpack_csd_v10
 966              		.syntax unified
 967              		.thumb
 968              		.thumb_func
 969              		.fpu fpv4-sp-d16
ARM GAS  /tmp/cc2gg5CB.s 			page 18


 970              		.type	_mmcsd_unpack_csd_v10, %function
 971              	_mmcsd_unpack_csd_v10:
 972              	.LVL95:
 973              	.LFB340:
 974              		.loc 1 255 58 is_stmt 1 view -0
 975              		.cfi_startproc
 976              		@ args = 0, pretend = 0, frame = 0
 977              		@ frame_needed = 0, uses_anonymous_args = 0
 978              		.loc 1 256 3 view .LVU352
 979              		.loc 1 258 3 view .LVU353
 980              		.loc 1 258 3 view .LVU354
 981              		.loc 1 258 3 view .LVU355
 982              		.loc 1 260 3 view .LVU356
 983              		.loc 1 255 58 is_stmt 0 view .LVU357
 984 0000 38B5     		push	{r3, r4, r5, lr}
 985              		.cfi_def_cfa_offset 16
 986              		.cfi_offset 3, -16
 987              		.cfi_offset 4, -12
 988              		.cfi_offset 5, -8
 989              		.cfi_offset 14, -4
 990              		.loc 1 260 7 view .LVU358
 991 0002 00F11805 		add	r5, r0, #24
 992              	.LVL96:
 993              		.loc 1 261 3 is_stmt 1 view .LVU359
 994              		.loc 1 255 58 is_stmt 0 view .LVU360
 995 0006 0C46     		mov	r4, r1
 996              		.loc 1 261 42 view .LVU361
 997 0008 3E22     		movs	r2, #62
 998 000a 4921     		movs	r1, #73
 999              	.LVL97:
 1000              		.loc 1 261 42 view .LVU362
 1001 000c 2846     		mov	r0, r5
 1002              	.LVL98:
 1003              		.loc 1 261 42 view .LVU363
 1004 000e FFF7FEFF 		bl	_mmcsd_get_slice
 1005              	.LVL99:
 1006              		.loc 1 262 42 view .LVU364
 1007 0012 2F22     		movs	r2, #47
 1008 0014 3121     		movs	r1, #49
 1009              		.loc 1 261 32 view .LVU365
 1010 0016 A081     		strh	r0, [r4, #12]	@ movhi
 1011              		.loc 1 262 3 is_stmt 1 view .LVU366
 1012              		.loc 1 262 42 is_stmt 0 view .LVU367
 1013 0018 2846     		mov	r0, r5
 1014 001a FFF7FEFF 		bl	_mmcsd_get_slice
 1015              	.LVL100:
 1016              		.loc 1 263 42 view .LVU368
 1017 001e 5422     		movs	r2, #84
 1018 0020 5F21     		movs	r1, #95
 1019              		.loc 1 262 32 view .LVU369
 1020 0022 A074     		strb	r0, [r4, #18]
 1021              		.loc 1 263 3 is_stmt 1 view .LVU370
 1022              		.loc 1 263 42 is_stmt 0 view .LVU371
 1023 0024 2846     		mov	r0, r5
 1024 0026 FFF7FEFF 		bl	_mmcsd_get_slice
 1025              	.LVL101:
 1026              		.loc 1 264 42 view .LVU372
ARM GAS  /tmp/cc2gg5CB.s 			page 19


 1027 002a 0E22     		movs	r2, #14
 1028              		.loc 1 263 32 view .LVU373
 1029 002c A080     		strh	r0, [r4, #4]	@ movhi
 1030              		.loc 1 264 3 is_stmt 1 view .LVU374
 1031              		.loc 1 264 42 is_stmt 0 view .LVU375
 1032 002e 2846     		mov	r0, r5
 1033 0030 1146     		mov	r1, r2
 1034 0032 FFF7FEFF 		bl	_mmcsd_get_slice
 1035              	.LVL102:
 1036              		.loc 1 265 42 view .LVU376
 1037 0036 0122     		movs	r2, #1
 1038 0038 0721     		movs	r1, #7
 1039              		.loc 1 264 32 view .LVU377
 1040 003a E076     		strb	r0, [r4, #27]
 1041              		.loc 1 265 3 is_stmt 1 view .LVU378
 1042              		.loc 1 265 42 is_stmt 0 view .LVU379
 1043 003c 2846     		mov	r0, r5
 1044 003e FFF7FEFF 		bl	_mmcsd_get_slice
 1045              	.LVL103:
 1046              		.loc 1 266 42 view .LVU380
 1047 0042 7E22     		movs	r2, #126
 1048 0044 7F21     		movs	r1, #127
 1049              		.loc 1 265 32 view .LVU381
 1050 0046 E077     		strb	r0, [r4, #31]
 1051              		.loc 1 266 3 is_stmt 1 view .LVU382
 1052              		.loc 1 266 42 is_stmt 0 view .LVU383
 1053 0048 2846     		mov	r0, r5
 1054 004a FFF7FEFF 		bl	_mmcsd_get_slice
 1055              	.LVL104:
 1056              		.loc 1 267 42 view .LVU384
 1057 004e 4C22     		movs	r2, #76
 1058              		.loc 1 266 32 view .LVU385
 1059 0050 2070     		strb	r0, [r4]
 1060              		.loc 1 267 3 is_stmt 1 view .LVU386
 1061              		.loc 1 267 42 is_stmt 0 view .LVU387
 1062 0052 2846     		mov	r0, r5
 1063 0054 1146     		mov	r1, r2
 1064 0056 FFF7FEFF 		bl	_mmcsd_get_slice
 1065              	.LVL105:
 1066              		.loc 1 268 42 view .LVU388
 1067 005a 2E22     		movs	r2, #46
 1068              		.loc 1 267 32 view .LVU389
 1069 005c A072     		strb	r0, [r4, #10]
 1070              		.loc 1 268 3 is_stmt 1 view .LVU390
 1071              		.loc 1 268 42 is_stmt 0 view .LVU391
 1072 005e 2846     		mov	r0, r5
 1073 0060 1146     		mov	r1, r2
 1074 0062 FFF7FEFF 		bl	_mmcsd_get_slice
 1075              	.LVL106:
 1076              		.loc 1 269 42 view .LVU392
 1077 0066 2722     		movs	r2, #39
 1078 0068 2D21     		movs	r1, #45
 1079              		.loc 1 268 32 view .LVU393
 1080 006a E074     		strb	r0, [r4, #19]
 1081              		.loc 1 269 3 is_stmt 1 view .LVU394
 1082              		.loc 1 269 42 is_stmt 0 view .LVU395
 1083 006c 2846     		mov	r0, r5
ARM GAS  /tmp/cc2gg5CB.s 			page 20


 1084 006e FFF7FEFF 		bl	_mmcsd_get_slice
 1085              	.LVL107:
 1086              		.loc 1 270 42 view .LVU396
 1087 0072 0A22     		movs	r2, #10
 1088 0074 0B21     		movs	r1, #11
 1089              		.loc 1 269 32 view .LVU397
 1090 0076 2075     		strb	r0, [r4, #20]
 1091              		.loc 1 270 3 is_stmt 1 view .LVU398
 1092              		.loc 1 270 42 is_stmt 0 view .LVU399
 1093 0078 2846     		mov	r0, r5
 1094 007a FFF7FEFF 		bl	_mmcsd_get_slice
 1095              	.LVL108:
 1096              		.loc 1 271 42 view .LVU400
 1097 007e 0F22     		movs	r2, #15
 1098              		.loc 1 270 32 view .LVU401
 1099 0080 A077     		strb	r0, [r4, #30]
 1100              		.loc 1 271 3 is_stmt 1 view .LVU402
 1101              		.loc 1 271 42 is_stmt 0 view .LVU403
 1102 0082 2846     		mov	r0, r5
 1103 0084 1146     		mov	r1, r2
 1104 0086 FFF7FEFF 		bl	_mmcsd_get_slice
 1105              	.LVL109:
 1106              		.loc 1 272 42 view .LVU404
 1107 008a 6822     		movs	r2, #104
 1108 008c 6F21     		movs	r1, #111
 1109              		.loc 1 271 32 view .LVU405
 1110 008e A076     		strb	r0, [r4, #26]
 1111              		.loc 1 272 3 is_stmt 1 view .LVU406
 1112              		.loc 1 272 42 is_stmt 0 view .LVU407
 1113 0090 2846     		mov	r0, r5
 1114 0092 FFF7FEFF 		bl	_mmcsd_get_slice
 1115              	.LVL110:
 1116              		.loc 1 273 42 view .LVU408
 1117 0096 0D22     		movs	r2, #13
 1118              		.loc 1 272 32 view .LVU409
 1119 0098 A070     		strb	r0, [r4, #2]
 1120              		.loc 1 273 3 is_stmt 1 view .LVU410
 1121              		.loc 1 273 42 is_stmt 0 view .LVU411
 1122 009a 2846     		mov	r0, r5
 1123 009c 1146     		mov	r1, r2
 1124 009e FFF7FEFF 		bl	_mmcsd_get_slice
 1125              	.LVL111:
 1126              		.loc 1 274 42 view .LVU412
 1127 00a2 1A22     		movs	r2, #26
 1128 00a4 1C21     		movs	r1, #28
 1129              		.loc 1 273 32 view .LVU413
 1130 00a6 2077     		strb	r0, [r4, #28]
 1131              		.loc 1 274 3 is_stmt 1 view .LVU414
 1132              		.loc 1 274 42 is_stmt 0 view .LVU415
 1133 00a8 2846     		mov	r0, r5
 1134 00aa FFF7FEFF 		bl	_mmcsd_get_slice
 1135              	.LVL112:
 1136              		.loc 1 275 42 view .LVU416
 1137 00ae 5022     		movs	r2, #80
 1138 00b0 5321     		movs	r1, #83
 1139              		.loc 1 274 32 view .LVU417
 1140 00b2 E075     		strb	r0, [r4, #23]
ARM GAS  /tmp/cc2gg5CB.s 			page 21


 1141              		.loc 1 275 3 is_stmt 1 view .LVU418
 1142              		.loc 1 275 42 is_stmt 0 view .LVU419
 1143 00b4 2846     		mov	r0, r5
 1144 00b6 FFF7FEFF 		bl	_mmcsd_get_slice
 1145              	.LVL113:
 1146              		.loc 1 276 42 view .LVU420
 1147 00ba 4F22     		movs	r2, #79
 1148              		.loc 1 275 32 view .LVU421
 1149 00bc A071     		strb	r0, [r4, #6]
 1150              		.loc 1 276 3 is_stmt 1 view .LVU422
 1151              		.loc 1 276 42 is_stmt 0 view .LVU423
 1152 00be 2846     		mov	r0, r5
 1153 00c0 1146     		mov	r1, r2
 1154 00c2 FFF7FEFF 		bl	_mmcsd_get_slice
 1155              	.LVL114:
 1156              		.loc 1 277 42 view .LVU424
 1157 00c6 4D22     		movs	r2, #77
 1158              		.loc 1 276 32 view .LVU425
 1159 00c8 E071     		strb	r0, [r4, #7]
 1160              		.loc 1 277 3 is_stmt 1 view .LVU426
 1161              		.loc 1 277 42 is_stmt 0 view .LVU427
 1162 00ca 2846     		mov	r0, r5
 1163 00cc 1146     		mov	r1, r2
 1164 00ce FFF7FEFF 		bl	_mmcsd_get_slice
 1165              	.LVL115:
 1166              		.loc 1 278 42 view .LVU428
 1167 00d2 7022     		movs	r2, #112
 1168 00d4 7721     		movs	r1, #119
 1169              		.loc 1 277 32 view .LVU429
 1170 00d6 6072     		strb	r0, [r4, #9]
 1171              		.loc 1 278 3 is_stmt 1 view .LVU430
 1172              		.loc 1 278 42 is_stmt 0 view .LVU431
 1173 00d8 2846     		mov	r0, r5
 1174 00da FFF7FEFF 		bl	_mmcsd_get_slice
 1175              	.LVL116:
 1176              		.loc 1 279 42 view .LVU432
 1177 00de 0C22     		movs	r2, #12
 1178              		.loc 1 278 32 view .LVU433
 1179 00e0 6070     		strb	r0, [r4, #1]
 1180              		.loc 1 279 3 is_stmt 1 view .LVU434
 1181              		.loc 1 279 42 is_stmt 0 view .LVU435
 1182 00e2 2846     		mov	r0, r5
 1183 00e4 1146     		mov	r1, r2
 1184 00e6 FFF7FEFF 		bl	_mmcsd_get_slice
 1185              	.LVL117:
 1186              		.loc 1 280 42 view .LVU436
 1187 00ea 6022     		movs	r2, #96
 1188 00ec 6721     		movs	r1, #103
 1189              		.loc 1 279 32 view .LVU437
 1190 00ee 6077     		strb	r0, [r4, #29]
 1191              		.loc 1 280 3 is_stmt 1 view .LVU438
 1192              		.loc 1 280 42 is_stmt 0 view .LVU439
 1193 00f0 2846     		mov	r0, r5
 1194 00f2 FFF7FEFF 		bl	_mmcsd_get_slice
 1195              	.LVL118:
 1196              		.loc 1 281 42 view .LVU440
 1197 00f6 1F22     		movs	r2, #31
ARM GAS  /tmp/cc2gg5CB.s 			page 22


 1198              		.loc 1 280 32 view .LVU441
 1199 00f8 E070     		strb	r0, [r4, #3]
 1200              		.loc 1 281 3 is_stmt 1 view .LVU442
 1201              		.loc 1 281 42 is_stmt 0 view .LVU443
 1202 00fa 2846     		mov	r0, r5
 1203 00fc 1146     		mov	r1, r2
 1204 00fe FFF7FEFF 		bl	_mmcsd_get_slice
 1205              	.LVL119:
 1206              		.loc 1 282 42 view .LVU444
 1207 0102 2022     		movs	r2, #32
 1208 0104 2621     		movs	r1, #38
 1209              		.loc 1 281 32 view .LVU445
 1210 0106 A075     		strb	r0, [r4, #22]
 1211              		.loc 1 282 3 is_stmt 1 view .LVU446
 1212              		.loc 1 282 42 is_stmt 0 view .LVU447
 1213 0108 2846     		mov	r0, r5
 1214 010a FFF7FEFF 		bl	_mmcsd_get_slice
 1215              	.LVL120:
 1216              		.loc 1 283 42 view .LVU448
 1217 010e 0C22     		movs	r2, #12
 1218 0110 1921     		movs	r1, #25
 1219              		.loc 1 282 32 view .LVU449
 1220 0112 6075     		strb	r0, [r4, #21]
 1221              		.loc 1 283 3 is_stmt 1 view .LVU450
 1222              		.loc 1 283 42 is_stmt 0 view .LVU451
 1223 0114 2846     		mov	r0, r5
 1224 0116 FFF7FEFF 		bl	_mmcsd_get_slice
 1225              	.LVL121:
 1226              		.loc 1 284 42 view .LVU452
 1227 011a 1522     		movs	r2, #21
 1228              		.loc 1 283 32 view .LVU453
 1229 011c 2076     		strb	r0, [r4, #24]
 1230              		.loc 1 284 3 is_stmt 1 view .LVU454
 1231              		.loc 1 284 42 is_stmt 0 view .LVU455
 1232 011e 2846     		mov	r0, r5
 1233 0120 1146     		mov	r1, r2
 1234 0122 FFF7FEFF 		bl	_mmcsd_get_slice
 1235              	.LVL122:
 1236              		.loc 1 285 42 view .LVU456
 1237 0126 4E22     		movs	r2, #78
 1238              		.loc 1 284 32 view .LVU457
 1239 0128 6076     		strb	r0, [r4, #25]
 1240              		.loc 1 285 3 is_stmt 1 view .LVU458
 1241              		.loc 1 285 42 is_stmt 0 view .LVU459
 1242 012a 2846     		mov	r0, r5
 1243 012c 1146     		mov	r1, r2
 1244 012e FFF7FEFF 		bl	_mmcsd_get_slice
 1245              	.LVL123:
 1246              		.loc 1 285 32 view .LVU460
 1247 0132 2072     		strb	r0, [r4, #8]
 1248              		.loc 1 286 1 view .LVU461
 1249 0134 38BD     		pop	{r3, r4, r5, pc}
 1250              		.loc 1 286 1 view .LVU462
 1251              		.cfi_endproc
 1252              	.LFE340:
 1253              		.size	_mmcsd_unpack_csd_v10, .-_mmcsd_unpack_csd_v10
 1254              		.section	.text._mmcsd_unpack_csd_v20,"ax",%progbits
ARM GAS  /tmp/cc2gg5CB.s 			page 23


 1255              		.align	1
 1256              		.global	_mmcsd_unpack_csd_v20
 1257              		.syntax unified
 1258              		.thumb
 1259              		.thumb_func
 1260              		.fpu fpv4-sp-d16
 1261              		.type	_mmcsd_unpack_csd_v20, %function
 1262              	_mmcsd_unpack_csd_v20:
 1263              	.LVL124:
 1264              	.LFB341:
 1265              		.loc 1 297 58 is_stmt 1 view -0
 1266              		.cfi_startproc
 1267              		@ args = 0, pretend = 0, frame = 0
 1268              		@ frame_needed = 0, uses_anonymous_args = 0
 1269              		.loc 1 298 3 view .LVU464
 1270              		.loc 1 300 3 view .LVU465
 1271              		.loc 1 300 3 view .LVU466
 1272              		.loc 1 300 3 view .LVU467
 1273              		.loc 1 302 3 view .LVU468
 1274              		.loc 1 297 58 is_stmt 0 view .LVU469
 1275 0000 38B5     		push	{r3, r4, r5, lr}
 1276              		.cfi_def_cfa_offset 16
 1277              		.cfi_offset 3, -16
 1278              		.cfi_offset 4, -12
 1279              		.cfi_offset 5, -8
 1280              		.cfi_offset 14, -4
 1281              		.loc 1 302 7 view .LVU470
 1282 0002 00F11805 		add	r5, r0, #24
 1283              	.LVL125:
 1284              		.loc 1 303 3 is_stmt 1 view .LVU471
 1285              		.loc 1 297 58 is_stmt 0 view .LVU472
 1286 0006 0C46     		mov	r4, r1
 1287              		.loc 1 303 42 view .LVU473
 1288 0008 3022     		movs	r2, #48
 1289 000a 4521     		movs	r1, #69
 1290              	.LVL126:
 1291              		.loc 1 303 42 view .LVU474
 1292 000c 2846     		mov	r0, r5
 1293              	.LVL127:
 1294              		.loc 1 303 42 view .LVU475
 1295 000e FFF7FEFF 		bl	_mmcsd_get_slice
 1296              	.LVL128:
 1297              		.loc 1 304 42 view .LVU476
 1298 0012 0122     		movs	r2, #1
 1299 0014 0721     		movs	r1, #7
 1300              		.loc 1 303 30 view .LVU477
 1301 0016 E060     		str	r0, [r4, #12]
 1302              		.loc 1 304 3 is_stmt 1 view .LVU478
 1303              		.loc 1 304 42 is_stmt 0 view .LVU479
 1304 0018 2846     		mov	r0, r5
 1305 001a FFF7FEFF 		bl	_mmcsd_get_slice
 1306              	.LVL129:
 1307              		.loc 1 305 42 view .LVU480
 1308 001e 5422     		movs	r2, #84
 1309 0020 5F21     		movs	r1, #95
 1310              		.loc 1 304 32 view .LVU481
 1311 0022 2077     		strb	r0, [r4, #28]
ARM GAS  /tmp/cc2gg5CB.s 			page 24


 1312              		.loc 1 305 3 is_stmt 1 view .LVU482
 1313              		.loc 1 305 42 is_stmt 0 view .LVU483
 1314 0024 2846     		mov	r0, r5
 1315 0026 FFF7FEFF 		bl	_mmcsd_get_slice
 1316              	.LVL130:
 1317              		.loc 1 306 42 view .LVU484
 1318 002a 0E22     		movs	r2, #14
 1319              		.loc 1 305 32 view .LVU485
 1320 002c A080     		strh	r0, [r4, #4]	@ movhi
 1321              		.loc 1 306 3 is_stmt 1 view .LVU486
 1322              		.loc 1 306 42 is_stmt 0 view .LVU487
 1323 002e 2846     		mov	r0, r5
 1324 0030 1146     		mov	r1, r2
 1325 0032 FFF7FEFF 		bl	_mmcsd_get_slice
 1326              	.LVL131:
 1327              		.loc 1 307 42 view .LVU488
 1328 0036 7E22     		movs	r2, #126
 1329 0038 7F21     		movs	r1, #127
 1330              		.loc 1 306 32 view .LVU489
 1331 003a 2076     		strb	r0, [r4, #24]
 1332              		.loc 1 307 3 is_stmt 1 view .LVU490
 1333              		.loc 1 307 42 is_stmt 0 view .LVU491
 1334 003c 2846     		mov	r0, r5
 1335 003e FFF7FEFF 		bl	_mmcsd_get_slice
 1336              	.LVL132:
 1337              		.loc 1 308 42 view .LVU492
 1338 0042 4C22     		movs	r2, #76
 1339              		.loc 1 307 32 view .LVU493
 1340 0044 2070     		strb	r0, [r4]
 1341              		.loc 1 308 3 is_stmt 1 view .LVU494
 1342              		.loc 1 308 42 is_stmt 0 view .LVU495
 1343 0046 2846     		mov	r0, r5
 1344 0048 1146     		mov	r1, r2
 1345 004a FFF7FEFF 		bl	_mmcsd_get_slice
 1346              	.LVL133:
 1347              		.loc 1 309 42 view .LVU496
 1348 004e 2E22     		movs	r2, #46
 1349              		.loc 1 308 32 view .LVU497
 1350 0050 A072     		strb	r0, [r4, #10]
 1351              		.loc 1 309 3 is_stmt 1 view .LVU498
 1352              		.loc 1 309 42 is_stmt 0 view .LVU499
 1353 0052 2846     		mov	r0, r5
 1354 0054 1146     		mov	r1, r2
 1355 0056 FFF7FEFF 		bl	_mmcsd_get_slice
 1356              	.LVL134:
 1357              		.loc 1 310 42 view .LVU500
 1358 005a 0A22     		movs	r2, #10
 1359 005c 0B21     		movs	r1, #11
 1360              		.loc 1 309 32 view .LVU501
 1361 005e 2074     		strb	r0, [r4, #16]
 1362              		.loc 1 310 3 is_stmt 1 view .LVU502
 1363              		.loc 1 310 42 is_stmt 0 view .LVU503
 1364 0060 2846     		mov	r0, r5
 1365 0062 FFF7FEFF 		bl	_mmcsd_get_slice
 1366              	.LVL135:
 1367              		.loc 1 311 42 view .LVU504
 1368 0066 0F22     		movs	r2, #15
ARM GAS  /tmp/cc2gg5CB.s 			page 25


 1369              		.loc 1 310 32 view .LVU505
 1370 0068 E076     		strb	r0, [r4, #27]
 1371              		.loc 1 311 3 is_stmt 1 view .LVU506
 1372              		.loc 1 311 42 is_stmt 0 view .LVU507
 1373 006a 2846     		mov	r0, r5
 1374 006c 1146     		mov	r1, r2
 1375 006e FFF7FEFF 		bl	_mmcsd_get_slice
 1376              	.LVL136:
 1377              		.loc 1 312 42 view .LVU508
 1378 0072 6822     		movs	r2, #104
 1379 0074 6F21     		movs	r1, #111
 1380              		.loc 1 311 32 view .LVU509
 1381 0076 E075     		strb	r0, [r4, #23]
 1382              		.loc 1 312 3 is_stmt 1 view .LVU510
 1383              		.loc 1 312 42 is_stmt 0 view .LVU511
 1384 0078 2846     		mov	r0, r5
 1385 007a FFF7FEFF 		bl	_mmcsd_get_slice
 1386              	.LVL137:
 1387              		.loc 1 313 42 view .LVU512
 1388 007e 0D22     		movs	r2, #13
 1389              		.loc 1 312 32 view .LVU513
 1390 0080 A070     		strb	r0, [r4, #2]
 1391              		.loc 1 313 3 is_stmt 1 view .LVU514
 1392              		.loc 1 313 42 is_stmt 0 view .LVU515
 1393 0082 2846     		mov	r0, r5
 1394 0084 1146     		mov	r1, r2
 1395 0086 FFF7FEFF 		bl	_mmcsd_get_slice
 1396              	.LVL138:
 1397              		.loc 1 314 42 view .LVU516
 1398 008a 1A22     		movs	r2, #26
 1399 008c 1C21     		movs	r1, #28
 1400              		.loc 1 313 32 view .LVU517
 1401 008e 6076     		strb	r0, [r4, #25]
 1402              		.loc 1 314 3 is_stmt 1 view .LVU518
 1403              		.loc 1 314 42 is_stmt 0 view .LVU519
 1404 0090 2846     		mov	r0, r5
 1405 0092 FFF7FEFF 		bl	_mmcsd_get_slice
 1406              	.LVL139:
 1407              		.loc 1 315 42 view .LVU520
 1408 0096 5022     		movs	r2, #80
 1409 0098 5321     		movs	r1, #83
 1410              		.loc 1 314 32 view .LVU521
 1411 009a 2075     		strb	r0, [r4, #20]
 1412              		.loc 1 315 3 is_stmt 1 view .LVU522
 1413              		.loc 1 315 42 is_stmt 0 view .LVU523
 1414 009c 2846     		mov	r0, r5
 1415 009e FFF7FEFF 		bl	_mmcsd_get_slice
 1416              	.LVL140:
 1417              		.loc 1 316 42 view .LVU524
 1418 00a2 4F22     		movs	r2, #79
 1419              		.loc 1 315 32 view .LVU525
 1420 00a4 A071     		strb	r0, [r4, #6]
 1421              		.loc 1 316 3 is_stmt 1 view .LVU526
 1422              		.loc 1 316 42 is_stmt 0 view .LVU527
 1423 00a6 2846     		mov	r0, r5
 1424 00a8 1146     		mov	r1, r2
 1425 00aa FFF7FEFF 		bl	_mmcsd_get_slice
ARM GAS  /tmp/cc2gg5CB.s 			page 26


 1426              	.LVL141:
 1427              		.loc 1 317 42 view .LVU528
 1428 00ae 4D22     		movs	r2, #77
 1429              		.loc 1 316 32 view .LVU529
 1430 00b0 E071     		strb	r0, [r4, #7]
 1431              		.loc 1 317 3 is_stmt 1 view .LVU530
 1432              		.loc 1 317 42 is_stmt 0 view .LVU531
 1433 00b2 2846     		mov	r0, r5
 1434 00b4 1146     		mov	r1, r2
 1435 00b6 FFF7FEFF 		bl	_mmcsd_get_slice
 1436              	.LVL142:
 1437              		.loc 1 318 42 view .LVU532
 1438 00ba 2722     		movs	r2, #39
 1439 00bc 2D21     		movs	r1, #45
 1440              		.loc 1 317 32 view .LVU533
 1441 00be 6072     		strb	r0, [r4, #9]
 1442              		.loc 1 318 3 is_stmt 1 view .LVU534
 1443              		.loc 1 318 42 is_stmt 0 view .LVU535
 1444 00c0 2846     		mov	r0, r5
 1445 00c2 FFF7FEFF 		bl	_mmcsd_get_slice
 1446              	.LVL143:
 1447              		.loc 1 319 42 view .LVU536
 1448 00c6 7022     		movs	r2, #112
 1449 00c8 7721     		movs	r1, #119
 1450              		.loc 1 318 32 view .LVU537
 1451 00ca 6074     		strb	r0, [r4, #17]
 1452              		.loc 1 319 3 is_stmt 1 view .LVU538
 1453              		.loc 1 319 42 is_stmt 0 view .LVU539
 1454 00cc 2846     		mov	r0, r5
 1455 00ce FFF7FEFF 		bl	_mmcsd_get_slice
 1456              	.LVL144:
 1457              		.loc 1 320 42 view .LVU540
 1458 00d2 0C22     		movs	r2, #12
 1459              		.loc 1 319 32 view .LVU541
 1460 00d4 6070     		strb	r0, [r4, #1]
 1461              		.loc 1 320 3 is_stmt 1 view .LVU542
 1462              		.loc 1 320 42 is_stmt 0 view .LVU543
 1463 00d6 2846     		mov	r0, r5
 1464 00d8 1146     		mov	r1, r2
 1465 00da FFF7FEFF 		bl	_mmcsd_get_slice
 1466              	.LVL145:
 1467              		.loc 1 321 42 view .LVU544
 1468 00de 6022     		movs	r2, #96
 1469 00e0 6721     		movs	r1, #103
 1470              		.loc 1 320 32 view .LVU545
 1471 00e2 A076     		strb	r0, [r4, #26]
 1472              		.loc 1 321 3 is_stmt 1 view .LVU546
 1473              		.loc 1 321 42 is_stmt 0 view .LVU547
 1474 00e4 2846     		mov	r0, r5
 1475 00e6 FFF7FEFF 		bl	_mmcsd_get_slice
 1476              	.LVL146:
 1477              		.loc 1 322 42 view .LVU548
 1478 00ea 1F22     		movs	r2, #31
 1479              		.loc 1 321 32 view .LVU549
 1480 00ec E070     		strb	r0, [r4, #3]
 1481              		.loc 1 322 3 is_stmt 1 view .LVU550
 1482              		.loc 1 322 42 is_stmt 0 view .LVU551
ARM GAS  /tmp/cc2gg5CB.s 			page 27


 1483 00ee 2846     		mov	r0, r5
 1484 00f0 1146     		mov	r1, r2
 1485 00f2 FFF7FEFF 		bl	_mmcsd_get_slice
 1486              	.LVL147:
 1487              		.loc 1 323 42 view .LVU552
 1488 00f6 2022     		movs	r2, #32
 1489 00f8 2621     		movs	r1, #38
 1490              		.loc 1 322 32 view .LVU553
 1491 00fa E074     		strb	r0, [r4, #19]
 1492              		.loc 1 323 3 is_stmt 1 view .LVU554
 1493              		.loc 1 323 42 is_stmt 0 view .LVU555
 1494 00fc 2846     		mov	r0, r5
 1495 00fe FFF7FEFF 		bl	_mmcsd_get_slice
 1496              	.LVL148:
 1497              		.loc 1 324 42 view .LVU556
 1498 0102 0C22     		movs	r2, #12
 1499 0104 1921     		movs	r1, #25
 1500              		.loc 1 323 32 view .LVU557
 1501 0106 A074     		strb	r0, [r4, #18]
 1502              		.loc 1 324 3 is_stmt 1 view .LVU558
 1503              		.loc 1 324 42 is_stmt 0 view .LVU559
 1504 0108 2846     		mov	r0, r5
 1505 010a FFF7FEFF 		bl	_mmcsd_get_slice
 1506              	.LVL149:
 1507              		.loc 1 325 42 view .LVU560
 1508 010e 1522     		movs	r2, #21
 1509              		.loc 1 324 32 view .LVU561
 1510 0110 6075     		strb	r0, [r4, #21]
 1511              		.loc 1 325 3 is_stmt 1 view .LVU562
 1512              		.loc 1 325 42 is_stmt 0 view .LVU563
 1513 0112 2846     		mov	r0, r5
 1514 0114 1146     		mov	r1, r2
 1515 0116 FFF7FEFF 		bl	_mmcsd_get_slice
 1516              	.LVL150:
 1517              		.loc 1 326 42 view .LVU564
 1518 011a 4E22     		movs	r2, #78
 1519              		.loc 1 325 32 view .LVU565
 1520 011c A075     		strb	r0, [r4, #22]
 1521              		.loc 1 326 3 is_stmt 1 view .LVU566
 1522              		.loc 1 326 42 is_stmt 0 view .LVU567
 1523 011e 2846     		mov	r0, r5
 1524 0120 1146     		mov	r1, r2
 1525 0122 FFF7FEFF 		bl	_mmcsd_get_slice
 1526              	.LVL151:
 1527              		.loc 1 326 32 view .LVU568
 1528 0126 2072     		strb	r0, [r4, #8]
 1529              		.loc 1 327 1 view .LVU569
 1530 0128 38BD     		pop	{r3, r4, r5, pc}
 1531              		.loc 1 327 1 view .LVU570
 1532              		.cfi_endproc
 1533              	.LFE341:
 1534              		.size	_mmcsd_unpack_csd_v20, .-_mmcsd_unpack_csd_v20
 1535              		.text
 1536              	.Letext0:
 1537              		.file 2 "/opt/gcc-arm-none-eabi-10-2020-q4-major/lib/gcc/arm-none-eabi/10.2.1/include/stddef.h"
 1538              		.file 3 "/opt/gcc-arm-none-eabi-10-2020-q4-major/arm-none-eabi/include/machine/_default_types.h"
 1539              		.file 4 "/opt/gcc-arm-none-eabi-10-2020-q4-major/arm-none-eabi/include/sys/_stdint.h"
ARM GAS  /tmp/cc2gg5CB.s 			page 28


 1540              		.file 5 "../../modules/ChibiOS/os/hal/include/hal_ioblock.h"
 1541              		.file 6 "../../modules/ChibiOS/os/hal/include/hal_mmcsd.h"