ARM GAS  /tmp/ccY0BO8u.s 			page 1


   1              		.cpu cortex-m7
   2              		.eabi_attribute 27, 1
   3              		.eabi_attribute 28, 1
   4              		.eabi_attribute 20, 1
   5              		.eabi_attribute 21, 1
   6              		.eabi_attribute 23, 3
   7              		.eabi_attribute 24, 1
   8              		.eabi_attribute 25, 1
   9              		.eabi_attribute 26, 1
  10              		.eabi_attribute 30, 4
  11              		.eabi_attribute 34, 1
  12              		.eabi_attribute 18, 4
  13              		.file	"hal_st_lld.c"
  14              		.text
  15              	.Ltext0:
  16              		.cfi_sections	.debug_frame
  17              		.section	.text.VectorB0,"ax",%progbits
  18              		.align	1
  19              		.global	VectorB0
  20              		.arch armv7e-m
  21              		.syntax unified
  22              		.thumb
  23              		.thumb_func
  24              		.fpu fpv4-sp-d16
  25              		.type	VectorB0, %function
  26              	VectorB0:
  27              	.LFB334:
  28              		.file 1 "../../modules/ChibiOS/os/hal/ports/STM32/LLD/TIMv1/hal_st_lld.c"
  29              		.loc 1 328 30 view -0
  30              		.cfi_startproc
  31              		@ args = 0, pretend = 0, frame = 0
  32              		@ frame_needed = 0, uses_anonymous_args = 0
  33              		.loc 1 330 3 view .LVU1
  34              		.loc 1 330 3 view .LVU2
  35              		.loc 1 330 3 view .LVU3
  36              		.loc 1 330 3 view .LVU4
  37              		.loc 1 328 30 is_stmt 0 view .LVU5
  38 0000 10B5     		push	{r4, lr}
  39              		.cfi_def_cfa_offset 8
  40              		.cfi_offset 4, -8
  41              		.cfi_offset 14, -4
  42              		.loc 1 330 3 view .LVU6
  43 0002 FFF7FEFF 		bl	_stats_increase_irq
  44              	.LVL0:
  45              		.loc 1 330 3 is_stmt 1 view .LVU7
  46              		.loc 1 330 22 view .LVU8
  47              		.loc 1 335 3 view .LVU9
  48              		.loc 1 335 20 is_stmt 0 view .LVU10
  49 0006 4FF08043 		mov	r3, #1073741824
  50 000a 1A69     		ldr	r2, [r3, #16]
  51              		.loc 1 335 6 view .LVU11
  52 000c 9207     		lsls	r2, r2, #30
  53 000e 0CD5     		bpl	.L2
  54              		.loc 1 336 5 is_stmt 1 view .LVU12
  55              		.loc 1 336 22 is_stmt 0 view .LVU13
  56 0010 0024     		movs	r4, #0
  57 0012 1C61     		str	r4, [r3, #16]
ARM GAS  /tmp/ccY0BO8u.s 			page 2


  58              		.loc 1 338 5 is_stmt 1 view .LVU14
  59              	.LBB48:
  60              	.LBI48:
  61              		.file 2 "../../modules/ChibiOS/os/hal/osal/rt/osal.h"
  62              		.loc 2 531 20 view .LVU15
  63              	.LBE48:
  64              		.loc 2 533 3 view .LVU16
  65              	.LBB62:
  66              	.LBB49:
  67              	.LBI49:
  68              		.file 3 "../../modules/ChibiOS/os/rt/include/chsys.h"
  69              		.loc 3 393 20 view .LVU17
  70              	.LBB50:
  71              		.loc 3 395 3 view .LVU18
  72              	.LBB51:
  73              	.LBI51:
  74              		.file 4 "../../modules/ChibiOS/os/common/ports/ARMCMx/chcore_v7m.h"
  75              		.loc 4 641 20 view .LVU19
  76              	.LBE51:
  77              	.LBE50:
  78              	.LBE49:
  79              	.LBE62:
  80              		.loc 4 643 3 view .LVU20
  81              	.LBB63:
  82              	.LBB60:
  83              	.LBB58:
  84              	.LBB56:
  85              	.LBB52:
  86              	.LBI52:
  87              		.loc 4 602 20 view .LVU21
  88              	.LBE52:
  89              	.LBE56:
  90              	.LBE58:
  91              	.LBE60:
  92              	.LBE63:
  93              		.loc 4 610 3 view .LVU22
  94              	.LVL1:
  95              	.LBB64:
  96              	.LBB61:
  97              	.LBB59:
  98              	.LBB57:
  99              	.LBB55:
 100              	.LBB53:
 101              	.LBI53:
 102              		.file 5 "../../modules/ChibiOS/os/common/ext/ARM/CMSIS/Core/Include/cmsis_gcc.h"
 103              		.loc 5 491 27 view .LVU23
 104              	.LBB54:
 105              		.loc 5 493 3 view .LVU24
 106 0014 2023     		movs	r3, #32
 107              		.syntax unified
 108              	@ 493 "../../modules/ChibiOS/os/common/ext/ARM/CMSIS/Core/Include/cmsis_gcc.h" 1
 109 0016 83F31188 		MSR basepri, r3
 110              	@ 0 "" 2
 111              	.LVL2:
 112              		.loc 5 493 3 is_stmt 0 view .LVU25
 113              		.thumb
 114              		.syntax unified
ARM GAS  /tmp/ccY0BO8u.s 			page 3


 115              	.LBE54:
 116              	.LBE53:
 117              	.LBE55:
 118              	.LBE57:
 119              		.loc 3 396 3 is_stmt 1 view .LVU26
 120 001a FFF7FEFF 		bl	_stats_start_measure_crit_isr
 121              	.LVL3:
 122              		.loc 3 397 29 view .LVU27
 123              	.LBE59:
 124              	.LBE61:
 125              	.LBE64:
 126              		.loc 1 339 5 view .LVU28
 127              	.LBB65:
 128              	.LBI65:
 129              		.loc 2 601 20 view .LVU29
 130              	.LBB66:
 131              		.loc 2 603 3 view .LVU30
 132 001e FFF7FEFF 		bl	chSysTimerHandlerI
 133              	.LVL4:
 134              	.LBE66:
 135              	.LBE65:
 136              		.loc 1 340 5 view .LVU31
 137              	.LBB67:
 138              	.LBI67:
 139              		.loc 2 542 20 view .LVU32
 140              	.LBE67:
 141              		.loc 2 544 3 view .LVU33
 142              	.LBB81:
 143              	.LBB68:
 144              	.LBI68:
 145              		.loc 3 413 20 view .LVU34
 146              	.LBB69:
 147              		.loc 3 415 31 view .LVU35
 148              		.loc 3 416 3 view .LVU36
 149 0022 FFF7FEFF 		bl	_stats_stop_measure_crit_isr
 150              	.LVL5:
 151              		.loc 3 417 3 view .LVU37
 152              	.LBB70:
 153              	.LBI70:
 154              		.loc 4 652 20 view .LVU38
 155              	.LBE70:
 156              	.LBE69:
 157              	.LBE68:
 158              	.LBE81:
 159              		.loc 4 654 3 view .LVU39
 160              	.LBB82:
 161              	.LBB79:
 162              	.LBB77:
 163              	.LBB75:
 164              	.LBB71:
 165              	.LBI71:
 166              		.loc 4 626 20 view .LVU40
 167              	.LBE71:
 168              	.LBE75:
 169              	.LBE77:
 170              	.LBE79:
 171              	.LBE82:
ARM GAS  /tmp/ccY0BO8u.s 			page 4


 172              		.loc 4 629 3 view .LVU41
 173              	.LBB83:
 174              	.LBB80:
 175              	.LBB78:
 176              	.LBB76:
 177              	.LBB74:
 178              	.LBB72:
 179              	.LBI72:
 180              		.loc 5 491 27 view .LVU42
 181              	.LBB73:
 182              		.loc 5 493 3 view .LVU43
 183              		.syntax unified
 184              	@ 493 "../../modules/ChibiOS/os/common/ext/ARM/CMSIS/Core/Include/cmsis_gcc.h" 1
 185 0026 84F31188 		MSR basepri, r4
 186              	@ 0 "" 2
 187              	.LVL6:
 188              		.thumb
 189              		.syntax unified
 190              	.L2:
 191              		.loc 5 493 3 is_stmt 0 view .LVU44
 192              	.LBE73:
 193              	.LBE72:
 194              	.LBE74:
 195              	.LBE76:
 196              	.LBE78:
 197              	.LBE80:
 198              	.LBE83:
 199              		.loc 1 343 3 is_stmt 1 view .LVU45
 200              		.loc 1 343 3 view .LVU46
 201              		.loc 1 343 3 view .LVU47
 202              		.loc 1 343 3 view .LVU48
 203              		.loc 1 343 3 view .LVU49
 204              		.loc 1 344 1 is_stmt 0 view .LVU50
 205 002a BDE81040 		pop	{r4, lr}
 206              		.cfi_restore 14
 207              		.cfi_restore 4
 208              		.cfi_def_cfa_offset 0
 209              		.loc 1 343 3 view .LVU51
 210 002e FFF7FEBF 		b	_port_irq_epilogue
 211              	.LVL7:
 212              		.cfi_endproc
 213              	.LFE334:
 214              		.size	VectorB0, .-VectorB0
 215              		.section	.text.st_lld_init,"ax",%progbits
 216              		.align	1
 217              		.global	st_lld_init
 218              		.syntax unified
 219              		.thumb
 220              		.thumb_func
 221              		.fpu fpv4-sp-d16
 222              		.type	st_lld_init, %function
 223              	st_lld_init:
 224              	.LFB335:
 225              		.loc 1 356 24 is_stmt 1 view -0
 226              		.cfi_startproc
 227              		@ args = 0, pretend = 0, frame = 0
 228              		@ frame_needed = 0, uses_anonymous_args = 0
ARM GAS  /tmp/ccY0BO8u.s 			page 5


 229              		@ link register save eliminated.
 230              		.loc 1 362 3 view .LVU53
 231 0000 104B     		ldr	r3, .L7
 232              		.loc 1 378 3 is_stmt 0 view .LVU54
 233 0002 0821     		movs	r1, #8
 234 0004 1C20     		movs	r0, #28
 235              		.loc 1 362 3 view .LVU55
 236 0006 1A6C     		ldr	r2, [r3, #64]
 237 0008 42F00102 		orr	r2, r2, #1
 238 000c 1A64     		str	r2, [r3, #64]
 239              		.loc 1 362 3 is_stmt 1 view .LVU56
 240              		.loc 1 362 3 view .LVU57
 241 000e 1A6E     		ldr	r2, [r3, #96]
 242 0010 42F00102 		orr	r2, r2, #1
 243 0014 1A66     		str	r2, [r3, #96]
 244              		.loc 1 362 3 view .LVU58
 245              		.loc 1 365 3 is_stmt 0 view .LVU59
 246 0016 0C4A     		ldr	r2, .L7+4
 247              		.loc 1 362 3 view .LVU60
 248 0018 1B6E     		ldr	r3, [r3, #96]
 249              		.loc 1 362 20 is_stmt 1 view .LVU61
 250              		.loc 1 365 3 view .LVU62
 251 001a 9368     		ldr	r3, [r2, #8]
 252 001c 43F00103 		orr	r3, r3, #1
 253 0020 9360     		str	r3, [r2, #8]
 254              		.loc 1 368 3 view .LVU63
 255              		.loc 1 368 24 is_stmt 0 view .LVU64
 256 0022 4FF08043 		mov	r3, #1073741824
 257 0026 6B22     		movs	r2, #107
 258 0028 9A62     		str	r2, [r3, #40]
 259              		.loc 1 369 3 is_stmt 1 view .LVU65
 260              		.loc 1 369 24 is_stmt 0 view .LVU66
 261 002a 4FF0FF32 		mov	r2, #-1
 262 002e DA62     		str	r2, [r3, #44]
 263              		.loc 1 370 3 is_stmt 1 view .LVU67
 264              		.loc 1 370 24 is_stmt 0 view .LVU68
 265 0030 0022     		movs	r2, #0
 266 0032 9A61     		str	r2, [r3, #24]
 267              		.loc 1 371 3 is_stmt 1 view .LVU69
 268              		.loc 1 371 24 is_stmt 0 view .LVU70
 269 0034 5A63     		str	r2, [r3, #52]
 270              		.loc 1 372 3 is_stmt 1 view .LVU71
 271              		.loc 1 372 24 is_stmt 0 view .LVU72
 272 0036 DA60     		str	r2, [r3, #12]
 273              		.loc 1 373 3 is_stmt 1 view .LVU73
 274              		.loc 1 373 24 is_stmt 0 view .LVU74
 275 0038 5A60     		str	r2, [r3, #4]
 276              		.loc 1 374 3 is_stmt 1 view .LVU75
 277              		.loc 1 374 24 is_stmt 0 view .LVU76
 278 003a 0122     		movs	r2, #1
 279 003c 5A61     		str	r2, [r3, #20]
 280              		.loc 1 375 3 is_stmt 1 view .LVU77
 281              		.loc 1 375 24 is_stmt 0 view .LVU78
 282 003e 1A60     		str	r2, [r3]
 283              		.loc 1 378 3 is_stmt 1 view .LVU79
 284 0040 FFF7FEBF 		b	nvicEnableVector
 285              	.LVL8:
ARM GAS  /tmp/ccY0BO8u.s 			page 6


 286              	.L8:
 287              		.align	2
 288              	.L7:
 289 0044 00380240 		.word	1073887232
 290 0048 002004E0 		.word	-536600576
 291              		.cfi_endproc
 292              	.LFE335:
 293              		.size	st_lld_init, .-st_lld_init
 294              		.text
 295              	.Letext0:
 296              		.file 6 "/opt/gcc-arm-none-eabi-10-2020-q4-major/arm-none-eabi/include/machine/_default_types.h"
 297              		.file 7 "/opt/gcc-arm-none-eabi-10-2020-q4-major/arm-none-eabi/include/sys/_stdint.h"
 298              		.file 8 "../../modules/ChibiOS/os/common/ext/ST/STM32F7xx/stm32f767xx.h"
 299              		.file 9 "../../modules/ChibiOS/os/hal/ports/STM32/LLD/TIMv1/stm32_tim.h"
 300              		.file 10 "../../modules/ChibiOS/os/hal/ports/common/ARMCMx/nvic.h"
 301              		.file 11 "../../modules/ChibiOS/os/rt/include/chstats.h"