ARM GAS  /tmp/ccct6XWu.s 			page 1


   1              		.cpu cortex-m7
   2              		.eabi_attribute 27, 1
   3              		.eabi_attribute 28, 1
   4              		.eabi_attribute 20, 1
   5              		.eabi_attribute 21, 1
   6              		.eabi_attribute 23, 3
   7              		.eabi_attribute 24, 1
   8              		.eabi_attribute 25, 1
   9              		.eabi_attribute 26, 1
  10              		.eabi_attribute 30, 4
  11              		.eabi_attribute 34, 1
  12              		.eabi_attribute 18, 4
  13              		.file	"hal_serial_lld.c"
  14              		.text
  15              	.Ltext0:
  16              		.cfi_sections	.debug_frame
  17              		.section	.text.notify1,"ax",%progbits
  18              		.align	1
  19              		.arch armv7e-m
  20              		.syntax unified
  21              		.thumb
  22              		.thumb_func
  23              		.fpu fpv4-sp-d16
  24              		.type	notify1, %function
  25              	notify1:
  26              	.LVL0:
  27              	.LFB338:
  28              		.file 1 "../../modules/ChibiOS/os/hal/ports/STM32/LLD/USARTv2/hal_serial_lld.c"
  29              		.loc 1 397 37 view -0
  30              		.cfi_startproc
  31              		@ args = 0, pretend = 0, frame = 0
  32              		@ frame_needed = 0, uses_anonymous_args = 0
  33              		@ link register save eliminated.
  34              		.loc 1 399 3 view .LVU1
  35              		.loc 1 400 3 view .LVU2
  36              		.loc 1 400 15 is_stmt 0 view .LVU3
  37 0000 024A     		ldr	r2, .L2
  38 0002 1368     		ldr	r3, [r2]
  39 0004 43F0C003 		orr	r3, r3, #192
  40 0008 1360     		str	r3, [r2]
  41              		.loc 1 401 1 view .LVU4
  42 000a 7047     		bx	lr
  43              	.L3:
  44              		.align	2
  45              	.L2:
  46 000c 00100140 		.word	1073811456
  47              		.cfi_endproc
  48              	.LFE338:
  49              		.size	notify1, .-notify1
  50              		.section	.text.notify2,"ax",%progbits
  51              		.align	1
  52              		.syntax unified
  53              		.thumb
  54              		.thumb_func
  55              		.fpu fpv4-sp-d16
  56              		.type	notify2, %function
  57              	notify2:
ARM GAS  /tmp/ccct6XWu.s 			page 2


  58              	.LVL1:
  59              	.LFB339:
  60              		.loc 1 405 37 is_stmt 1 view -0
  61              		.cfi_startproc
  62              		@ args = 0, pretend = 0, frame = 0
  63              		@ frame_needed = 0, uses_anonymous_args = 0
  64              		@ link register save eliminated.
  65              		.loc 1 407 3 view .LVU6
  66              		.loc 1 408 3 view .LVU7
  67              		.loc 1 408 15 is_stmt 0 view .LVU8
  68 0000 024A     		ldr	r2, .L5
  69 0002 1368     		ldr	r3, [r2]
  70 0004 43F0C003 		orr	r3, r3, #192
  71 0008 1360     		str	r3, [r2]
  72              		.loc 1 409 1 view .LVU9
  73 000a 7047     		bx	lr
  74              	.L6:
  75              		.align	2
  76              	.L5:
  77 000c 00440040 		.word	1073759232
  78              		.cfi_endproc
  79              	.LFE339:
  80              		.size	notify2, .-notify2
  81              		.section	.text.notify3,"ax",%progbits
  82              		.align	1
  83              		.syntax unified
  84              		.thumb
  85              		.thumb_func
  86              		.fpu fpv4-sp-d16
  87              		.type	notify3, %function
  88              	notify3:
  89              	.LVL2:
  90              	.LFB340:
  91              		.loc 1 413 37 is_stmt 1 view -0
  92              		.cfi_startproc
  93              		@ args = 0, pretend = 0, frame = 0
  94              		@ frame_needed = 0, uses_anonymous_args = 0
  95              		@ link register save eliminated.
  96              		.loc 1 415 3 view .LVU11
  97              		.loc 1 416 3 view .LVU12
  98              		.loc 1 416 15 is_stmt 0 view .LVU13
  99 0000 024A     		ldr	r2, .L8
 100 0002 1368     		ldr	r3, [r2]
 101 0004 43F0C003 		orr	r3, r3, #192
 102 0008 1360     		str	r3, [r2]
 103              		.loc 1 417 1 view .LVU14
 104 000a 7047     		bx	lr
 105              	.L9:
 106              		.align	2
 107              	.L8:
 108 000c 00480040 		.word	1073760256
 109              		.cfi_endproc
 110              	.LFE340:
 111              		.size	notify3, .-notify3
 112              		.section	.text.notify4,"ax",%progbits
 113              		.align	1
 114              		.syntax unified
ARM GAS  /tmp/ccct6XWu.s 			page 3


 115              		.thumb
 116              		.thumb_func
 117              		.fpu fpv4-sp-d16
 118              		.type	notify4, %function
 119              	notify4:
 120              	.LVL3:
 121              	.LFB341:
 122              		.loc 1 421 37 is_stmt 1 view -0
 123              		.cfi_startproc
 124              		@ args = 0, pretend = 0, frame = 0
 125              		@ frame_needed = 0, uses_anonymous_args = 0
 126              		@ link register save eliminated.
 127              		.loc 1 423 3 view .LVU16
 128              		.loc 1 424 3 view .LVU17
 129              		.loc 1 424 14 is_stmt 0 view .LVU18
 130 0000 024A     		ldr	r2, .L11
 131 0002 1368     		ldr	r3, [r2]
 132 0004 43F0C003 		orr	r3, r3, #192
 133 0008 1360     		str	r3, [r2]
 134              		.loc 1 425 1 view .LVU19
 135 000a 7047     		bx	lr
 136              	.L12:
 137              		.align	2
 138              	.L11:
 139 000c 004C0040 		.word	1073761280
 140              		.cfi_endproc
 141              	.LFE341:
 142              		.size	notify4, .-notify4
 143              		.section	.text.notify6,"ax",%progbits
 144              		.align	1
 145              		.syntax unified
 146              		.thumb
 147              		.thumb_func
 148              		.fpu fpv4-sp-d16
 149              		.type	notify6, %function
 150              	notify6:
 151              	.LVL4:
 152              	.LFB342:
 153              		.loc 1 437 37 is_stmt 1 view -0
 154              		.cfi_startproc
 155              		@ args = 0, pretend = 0, frame = 0
 156              		@ frame_needed = 0, uses_anonymous_args = 0
 157              		@ link register save eliminated.
 158              		.loc 1 439 3 view .LVU21
 159              		.loc 1 440 3 view .LVU22
 160              		.loc 1 440 15 is_stmt 0 view .LVU23
 161 0000 024A     		ldr	r2, .L14
 162 0002 1368     		ldr	r3, [r2]
 163 0004 43F0C003 		orr	r3, r3, #192
 164 0008 1360     		str	r3, [r2]
 165              		.loc 1 441 1 view .LVU24
 166 000a 7047     		bx	lr
 167              	.L15:
 168              		.align	2
 169              	.L14:
 170 000c 00140140 		.word	1073812480
 171              		.cfi_endproc
ARM GAS  /tmp/ccct6XWu.s 			page 4


 172              	.LFE342:
 173              		.size	notify6, .-notify6
 174              		.section	.text.notify7,"ax",%progbits
 175              		.align	1
 176              		.syntax unified
 177              		.thumb
 178              		.thumb_func
 179              		.fpu fpv4-sp-d16
 180              		.type	notify7, %function
 181              	notify7:
 182              	.LVL5:
 183              	.LFB343:
 184              		.loc 1 445 37 is_stmt 1 view -0
 185              		.cfi_startproc
 186              		@ args = 0, pretend = 0, frame = 0
 187              		@ frame_needed = 0, uses_anonymous_args = 0
 188              		@ link register save eliminated.
 189              		.loc 1 447 3 view .LVU26
 190              		.loc 1 448 3 view .LVU27
 191              		.loc 1 448 14 is_stmt 0 view .LVU28
 192 0000 024A     		ldr	r2, .L17
 193 0002 1368     		ldr	r3, [r2]
 194 0004 43F0C003 		orr	r3, r3, #192
 195 0008 1360     		str	r3, [r2]
 196              		.loc 1 449 1 view .LVU29
 197 000a 7047     		bx	lr
 198              	.L18:
 199              		.align	2
 200              	.L17:
 201 000c 00780040 		.word	1073772544
 202              		.cfi_endproc
 203              	.LFE343:
 204              		.size	notify7, .-notify7
 205              		.section	.text.notify8,"ax",%progbits
 206              		.align	1
 207              		.syntax unified
 208              		.thumb
 209              		.thumb_func
 210              		.fpu fpv4-sp-d16
 211              		.type	notify8, %function
 212              	notify8:
 213              	.LVL6:
 214              	.LFB344:
 215              		.loc 1 453 37 is_stmt 1 view -0
 216              		.cfi_startproc
 217              		@ args = 0, pretend = 0, frame = 0
 218              		@ frame_needed = 0, uses_anonymous_args = 0
 219              		@ link register save eliminated.
 220              		.loc 1 455 3 view .LVU31
 221              		.loc 1 456 3 view .LVU32
 222              		.loc 1 456 14 is_stmt 0 view .LVU33
 223 0000 024A     		ldr	r2, .L20
 224 0002 1368     		ldr	r3, [r2]
 225 0004 43F0C003 		orr	r3, r3, #192
 226 0008 1360     		str	r3, [r2]
 227              		.loc 1 457 1 view .LVU34
 228 000a 7047     		bx	lr
ARM GAS  /tmp/ccct6XWu.s 			page 5


 229              	.L21:
 230              		.align	2
 231              	.L20:
 232 000c 007C0040 		.word	1073773568
 233              		.cfi_endproc
 234              	.LFE344:
 235              		.size	notify8, .-notify8
 236              		.section	.text.chSysUnlockFromISR,"ax",%progbits
 237              		.align	1
 238              		.syntax unified
 239              		.thumb
 240              		.thumb_func
 241              		.fpu fpv4-sp-d16
 242              		.type	chSysUnlockFromISR, %function
 243              	chSysUnlockFromISR:
 244              	.LFB198:
 245              		.file 2 "../../modules/ChibiOS/os/rt/include/chsys.h"
 246              		.loc 2 413 45 is_stmt 1 view -0
 247              		.cfi_startproc
 248              		@ args = 0, pretend = 0, frame = 0
 249              		@ frame_needed = 0, uses_anonymous_args = 0
 250              		.loc 2 415 31 view .LVU36
 251              		.loc 2 416 3 view .LVU37
 252              		.loc 2 413 45 is_stmt 0 view .LVU38
 253 0000 08B5     		push	{r3, lr}
 254              		.cfi_def_cfa_offset 8
 255              		.cfi_offset 3, -8
 256              		.cfi_offset 14, -4
 257              		.loc 2 416 3 view .LVU39
 258 0002 FFF7FEFF 		bl	_stats_stop_measure_crit_isr
 259              	.LVL7:
 260              		.loc 2 417 3 is_stmt 1 view .LVU40
 261              	.LBB57:
 262              	.LBI57:
 263              		.file 3 "../../modules/ChibiOS/os/common/ports/ARMCMx/chcore_v7m.h"
 264              		.loc 3 652 20 view .LVU41
 265              	.LBE57:
 266              		.loc 3 654 3 view .LVU42
 267              	.LBB62:
 268              	.LBB58:
 269              	.LBI58:
 270              		.loc 3 626 20 view .LVU43
 271              	.LBE58:
 272              	.LBE62:
 273              		.loc 3 629 3 view .LVU44
 274              	.LBB63:
 275              	.LBB61:
 276              	.LBB59:
 277              	.LBI59:
 278              		.file 4 "../../modules/ChibiOS/os/common/ext/ARM/CMSIS/Core/Include/cmsis_gcc.h"
 279              		.loc 4 491 27 view .LVU45
 280              	.LBB60:
 281              		.loc 4 493 3 view .LVU46
 282 0006 0023     		movs	r3, #0
 283              		.syntax unified
 284              	@ 493 "../../modules/ChibiOS/os/common/ext/ARM/CMSIS/Core/Include/cmsis_gcc.h" 1
 285 0008 83F31188 		MSR basepri, r3
ARM GAS  /tmp/ccct6XWu.s 			page 6


 286              	@ 0 "" 2
 287              	.LVL8:
 288              		.loc 4 493 3 is_stmt 0 view .LVU47
 289              		.thumb
 290              		.syntax unified
 291              	.LBE60:
 292              	.LBE59:
 293              	.LBE61:
 294              	.LBE63:
 295              		.loc 2 418 1 view .LVU48
 296 000c 08BD     		pop	{r3, pc}
 297              		.cfi_endproc
 298              	.LFE198:
 299              		.size	chSysUnlockFromISR, .-chSysUnlockFromISR
 300              		.section	.text.serve_interrupt,"ax",%progbits
 301              		.align	1
 302              		.syntax unified
 303              		.thumb
 304              		.thumb_func
 305              		.fpu fpv4-sp-d16
 306              		.type	serve_interrupt, %function
 307              	serve_interrupt:
 308              	.LVL9:
 309              	.LFB337:
 310              		.loc 1 323 48 is_stmt 1 view -0
 311              		.cfi_startproc
 312              		@ args = 0, pretend = 0, frame = 0
 313              		@ frame_needed = 0, uses_anonymous_args = 0
 314              		.loc 1 324 3 view .LVU50
 315              		.loc 1 323 48 is_stmt 0 view .LVU51
 316 0000 2DE9F047 		push	{r4, r5, r6, r7, r8, r9, r10, lr}
 317              		.cfi_def_cfa_offset 32
 318              		.cfi_offset 4, -32
 319              		.cfi_offset 5, -28
 320              		.cfi_offset 6, -24
 321              		.cfi_offset 7, -20
 322              		.cfi_offset 8, -16
 323              		.cfi_offset 9, -12
 324              		.cfi_offset 10, -8
 325              		.cfi_offset 14, -4
 326              		.loc 1 324 18 view .LVU52
 327 0004 466D     		ldr	r6, [r0, #84]
 328              	.LVL10:
 329              		.loc 1 325 3 is_stmt 1 view .LVU53
 330              		.loc 1 323 48 is_stmt 0 view .LVU54
 331 0006 0446     		mov	r4, r0
 332              		.loc 1 325 12 view .LVU55
 333 0008 D6F80080 		ldr	r8, [r6]
 334              	.LVL11:
 335              		.loc 1 326 3 is_stmt 1 view .LVU56
 336              		.loc 1 329 3 view .LVU57
 337              		.loc 1 329 7 is_stmt 0 view .LVU58
 338 000c F569     		ldr	r5, [r6, #28]
 339              	.LVL12:
 340              		.loc 1 330 3 is_stmt 1 view .LVU59
 341              		.loc 1 333 6 is_stmt 0 view .LVU60
 342 000e 2807     		lsls	r0, r5, #28
ARM GAS  /tmp/ccct6XWu.s 			page 7


 343              	.LVL13:
 344              		.loc 1 330 10 view .LVU61
 345 0010 3562     		str	r5, [r6, #32]
 346              		.loc 1 333 3 is_stmt 1 view .LVU62
 347              		.loc 1 333 6 is_stmt 0 view .LVU63
 348 0012 1BD0     		beq	.L24
 349              		.loc 1 334 5 is_stmt 1 view .LVU64
 350              	.LVL14:
 351              	.LBB127:
 352              	.LBI127:
 353              		.loc 1 302 13 view .LVU65
 354              	.LBB128:
 355              		.loc 1 303 3 view .LVU66
 356              		.loc 1 305 3 view .LVU67
 357              		.loc 1 306 9 is_stmt 0 view .LVU68
 358 0014 15F00807 		ands	r7, r5, #8
 359 0018 18BF     		it	ne
 360 001a 8027     		movne	r7, #128
 361              	.LVL15:
 362              		.loc 1 307 3 is_stmt 1 view .LVU69
 363              		.loc 1 307 6 is_stmt 0 view .LVU70
 364 001c E907     		lsls	r1, r5, #31
 365              		.loc 1 308 5 is_stmt 1 view .LVU71
 366              		.loc 1 308 9 is_stmt 0 view .LVU72
 367 001e 48BF     		it	mi
 368 0020 47F02007 		orrmi	r7, r7, #32
 369              	.LVL16:
 370              		.loc 1 309 3 is_stmt 1 view .LVU73
 371              		.loc 1 309 6 is_stmt 0 view .LVU74
 372 0024 AA07     		lsls	r2, r5, #30
 373              		.loc 1 310 5 is_stmt 1 view .LVU75
 374              		.loc 1 310 9 is_stmt 0 view .LVU76
 375 0026 48BF     		it	mi
 376 0028 47F04007 		orrmi	r7, r7, #64
 377              	.LVL17:
 378              		.loc 1 311 3 is_stmt 1 view .LVU77
 379              		.loc 1 311 6 is_stmt 0 view .LVU78
 380 002c 6B07     		lsls	r3, r5, #29
 381              		.loc 1 312 5 is_stmt 1 view .LVU79
 382              	.LBB129:
 383              	.LBB130:
 384              	.LBB131:
 385              	.LBB132:
 386              	.LBB133:
 387              	.LBB134:
 388              	.LBB135:
 389              		.loc 4 493 3 is_stmt 0 view .LVU80
 390 002e 4FF02003 		mov	r3, #32
 391              	.LBE135:
 392              	.LBE134:
 393              	.LBE133:
 394              	.LBE132:
 395              	.LBE131:
 396              	.LBE130:
 397              	.LBE129:
 398              		.loc 1 312 9 view .LVU81
 399 0032 48BF     		it	mi
ARM GAS  /tmp/ccct6XWu.s 			page 8


 400 0034 47F48077 		orrmi	r7, r7, #256
 401              	.LVL18:
 402              		.loc 1 313 3 is_stmt 1 view .LVU82
 403              	.LBB149:
 404              	.LBI129:
 405              		.file 5 "../../modules/ChibiOS/os/hal/osal/rt/osal.h"
 406              		.loc 5 531 20 view .LVU83
 407              	.LBE149:
 408              	.LBE128:
 409              	.LBE127:
 410              		.loc 5 533 3 view .LVU84
 411              	.LBB160:
 412              	.LBB157:
 413              	.LBB150:
 414              	.LBB146:
 415              	.LBI130:
 416              		.loc 2 393 20 view .LVU85
 417              	.LBB143:
 418              		.loc 2 395 3 view .LVU86
 419              	.LBB140:
 420              	.LBI132:
 421              		.loc 3 641 20 view .LVU87
 422              	.LBE140:
 423              	.LBE143:
 424              	.LBE146:
 425              	.LBE150:
 426              	.LBE157:
 427              	.LBE160:
 428              		.loc 3 643 3 view .LVU88
 429              	.LBB161:
 430              	.LBB158:
 431              	.LBB151:
 432              	.LBB147:
 433              	.LBB144:
 434              	.LBB141:
 435              	.LBB138:
 436              	.LBI133:
 437              		.loc 3 602 20 view .LVU89
 438              	.LBE138:
 439              	.LBE141:
 440              	.LBE144:
 441              	.LBE147:
 442              	.LBE151:
 443              	.LBE158:
 444              	.LBE161:
 445              		.loc 3 610 3 view .LVU90
 446              	.LBB162:
 447              	.LBB159:
 448              	.LBB152:
 449              	.LBB148:
 450              	.LBB145:
 451              	.LBB142:
 452              	.LBB139:
 453              	.LBB137:
 454              	.LBI134:
 455              		.loc 4 491 27 view .LVU91
 456              	.LBB136:
ARM GAS  /tmp/ccct6XWu.s 			page 9


 457              		.loc 4 493 3 view .LVU92
 458              		.syntax unified
 459              	@ 493 "../../modules/ChibiOS/os/common/ext/ARM/CMSIS/Core/Include/cmsis_gcc.h" 1
 460 0038 83F31188 		MSR basepri, r3
 461              	@ 0 "" 2
 462              	.LVL19:
 463              		.loc 4 493 3 is_stmt 0 view .LVU93
 464              		.thumb
 465              		.syntax unified
 466              	.LBE136:
 467              	.LBE137:
 468              	.LBE139:
 469              	.LBE142:
 470              		.loc 2 396 3 is_stmt 1 view .LVU94
 471 003c FFF7FEFF 		bl	_stats_start_measure_crit_isr
 472              	.LVL20:
 473              		.loc 2 397 29 view .LVU95
 474              	.LBE145:
 475              	.LBE148:
 476              	.LBE152:
 477              		.loc 1 314 3 view .LVU96
 478              	.LBB153:
 479              	.LBI153:
 480              		.loc 5 892 20 view .LVU97
 481              	.LBB154:
 482              		.loc 5 895 3 view .LVU98
 483 0040 3946     		mov	r1, r7
 484 0042 201D     		adds	r0, r4, #4
 485              	.LVL21:
 486              		.loc 5 895 3 is_stmt 0 view .LVU99
 487 0044 FFF7FEFF 		bl	chEvtBroadcastFlagsI
 488              	.LVL22:
 489              		.loc 5 895 3 view .LVU100
 490              	.LBE154:
 491              	.LBE153:
 492              		.loc 1 314 25 is_stmt 1 view .LVU101
 493              		.loc 1 315 3 view .LVU102
 494              	.LBB155:
 495              	.LBI155:
 496              		.loc 5 542 20 view .LVU103
 497              	.LBB156:
 498              		.loc 5 544 3 view .LVU104
 499 0048 FFF7FEFF 		bl	chSysUnlockFromISR
 500              	.LVL23:
 501              	.L24:
 502              		.loc 5 544 3 is_stmt 0 view .LVU105
 503              	.LBE156:
 504              	.LBE155:
 505              	.LBE159:
 506              	.LBE162:
 507              		.loc 1 337 3 is_stmt 1 view .LVU106
 508              		.loc 1 337 6 is_stmt 0 view .LVU107
 509 004c EF05     		lsls	r7, r5, #23
 510 004e 0BD5     		bpl	.L29
 511              		.loc 1 338 5 is_stmt 1 view .LVU108
 512              	.LBB163:
 513              	.LBI163:
ARM GAS  /tmp/ccct6XWu.s 			page 10


 514              		.loc 5 531 20 view .LVU109
 515              	.LBE163:
 516              		.loc 5 533 3 view .LVU110
 517              	.LBB177:
 518              	.LBB164:
 519              	.LBI164:
 520              		.loc 2 393 20 view .LVU111
 521              	.LBB165:
 522              		.loc 2 395 3 view .LVU112
 523              	.LBB166:
 524              	.LBI166:
 525              		.loc 3 641 20 view .LVU113
 526              	.LBE166:
 527              	.LBE165:
 528              	.LBE164:
 529              	.LBE177:
 530              		.loc 3 643 3 view .LVU114
 531              	.LBB178:
 532              	.LBB175:
 533              	.LBB173:
 534              	.LBB171:
 535              	.LBB167:
 536              	.LBI167:
 537              		.loc 3 602 20 view .LVU115
 538              	.LBE167:
 539              	.LBE171:
 540              	.LBE173:
 541              	.LBE175:
 542              	.LBE178:
 543              		.loc 3 610 3 view .LVU116
 544              	.LVL24:
 545              	.LBB179:
 546              	.LBB176:
 547              	.LBB174:
 548              	.LBB172:
 549              	.LBB170:
 550              	.LBB168:
 551              	.LBI168:
 552              		.loc 4 491 27 view .LVU117
 553              	.LBB169:
 554              		.loc 4 493 3 view .LVU118
 555 0050 2023     		movs	r3, #32
 556              		.syntax unified
 557              	@ 493 "../../modules/ChibiOS/os/common/ext/ARM/CMSIS/Core/Include/cmsis_gcc.h" 1
 558 0052 83F31188 		MSR basepri, r3
 559              	@ 0 "" 2
 560              	.LVL25:
 561              		.loc 4 493 3 is_stmt 0 view .LVU119
 562              		.thumb
 563              		.syntax unified
 564              	.LBE169:
 565              	.LBE168:
 566              	.LBE170:
 567              	.LBE172:
 568              		.loc 2 396 3 is_stmt 1 view .LVU120
 569 0056 FFF7FEFF 		bl	_stats_start_measure_crit_isr
 570              	.LVL26:
ARM GAS  /tmp/ccct6XWu.s 			page 11


 571              		.loc 2 397 29 view .LVU121
 572              	.LBE174:
 573              	.LBE176:
 574              	.LBE179:
 575              		.loc 1 339 5 view .LVU122
 576              	.LBB180:
 577              	.LBI180:
 578              		.loc 5 892 20 view .LVU123
 579              	.LBB181:
 580              		.loc 5 895 3 view .LVU124
 581 005a 4FF40071 		mov	r1, #512
 582 005e 201D     		adds	r0, r4, #4
 583              	.LVL27:
 584              		.loc 5 895 3 is_stmt 0 view .LVU125
 585 0060 FFF7FEFF 		bl	chEvtBroadcastFlagsI
 586              	.LVL28:
 587              		.loc 5 895 3 view .LVU126
 588              	.LBE181:
 589              	.LBE180:
 590              		.loc 1 339 41 is_stmt 1 view .LVU127
 591              		.loc 1 340 5 view .LVU128
 592              	.LBB182:
 593              	.LBI182:
 594              		.loc 5 542 20 view .LVU129
 595              	.LBB183:
 596              		.loc 5 544 3 view .LVU130
 597 0064 FFF7FEFF 		bl	chSysUnlockFromISR
 598              	.LVL29:
 599              	.L29:
 600              		.loc 5 544 3 is_stmt 0 view .LVU131
 601              	.LBE183:
 602              	.LBE182:
 603              	.LBB184:
 604              	.LBB185:
 605              	.LBB186:
 606              	.LBB187:
 607              	.LBB188:
 608              	.LBB189:
 609              	.LBB190:
 610              		.loc 4 493 3 view .LVU132
 611 0068 2027     		movs	r7, #32
 612              	.L30:
 613              		.loc 4 493 3 view .LVU133
 614              	.LBE190:
 615              	.LBE189:
 616              	.LBE188:
 617              	.LBE187:
 618              	.LBE186:
 619              	.LBE185:
 620              	.LBE184:
 621              		.loc 1 348 9 is_stmt 1 view .LVU134
 622 006a A806     		lsls	r0, r5, #26
 623 006c 3BD4     		bmi	.L31
 624              		.loc 1 362 3 view .LVU135
 625              		.loc 1 362 6 is_stmt 0 view .LVU136
 626 006e 18F0800F 		tst	r8, #128
 627 0072 16D0     		beq	.L33
ARM GAS  /tmp/ccct6XWu.s 			page 12


 628              	.LBB204:
 629              	.LBB205:
 630              	.LBB206:
 631              	.LBB207:
 632              	.LBB208:
 633              	.LBB209:
 634              	.LBB210:
 635              	.LBB211:
 636              		.loc 4 493 3 view .LVU137
 637 0074 2027     		movs	r7, #32
 638              	.LBE211:
 639              	.LBE210:
 640              	.LBE209:
 641              	.LBE208:
 642              	.LBE207:
 643              	.LBE206:
 644              	.LBE205:
 645              		.loc 1 367 11 view .LVU138
 646 0076 04F13009 		add	r9, r4, #48
 647              	.L32:
 648              		.loc 1 367 11 view .LVU139
 649              	.LBE204:
 650              		.loc 1 363 11 is_stmt 1 view .LVU140
 651 007a 2906     		lsls	r1, r5, #24
 652 007c 11D5     		bpl	.L33
 653              	.LBB235:
 654              		.loc 1 364 7 view .LVU141
 655              		.loc 1 366 7 view .LVU142
 656              	.LBB225:
 657              	.LBI205:
 658              		.loc 5 531 20 view .LVU143
 659              	.LBE225:
 660              	.LBE235:
 661              		.loc 5 533 3 view .LVU144
 662              	.LBB236:
 663              	.LBB226:
 664              	.LBB222:
 665              	.LBI206:
 666              		.loc 2 393 20 view .LVU145
 667              	.LBB219:
 668              		.loc 2 395 3 view .LVU146
 669              	.LBB216:
 670              	.LBI208:
 671              		.loc 3 641 20 view .LVU147
 672              	.LBE216:
 673              	.LBE219:
 674              	.LBE222:
 675              	.LBE226:
 676              	.LBE236:
 677              		.loc 3 643 3 view .LVU148
 678              	.LBB237:
 679              	.LBB227:
 680              	.LBB223:
 681              	.LBB220:
 682              	.LBB217:
 683              	.LBB214:
 684              	.LBI209:
ARM GAS  /tmp/ccct6XWu.s 			page 13


 685              		.loc 3 602 20 view .LVU149
 686              	.LBE214:
 687              	.LBE217:
 688              	.LBE220:
 689              	.LBE223:
 690              	.LBE227:
 691              	.LBE237:
 692              		.loc 3 610 3 view .LVU150
 693              	.LVL30:
 694              	.LBB238:
 695              	.LBB228:
 696              	.LBB224:
 697              	.LBB221:
 698              	.LBB218:
 699              	.LBB215:
 700              	.LBB213:
 701              	.LBI210:
 702              		.loc 4 491 27 view .LVU151
 703              	.LBB212:
 704              		.loc 4 493 3 view .LVU152
 705              		.syntax unified
 706              	@ 493 "../../modules/ChibiOS/os/common/ext/ARM/CMSIS/Core/Include/cmsis_gcc.h" 1
 707 007e 87F31188 		MSR basepri, r7
 708              	@ 0 "" 2
 709              	.LVL31:
 710              		.loc 4 493 3 is_stmt 0 view .LVU153
 711              		.thumb
 712              		.syntax unified
 713              	.LBE212:
 714              	.LBE213:
 715              	.LBE215:
 716              	.LBE218:
 717              		.loc 2 396 3 is_stmt 1 view .LVU154
 718 0082 FFF7FEFF 		bl	_stats_start_measure_crit_isr
 719              	.LVL32:
 720              		.loc 2 397 29 view .LVU155
 721              	.LBE221:
 722              	.LBE224:
 723              	.LBE228:
 724              		.loc 1 367 7 view .LVU156
 725              		.loc 1 367 11 is_stmt 0 view .LVU157
 726 0086 4846     		mov	r0, r9
 727 0088 FFF7FEFF 		bl	oqGetI
 728              	.LVL33:
 729              		.loc 1 368 7 is_stmt 1 view .LVU158
 730              		.loc 1 368 10 is_stmt 0 view .LVU159
 731 008c 0028     		cmp	r0, #0
 732              		.loc 1 368 10 view .LVU160
 733 008e 39DA     		bge	.L34
 734              		.loc 1 369 9 is_stmt 1 view .LVU161
 735              	.LVL34:
 736              	.LBB229:
 737              	.LBI229:
 738              		.loc 5 892 20 view .LVU162
 739              	.LBB230:
 740              		.loc 5 895 3 view .LVU163
 741 0090 0821     		movs	r1, #8
ARM GAS  /tmp/ccct6XWu.s 			page 14


 742 0092 201D     		adds	r0, r4, #4
 743              	.LVL35:
 744              		.loc 5 895 3 is_stmt 0 view .LVU164
 745 0094 FFF7FEFF 		bl	chEvtBroadcastFlagsI
 746              	.LVL36:
 747              		.loc 5 895 3 view .LVU165
 748              	.LBE230:
 749              	.LBE229:
 750              		.loc 1 369 44 is_stmt 1 view .LVU166
 751              		.loc 1 370 9 view .LVU167
 752              		.loc 1 370 22 is_stmt 0 view .LVU168
 753 0098 28F08003 		bic	r3, r8, #128
 754              		.loc 1 370 16 view .LVU169
 755 009c 3360     		str	r3, [r6]
 756              		.loc 1 371 9 is_stmt 1 view .LVU170
 757              	.LBB231:
 758              	.LBI231:
 759              		.loc 5 542 20 view .LVU171
 760              	.LBB232:
 761              		.loc 5 544 3 view .LVU172
 762 009e FFF7FEFF 		bl	chSysUnlockFromISR
 763              	.LVL37:
 764              	.L33:
 765              		.loc 5 544 3 is_stmt 0 view .LVU173
 766              	.LBE232:
 767              	.LBE231:
 768              	.LBE238:
 769              		.loc 1 382 3 is_stmt 1 view .LVU174
 770              		.loc 1 382 6 is_stmt 0 view .LVU175
 771 00a2 18F0400F 		tst	r8, #64
 772 00a6 15D0     		beq	.L36
 773              		.loc 1 382 30 discriminator 1 view .LVU176
 774 00a8 6A06     		lsls	r2, r5, #25
 775 00aa 13D5     		bpl	.L36
 776              		.loc 1 383 5 is_stmt 1 view .LVU177
 777              	.LBB239:
 778              	.LBI239:
 779              		.loc 5 531 20 view .LVU178
 780              	.LBE239:
 781              		.loc 5 533 3 view .LVU179
 782              	.LBB253:
 783              	.LBB240:
 784              	.LBI240:
 785              		.loc 2 393 20 view .LVU180
 786              	.LBB241:
 787              		.loc 2 395 3 view .LVU181
 788              	.LBB242:
 789              	.LBI242:
 790              		.loc 3 641 20 view .LVU182
 791              	.LBE242:
 792              	.LBE241:
 793              	.LBE240:
 794              	.LBE253:
 795              		.loc 3 643 3 view .LVU183
 796              	.LBB254:
 797              	.LBB251:
 798              	.LBB249:
ARM GAS  /tmp/ccct6XWu.s 			page 15


 799              	.LBB247:
 800              	.LBB243:
 801              	.LBI243:
 802              		.loc 3 602 20 view .LVU184
 803              	.LBE243:
 804              	.LBE247:
 805              	.LBE249:
 806              	.LBE251:
 807              	.LBE254:
 808              		.loc 3 610 3 view .LVU185
 809              	.LVL38:
 810              	.LBB255:
 811              	.LBB252:
 812              	.LBB250:
 813              	.LBB248:
 814              	.LBB246:
 815              	.LBB244:
 816              	.LBI244:
 817              		.loc 4 491 27 view .LVU186
 818              	.LBB245:
 819              		.loc 4 493 3 view .LVU187
 820 00ac 2023     		movs	r3, #32
 821              		.syntax unified
 822              	@ 493 "../../modules/ChibiOS/os/common/ext/ARM/CMSIS/Core/Include/cmsis_gcc.h" 1
 823 00ae 83F31188 		MSR basepri, r3
 824              	@ 0 "" 2
 825              	.LVL39:
 826              		.loc 4 493 3 is_stmt 0 view .LVU188
 827              		.thumb
 828              		.syntax unified
 829              	.LBE245:
 830              	.LBE244:
 831              	.LBE246:
 832              	.LBE248:
 833              		.loc 2 396 3 is_stmt 1 view .LVU189
 834 00b2 FFF7FEFF 		bl	_stats_start_measure_crit_isr
 835              	.LVL40:
 836              		.loc 2 397 29 view .LVU190
 837              	.LBE250:
 838              	.LBE252:
 839              	.LBE255:
 840              		.loc 1 384 5 view .LVU191
 841              		.loc 1 384 9 is_stmt 0 view .LVU192
 842 00b6 D4E91123 		ldrd	r2, r3, [r4, #68]
 843 00ba 9A42     		cmp	r2, r3
 844 00bc 08D1     		bne	.L37
 845              		.loc 1 384 9 discriminator 1 view .LVU193
 846 00be A36B     		ldr	r3, [r4, #56]
 847 00c0 33B1     		cbz	r3, .L37
 848              		.loc 1 385 7 is_stmt 1 view .LVU194
 849              	.LVL41:
 850              	.LBB256:
 851              	.LBI256:
 852              		.loc 5 892 20 view .LVU195
 853              	.LBB257:
 854              		.loc 5 895 3 view .LVU196
 855 00c2 1021     		movs	r1, #16
ARM GAS  /tmp/ccct6XWu.s 			page 16


 856 00c4 201D     		adds	r0, r4, #4
 857              	.LVL42:
 858              		.loc 5 895 3 is_stmt 0 view .LVU197
 859 00c6 FFF7FEFF 		bl	chEvtBroadcastFlagsI
 860              	.LVL43:
 861              		.loc 5 895 3 view .LVU198
 862              	.LBE257:
 863              	.LBE256:
 864              		.loc 1 385 46 is_stmt 1 view .LVU199
 865              		.loc 1 386 7 view .LVU200
 866              		.loc 1 386 20 is_stmt 0 view .LVU201
 867 00ca 28F04003 		bic	r3, r8, #64
 868              		.loc 1 386 14 view .LVU202
 869 00ce 3360     		str	r3, [r6]
 870              	.L37:
 871              		.loc 1 388 5 is_stmt 1 view .LVU203
 872              	.LBB258:
 873              	.LBI258:
 874              		.loc 5 542 20 view .LVU204
 875              	.LBB259:
 876              		.loc 5 544 3 view .LVU205
 877 00d0 FFF7FEFF 		bl	chSysUnlockFromISR
 878              	.LVL44:
 879              	.L36:
 880              		.loc 5 544 3 is_stmt 0 view .LVU206
 881              	.LBE259:
 882              	.LBE258:
 883              		.loc 1 391 3 is_stmt 1 view .LVU207
 884              		.loc 1 391 6 is_stmt 0 view .LVU208
 885 00d4 EB06     		lsls	r3, r5, #27
 886 00d6 1AD5     		bpl	.L23
 887              		.loc 1 392 5 is_stmt 1 view .LVU209
 888 00d8 226E     		ldr	r2, [r4, #96]
 889 00da 1369     		ldr	r3, [r2, #16]
 890 00dc BBB1     		cbz	r3, .L23
 891              		.loc 1 392 5 discriminator 1 view .LVU210
 892 00de 5069     		ldr	r0, [r2, #20]
 893              		.loc 1 394 1 is_stmt 0 discriminator 1 view .LVU211
 894 00e0 BDE8F047 		pop	{r4, r5, r6, r7, r8, r9, r10, lr}
 895              		.cfi_remember_state
 896              		.cfi_restore 14
 897              		.cfi_restore 10
 898              		.cfi_restore 9
 899              		.cfi_restore 8
 900              		.cfi_restore 7
 901              		.cfi_restore 6
 902              		.cfi_restore 5
 903              		.cfi_restore 4
 904              		.cfi_def_cfa_offset 0
 905              	.LVL45:
 906              		.loc 1 392 5 discriminator 1 view .LVU212
 907 00e4 1847     		bx	r3	@ indirect register sibling call
 908              	.LVL46:
 909              	.L31:
 910              		.cfi_restore_state
 911              		.loc 1 349 5 is_stmt 1 view .LVU213
 912              	.LBB260:
ARM GAS  /tmp/ccct6XWu.s 			page 17


 913              	.LBI184:
 914              		.loc 5 531 20 view .LVU214
 915              	.LBE260:
 916              		.loc 5 533 3 view .LVU215
 917              	.LBB261:
 918              	.LBB201:
 919              	.LBI185:
 920              		.loc 2 393 20 view .LVU216
 921              	.LBB198:
 922              		.loc 2 395 3 view .LVU217
 923              	.LBB195:
 924              	.LBI187:
 925              		.loc 3 641 20 view .LVU218
 926              	.LBE195:
 927              	.LBE198:
 928              	.LBE201:
 929              	.LBE261:
 930              		.loc 3 643 3 view .LVU219
 931              	.LBB262:
 932              	.LBB202:
 933              	.LBB199:
 934              	.LBB196:
 935              	.LBB193:
 936              	.LBI188:
 937              		.loc 3 602 20 view .LVU220
 938              	.LBE193:
 939              	.LBE196:
 940              	.LBE199:
 941              	.LBE202:
 942              	.LBE262:
 943              		.loc 3 610 3 view .LVU221
 944              	.LBB263:
 945              	.LBB203:
 946              	.LBB200:
 947              	.LBB197:
 948              	.LBB194:
 949              	.LBB192:
 950              	.LBI189:
 951              		.loc 4 491 27 view .LVU222
 952              	.LBB191:
 953              		.loc 4 493 3 view .LVU223
 954              		.syntax unified
 955              	@ 493 "../../modules/ChibiOS/os/common/ext/ARM/CMSIS/Core/Include/cmsis_gcc.h" 1
 956 00e6 87F31188 		MSR basepri, r7
 957              	@ 0 "" 2
 958              	.LVL47:
 959              		.loc 4 493 3 is_stmt 0 view .LVU224
 960              		.thumb
 961              		.syntax unified
 962              	.LBE191:
 963              	.LBE192:
 964              	.LBE194:
 965              	.LBE197:
 966              		.loc 2 396 3 is_stmt 1 view .LVU225
 967 00ea FFF7FEFF 		bl	_stats_start_measure_crit_isr
 968              	.LVL48:
 969              		.loc 2 397 29 view .LVU226
ARM GAS  /tmp/ccct6XWu.s 			page 18


 970              	.LBE200:
 971              	.LBE203:
 972              	.LBE263:
 973              		.loc 1 350 5 view .LVU227
 974              		.loc 1 350 36 is_stmt 0 view .LVU228
 975 00ee 736A     		ldr	r3, [r6, #36]
 976              		.loc 1 350 5 view .LVU229
 977 00f0 94F85C10 		ldrb	r1, [r4, #92]	@ zero_extendqisi2
 978 00f4 2046     		mov	r0, r4
 979 00f6 1940     		ands	r1, r1, r3
 980 00f8 FFF7FEFF 		bl	sdIncomingDataI
 981              	.LVL49:
 982              		.loc 1 351 5 is_stmt 1 view .LVU230
 983              	.LBB264:
 984              	.LBI264:
 985              		.loc 5 542 20 view .LVU231
 986              	.LBB265:
 987              		.loc 5 544 3 view .LVU232
 988 00fc FFF7FEFF 		bl	chSysUnlockFromISR
 989              	.LVL50:
 990              	.LBE265:
 991              	.LBE264:
 992              		.loc 1 353 5 view .LVU233
 993              		.loc 1 353 9 is_stmt 0 view .LVU234
 994 0100 F569     		ldr	r5, [r6, #28]
 995              	.LVL51:
 996              		.loc 1 353 9 view .LVU235
 997 0102 B2E7     		b	.L30
 998              	.LVL52:
 999              	.L34:
 1000              	.LBB266:
 1001              		.loc 1 374 7 is_stmt 1 view .LVU236
 1002              		.loc 1 374 14 is_stmt 0 view .LVU237
 1003 0104 B062     		str	r0, [r6, #40]
 1004              		.loc 1 375 7 is_stmt 1 view .LVU238
 1005              	.LBB233:
 1006              	.LBI233:
 1007              		.loc 5 542 20 view .LVU239
 1008              	.LBB234:
 1009              		.loc 5 544 3 view .LVU240
 1010 0106 FFF7FEFF 		bl	chSysUnlockFromISR
 1011              	.LVL53:
 1012              		.loc 5 544 3 is_stmt 0 view .LVU241
 1013              	.LBE234:
 1014              	.LBE233:
 1015              		.loc 1 377 7 is_stmt 1 view .LVU242
 1016              		.loc 1 377 11 is_stmt 0 view .LVU243
 1017 010a F569     		ldr	r5, [r6, #28]
 1018              	.LVL54:
 1019              		.loc 1 377 11 view .LVU244
 1020 010c B5E7     		b	.L32
 1021              	.L23:
 1022              		.loc 1 377 11 view .LVU245
 1023              	.LBE266:
 1024              		.loc 1 394 1 view .LVU246
 1025 010e BDE8F087 		pop	{r4, r5, r6, r7, r8, r9, r10, pc}
 1026              		.loc 1 394 1 view .LVU247
ARM GAS  /tmp/ccct6XWu.s 			page 19


 1027              		.cfi_endproc
 1028              	.LFE337:
 1029              		.size	serve_interrupt, .-serve_interrupt
 1030              		.section	.text.VectorD4,"ax",%progbits
 1031              		.align	1
 1032              		.global	VectorD4
 1033              		.syntax unified
 1034              		.thumb
 1035              		.thumb_func
 1036              		.fpu fpv4-sp-d16
 1037              		.type	VectorD4, %function
 1038              	VectorD4:
 1039              	.LFB345:
 1040              		.loc 1 481 40 is_stmt 1 view -0
 1041              		.cfi_startproc
 1042              		@ args = 0, pretend = 0, frame = 0
 1043              		@ frame_needed = 0, uses_anonymous_args = 0
 1044              		.loc 1 483 3 view .LVU249
 1045              		.loc 1 483 3 view .LVU250
 1046              		.loc 1 483 3 view .LVU251
 1047              		.loc 1 483 3 view .LVU252
 1048              		.loc 1 481 40 is_stmt 0 view .LVU253
 1049 0000 08B5     		push	{r3, lr}
 1050              		.cfi_def_cfa_offset 8
 1051              		.cfi_offset 3, -8
 1052              		.cfi_offset 14, -4
 1053              		.loc 1 483 3 view .LVU254
 1054 0002 FFF7FEFF 		bl	_stats_increase_irq
 1055              	.LVL55:
 1056              		.loc 1 483 3 is_stmt 1 view .LVU255
 1057              		.loc 1 483 22 view .LVU256
 1058              		.loc 1 485 3 view .LVU257
 1059 0006 0348     		ldr	r0, .L73
 1060 0008 FFF7FEFF 		bl	serve_interrupt
 1061              	.LVL56:
 1062              		.loc 1 487 3 view .LVU258
 1063              		.loc 1 487 3 view .LVU259
 1064              		.loc 1 487 3 view .LVU260
 1065              		.loc 1 487 3 view .LVU261
 1066              		.loc 1 487 3 view .LVU262
 1067              		.loc 1 488 1 is_stmt 0 view .LVU263
 1068 000c BDE80840 		pop	{r3, lr}
 1069              		.cfi_restore 14
 1070              		.cfi_restore 3
 1071              		.cfi_def_cfa_offset 0
 1072              		.loc 1 487 3 view .LVU264
 1073 0010 FFF7FEBF 		b	_port_irq_epilogue
 1074              	.LVL57:
 1075              	.L74:
 1076              		.align	2
 1077              	.L73:
 1078 0014 00000000 		.word	.LANCHOR0
 1079              		.cfi_endproc
 1080              	.LFE345:
 1081              		.size	VectorD4, .-VectorD4
 1082              		.section	.text.VectorD8,"ax",%progbits
 1083              		.align	1
ARM GAS  /tmp/ccct6XWu.s 			page 20


 1084              		.global	VectorD8
 1085              		.syntax unified
 1086              		.thumb
 1087              		.thumb_func
 1088              		.fpu fpv4-sp-d16
 1089              		.type	VectorD8, %function
 1090              	VectorD8:
 1091              	.LFB346:
 1092              		.loc 1 500 40 is_stmt 1 view -0
 1093              		.cfi_startproc
 1094              		@ args = 0, pretend = 0, frame = 0
 1095              		@ frame_needed = 0, uses_anonymous_args = 0
 1096              		.loc 1 502 3 view .LVU266
 1097              		.loc 1 502 3 view .LVU267
 1098              		.loc 1 502 3 view .LVU268
 1099              		.loc 1 502 3 view .LVU269
 1100              		.loc 1 500 40 is_stmt 0 view .LVU270
 1101 0000 08B5     		push	{r3, lr}
 1102              		.cfi_def_cfa_offset 8
 1103              		.cfi_offset 3, -8
 1104              		.cfi_offset 14, -4
 1105              		.loc 1 502 3 view .LVU271
 1106 0002 FFF7FEFF 		bl	_stats_increase_irq
 1107              	.LVL58:
 1108              		.loc 1 502 3 is_stmt 1 view .LVU272
 1109              		.loc 1 502 22 view .LVU273
 1110              		.loc 1 504 3 view .LVU274
 1111 0006 0348     		ldr	r0, .L76
 1112 0008 FFF7FEFF 		bl	serve_interrupt
 1113              	.LVL59:
 1114              		.loc 1 506 3 view .LVU275
 1115              		.loc 1 506 3 view .LVU276
 1116              		.loc 1 506 3 view .LVU277
 1117              		.loc 1 506 3 view .LVU278
 1118              		.loc 1 506 3 view .LVU279
 1119              		.loc 1 507 1 is_stmt 0 view .LVU280
 1120 000c BDE80840 		pop	{r3, lr}
 1121              		.cfi_restore 14
 1122              		.cfi_restore 3
 1123              		.cfi_def_cfa_offset 0
 1124              		.loc 1 506 3 view .LVU281
 1125 0010 FFF7FEBF 		b	_port_irq_epilogue
 1126              	.LVL60:
 1127              	.L77:
 1128              		.align	2
 1129              	.L76:
 1130 0014 00000000 		.word	.LANCHOR1
 1131              		.cfi_endproc
 1132              	.LFE346:
 1133              		.size	VectorD8, .-VectorD8
 1134              		.section	.text.VectorDC,"ax",%progbits
 1135              		.align	1
 1136              		.global	VectorDC
 1137              		.syntax unified
 1138              		.thumb
 1139              		.thumb_func
 1140              		.fpu fpv4-sp-d16
ARM GAS  /tmp/ccct6XWu.s 			page 21


 1141              		.type	VectorDC, %function
 1142              	VectorDC:
 1143              	.LFB347:
 1144              		.loc 1 557 40 is_stmt 1 view -0
 1145              		.cfi_startproc
 1146              		@ args = 0, pretend = 0, frame = 0
 1147              		@ frame_needed = 0, uses_anonymous_args = 0
 1148              		.loc 1 559 3 view .LVU283
 1149              		.loc 1 559 3 view .LVU284
 1150              		.loc 1 559 3 view .LVU285
 1151              		.loc 1 559 3 view .LVU286
 1152              		.loc 1 557 40 is_stmt 0 view .LVU287
 1153 0000 08B5     		push	{r3, lr}
 1154              		.cfi_def_cfa_offset 8
 1155              		.cfi_offset 3, -8
 1156              		.cfi_offset 14, -4
 1157              		.loc 1 559 3 view .LVU288
 1158 0002 FFF7FEFF 		bl	_stats_increase_irq
 1159              	.LVL61:
 1160              		.loc 1 559 3 is_stmt 1 view .LVU289
 1161              		.loc 1 559 22 view .LVU290
 1162              		.loc 1 561 3 view .LVU291
 1163 0006 0348     		ldr	r0, .L79
 1164 0008 FFF7FEFF 		bl	serve_interrupt
 1165              	.LVL62:
 1166              		.loc 1 563 3 view .LVU292
 1167              		.loc 1 563 3 view .LVU293
 1168              		.loc 1 563 3 view .LVU294
 1169              		.loc 1 563 3 view .LVU295
 1170              		.loc 1 563 3 view .LVU296
 1171              		.loc 1 564 1 is_stmt 0 view .LVU297
 1172 000c BDE80840 		pop	{r3, lr}
 1173              		.cfi_restore 14
 1174              		.cfi_restore 3
 1175              		.cfi_def_cfa_offset 0
 1176              		.loc 1 563 3 view .LVU298
 1177 0010 FFF7FEBF 		b	_port_irq_epilogue
 1178              	.LVL63:
 1179              	.L80:
 1180              		.align	2
 1181              	.L79:
 1182 0014 00000000 		.word	.LANCHOR2
 1183              		.cfi_endproc
 1184              	.LFE347:
 1185              		.size	VectorDC, .-VectorDC
 1186              		.section	.text.Vector110,"ax",%progbits
 1187              		.align	1
 1188              		.global	Vector110
 1189              		.syntax unified
 1190              		.thumb
 1191              		.thumb_func
 1192              		.fpu fpv4-sp-d16
 1193              		.type	Vector110, %function
 1194              	Vector110:
 1195              	.LFB348:
 1196              		.loc 1 576 39 is_stmt 1 view -0
 1197              		.cfi_startproc
ARM GAS  /tmp/ccct6XWu.s 			page 22


 1198              		@ args = 0, pretend = 0, frame = 0
 1199              		@ frame_needed = 0, uses_anonymous_args = 0
 1200              		.loc 1 578 3 view .LVU300
 1201              		.loc 1 578 3 view .LVU301
 1202              		.loc 1 578 3 view .LVU302
 1203              		.loc 1 578 3 view .LVU303
 1204              		.loc 1 576 39 is_stmt 0 view .LVU304
 1205 0000 08B5     		push	{r3, lr}
 1206              		.cfi_def_cfa_offset 8
 1207              		.cfi_offset 3, -8
 1208              		.cfi_offset 14, -4
 1209              		.loc 1 578 3 view .LVU305
 1210 0002 FFF7FEFF 		bl	_stats_increase_irq
 1211              	.LVL64:
 1212              		.loc 1 578 3 is_stmt 1 view .LVU306
 1213              		.loc 1 578 22 view .LVU307
 1214              		.loc 1 580 3 view .LVU308
 1215 0006 0348     		ldr	r0, .L82
 1216 0008 FFF7FEFF 		bl	serve_interrupt
 1217              	.LVL65:
 1218              		.loc 1 582 3 view .LVU309
 1219              		.loc 1 582 3 view .LVU310
 1220              		.loc 1 582 3 view .LVU311
 1221              		.loc 1 582 3 view .LVU312
 1222              		.loc 1 582 3 view .LVU313
 1223              		.loc 1 583 1 is_stmt 0 view .LVU314
 1224 000c BDE80840 		pop	{r3, lr}
 1225              		.cfi_restore 14
 1226              		.cfi_restore 3
 1227              		.cfi_def_cfa_offset 0
 1228              		.loc 1 582 3 view .LVU315
 1229 0010 FFF7FEBF 		b	_port_irq_epilogue
 1230              	.LVL66:
 1231              	.L83:
 1232              		.align	2
 1233              	.L82:
 1234 0014 00000000 		.word	.LANCHOR3
 1235              		.cfi_endproc
 1236              	.LFE348:
 1237              		.size	Vector110, .-Vector110
 1238              		.section	.text.Vector15C,"ax",%progbits
 1239              		.align	1
 1240              		.global	Vector15C
 1241              		.syntax unified
 1242              		.thumb
 1243              		.thumb_func
 1244              		.fpu fpv4-sp-d16
 1245              		.type	Vector15C, %function
 1246              	Vector15C:
 1247              	.LFB349:
 1248              		.loc 1 614 40 is_stmt 1 view -0
 1249              		.cfi_startproc
 1250              		@ args = 0, pretend = 0, frame = 0
 1251              		@ frame_needed = 0, uses_anonymous_args = 0
 1252              		.loc 1 616 3 view .LVU317
 1253              		.loc 1 616 3 view .LVU318
 1254              		.loc 1 616 3 view .LVU319
ARM GAS  /tmp/ccct6XWu.s 			page 23


 1255              		.loc 1 616 3 view .LVU320
 1256              		.loc 1 614 40 is_stmt 0 view .LVU321
 1257 0000 08B5     		push	{r3, lr}
 1258              		.cfi_def_cfa_offset 8
 1259              		.cfi_offset 3, -8
 1260              		.cfi_offset 14, -4
 1261              		.loc 1 616 3 view .LVU322
 1262 0002 FFF7FEFF 		bl	_stats_increase_irq
 1263              	.LVL67:
 1264              		.loc 1 616 3 is_stmt 1 view .LVU323
 1265              		.loc 1 616 22 view .LVU324
 1266              		.loc 1 618 3 view .LVU325
 1267 0006 0348     		ldr	r0, .L85
 1268 0008 FFF7FEFF 		bl	serve_interrupt
 1269              	.LVL68:
 1270              		.loc 1 620 3 view .LVU326
 1271              		.loc 1 620 3 view .LVU327
 1272              		.loc 1 620 3 view .LVU328
 1273              		.loc 1 620 3 view .LVU329
 1274              		.loc 1 620 3 view .LVU330
 1275              		.loc 1 621 1 is_stmt 0 view .LVU331
 1276 000c BDE80840 		pop	{r3, lr}
 1277              		.cfi_restore 14
 1278              		.cfi_restore 3
 1279              		.cfi_def_cfa_offset 0
 1280              		.loc 1 620 3 view .LVU332
 1281 0010 FFF7FEBF 		b	_port_irq_epilogue
 1282              	.LVL69:
 1283              	.L86:
 1284              		.align	2
 1285              	.L85:
 1286 0014 00000000 		.word	.LANCHOR4
 1287              		.cfi_endproc
 1288              	.LFE349:
 1289              		.size	Vector15C, .-Vector15C
 1290              		.section	.text.Vector188,"ax",%progbits
 1291              		.align	1
 1292              		.global	Vector188
 1293              		.syntax unified
 1294              		.thumb
 1295              		.thumb_func
 1296              		.fpu fpv4-sp-d16
 1297              		.type	Vector188, %function
 1298              	Vector188:
 1299              	.LFB350:
 1300              		.loc 1 633 39 is_stmt 1 view -0
 1301              		.cfi_startproc
 1302              		@ args = 0, pretend = 0, frame = 0
 1303              		@ frame_needed = 0, uses_anonymous_args = 0
 1304              		.loc 1 635 3 view .LVU334
 1305              		.loc 1 635 3 view .LVU335
 1306              		.loc 1 635 3 view .LVU336
 1307              		.loc 1 635 3 view .LVU337
 1308              		.loc 1 633 39 is_stmt 0 view .LVU338
 1309 0000 08B5     		push	{r3, lr}
 1310              		.cfi_def_cfa_offset 8
 1311              		.cfi_offset 3, -8
ARM GAS  /tmp/ccct6XWu.s 			page 24


 1312              		.cfi_offset 14, -4
 1313              		.loc 1 635 3 view .LVU339
 1314 0002 FFF7FEFF 		bl	_stats_increase_irq
 1315              	.LVL70:
 1316              		.loc 1 635 3 is_stmt 1 view .LVU340
 1317              		.loc 1 635 22 view .LVU341
 1318              		.loc 1 637 3 view .LVU342
 1319 0006 0348     		ldr	r0, .L88
 1320 0008 FFF7FEFF 		bl	serve_interrupt
 1321              	.LVL71:
 1322              		.loc 1 639 3 view .LVU343
 1323              		.loc 1 639 3 view .LVU344
 1324              		.loc 1 639 3 view .LVU345
 1325              		.loc 1 639 3 view .LVU346
 1326              		.loc 1 639 3 view .LVU347
 1327              		.loc 1 640 1 is_stmt 0 view .LVU348
 1328 000c BDE80840 		pop	{r3, lr}
 1329              		.cfi_restore 14
 1330              		.cfi_restore 3
 1331              		.cfi_def_cfa_offset 0
 1332              		.loc 1 639 3 view .LVU349
 1333 0010 FFF7FEBF 		b	_port_irq_epilogue
 1334              	.LVL72:
 1335              	.L89:
 1336              		.align	2
 1337              	.L88:
 1338 0014 00000000 		.word	.LANCHOR5
 1339              		.cfi_endproc
 1340              	.LFE350:
 1341              		.size	Vector188, .-Vector188
 1342              		.section	.text.Vector18C,"ax",%progbits
 1343              		.align	1
 1344              		.global	Vector18C
 1345              		.syntax unified
 1346              		.thumb
 1347              		.thumb_func
 1348              		.fpu fpv4-sp-d16
 1349              		.type	Vector18C, %function
 1350              	Vector18C:
 1351              	.LFB351:
 1352              		.loc 1 652 39 is_stmt 1 view -0
 1353              		.cfi_startproc
 1354              		@ args = 0, pretend = 0, frame = 0
 1355              		@ frame_needed = 0, uses_anonymous_args = 0
 1356              		.loc 1 654 3 view .LVU351
 1357              		.loc 1 654 3 view .LVU352
 1358              		.loc 1 654 3 view .LVU353
 1359              		.loc 1 654 3 view .LVU354
 1360              		.loc 1 652 39 is_stmt 0 view .LVU355
 1361 0000 08B5     		push	{r3, lr}
 1362              		.cfi_def_cfa_offset 8
 1363              		.cfi_offset 3, -8
 1364              		.cfi_offset 14, -4
 1365              		.loc 1 654 3 view .LVU356
 1366 0002 FFF7FEFF 		bl	_stats_increase_irq
 1367              	.LVL73:
 1368              		.loc 1 654 3 is_stmt 1 view .LVU357
ARM GAS  /tmp/ccct6XWu.s 			page 25


 1369              		.loc 1 654 22 view .LVU358
 1370              		.loc 1 656 3 view .LVU359
 1371 0006 0348     		ldr	r0, .L91
 1372 0008 FFF7FEFF 		bl	serve_interrupt
 1373              	.LVL74:
 1374              		.loc 1 658 3 view .LVU360
 1375              		.loc 1 658 3 view .LVU361
 1376              		.loc 1 658 3 view .LVU362
 1377              		.loc 1 658 3 view .LVU363
 1378              		.loc 1 658 3 view .LVU364
 1379              		.loc 1 659 1 is_stmt 0 view .LVU365
 1380 000c BDE80840 		pop	{r3, lr}
 1381              		.cfi_restore 14
 1382              		.cfi_restore 3
 1383              		.cfi_def_cfa_offset 0
 1384              		.loc 1 658 3 view .LVU366
 1385 0010 FFF7FEBF 		b	_port_irq_epilogue
 1386              	.LVL75:
 1387              	.L92:
 1388              		.align	2
 1389              	.L91:
 1390 0014 00000000 		.word	.LANCHOR6
 1391              		.cfi_endproc
 1392              	.LFE351:
 1393              		.size	Vector18C, .-Vector18C
 1394              		.section	.text.sd_lld_init,"ax",%progbits
 1395              		.align	1
 1396              		.global	sd_lld_init
 1397              		.syntax unified
 1398              		.thumb
 1399              		.thumb_func
 1400              		.fpu fpv4-sp-d16
 1401              		.type	sd_lld_init, %function
 1402              	sd_lld_init:
 1403              	.LFB352:
 1404              		.loc 1 692 24 is_stmt 1 view -0
 1405              		.cfi_startproc
 1406              		@ args = 0, pretend = 0, frame = 0
 1407              		@ frame_needed = 0, uses_anonymous_args = 0
 1408              		.loc 1 695 3 view .LVU368
 1409              		.loc 1 692 24 is_stmt 0 view .LVU369
 1410 0000 73B5     		push	{r0, r1, r4, r5, r6, lr}
 1411              		.cfi_def_cfa_offset 24
 1412              		.cfi_offset 4, -16
 1413              		.cfi_offset 5, -12
 1414              		.cfi_offset 6, -8
 1415              		.cfi_offset 14, -4
 1416              		.loc 1 695 3 view .LVU370
 1417 0002 684C     		ldr	r4, .L94
 1418              		.loc 1 699 13 view .LVU371
 1419 0004 684E     		ldr	r6, .L94+4
 1420              		.loc 1 695 3 view .LVU372
 1421 0006 2046     		mov	r0, r4
 1422              		.loc 1 710 13 view .LVU373
 1423 0008 684D     		ldr	r5, .L94+8
 1424              		.loc 1 695 3 view .LVU374
 1425 000a FFF7FEFF 		bl	sdObjectInit
ARM GAS  /tmp/ccct6XWu.s 			page 26


 1426              	.LVL76:
 1427              		.loc 1 696 3 is_stmt 1 view .LVU375
 1428 000e 04F10C00 		add	r0, r4, #12
 1429 0012 0094     		str	r4, [sp]
 1430 0014 0023     		movs	r3, #0
 1431 0016 4FF40072 		mov	r2, #512
 1432 001a 6549     		ldr	r1, .L94+12
 1433 001c FFF7FEFF 		bl	iqObjectInit
 1434              	.LVL77:
 1435              		.loc 1 697 3 view .LVU376
 1436 0020 4FF40072 		mov	r2, #512
 1437 0024 04F13000 		add	r0, r4, #48
 1438 0028 0094     		str	r4, [sp]
 1439 002a 624B     		ldr	r3, .L94+16
 1440 002c 6249     		ldr	r1, .L94+20
 1441 002e FFF7FEFF 		bl	oqObjectInit
 1442              	.LVL78:
 1443              		.loc 1 698 3 view .LVU377
 1444              		.loc 1 699 13 is_stmt 0 view .LVU378
 1445 0032 624B     		ldr	r3, .L94+24
 1446              		.loc 1 701 3 view .LVU379
 1447 0034 0B21     		movs	r1, #11
 1448 0036 2520     		movs	r0, #37
 1449              		.loc 1 699 13 view .LVU380
 1450 0038 C4E91536 		strd	r3, r6, [r4, #84]
 1451              		.loc 1 701 3 is_stmt 1 view .LVU381
 1452              		.loc 1 706 3 is_stmt 0 view .LVU382
 1453 003c 604C     		ldr	r4, .L94+28
 1454              		.loc 1 701 3 view .LVU383
 1455 003e FFF7FEFF 		bl	nvicEnableVector
 1456              	.LVL79:
 1457              		.loc 1 706 3 is_stmt 1 view .LVU384
 1458 0042 2046     		mov	r0, r4
 1459 0044 FFF7FEFF 		bl	sdObjectInit
 1460              	.LVL80:
 1461              		.loc 1 707 3 view .LVU385
 1462 0048 04F10C00 		add	r0, r4, #12
 1463 004c 0094     		str	r4, [sp]
 1464 004e 0023     		movs	r3, #0
 1465 0050 4FF40072 		mov	r2, #512
 1466 0054 5B49     		ldr	r1, .L94+32
 1467 0056 FFF7FEFF 		bl	iqObjectInit
 1468              	.LVL81:
 1469              		.loc 1 708 3 view .LVU386
 1470 005a 4FF40072 		mov	r2, #512
 1471 005e 04F13000 		add	r0, r4, #48
 1472 0062 0094     		str	r4, [sp]
 1473 0064 584B     		ldr	r3, .L94+36
 1474 0066 5949     		ldr	r1, .L94+40
 1475 0068 FFF7FEFF 		bl	oqObjectInit
 1476              	.LVL82:
 1477              		.loc 1 709 3 view .LVU387
 1478              		.loc 1 710 13 is_stmt 0 view .LVU388
 1479 006c 584B     		ldr	r3, .L94+44
 1480              		.loc 1 712 3 view .LVU389
 1481 006e 0B21     		movs	r1, #11
 1482 0070 2620     		movs	r0, #38
ARM GAS  /tmp/ccct6XWu.s 			page 27


 1483              		.loc 1 710 13 view .LVU390
 1484 0072 C4E91535 		strd	r3, r5, [r4, #84]
 1485              		.loc 1 712 3 is_stmt 1 view .LVU391
 1486              		.loc 1 717 3 is_stmt 0 view .LVU392
 1487 0076 574C     		ldr	r4, .L94+48
 1488              		.loc 1 712 3 view .LVU393
 1489 0078 FFF7FEFF 		bl	nvicEnableVector
 1490              	.LVL83:
 1491              		.loc 1 717 3 is_stmt 1 view .LVU394
 1492 007c 2046     		mov	r0, r4
 1493 007e FFF7FEFF 		bl	sdObjectInit
 1494              	.LVL84:
 1495              		.loc 1 718 3 view .LVU395
 1496 0082 04F10C00 		add	r0, r4, #12
 1497 0086 0094     		str	r4, [sp]
 1498 0088 0023     		movs	r3, #0
 1499 008a 4FF40072 		mov	r2, #512
 1500 008e 5249     		ldr	r1, .L94+52
 1501 0090 FFF7FEFF 		bl	iqObjectInit
 1502              	.LVL85:
 1503              		.loc 1 719 3 view .LVU396
 1504 0094 4FF40072 		mov	r2, #512
 1505 0098 04F13000 		add	r0, r4, #48
 1506 009c 0094     		str	r4, [sp]
 1507 009e 4F4B     		ldr	r3, .L94+56
 1508 00a0 4F49     		ldr	r1, .L94+60
 1509 00a2 FFF7FEFF 		bl	oqObjectInit
 1510              	.LVL86:
 1511              		.loc 1 720 3 view .LVU397
 1512              		.loc 1 720 13 is_stmt 0 view .LVU398
 1513 00a6 4F4B     		ldr	r3, .L94+64
 1514              		.loc 1 723 3 view .LVU399
 1515 00a8 0B21     		movs	r1, #11
 1516 00aa 2720     		movs	r0, #39
 1517              		.loc 1 721 13 view .LVU400
 1518 00ac C4E91535 		strd	r3, r5, [r4, #84]
 1519              		.loc 1 723 3 is_stmt 1 view .LVU401
 1520              		.loc 1 728 3 is_stmt 0 view .LVU402
 1521 00b0 4D4C     		ldr	r4, .L94+68
 1522              		.loc 1 723 3 view .LVU403
 1523 00b2 FFF7FEFF 		bl	nvicEnableVector
 1524              	.LVL87:
 1525              		.loc 1 728 3 is_stmt 1 view .LVU404
 1526 00b6 2046     		mov	r0, r4
 1527 00b8 FFF7FEFF 		bl	sdObjectInit
 1528              	.LVL88:
 1529              		.loc 1 729 3 view .LVU405
 1530 00bc 04F10C00 		add	r0, r4, #12
 1531 00c0 0094     		str	r4, [sp]
 1532 00c2 0023     		movs	r3, #0
 1533 00c4 4FF40072 		mov	r2, #512
 1534 00c8 4849     		ldr	r1, .L94+72
 1535 00ca FFF7FEFF 		bl	iqObjectInit
 1536              	.LVL89:
 1537              		.loc 1 730 3 view .LVU406
 1538 00ce 4FF40072 		mov	r2, #512
 1539 00d2 04F13000 		add	r0, r4, #48
ARM GAS  /tmp/ccct6XWu.s 			page 28


 1540 00d6 0094     		str	r4, [sp]
 1541 00d8 454B     		ldr	r3, .L94+76
 1542 00da 4649     		ldr	r1, .L94+80
 1543 00dc FFF7FEFF 		bl	oqObjectInit
 1544              	.LVL90:
 1545              		.loc 1 731 3 view .LVU407
 1546              		.loc 1 731 13 is_stmt 0 view .LVU408
 1547 00e0 454B     		ldr	r3, .L94+84
 1548              		.loc 1 734 3 view .LVU409
 1549 00e2 0B21     		movs	r1, #11
 1550 00e4 3420     		movs	r0, #52
 1551              		.loc 1 732 13 view .LVU410
 1552 00e6 C4E91535 		strd	r3, r5, [r4, #84]
 1553              		.loc 1 734 3 is_stmt 1 view .LVU411
 1554              		.loc 1 750 3 is_stmt 0 view .LVU412
 1555 00ea 444C     		ldr	r4, .L94+88
 1556              		.loc 1 734 3 view .LVU413
 1557 00ec FFF7FEFF 		bl	nvicEnableVector
 1558              	.LVL91:
 1559              		.loc 1 750 3 is_stmt 1 view .LVU414
 1560 00f0 2046     		mov	r0, r4
 1561 00f2 FFF7FEFF 		bl	sdObjectInit
 1562              	.LVL92:
 1563              		.loc 1 751 3 view .LVU415
 1564 00f6 04F10C00 		add	r0, r4, #12
 1565 00fa 0094     		str	r4, [sp]
 1566 00fc 0023     		movs	r3, #0
 1567 00fe 4FF40072 		mov	r2, #512
 1568 0102 3F49     		ldr	r1, .L94+92
 1569 0104 FFF7FEFF 		bl	iqObjectInit
 1570              	.LVL93:
 1571              		.loc 1 752 3 view .LVU416
 1572 0108 4FF40072 		mov	r2, #512
 1573 010c 04F13000 		add	r0, r4, #48
 1574 0110 0094     		str	r4, [sp]
 1575 0112 3C4B     		ldr	r3, .L94+96
 1576 0114 3C49     		ldr	r1, .L94+100
 1577 0116 FFF7FEFF 		bl	oqObjectInit
 1578              	.LVL94:
 1579              		.loc 1 753 3 view .LVU417
 1580              		.loc 1 753 13 is_stmt 0 view .LVU418
 1581 011a 3C4B     		ldr	r3, .L94+104
 1582              		.loc 1 756 3 view .LVU419
 1583 011c 0B21     		movs	r1, #11
 1584 011e 4720     		movs	r0, #71
 1585              		.loc 1 754 13 view .LVU420
 1586 0120 C4E91536 		strd	r3, r6, [r4, #84]
 1587              		.loc 1 756 3 is_stmt 1 view .LVU421
 1588              		.loc 1 761 3 is_stmt 0 view .LVU422
 1589 0124 3A4C     		ldr	r4, .L94+108
 1590              		.loc 1 756 3 view .LVU423
 1591 0126 FFF7FEFF 		bl	nvicEnableVector
 1592              	.LVL95:
 1593              		.loc 1 761 3 is_stmt 1 view .LVU424
 1594 012a 2046     		mov	r0, r4
 1595 012c FFF7FEFF 		bl	sdObjectInit
 1596              	.LVL96:
ARM GAS  /tmp/ccct6XWu.s 			page 29


 1597              		.loc 1 762 3 view .LVU425
 1598 0130 04F10C00 		add	r0, r4, #12
 1599 0134 0094     		str	r4, [sp]
 1600 0136 0023     		movs	r3, #0
 1601 0138 4FF40072 		mov	r2, #512
 1602 013c 3549     		ldr	r1, .L94+112
 1603 013e FFF7FEFF 		bl	iqObjectInit
 1604              	.LVL97:
 1605              		.loc 1 763 3 view .LVU426
 1606 0142 4FF40072 		mov	r2, #512
 1607 0146 04F13000 		add	r0, r4, #48
 1608 014a 0094     		str	r4, [sp]
 1609 014c 324B     		ldr	r3, .L94+116
 1610 014e 3349     		ldr	r1, .L94+120
 1611 0150 FFF7FEFF 		bl	oqObjectInit
 1612              	.LVL98:
 1613              		.loc 1 764 3 view .LVU427
 1614              		.loc 1 764 13 is_stmt 0 view .LVU428
 1615 0154 324B     		ldr	r3, .L94+124
 1616              		.loc 1 767 3 view .LVU429
 1617 0156 0B21     		movs	r1, #11
 1618 0158 5220     		movs	r0, #82
 1619              		.loc 1 765 13 view .LVU430
 1620 015a C4E91535 		strd	r3, r5, [r4, #84]
 1621              		.loc 1 767 3 is_stmt 1 view .LVU431
 1622              		.loc 1 772 3 is_stmt 0 view .LVU432
 1623 015e 314C     		ldr	r4, .L94+128
 1624              		.loc 1 767 3 view .LVU433
 1625 0160 FFF7FEFF 		bl	nvicEnableVector
 1626              	.LVL99:
 1627              		.loc 1 772 3 is_stmt 1 view .LVU434
 1628 0164 2046     		mov	r0, r4
 1629 0166 FFF7FEFF 		bl	sdObjectInit
 1630              	.LVL100:
 1631              		.loc 1 773 3 view .LVU435
 1632 016a 04F10C00 		add	r0, r4, #12
 1633 016e 0023     		movs	r3, #0
 1634 0170 4FF40072 		mov	r2, #512
 1635 0174 2C49     		ldr	r1, .L94+132
 1636 0176 0094     		str	r4, [sp]
 1637 0178 FFF7FEFF 		bl	iqObjectInit
 1638              	.LVL101:
 1639              		.loc 1 774 3 view .LVU436
 1640 017c 04F13000 		add	r0, r4, #48
 1641 0180 2A4B     		ldr	r3, .L94+136
 1642 0182 4FF40072 		mov	r2, #512
 1643 0186 2A49     		ldr	r1, .L94+140
 1644 0188 0094     		str	r4, [sp]
 1645 018a FFF7FEFF 		bl	oqObjectInit
 1646              	.LVL102:
 1647              		.loc 1 775 3 view .LVU437
 1648              		.loc 1 775 13 is_stmt 0 view .LVU438
 1649 018e 294B     		ldr	r3, .L94+144
 1650              		.loc 1 778 3 view .LVU439
 1651 0190 0B21     		movs	r1, #11
 1652 0192 5320     		movs	r0, #83
 1653              		.loc 1 776 13 view .LVU440
ARM GAS  /tmp/ccct6XWu.s 			page 30


 1654 0194 C4E91535 		strd	r3, r5, [r4, #84]
 1655              		.loc 1 778 3 is_stmt 1 view .LVU441
 1656              		.loc 1 800 1 is_stmt 0 view .LVU442
 1657 0198 02B0     		add	sp, sp, #8
 1658              		.cfi_def_cfa_offset 16
 1659              		@ sp needed
 1660 019a BDE87040 		pop	{r4, r5, r6, lr}
 1661              		.cfi_restore 14
 1662              		.cfi_restore 6
 1663              		.cfi_restore 5
 1664              		.cfi_restore 4
 1665              		.cfi_def_cfa_offset 0
 1666              		.loc 1 778 3 view .LVU443
 1667 019e FFF7FEBF 		b	nvicEnableVector
 1668              	.LVL103:
 1669              	.L95:
 1670 01a2 00BF     		.align	2
 1671              	.L94:
 1672 01a4 00000000 		.word	.LANCHOR0
 1673 01a8 00F36F06 		.word	108000000
 1674 01ac 80F93703 		.word	54000000
 1675 01b0 00000000 		.word	.LANCHOR7
 1676 01b4 00000000 		.word	notify1
 1677 01b8 00000000 		.word	.LANCHOR8
 1678 01bc 00100140 		.word	1073811456
 1679 01c0 00000000 		.word	.LANCHOR1
 1680 01c4 00000000 		.word	.LANCHOR9
 1681 01c8 00000000 		.word	notify2
 1682 01cc 00000000 		.word	.LANCHOR10
 1683 01d0 00440040 		.word	1073759232
 1684 01d4 00000000 		.word	.LANCHOR2
 1685 01d8 00000000 		.word	.LANCHOR11
 1686 01dc 00000000 		.word	notify3
 1687 01e0 00000000 		.word	.LANCHOR12
 1688 01e4 00480040 		.word	1073760256
 1689 01e8 00000000 		.word	.LANCHOR3
 1690 01ec 00000000 		.word	.LANCHOR13
 1691 01f0 00000000 		.word	notify4
 1692 01f4 00000000 		.word	.LANCHOR14
 1693 01f8 004C0040 		.word	1073761280
 1694 01fc 00000000 		.word	.LANCHOR4
 1695 0200 00000000 		.word	.LANCHOR15
 1696 0204 00000000 		.word	notify6
 1697 0208 00000000 		.word	.LANCHOR16
 1698 020c 00140140 		.word	1073812480
 1699 0210 00000000 		.word	.LANCHOR5
 1700 0214 00000000 		.word	.LANCHOR17
 1701 0218 00000000 		.word	notify7
 1702 021c 00000000 		.word	.LANCHOR18
 1703 0220 00780040 		.word	1073772544
 1704 0224 00000000 		.word	.LANCHOR6
 1705 0228 00000000 		.word	.LANCHOR19
 1706 022c 00000000 		.word	notify8
 1707 0230 00000000 		.word	.LANCHOR20
 1708 0234 007C0040 		.word	1073773568
 1709              		.cfi_endproc
 1710              	.LFE352:
ARM GAS  /tmp/ccct6XWu.s 			page 31


 1711              		.size	sd_lld_init, .-sd_lld_init
 1712              		.section	.text.sd_lld_start,"ax",%progbits
 1713              		.align	1
 1714              		.global	sd_lld_start
 1715              		.syntax unified
 1716              		.thumb
 1717              		.thumb_func
 1718              		.fpu fpv4-sp-d16
 1719              		.type	sd_lld_start, %function
 1720              	sd_lld_start:
 1721              	.LVL104:
 1722              	.LFB353:
 1723              		.loc 1 812 66 is_stmt 1 view -0
 1724              		.cfi_startproc
 1725              		@ args = 0, pretend = 0, frame = 0
 1726              		@ frame_needed = 0, uses_anonymous_args = 0
 1727              		.loc 1 814 3 view .LVU445
 1728              		.loc 1 819 6 is_stmt 0 view .LVU446
 1729 0000 037A     		ldrb	r3, [r0, #8]	@ zero_extendqisi2
 1730              		.loc 1 812 66 view .LVU447
 1731 0002 30B5     		push	{r4, r5, lr}
 1732              		.cfi_def_cfa_offset 12
 1733              		.cfi_offset 4, -12
 1734              		.cfi_offset 5, -8
 1735              		.cfi_offset 14, -4
 1736              		.loc 1 815 12 view .LVU448
 1737 0004 484C     		ldr	r4, .L126
 1738 0006 0029     		cmp	r1, #0
 1739 0008 18BF     		it	ne
 1740 000a 0C46     		movne	r4, r1
 1741              	.LVL105:
 1742              		.loc 1 817 3 is_stmt 1 view .LVU449
 1743              		.loc 1 819 6 is_stmt 0 view .LVU450
 1744 000c 012B     		cmp	r3, #1
 1745              		.loc 1 817 15 view .LVU451
 1746 000e 0466     		str	r4, [r0, #96]
 1747              		.loc 1 819 3 is_stmt 1 view .LVU452
 1748              		.loc 1 819 6 is_stmt 0 view .LVU453
 1749 0010 2ED1     		bne	.L99
 1750              		.loc 1 821 5 is_stmt 1 view .LVU454
 1751              		.loc 1 821 8 is_stmt 0 view .LVU455
 1752 0012 464B     		ldr	r3, .L126+4
 1753 0014 9842     		cmp	r0, r3
 1754 0016 15D1     		bne	.L100
 1755              		.loc 1 822 7 is_stmt 1 view .LVU456
 1756 0018 454B     		ldr	r3, .L126+8
 1757 001a 5A6C     		ldr	r2, [r3, #68]
 1758 001c 42F01002 		orr	r2, r2, #16
 1759 0020 5A64     		str	r2, [r3, #68]
 1760              		.loc 1 822 7 view .LVU457
 1761              		.loc 1 822 7 view .LVU458
 1762 0022 5A6E     		ldr	r2, [r3, #100]
 1763 0024 42F01002 		orr	r2, r2, #16
 1764 0028 5A66     		str	r2, [r3, #100]
 1765              		.loc 1 822 7 view .LVU459
 1766 002a 5B6E     		ldr	r3, [r3, #100]
 1767              		.loc 1 822 28 view .LVU460
ARM GAS  /tmp/ccct6XWu.s 			page 32


 1768              		.loc 1 826 5 view .LVU461
 1769              		.loc 1 827 28 view .LVU462
 1770              		.loc 1 831 5 view .LVU463
 1771              		.loc 1 832 28 view .LVU464
 1772              		.loc 1 836 5 view .LVU465
 1773              		.loc 1 837 27 view .LVU466
 1774              		.loc 1 846 5 view .LVU467
 1775              	.L105:
 1776              		.loc 1 847 28 view .LVU468
 1777              		.loc 1 851 5 view .LVU469
 1778              		.loc 1 851 8 is_stmt 0 view .LVU470
 1779 002c 414B     		ldr	r3, .L126+12
 1780 002e 9842     		cmp	r0, r3
 1781 0030 5FD1     		bne	.L108
 1782              		.loc 1 852 7 is_stmt 1 view .LVU471
 1783 0032 3F4B     		ldr	r3, .L126+8
 1784 0034 1A6C     		ldr	r2, [r3, #64]
 1785 0036 42F08042 		orr	r2, r2, #1073741824
 1786 003a 1A64     		str	r2, [r3, #64]
 1787              		.loc 1 852 7 view .LVU472
 1788              		.loc 1 852 7 view .LVU473
 1789 003c 1A6E     		ldr	r2, [r3, #96]
 1790 003e 42F08042 		orr	r2, r2, #1073741824
 1791 0042 6AE0     		b	.L125
 1792              	.L100:
 1793              		.loc 1 822 28 discriminator 5 view .LVU474
 1794              		.loc 1 826 5 discriminator 5 view .LVU475
 1795              		.loc 1 826 8 is_stmt 0 discriminator 5 view .LVU476
 1796 0044 3C4B     		ldr	r3, .L126+16
 1797 0046 9842     		cmp	r0, r3
 1798 0048 3ED0     		beq	.L102
 1799              		.loc 1 827 28 is_stmt 1 view .LVU477
 1800              		.loc 1 831 5 view .LVU478
 1801              		.loc 1 831 8 is_stmt 0 view .LVU479
 1802 004a 3C4B     		ldr	r3, .L126+20
 1803 004c 9842     		cmp	r0, r3
 1804 004e 46D0     		beq	.L103
 1805              		.loc 1 832 28 is_stmt 1 view .LVU480
 1806              		.loc 1 836 5 view .LVU481
 1807              		.loc 1 836 8 is_stmt 0 view .LVU482
 1808 0050 3B4B     		ldr	r3, .L126+24
 1809 0052 9842     		cmp	r0, r3
 1810 0054 59D0     		beq	.L106
 1811              		.loc 1 837 27 is_stmt 1 view .LVU483
 1812              		.loc 1 846 5 view .LVU484
 1813              		.loc 1 846 8 is_stmt 0 view .LVU485
 1814 0056 3B4B     		ldr	r3, .L126+28
 1815 0058 9842     		cmp	r0, r3
 1816 005a E7D1     		bne	.L105
 1817              		.loc 1 847 7 is_stmt 1 view .LVU486
 1818 005c 344B     		ldr	r3, .L126+8
 1819 005e 5A6C     		ldr	r2, [r3, #68]
 1820 0060 42F02002 		orr	r2, r2, #32
 1821 0064 5A64     		str	r2, [r3, #68]
 1822              		.loc 1 847 7 view .LVU487
 1823              		.loc 1 847 7 view .LVU488
 1824 0066 5A6E     		ldr	r2, [r3, #100]
ARM GAS  /tmp/ccct6XWu.s 			page 33


 1825 0068 42F02002 		orr	r2, r2, #32
 1826 006c 5A66     		str	r2, [r3, #100]
 1827              		.loc 1 847 7 view .LVU489
 1828 006e 5B6E     		ldr	r3, [r3, #100]
 1829              		.loc 1 847 28 view .LVU490
 1830              		.loc 1 851 5 view .LVU491
 1831              		.loc 1 852 27 view .LVU492
 1832              		.loc 1 856 5 view .LVU493
 1833              	.L99:
 1834              		.loc 1 857 27 discriminator 5 view .LVU494
 1835              		.loc 1 866 3 discriminator 5 view .LVU495
 1836              	.LVL106:
 1837              	.LBB269:
 1838              	.LBI269:
 1839              		.loc 1 234 13 discriminator 5 view .LVU496
 1840              	.LBB270:
 1841              		.loc 1 235 3 discriminator 5 view .LVU497
 1842              		.loc 1 236 3 discriminator 5 view .LVU498
 1843              		.loc 1 246 40 is_stmt 0 discriminator 5 view .LVU499
 1844 0070 2268     		ldr	r2, [r4]
 1845              		.loc 1 246 33 discriminator 5 view .LVU500
 1846 0072 836D     		ldr	r3, [r0, #88]
 1847              		.loc 1 236 18 discriminator 5 view .LVU501
 1848 0074 416D     		ldr	r1, [r0, #84]
 1849              	.LVL107:
 1850              		.loc 1 246 5 is_stmt 1 discriminator 5 view .LVU502
 1851              		.loc 1 246 33 is_stmt 0 discriminator 5 view .LVU503
 1852 0076 03EB5203 		add	r3, r3, r2, lsr #1
 1853              		.loc 1 246 9 discriminator 5 view .LVU504
 1854 007a B3FBF2F3 		udiv	r3, r3, r2
 1855              	.LVL108:
 1856              		.loc 1 252 3 is_stmt 1 discriminator 5 view .LVU505
 1857              		.loc 1 252 13 is_stmt 0 discriminator 5 view .LVU506
 1858 007e 6268     		ldr	r2, [r4, #4]
 1859              		.loc 1 252 6 discriminator 5 view .LVU507
 1860 0080 1504     		lsls	r5, r2, #16
 1861              		.loc 1 253 5 is_stmt 1 discriminator 5 view .LVU508
 1862              		.loc 1 253 17 is_stmt 0 discriminator 5 view .LVU509
 1863 0082 42BF     		ittt	mi
 1864 0084 23F00705 		bicmi	r5, r3, #7
 1865              		.loc 1 253 35 discriminator 5 view .LVU510
 1866 0088 03F00703 		andmi	r3, r3, #7
 1867              	.LVL109:
 1868              		.loc 1 253 9 discriminator 5 view .LVU511
 1869 008c 43EA4503 		orrmi	r3, r3, r5, lsl #1
 1870              	.LVL110:
 1871              		.loc 1 254 3 is_stmt 1 discriminator 5 view .LVU512
 1872              		.loc 1 254 10 is_stmt 0 discriminator 5 view .LVU513
 1873 0090 CB60     		str	r3, [r1, #12]
 1874              		.loc 1 257 3 is_stmt 1 discriminator 5 view .LVU514
 1875              		.loc 1 257 24 is_stmt 0 discriminator 5 view .LVU515
 1876 0092 A368     		ldr	r3, [r4, #8]
 1877              	.LVL111:
 1878              		.loc 1 257 24 discriminator 5 view .LVU516
 1879 0094 43F04003 		orr	r3, r3, #64
 1880              		.loc 1 257 10 discriminator 5 view .LVU517
 1881 0098 4B60     		str	r3, [r1, #4]
ARM GAS  /tmp/ccct6XWu.s 			page 34


 1882              	.LVL112:
 1883              		.loc 1 258 3 is_stmt 1 discriminator 5 view .LVU518
 1884              		.loc 1 258 24 is_stmt 0 discriminator 5 view .LVU519
 1885 009a E368     		ldr	r3, [r4, #12]
 1886 009c 43F00103 		orr	r3, r3, #1
 1887              		.loc 1 258 10 discriminator 5 view .LVU520
 1888 00a0 8B60     		str	r3, [r1, #8]
 1889              		.loc 1 259 3 is_stmt 1 discriminator 5 view .LVU521
 1890              		.loc 1 260 58 is_stmt 0 discriminator 5 view .LVU522
 1891 00a2 42F49673 		orr	r3, r2, #300
 1892 00a6 43F00103 		orr	r3, r3, #1
 1893              		.loc 1 259 10 discriminator 5 view .LVU523
 1894 00aa 0B60     		str	r3, [r1]
 1895              		.loc 1 262 3 is_stmt 1 discriminator 5 view .LVU524
 1896              		.loc 1 262 10 is_stmt 0 discriminator 5 view .LVU525
 1897 00ac 4FF0FF33 		mov	r3, #-1
 1898 00b0 0B62     		str	r3, [r1, #32]
 1899              		.loc 1 266 3 is_stmt 1 discriminator 5 view .LVU526
 1900              		.loc 1 266 6 is_stmt 0 discriminator 5 view .LVU527
 1901 00b2 5105     		lsls	r1, r2, #21
 1902              	.LVL113:
 1903              		.loc 1 266 6 discriminator 5 view .LVU528
 1904 00b4 05D5     		bpl	.L114
 1905              		.loc 1 267 5 is_stmt 1 view .LVU529
 1906 00b6 12F01022 		ands	r2, r2, #268439552
 1907              	.LVL114:
 1908              		.loc 1 267 5 is_stmt 0 view .LVU530
 1909 00ba 31D0     		beq	.L115
 1910 00bc B2F1805F 		cmp	r2, #268435456
 1911 00c0 30D0     		beq	.L116
 1912              	.L114:
 1913              		.loc 1 279 5 is_stmt 1 view .LVU531
 1914              		.loc 1 279 17 is_stmt 0 view .LVU532
 1915 00c2 80F85C30 		strb	r3, [r0, #92]
 1916              	.LVL115:
 1917              		.loc 1 279 17 view .LVU533
 1918              	.LBE270:
 1919              	.LBE269:
 1920              		.loc 1 867 1 view .LVU534
 1921 00c6 30BD     		pop	{r4, r5, pc}
 1922              	.LVL116:
 1923              	.L102:
 1924              		.loc 1 827 7 is_stmt 1 view .LVU535
 1925 00c8 194B     		ldr	r3, .L126+8
 1926 00ca 1A6C     		ldr	r2, [r3, #64]
 1927 00cc 42F40032 		orr	r2, r2, #131072
 1928 00d0 1A64     		str	r2, [r3, #64]
 1929              		.loc 1 827 7 view .LVU536
 1930              		.loc 1 827 7 view .LVU537
 1931 00d2 1A6E     		ldr	r2, [r3, #96]
 1932 00d4 42F40032 		orr	r2, r2, #131072
 1933 00d8 1A66     		str	r2, [r3, #96]
 1934              		.loc 1 827 7 view .LVU538
 1935 00da 1B6E     		ldr	r3, [r3, #96]
 1936              		.loc 1 827 28 view .LVU539
 1937              		.loc 1 831 5 view .LVU540
 1938              		.loc 1 832 28 view .LVU541
ARM GAS  /tmp/ccct6XWu.s 			page 35


 1939              		.loc 1 836 5 view .LVU542
 1940              		.loc 1 837 27 view .LVU543
 1941              		.loc 1 846 5 view .LVU544
 1942 00dc A6E7     		b	.L105
 1943              	.L103:
 1944              		.loc 1 832 7 view .LVU545
 1945 00de 144B     		ldr	r3, .L126+8
 1946 00e0 1A6C     		ldr	r2, [r3, #64]
 1947 00e2 42F48022 		orr	r2, r2, #262144
 1948 00e6 1A64     		str	r2, [r3, #64]
 1949              		.loc 1 832 7 view .LVU546
 1950              		.loc 1 832 7 view .LVU547
 1951 00e8 1A6E     		ldr	r2, [r3, #96]
 1952 00ea 42F48022 		orr	r2, r2, #262144
 1953 00ee 1A66     		str	r2, [r3, #96]
 1954              		.loc 1 832 7 view .LVU548
 1955 00f0 1B6E     		ldr	r3, [r3, #96]
 1956              		.loc 1 832 28 view .LVU549
 1957              		.loc 1 836 5 view .LVU550
 1958              		.loc 1 837 27 view .LVU551
 1959              		.loc 1 846 5 view .LVU552
 1960              		.loc 1 847 28 view .LVU553
 1961              		.loc 1 851 5 view .LVU554
 1962              	.L108:
 1963              		.loc 1 852 27 view .LVU555
 1964              		.loc 1 856 5 view .LVU556
 1965              		.loc 1 856 8 is_stmt 0 view .LVU557
 1966 00f2 154B     		ldr	r3, .L126+32
 1967 00f4 9842     		cmp	r0, r3
 1968 00f6 BBD1     		bne	.L99
 1969              		.loc 1 857 7 is_stmt 1 view .LVU558
 1970 00f8 0D4B     		ldr	r3, .L126+8
 1971 00fa 1A6C     		ldr	r2, [r3, #64]
 1972 00fc 42F00042 		orr	r2, r2, #-2147483648
 1973 0100 1A64     		str	r2, [r3, #64]
 1974              		.loc 1 857 7 view .LVU559
 1975              		.loc 1 857 7 view .LVU560
 1976 0102 1A6E     		ldr	r2, [r3, #96]
 1977 0104 42F00042 		orr	r2, r2, #-2147483648
 1978 0108 07E0     		b	.L125
 1979              	.L106:
 1980              		.loc 1 837 7 view .LVU561
 1981 010a 094B     		ldr	r3, .L126+8
 1982 010c 1A6C     		ldr	r2, [r3, #64]
 1983 010e 42F40022 		orr	r2, r2, #524288
 1984 0112 1A64     		str	r2, [r3, #64]
 1985              		.loc 1 837 7 view .LVU562
 1986              		.loc 1 837 7 view .LVU563
 1987 0114 1A6E     		ldr	r2, [r3, #96]
 1988 0116 42F40022 		orr	r2, r2, #524288
 1989              	.L125:
 1990              		.loc 1 857 7 is_stmt 0 view .LVU564
 1991 011a 1A66     		str	r2, [r3, #96]
 1992              		.loc 1 857 7 is_stmt 1 view .LVU565
 1993 011c 1B6E     		ldr	r3, [r3, #96]
 1994 011e A7E7     		b	.L99
 1995              	.LVL117:
ARM GAS  /tmp/ccct6XWu.s 			page 36


 1996              	.L115:
 1997              	.LBB272:
 1998              	.LBB271:
 1999              		.loc 1 269 7 view .LVU566
 2000              		.loc 1 269 19 is_stmt 0 view .LVU567
 2001 0120 7F23     		movs	r3, #127
 2002 0122 CEE7     		b	.L114
 2003              	.L116:
 2004              		.loc 1 272 7 is_stmt 1 view .LVU568
 2005              		.loc 1 272 19 is_stmt 0 view .LVU569
 2006 0124 3F23     		movs	r3, #63
 2007 0126 CCE7     		b	.L114
 2008              	.L127:
 2009              		.align	2
 2010              	.L126:
 2011 0128 00000000 		.word	.LANCHOR21
 2012 012c 00000000 		.word	.LANCHOR0
 2013 0130 00380240 		.word	1073887232
 2014 0134 00000000 		.word	.LANCHOR5
 2015 0138 00000000 		.word	.LANCHOR1
 2016 013c 00000000 		.word	.LANCHOR2
 2017 0140 00000000 		.word	.LANCHOR3
 2018 0144 00000000 		.word	.LANCHOR4
 2019 0148 00000000 		.word	.LANCHOR6
 2020              	.LBE271:
 2021              	.LBE272:
 2022              		.cfi_endproc
 2023              	.LFE353:
 2024              		.size	sd_lld_start, .-sd_lld_start
 2025              		.section	.text.sd_lld_stop,"ax",%progbits
 2026              		.align	1
 2027              		.global	sd_lld_stop
 2028              		.syntax unified
 2029              		.thumb
 2030              		.thumb_func
 2031              		.fpu fpv4-sp-d16
 2032              		.type	sd_lld_stop, %function
 2033              	sd_lld_stop:
 2034              	.LVL118:
 2035              	.LFB354:
 2036              		.loc 1 878 37 is_stmt 1 view -0
 2037              		.cfi_startproc
 2038              		@ args = 0, pretend = 0, frame = 0
 2039              		@ frame_needed = 0, uses_anonymous_args = 0
 2040              		@ link register save eliminated.
 2041              		.loc 1 880 3 view .LVU571
 2042              		.loc 1 880 6 is_stmt 0 view .LVU572
 2043 0000 037A     		ldrb	r3, [r0, #8]	@ zero_extendqisi2
 2044 0002 022B     		cmp	r3, #2
 2045 0004 1FD1     		bne	.L128
 2046              		.loc 1 882 5 is_stmt 1 view .LVU573
 2047 0006 436D     		ldr	r3, [r0, #84]
 2048              	.LVL119:
 2049              	.LBB273:
 2050              	.LBI273:
 2051              		.loc 1 289 13 view .LVU574
 2052              	.LBB274:
ARM GAS  /tmp/ccct6XWu.s 			page 37


 2053              		.loc 1 291 3 view .LVU575
 2054              		.loc 1 291 10 is_stmt 0 view .LVU576
 2055 0008 0022     		movs	r2, #0
 2056 000a 1A60     		str	r2, [r3]
 2057              		.loc 1 292 3 is_stmt 1 view .LVU577
 2058              		.loc 1 292 10 is_stmt 0 view .LVU578
 2059 000c 5A60     		str	r2, [r3, #4]
 2060              		.loc 1 293 3 is_stmt 1 view .LVU579
 2061              		.loc 1 293 10 is_stmt 0 view .LVU580
 2062 000e 9A60     		str	r2, [r3, #8]
 2063              	.LVL120:
 2064              		.loc 1 293 10 view .LVU581
 2065              	.LBE274:
 2066              	.LBE273:
 2067              		.loc 1 885 5 is_stmt 1 view .LVU582
 2068              		.loc 1 885 8 is_stmt 0 view .LVU583
 2069 0010 2B4B     		ldr	r3, .L140
 2070 0012 9842     		cmp	r0, r3
 2071 0014 0AD1     		bne	.L131
 2072              		.loc 1 886 7 is_stmt 1 view .LVU584
 2073 0016 2B4B     		ldr	r3, .L140+4
 2074 0018 5A6C     		ldr	r2, [r3, #68]
 2075 001a 22F01002 		bic	r2, r2, #16
 2076 001e 5A64     		str	r2, [r3, #68]
 2077              		.loc 1 886 7 view .LVU585
 2078 0020 5A6E     		ldr	r2, [r3, #100]
 2079 0022 22F01002 		bic	r2, r2, #16
 2080              	.L138:
 2081              		.loc 1 916 7 is_stmt 0 view .LVU586
 2082 0026 5A66     		str	r2, [r3, #100]
 2083              		.loc 1 916 7 is_stmt 1 view .LVU587
 2084 0028 5B6E     		ldr	r3, [r3, #100]
 2085              		.loc 1 916 25 view .LVU588
 2086              		.loc 1 917 7 view .LVU589
 2087 002a 7047     		bx	lr
 2088              	.L131:
 2089              		.loc 1 891 5 view .LVU590
 2090              		.loc 1 891 8 is_stmt 0 view .LVU591
 2091 002c 264B     		ldr	r3, .L140+8
 2092 002e 9842     		cmp	r0, r3
 2093 0030 0AD1     		bne	.L132
 2094              		.loc 1 892 7 is_stmt 1 view .LVU592
 2095 0032 244B     		ldr	r3, .L140+4
 2096 0034 1A6C     		ldr	r2, [r3, #64]
 2097 0036 22F40032 		bic	r2, r2, #131072
 2098 003a 1A64     		str	r2, [r3, #64]
 2099              		.loc 1 892 7 view .LVU593
 2100 003c 1A6E     		ldr	r2, [r3, #96]
 2101 003e 22F40032 		bic	r2, r2, #131072
 2102              	.L139:
 2103              		.loc 1 928 7 is_stmt 0 view .LVU594
 2104 0042 1A66     		str	r2, [r3, #96]
 2105              		.loc 1 928 7 is_stmt 1 view .LVU595
 2106 0044 1B6E     		ldr	r3, [r3, #96]
 2107              		.loc 1 928 24 view .LVU596
 2108              		.loc 1 929 7 view .LVU597
 2109              	.L128:
ARM GAS  /tmp/ccct6XWu.s 			page 38


 2110              		.loc 1 939 1 is_stmt 0 view .LVU598
 2111 0046 7047     		bx	lr
 2112              	.L132:
 2113              		.loc 1 897 5 is_stmt 1 view .LVU599
 2114              		.loc 1 897 8 is_stmt 0 view .LVU600
 2115 0048 204B     		ldr	r3, .L140+12
 2116 004a 9842     		cmp	r0, r3
 2117 004c 08D1     		bne	.L133
 2118              		.loc 1 898 7 is_stmt 1 view .LVU601
 2119 004e 1D4B     		ldr	r3, .L140+4
 2120 0050 1A6C     		ldr	r2, [r3, #64]
 2121 0052 22F48022 		bic	r2, r2, #262144
 2122 0056 1A64     		str	r2, [r3, #64]
 2123              		.loc 1 898 7 view .LVU602
 2124 0058 1A6E     		ldr	r2, [r3, #96]
 2125 005a 22F48022 		bic	r2, r2, #262144
 2126 005e F0E7     		b	.L139
 2127              	.L133:
 2128              		.loc 1 903 5 view .LVU603
 2129              		.loc 1 903 8 is_stmt 0 view .LVU604
 2130 0060 1B4B     		ldr	r3, .L140+16
 2131 0062 9842     		cmp	r0, r3
 2132 0064 08D1     		bne	.L134
 2133              		.loc 1 904 7 is_stmt 1 view .LVU605
 2134 0066 174B     		ldr	r3, .L140+4
 2135 0068 1A6C     		ldr	r2, [r3, #64]
 2136 006a 22F40022 		bic	r2, r2, #524288
 2137 006e 1A64     		str	r2, [r3, #64]
 2138              		.loc 1 904 7 view .LVU606
 2139 0070 1A6E     		ldr	r2, [r3, #96]
 2140 0072 22F40022 		bic	r2, r2, #524288
 2141 0076 E4E7     		b	.L139
 2142              	.L134:
 2143              		.loc 1 915 5 view .LVU607
 2144              		.loc 1 915 8 is_stmt 0 view .LVU608
 2145 0078 164B     		ldr	r3, .L140+20
 2146 007a 9842     		cmp	r0, r3
 2147 007c 08D1     		bne	.L135
 2148              		.loc 1 916 7 is_stmt 1 view .LVU609
 2149 007e 114B     		ldr	r3, .L140+4
 2150 0080 5A6C     		ldr	r2, [r3, #68]
 2151 0082 22F02002 		bic	r2, r2, #32
 2152 0086 5A64     		str	r2, [r3, #68]
 2153              		.loc 1 916 7 view .LVU610
 2154 0088 5A6E     		ldr	r2, [r3, #100]
 2155 008a 22F02002 		bic	r2, r2, #32
 2156 008e CAE7     		b	.L138
 2157              	.L135:
 2158              		.loc 1 921 5 view .LVU611
 2159              		.loc 1 921 8 is_stmt 0 view .LVU612
 2160 0090 114B     		ldr	r3, .L140+24
 2161 0092 9842     		cmp	r0, r3
 2162 0094 08D1     		bne	.L136
 2163              		.loc 1 922 7 is_stmt 1 view .LVU613
 2164 0096 0B4B     		ldr	r3, .L140+4
 2165 0098 1A6C     		ldr	r2, [r3, #64]
 2166 009a 22F08042 		bic	r2, r2, #1073741824
ARM GAS  /tmp/ccct6XWu.s 			page 39


 2167 009e 1A64     		str	r2, [r3, #64]
 2168              		.loc 1 922 7 view .LVU614
 2169 00a0 1A6E     		ldr	r2, [r3, #96]
 2170 00a2 22F08042 		bic	r2, r2, #1073741824
 2171 00a6 CCE7     		b	.L139
 2172              	.L136:
 2173              		.loc 1 927 5 view .LVU615
 2174              		.loc 1 927 8 is_stmt 0 view .LVU616
 2175 00a8 0C4B     		ldr	r3, .L140+28
 2176 00aa 9842     		cmp	r0, r3
 2177 00ac CBD1     		bne	.L128
 2178              		.loc 1 928 7 is_stmt 1 view .LVU617
 2179 00ae 054B     		ldr	r3, .L140+4
 2180 00b0 1A6C     		ldr	r2, [r3, #64]
 2181 00b2 22F00042 		bic	r2, r2, #-2147483648
 2182 00b6 1A64     		str	r2, [r3, #64]
 2183              		.loc 1 928 7 view .LVU618
 2184 00b8 1A6E     		ldr	r2, [r3, #96]
 2185 00ba 22F00042 		bic	r2, r2, #-2147483648
 2186 00be C0E7     		b	.L139
 2187              	.L141:
 2188              		.align	2
 2189              	.L140:
 2190 00c0 00000000 		.word	.LANCHOR0
 2191 00c4 00380240 		.word	1073887232
 2192 00c8 00000000 		.word	.LANCHOR1
 2193 00cc 00000000 		.word	.LANCHOR2
 2194 00d0 00000000 		.word	.LANCHOR3
 2195 00d4 00000000 		.word	.LANCHOR4
 2196 00d8 00000000 		.word	.LANCHOR5
 2197 00dc 00000000 		.word	.LANCHOR6
 2198              		.cfi_endproc
 2199              	.LFE354:
 2200              		.size	sd_lld_stop, .-sd_lld_stop
 2201              		.global	SD8
 2202              		.global	SD7
 2203              		.global	SD6
 2204              		.global	SD4
 2205              		.global	SD3
 2206              		.global	SD2
 2207              		.global	SD1
 2208              		.section	.bss.SD1,"aw",%nobits
 2209              		.align	2
 2210              		.set	.LANCHOR0,. + 0
 2211              		.type	SD1, %object
 2212              		.size	SD1, 100
 2213              	SD1:
 2214 0000 00000000 		.space	100
 2214      00000000 
 2214      00000000 
 2214      00000000 
 2214      00000000 
 2215              		.section	.bss.SD2,"aw",%nobits
 2216              		.align	2
 2217              		.set	.LANCHOR1,. + 0
 2218              		.type	SD2, %object
 2219              		.size	SD2, 100
ARM GAS  /tmp/ccct6XWu.s 			page 40


 2220              	SD2:
 2221 0000 00000000 		.space	100
 2221      00000000 
 2221      00000000 
 2221      00000000 
 2221      00000000 
 2222              		.section	.bss.SD3,"aw",%nobits
 2223              		.align	2
 2224              		.set	.LANCHOR2,. + 0
 2225              		.type	SD3, %object
 2226              		.size	SD3, 100
 2227              	SD3:
 2228 0000 00000000 		.space	100
 2228      00000000 
 2228      00000000 
 2228      00000000 
 2228      00000000 
 2229              		.section	.bss.SD4,"aw",%nobits
 2230              		.align	2
 2231              		.set	.LANCHOR3,. + 0
 2232              		.type	SD4, %object
 2233              		.size	SD4, 100
 2234              	SD4:
 2235 0000 00000000 		.space	100
 2235      00000000 
 2235      00000000 
 2235      00000000 
 2235      00000000 
 2236              		.section	.bss.SD6,"aw",%nobits
 2237              		.align	2
 2238              		.set	.LANCHOR4,. + 0
 2239              		.type	SD6, %object
 2240              		.size	SD6, 100
 2241              	SD6:
 2242 0000 00000000 		.space	100
 2242      00000000 
 2242      00000000 
 2242      00000000 
 2242      00000000 
 2243              		.section	.bss.SD7,"aw",%nobits
 2244              		.align	2
 2245              		.set	.LANCHOR5,. + 0
 2246              		.type	SD7, %object
 2247              		.size	SD7, 100
 2248              	SD7:
 2249 0000 00000000 		.space	100
 2249      00000000 
 2249      00000000 
 2249      00000000 
 2249      00000000 
 2250              		.section	.bss.SD8,"aw",%nobits
 2251              		.align	2
 2252              		.set	.LANCHOR6,. + 0
 2253              		.type	SD8, %object
 2254              		.size	SD8, 100
 2255              	SD8:
 2256 0000 00000000 		.space	100
ARM GAS  /tmp/ccct6XWu.s 			page 41


 2256      00000000 
 2256      00000000 
 2256      00000000 
 2256      00000000 
 2257              		.section	.bss.sd_in_buf1,"aw",%nobits
 2258              		.set	.LANCHOR7,. + 0
 2259              		.type	sd_in_buf1, %object
 2260              		.size	sd_in_buf1, 512
 2261              	sd_in_buf1:
 2262 0000 00000000 		.space	512
 2262      00000000 
 2262      00000000 
 2262      00000000 
 2262      00000000 
 2263              		.section	.bss.sd_in_buf2,"aw",%nobits
 2264              		.set	.LANCHOR9,. + 0
 2265              		.type	sd_in_buf2, %object
 2266              		.size	sd_in_buf2, 512
 2267              	sd_in_buf2:
 2268 0000 00000000 		.space	512
 2268      00000000 
 2268      00000000 
 2268      00000000 
 2268      00000000 
 2269              		.section	.bss.sd_in_buf3,"aw",%nobits
 2270              		.set	.LANCHOR11,. + 0
 2271              		.type	sd_in_buf3, %object
 2272              		.size	sd_in_buf3, 512
 2273              	sd_in_buf3:
 2274 0000 00000000 		.space	512
 2274      00000000 
 2274      00000000 
 2274      00000000 
 2274      00000000 
 2275              		.section	.bss.sd_in_buf4,"aw",%nobits
 2276              		.set	.LANCHOR13,. + 0
 2277              		.type	sd_in_buf4, %object
 2278              		.size	sd_in_buf4, 512
 2279              	sd_in_buf4:
 2280 0000 00000000 		.space	512
 2280      00000000 
 2280      00000000 
 2280      00000000 
 2280      00000000 
 2281              		.section	.bss.sd_in_buf6,"aw",%nobits
 2282              		.set	.LANCHOR15,. + 0
 2283              		.type	sd_in_buf6, %object
 2284              		.size	sd_in_buf6, 512
 2285              	sd_in_buf6:
 2286 0000 00000000 		.space	512
 2286      00000000 
 2286      00000000 
 2286      00000000 
 2286      00000000 
 2287              		.section	.bss.sd_in_buf7,"aw",%nobits
 2288              		.set	.LANCHOR17,. + 0
 2289              		.type	sd_in_buf7, %object
ARM GAS  /tmp/ccct6XWu.s 			page 42


 2290              		.size	sd_in_buf7, 512
 2291              	sd_in_buf7:
 2292 0000 00000000 		.space	512
 2292      00000000 
 2292      00000000 
 2292      00000000 
 2292      00000000 
 2293              		.section	.bss.sd_in_buf8,"aw",%nobits
 2294              		.set	.LANCHOR19,. + 0
 2295              		.type	sd_in_buf8, %object
 2296              		.size	sd_in_buf8, 512
 2297              	sd_in_buf8:
 2298 0000 00000000 		.space	512
 2298      00000000 
 2298      00000000 
 2298      00000000 
 2298      00000000 
 2299              		.section	.bss.sd_out_buf1,"aw",%nobits
 2300              		.set	.LANCHOR8,. + 0
 2301              		.type	sd_out_buf1, %object
 2302              		.size	sd_out_buf1, 512
 2303              	sd_out_buf1:
 2304 0000 00000000 		.space	512
 2304      00000000 
 2304      00000000 
 2304      00000000 
 2304      00000000 
 2305              		.section	.bss.sd_out_buf2,"aw",%nobits
 2306              		.set	.LANCHOR10,. + 0
 2307              		.type	sd_out_buf2, %object
 2308              		.size	sd_out_buf2, 512
 2309              	sd_out_buf2:
 2310 0000 00000000 		.space	512
 2310      00000000 
 2310      00000000 
 2310      00000000 
 2310      00000000 
 2311              		.section	.bss.sd_out_buf3,"aw",%nobits
 2312              		.set	.LANCHOR12,. + 0
 2313              		.type	sd_out_buf3, %object
 2314              		.size	sd_out_buf3, 512
 2315              	sd_out_buf3:
 2316 0000 00000000 		.space	512
 2316      00000000 
 2316      00000000 
 2316      00000000 
 2316      00000000 
 2317              		.section	.bss.sd_out_buf4,"aw",%nobits
 2318              		.set	.LANCHOR14,. + 0
 2319              		.type	sd_out_buf4, %object
 2320              		.size	sd_out_buf4, 512
 2321              	sd_out_buf4:
 2322 0000 00000000 		.space	512
 2322      00000000 
 2322      00000000 
 2322      00000000 
 2322      00000000 
ARM GAS  /tmp/ccct6XWu.s 			page 43


 2323              		.section	.bss.sd_out_buf6,"aw",%nobits
 2324              		.set	.LANCHOR16,. + 0
 2325              		.type	sd_out_buf6, %object
 2326              		.size	sd_out_buf6, 512
 2327              	sd_out_buf6:
 2328 0000 00000000 		.space	512
 2328      00000000 
 2328      00000000 
 2328      00000000 
 2328      00000000 
 2329              		.section	.bss.sd_out_buf7,"aw",%nobits
 2330              		.set	.LANCHOR18,. + 0
 2331              		.type	sd_out_buf7, %object
 2332              		.size	sd_out_buf7, 512
 2333              	sd_out_buf7:
 2334 0000 00000000 		.space	512
 2334      00000000 
 2334      00000000 
 2334      00000000 
 2334      00000000 
 2335              		.section	.bss.sd_out_buf8,"aw",%nobits
 2336              		.set	.LANCHOR20,. + 0
 2337              		.type	sd_out_buf8, %object
 2338              		.size	sd_out_buf8, 512
 2339              	sd_out_buf8:
 2340 0000 00000000 		.space	512
 2340      00000000 
 2340      00000000 
 2340      00000000 
 2340      00000000 
 2341              		.section	.rodata.default_config,"a"
 2342              		.align	2
 2343              		.set	.LANCHOR21,. + 0
 2344              		.type	default_config, %object
 2345              		.size	default_config, 24
 2346              	default_config:
 2347 0000 00960000 		.word	38400
 2348 0004 00000000 		.word	0
 2349 0008 00000000 		.word	0
 2350 000c 00000000 		.word	0
 2351 0010 00000000 		.word	0
 2352 0014 00000000 		.word	0
 2353              		.text
 2354              	.Letext0:
 2355              		.file 6 "/opt/gcc-arm-none-eabi-10-2020-q4-major/lib/gcc/arm-none-eabi/10.2.1/include/stddef.h"
 2356              		.file 7 "/opt/gcc-arm-none-eabi-10-2020-q4-major/arm-none-eabi/include/machine/_default_types.h"
 2357              		.file 8 "/opt/gcc-arm-none-eabi-10-2020-q4-major/arm-none-eabi/include/sys/_stdint.h"
 2358              		.file 9 "../../modules/ChibiOS/os/common/ports/ARMCMx/compilers/GCC/chtypes.h"
 2359              		.file 10 "../../modules/ChibiOS/os/rt/include/chsystypes.h"
 2360              		.file 11 "../../modules/ChibiOS/os/rt/include/chschd.h"
 2361              		.file 12 "../../modules/ChibiOS/os/rt/include/chtime.h"
 2362              		.file 13 "../../modules/ChibiOS/os/common/ext/ST/STM32F7xx/stm32f767xx.h"
 2363              		.file 14 "../../modules/ChibiOS/os/common/ports/ARMCMx/chcore.h"
 2364              		.file 15 "../../modules/ChibiOS/os/rt/include/chtm.h"
 2365              		.file 16 "../../modules/ChibiOS/os/rt/include/chsem.h"
 2366              		.file 17 "../../modules/ChibiOS/os/rt/include/chmtx.h"
 2367              		.file 18 "../../modules/ChibiOS/os/rt/include/chevents.h"
ARM GAS  /tmp/ccct6XWu.s 			page 44


 2368              		.file 19 "../../modules/ChibiOS/os/hal/include/hal_queues.h"
 2369              		.file 20 "../../modules/ChibiOS/os/hal/include/hal_serial.h"
 2370              		.file 21 "../../modules/ChibiOS/os/hal/ports/STM32/LLD/USARTv2/hal_serial_lld.h"
 2371              		.file 22 "../../modules/ChibiOS/os/hal/ports/common/ARMCMx/nvic.h"
 2372              		.file 23 "../../modules/ChibiOS/os/rt/include/chstats.h"