ARM GAS  /tmp/ccaQnwEu.s 			page 1


   1              		.cpu cortex-m7
   2              		.eabi_attribute 27, 1
   3              		.eabi_attribute 28, 1
   4              		.eabi_attribute 20, 1
   5              		.eabi_attribute 21, 1
   6              		.eabi_attribute 23, 3
   7              		.eabi_attribute 24, 1
   8              		.eabi_attribute 25, 1
   9              		.eabi_attribute 26, 1
  10              		.eabi_attribute 30, 4
  11              		.eabi_attribute 34, 1
  12              		.eabi_attribute 18, 4
  13              		.file	"hal_lld.c"
  14              		.text
  15              	.Ltext0:
  16              		.cfi_sections	.debug_frame
  17              		.section	.text.hal_lld_init,"ax",%progbits
  18              		.align	1
  19              		.global	hal_lld_init
  20              		.arch armv7e-m
  21              		.syntax unified
  22              		.thumb
  23              		.thumb_func
  24              		.fpu fpv4-sp-d16
  25              		.type	hal_lld_init, %function
  26              	hal_lld_init:
  27              	.LFB335:
  28              		.file 1 "../../modules/ChibiOS/os/hal/ports/STM32/STM32F7xx/hal_lld.c"
  29              		.loc 1 114 25 view -0
  30              		.cfi_startproc
  31              		@ args = 0, pretend = 0, frame = 0
  32              		@ frame_needed = 0, uses_anonymous_args = 0
  33              		.loc 1 120 3 view .LVU1
  34              		.loc 1 114 25 is_stmt 0 view .LVU2
  35 0000 08B5     		push	{r3, lr}
  36              		.cfi_def_cfa_offset 8
  37              		.cfi_offset 3, -8
  38              		.cfi_offset 14, -4
  39              		.loc 1 120 3 view .LVU3
  40 0002 1D4B     		ldr	r3, .L6
  41              		.loc 1 121 3 view .LVU4
  42 0004 4FF0FF30 		mov	r0, #-1
  43 0008 0021     		movs	r1, #0
  44              		.loc 1 120 3 view .LVU5
  45 000a 1A69     		ldr	r2, [r3, #16]
  46 000c 6FEA4252 		mvn	r2, r2, lsl #21
  47 0010 6FEA5252 		mvn	r2, r2, lsr #21
  48 0014 1A61     		str	r2, [r3, #16]
  49              		.loc 1 120 3 is_stmt 1 view .LVU6
  50 0016 1A69     		ldr	r2, [r3, #16]
  51 0018 C2F30A02 		ubfx	r2, r2, #0, #11
  52 001c 1A61     		str	r2, [r3, #16]
  53              		.loc 1 120 3 view .LVU7
  54 001e 1A69     		ldr	r2, [r3, #16]
  55              		.loc 1 120 36 view .LVU8
  56              		.loc 1 121 3 view .LVU9
  57 0020 5A69     		ldr	r2, [r3, #20]
ARM GAS  /tmp/ccaQnwEu.s 			page 2


  58 0022 5861     		str	r0, [r3, #20]
  59              		.loc 1 121 3 view .LVU10
  60 0024 5A69     		ldr	r2, [r3, #20]
  61 0026 5961     		str	r1, [r3, #20]
  62              		.loc 1 121 3 view .LVU11
  63 0028 5A69     		ldr	r2, [r3, #20]
  64              		.loc 1 121 19 view .LVU12
  65              		.loc 1 122 3 view .LVU13
  66 002a 1A6A     		ldr	r2, [r3, #32]
  67 002c 62F08052 		orn	r2, r2, #268435456
  68 0030 1A62     		str	r2, [r3, #32]
  69              		.loc 1 122 3 view .LVU14
  70 0032 1A6A     		ldr	r2, [r3, #32]
  71 0034 02F08052 		and	r2, r2, #268435456
  72 0038 1A62     		str	r2, [r3, #32]
  73              		.loc 1 122 3 view .LVU15
  74 003a 1A6A     		ldr	r2, [r3, #32]
  75              		.loc 1 122 37 view .LVU16
  76              		.loc 1 123 3 view .LVU17
  77 003c 5A6A     		ldr	r2, [r3, #36]
  78 003e 5862     		str	r0, [r3, #36]
  79              		.loc 1 123 3 view .LVU18
  80 0040 5A6A     		ldr	r2, [r3, #36]
  81 0042 5962     		str	r1, [r3, #36]
  82              		.loc 1 123 3 view .LVU19
  83 0044 5A6A     		ldr	r2, [r3, #36]
  84              		.loc 1 123 19 view .LVU20
  85              		.loc 1 126 3 view .LVU21
  86              	.LBB4:
  87              	.LBI4:
  88              		.loc 1 54 13 view .LVU22
  89              	.LBB5:
  90              		.loc 1 57 3 view .LVU23
  91              		.loc 1 57 12 is_stmt 0 view .LVU24
  92 0046 0D4A     		ldr	r2, .L6+4
  93 0048 1068     		ldr	r0, [r2]
  94 004a 40F48070 		orr	r0, r0, #256
  95 004e 1060     		str	r0, [r2]
  96              		.loc 1 60 3 is_stmt 1 view .LVU25
  97              		.loc 1 60 11 is_stmt 0 view .LVU26
  98 0050 186F     		ldr	r0, [r3, #112]
  99              		.loc 1 60 18 view .LVU27
 100 0052 00F44070 		and	r0, r0, #768
 101              		.loc 1 60 6 view .LVU28
 102 0056 B0F5007F 		cmp	r0, #512
 103 005a 03D0     		beq	.L2
 104              		.loc 1 62 5 is_stmt 1 view .LVU29
 105              		.loc 1 62 15 is_stmt 0 view .LVU30
 106 005c 4FF48030 		mov	r0, #65536
 107 0060 1867     		str	r0, [r3, #112]
 108              		.loc 1 63 5 is_stmt 1 view .LVU31
 109              		.loc 1 63 15 is_stmt 0 view .LVU32
 110 0062 1967     		str	r1, [r3, #112]
 111              	.L2:
 112              		.loc 1 97 3 is_stmt 1 view .LVU33
 113              		.loc 1 97 13 is_stmt 0 view .LVU34
 114 0064 5368     		ldr	r3, [r2, #4]
ARM GAS  /tmp/ccaQnwEu.s 			page 3


 115 0066 23F40073 		bic	r3, r3, #512
 116 006a 5360     		str	r3, [r2, #4]
 117              	.LBE5:
 118              	.LBE4:
 119              		.loc 1 130 3 is_stmt 1 view .LVU35
 120 006c FFF7FEFF 		bl	dmaInit
 121              	.LVL0:
 122              		.loc 1 134 3 view .LVU36
 123              		.loc 1 156 1 is_stmt 0 view .LVU37
 124 0070 BDE80840 		pop	{r3, lr}
 125              		.cfi_restore 14
 126              		.cfi_restore 3
 127              		.cfi_def_cfa_offset 0
 128              		.loc 1 134 3 view .LVU38
 129 0074 FFF7FEBF 		b	irqInit
 130              	.LVL1:
 131              	.L7:
 132              		.align	2
 133              	.L6:
 134 0078 00380240 		.word	1073887232
 135 007c 00700040 		.word	1073770496
 136              		.cfi_endproc
 137              	.LFE335:
 138              		.size	hal_lld_init, .-hal_lld_init
 139              		.section	.text.stm32_clock_init,"ax",%progbits
 140              		.align	1
 141              		.global	stm32_clock_init
 142              		.syntax unified
 143              		.thumb
 144              		.thumb_func
 145              		.fpu fpv4-sp-d16
 146              		.type	stm32_clock_init, %function
 147              	stm32_clock_init:
 148              	.LFB336:
 149              		.loc 1 165 29 is_stmt 1 view -0
 150              		.cfi_startproc
 151              		@ args = 0, pretend = 0, frame = 0
 152              		@ frame_needed = 0, uses_anonymous_args = 0
 153              		@ link register save eliminated.
 154              		.loc 1 170 3 view .LVU40
 155              		.loc 1 170 16 is_stmt 0 view .LVU41
 156 0000 344B     		ldr	r3, .L34
 157              		.loc 1 176 12 view .LVU42
 158 0002 4FF44041 		mov	r1, #49152
 159              		.loc 1 170 16 view .LVU43
 160 0006 344A     		ldr	r2, .L34+4
 161 0008 1A64     		str	r2, [r3, #64]
 162              		.loc 1 176 3 is_stmt 1 view .LVU44
 163              		.loc 1 176 12 is_stmt 0 view .LVU45
 164 000a 344A     		ldr	r2, .L34+8
 165 000c 1160     		str	r1, [r2]
 166              		.loc 1 180 3 is_stmt 1 view .LVU46
 167              		.loc 1 180 11 is_stmt 0 view .LVU47
 168 000e 1A68     		ldr	r2, [r3]
 169 0010 42F00102 		orr	r2, r2, #1
 170 0014 1A60     		str	r2, [r3]
 171              		.loc 1 181 3 is_stmt 1 view .LVU48
ARM GAS  /tmp/ccaQnwEu.s 			page 4


 172              	.L9:
 173              		.loc 1 182 5 discriminator 1 view .LVU49
 174              		.loc 1 181 9 discriminator 1 view .LVU50
 175              		.loc 1 181 15 is_stmt 0 discriminator 1 view .LVU51
 176 0016 1A68     		ldr	r2, [r3]
 177              		.loc 1 181 9 discriminator 1 view .LVU52
 178 0018 9207     		lsls	r2, r2, #30
 179 001a FCD5     		bpl	.L9
 180              		.loc 1 187 3 is_stmt 1 view .LVU53
 181              		.loc 1 187 13 is_stmt 0 view .LVU54
 182 001c 9A68     		ldr	r2, [r3, #8]
 183 001e 22F00302 		bic	r2, r2, #3
 184 0022 9A60     		str	r2, [r3, #8]
 185              		.loc 1 188 3 is_stmt 1 view .LVU55
 186              		.loc 1 188 14 is_stmt 0 view .LVU56
 187 0024 2B4B     		ldr	r3, .L34
 188              	.L10:
 189              		.loc 1 189 5 is_stmt 1 discriminator 1 view .LVU57
 190              		.loc 1 188 9 discriminator 1 view .LVU58
 191              		.loc 1 188 14 is_stmt 0 discriminator 1 view .LVU59
 192 0026 9A68     		ldr	r2, [r3, #8]
 193              		.loc 1 188 9 discriminator 1 view .LVU60
 194 0028 12F00C02 		ands	r2, r2, #12
 195 002c FBD1     		bne	.L10
 196              		.loc 1 192 3 is_stmt 1 view .LVU61
 197              		.loc 1 192 11 is_stmt 0 view .LVU62
 198 002e 1968     		ldr	r1, [r3]
 199 0030 01F0F901 		and	r1, r1, #249
 200 0034 1960     		str	r1, [r3]
 201              		.loc 1 193 3 is_stmt 1 view .LVU63
 202              		.loc 1 193 13 is_stmt 0 view .LVU64
 203 0036 9A60     		str	r2, [r3, #8]
 204              		.loc 1 202 3 is_stmt 1 view .LVU65
 205              		.loc 1 202 11 is_stmt 0 view .LVU66
 206 0038 1A68     		ldr	r2, [r3]
 207 003a 42F48032 		orr	r2, r2, #65536
 208 003e 1A60     		str	r2, [r3]
 209              		.loc 1 204 3 is_stmt 1 view .LVU67
 210              	.L11:
 211              		.loc 1 205 5 discriminator 1 view .LVU68
 212              		.loc 1 204 9 discriminator 1 view .LVU69
 213              		.loc 1 204 14 is_stmt 0 discriminator 1 view .LVU70
 214 0040 1A68     		ldr	r2, [r3]
 215              		.loc 1 204 9 discriminator 1 view .LVU71
 216 0042 9003     		lsls	r0, r2, #14
 217 0044 FCD5     		bpl	.L11
 218              		.loc 1 210 3 is_stmt 1 view .LVU72
 219              		.loc 1 210 12 is_stmt 0 view .LVU73
 220 0046 5A6F     		ldr	r2, [r3, #116]
 221 0048 42F00102 		orr	r2, r2, #1
 222 004c 5A67     		str	r2, [r3, #116]
 223              		.loc 1 211 3 is_stmt 1 view .LVU74
 224              		.loc 1 211 14 is_stmt 0 view .LVU75
 225 004e 214B     		ldr	r3, .L34
 226              	.L12:
 227              		.loc 1 212 5 is_stmt 1 discriminator 1 view .LVU76
 228              		.loc 1 211 9 discriminator 1 view .LVU77
ARM GAS  /tmp/ccaQnwEu.s 			page 5


 229              		.loc 1 211 14 is_stmt 0 discriminator 1 view .LVU78
 230 0050 5A6F     		ldr	r2, [r3, #116]
 231              		.loc 1 211 9 discriminator 1 view .LVU79
 232 0052 9107     		lsls	r1, r2, #30
 233 0054 FCD5     		bpl	.L12
 234              		.loc 1 217 3 is_stmt 1 view .LVU80
 235              		.loc 1 217 16 is_stmt 0 view .LVU81
 236 0056 224A     		ldr	r2, .L34+12
 237 0058 5A60     		str	r2, [r3, #4]
 238              		.loc 1 219 3 is_stmt 1 view .LVU82
 239              		.loc 1 219 11 is_stmt 0 view .LVU83
 240 005a 1A68     		ldr	r2, [r3]
 241 005c 42F08072 		orr	r2, r2, #16777216
 242 0060 1A60     		str	r2, [r3]
 243              		.loc 1 222 3 is_stmt 1 view .LVU84
 244              		.loc 1 222 14 is_stmt 0 view .LVU85
 245 0062 1E4B     		ldr	r3, .L34+8
 246              	.L13:
 247              		.loc 1 223 5 is_stmt 1 discriminator 1 view .LVU86
 248              		.loc 1 222 9 discriminator 1 view .LVU87
 249              		.loc 1 222 14 is_stmt 0 discriminator 1 view .LVU88
 250 0064 5A68     		ldr	r2, [r3, #4]
 251              		.loc 1 222 9 discriminator 1 view .LVU89
 252 0066 5204     		lsls	r2, r2, #17
 253 0068 FCD5     		bpl	.L13
 254              		.loc 1 228 3 is_stmt 1 view .LVU90
 255              		.loc 1 228 12 is_stmt 0 view .LVU91
 256 006a 1A68     		ldr	r2, [r3]
 257 006c 42F48032 		orr	r2, r2, #65536
 258 0070 1A60     		str	r2, [r3]
 259              		.loc 1 229 3 is_stmt 1 view .LVU92
 260              	.L14:
 261              		.loc 1 230 7 discriminator 1 view .LVU93
 262              		.loc 1 229 9 discriminator 1 view .LVU94
 263              		.loc 1 229 15 is_stmt 0 discriminator 1 view .LVU95
 264 0072 5A68     		ldr	r2, [r3, #4]
 265              		.loc 1 229 9 discriminator 1 view .LVU96
 266 0074 D003     		lsls	r0, r2, #15
 267 0076 FCD5     		bpl	.L14
 268              		.loc 1 231 3 is_stmt 1 view .LVU97
 269              		.loc 1 231 12 is_stmt 0 view .LVU98
 270 0078 1A68     		ldr	r2, [r3]
 271 007a 42F40032 		orr	r2, r2, #131072
 272 007e 1A60     		str	r2, [r3]
 273              		.loc 1 232 3 is_stmt 1 view .LVU99
 274              		.loc 1 232 15 is_stmt 0 view .LVU100
 275 0080 164A     		ldr	r2, .L34+8
 276              	.L15:
 277              		.loc 1 233 7 is_stmt 1 discriminator 1 view .LVU101
 278              		.loc 1 232 9 discriminator 1 view .LVU102
 279              		.loc 1 232 15 is_stmt 0 discriminator 1 view .LVU103
 280 0082 5368     		ldr	r3, [r2, #4]
 281              		.loc 1 232 9 discriminator 1 view .LVU104
 282 0084 9903     		lsls	r1, r3, #14
 283 0086 FCD5     		bpl	.L15
 284              		.loc 1 237 15 view .LVU105
 285 0088 124B     		ldr	r3, .L34
ARM GAS  /tmp/ccaQnwEu.s 			page 6


 286              	.L16:
 287              		.loc 1 238 5 is_stmt 1 discriminator 1 view .LVU106
 288              		.loc 1 237 9 discriminator 1 view .LVU107
 289              		.loc 1 237 15 is_stmt 0 discriminator 1 view .LVU108
 290 008a 1A68     		ldr	r2, [r3]
 291              		.loc 1 237 9 discriminator 1 view .LVU109
 292 008c 9201     		lsls	r2, r2, #6
 293 008e FCD5     		bpl	.L16
 294              		.loc 1 264 3 is_stmt 1 view .LVU110
 295              		.loc 1 264 13 is_stmt 0 view .LVU111
 296 0090 144A     		ldr	r2, .L34+16
 297              		.loc 1 290 14 view .LVU112
 298 0092 40F20731 		movw	r1, #775
 299              		.loc 1 264 13 view .LVU113
 300 0096 9A60     		str	r2, [r3, #8]
 301              	.LBB6:
 302              		.loc 1 271 5 is_stmt 1 view .LVU114
 303              	.LVL2:
 304              		.loc 1 278 5 view .LVU115
 305              		.loc 1 278 19 is_stmt 0 view .LVU116
 306 0098 40F20112 		movw	r2, #257
 307 009c C3F88C20 		str	r2, [r3, #140]
 308              	.LBE6:
 309              		.loc 1 282 3 is_stmt 1 view .LVU117
 310              		.loc 1 282 17 is_stmt 0 view .LVU118
 311 00a0 0022     		movs	r2, #0
 312 00a2 C3F89020 		str	r2, [r3, #144]
 313              		.loc 1 290 3 is_stmt 1 view .LVU119
 314              		.loc 1 290 14 is_stmt 0 view .LVU120
 315 00a6 104A     		ldr	r2, .L34+20
 316 00a8 1160     		str	r1, [r2]
 317              		.loc 1 294 3 is_stmt 1 view .LVU121
 318              		.loc 1 294 13 is_stmt 0 view .LVU122
 319 00aa 9A68     		ldr	r2, [r3, #8]
 320 00ac 42F00202 		orr	r2, r2, #2
 321 00b0 9A60     		str	r2, [r3, #8]
 322              		.loc 1 295 3 is_stmt 1 view .LVU123
 323              		.loc 1 295 14 is_stmt 0 view .LVU124
 324 00b2 084B     		ldr	r3, .L34
 325              	.L17:
 326              		.loc 1 296 5 is_stmt 1 discriminator 1 view .LVU125
 327              		.loc 1 295 9 discriminator 1 view .LVU126
 328              		.loc 1 295 14 is_stmt 0 discriminator 1 view .LVU127
 329 00b4 9A68     		ldr	r2, [r3, #8]
 330              		.loc 1 295 21 discriminator 1 view .LVU128
 331 00b6 02F00C02 		and	r2, r2, #12
 332              		.loc 1 295 9 discriminator 1 view .LVU129
 333 00ba 082A     		cmp	r2, #8
 334 00bc FAD1     		bne	.L17
 335              		.loc 1 302 3 is_stmt 1 view .LVU130
 336 00be 5A6C     		ldr	r2, [r3, #68]
 337 00c0 42F48042 		orr	r2, r2, #16384
 338 00c4 5A64     		str	r2, [r3, #68]
 339              		.loc 1 302 3 view .LVU131
 340              		.loc 1 302 3 view .LVU132
 341 00c6 5A6E     		ldr	r2, [r3, #100]
 342 00c8 42F48042 		orr	r2, r2, #16384
ARM GAS  /tmp/ccaQnwEu.s 			page 7


 343 00cc 5A66     		str	r2, [r3, #100]
 344              		.loc 1 302 3 view .LVU133
 345 00ce 5B6E     		ldr	r3, [r3, #100]
 346              		.loc 1 302 44 view .LVU134
 347              		.loc 1 303 1 is_stmt 0 view .LVU135
 348 00d0 7047     		bx	lr
 349              	.L35:
 350 00d2 00BF     		.align	2
 351              	.L34:
 352 00d4 00380240 		.word	1073887232
 353 00d8 00040010 		.word	268436480
 354 00dc 00700040 		.word	1073770496
 355 00e0 08364009 		.word	155203080
 356 00e4 00948838 		.word	948474880
 357 00e8 003C0240 		.word	1073888256
 358              		.cfi_endproc
 359              	.LFE336:
 360              		.size	stm32_clock_init, .-stm32_clock_init
 361              		.global	SystemCoreClock
 362              		.section	.data.SystemCoreClock,"aw"
 363              		.align	2
 364              		.type	SystemCoreClock, %object
 365              		.size	SystemCoreClock, 4
 366              	SystemCoreClock:
 367 0000 00E6DF0C 		.word	216000000
 368              		.text
 369              	.Letext0:
 370              		.file 2 "/opt/gcc-arm-none-eabi-10-2020-q4-major/lib/gcc/arm-none-eabi/10.2.1/include/stddef.h"
 371              		.file 3 "/opt/gcc-arm-none-eabi-10-2020-q4-major/arm-none-eabi/include/machine/_default_types.h"
 372              		.file 4 "/opt/gcc-arm-none-eabi-10-2020-q4-major/arm-none-eabi/include/sys/_stdint.h"
 373              		.file 5 "../../modules/ChibiOS/os/common/ext/ST/STM32F7xx/stm32f767xx.h"
 374              		.file 6 "../../modules/ChibiOS/os/hal/ports/STM32/LLD/DMAv2/stm32_dma.h"
 375              		.file 7 "../../modules/ChibiOS/os/hal/ports/STM32/STM32F7xx/stm32_isr.h"
 376              		.file 8 "../../modules/ChibiOS/os/common/ext/ST/STM32F7xx/system_stm32f7xx.h"
 377              		.section	.debug_info,"",%progbits
 378              	.Ldebug_info0:
 379 0000 0D040000 		.4byte	0x40d
 380 0004 0400     		.2byte	0x4
 381 0006 00000000 		.4byte	.Ldebug_abbrev0
 382 000a 04       		.byte	0x4
 383 000b 01       		.uleb128 0x1
 384 000c 9C020000 		.4byte	.LASF58
 385 0010 0C       		.byte	0xc
 386 0011 2F010000 		.4byte	.LASF59
 387 0015 A2000000 		.4byte	.LASF60
 388 0019 00000000 		.4byte	.Ldebug_ranges0+0
 389 001d 00000000 		.4byte	0
 390 0021 00000000 		.4byte	.Ldebug_line0
 391 0025 02       		.uleb128 0x2
 392 0026 04       		.byte	0x4
 393 0027 05       		.byte	0x5
 394 0028 696E7400 		.ascii	"int\000"
 395 002c 03       		.uleb128 0x3
 396 002d 25000000 		.4byte	.LASF8
 397 0031 02       		.byte	0x2
 398 0032 D1       		.byte	0xd1
 399 0033 17       		.byte	0x17
ARM GAS  /tmp/ccaQnwEu.s 			page 8


 400 0034 38000000 		.4byte	0x38
 401 0038 04       		.uleb128 0x4
 402 0039 04       		.byte	0x4
 403 003a 07       		.byte	0x7
 404 003b C0010000 		.4byte	.LASF0
 405 003f 04       		.uleb128 0x4
 406 0040 08       		.byte	0x8
 407 0041 05       		.byte	0x5
 408 0042 94000000 		.4byte	.LASF1
 409 0046 04       		.uleb128 0x4
 410 0047 08       		.byte	0x8
 411 0048 04       		.byte	0x4
 412 0049 23010000 		.4byte	.LASF2
 413 004d 04       		.uleb128 0x4
 414 004e 01       		.byte	0x1
 415 004f 06       		.byte	0x6
 416 0050 94010000 		.4byte	.LASF3
 417 0054 04       		.uleb128 0x4
 418 0055 01       		.byte	0x1
 419 0056 08       		.byte	0x8
 420 0057 6C010000 		.4byte	.LASF4
 421 005b 04       		.uleb128 0x4
 422 005c 02       		.byte	0x2
 423 005d 05       		.byte	0x5
 424 005e 1B000000 		.4byte	.LASF5
 425 0062 04       		.uleb128 0x4
 426 0063 02       		.byte	0x2
 427 0064 07       		.byte	0x7
 428 0065 EB010000 		.4byte	.LASF6
 429 0069 04       		.uleb128 0x4
 430 006a 04       		.byte	0x4
 431 006b 05       		.byte	0x5
 432 006c D6000000 		.4byte	.LASF7
 433 0070 03       		.uleb128 0x3
 434 0071 48000000 		.4byte	.LASF9
 435 0075 03       		.byte	0x3
 436 0076 4F       		.byte	0x4f
 437 0077 19       		.byte	0x19
 438 0078 7C000000 		.4byte	0x7c
 439 007c 04       		.uleb128 0x4
 440 007d 04       		.byte	0x4
 441 007e 07       		.byte	0x7
 442 007f 67020000 		.4byte	.LASF10
 443 0083 04       		.uleb128 0x4
 444 0084 08       		.byte	0x8
 445 0085 07       		.byte	0x7
 446 0086 A0010000 		.4byte	.LASF11
 447 008a 03       		.uleb128 0x3
 448 008b B7010000 		.4byte	.LASF12
 449 008f 04       		.byte	0x4
 450 0090 30       		.byte	0x30
 451 0091 14       		.byte	0x14
 452 0092 70000000 		.4byte	0x70
 453 0096 05       		.uleb128 0x5
 454 0097 8A000000 		.4byte	0x8a
 455 009b 06       		.uleb128 0x6
 456 009c 8A000000 		.4byte	0x8a
ARM GAS  /tmp/ccaQnwEu.s 			page 9


 457 00a0 AB000000 		.4byte	0xab
 458 00a4 07       		.uleb128 0x7
 459 00a5 38000000 		.4byte	0x38
 460 00a9 01       		.byte	0x1
 461 00aa 00       		.byte	0
 462 00ab 08       		.uleb128 0x8
 463 00ac 09020000 		.4byte	.LASF61
 464 00b0 08       		.byte	0x8
 465 00b1 4C       		.byte	0x4c
 466 00b2 11       		.byte	0x11
 467 00b3 8A000000 		.4byte	0x8a
 468 00b7 09       		.uleb128 0x9
 469 00b8 1C       		.byte	0x1c
 470 00b9 05       		.byte	0x5
 471 00ba 4302     		.2byte	0x243
 472 00bc 09       		.byte	0x9
 473 00bd 22010000 		.4byte	0x122
 474 00c1 0A       		.uleb128 0xa
 475 00c2 41435200 		.ascii	"ACR\000"
 476 00c6 05       		.byte	0x5
 477 00c7 4502     		.2byte	0x245
 478 00c9 11       		.byte	0x11
 479 00ca 96000000 		.4byte	0x96
 480 00ce 00       		.byte	0
 481 00cf 0B       		.uleb128 0xb
 482 00d0 1E010000 		.4byte	.LASF13
 483 00d4 05       		.byte	0x5
 484 00d5 4602     		.2byte	0x246
 485 00d7 11       		.byte	0x11
 486 00d8 96000000 		.4byte	0x96
 487 00dc 04       		.byte	0x4
 488 00dd 0B       		.uleb128 0xb
 489 00de 8C000000 		.4byte	.LASF14
 490 00e2 05       		.byte	0x5
 491 00e3 4702     		.2byte	0x247
 492 00e5 11       		.byte	0x11
 493 00e6 96000000 		.4byte	0x96
 494 00ea 08       		.byte	0x8
 495 00eb 0A       		.uleb128 0xa
 496 00ec 535200   		.ascii	"SR\000"
 497 00ef 05       		.byte	0x5
 498 00f0 4802     		.2byte	0x248
 499 00f2 11       		.byte	0x11
 500 00f3 96000000 		.4byte	0x96
 501 00f7 0C       		.byte	0xc
 502 00f8 0A       		.uleb128 0xa
 503 00f9 435200   		.ascii	"CR\000"
 504 00fc 05       		.byte	0x5
 505 00fd 4902     		.2byte	0x249
 506 00ff 11       		.byte	0x11
 507 0100 96000000 		.4byte	0x96
 508 0104 10       		.byte	0x10
 509 0105 0B       		.uleb128 0xb
 510 0106 DC030000 		.4byte	.LASF15
 511 010a 05       		.byte	0x5
 512 010b 4A02     		.2byte	0x24a
 513 010d 11       		.byte	0x11
ARM GAS  /tmp/ccaQnwEu.s 			page 10


 514 010e 96000000 		.4byte	0x96
 515 0112 14       		.byte	0x14
 516 0113 0B       		.uleb128 0xb
 517 0114 17010000 		.4byte	.LASF16
 518 0118 05       		.byte	0x5
 519 0119 4B02     		.2byte	0x24b
 520 011b 11       		.byte	0x11
 521 011c 96000000 		.4byte	0x96
 522 0120 18       		.byte	0x18
 523 0121 00       		.byte	0
 524 0122 0C       		.uleb128 0xc
 525 0123 B9030000 		.4byte	.LASF17
 526 0127 05       		.byte	0x5
 527 0128 4C02     		.2byte	0x24c
 528 012a 03       		.byte	0x3
 529 012b B7000000 		.4byte	0xb7
 530 012f 09       		.uleb128 0x9
 531 0130 10       		.byte	0x10
 532 0131 05       		.byte	0x5
 533 0132 F202     		.2byte	0x2f2
 534 0134 09       		.byte	0x9
 535 0135 72010000 		.4byte	0x172
 536 0139 0A       		.uleb128 0xa
 537 013a 43523100 		.ascii	"CR1\000"
 538 013e 05       		.byte	0x5
 539 013f F402     		.2byte	0x2f4
 540 0141 11       		.byte	0x11
 541 0142 96000000 		.4byte	0x96
 542 0146 00       		.byte	0
 543 0147 0B       		.uleb128 0xb
 544 0148 8A010000 		.4byte	.LASF18
 545 014c 05       		.byte	0x5
 546 014d F502     		.2byte	0x2f5
 547 014f 11       		.byte	0x11
 548 0150 96000000 		.4byte	0x96
 549 0154 04       		.byte	0x4
 550 0155 0A       		.uleb128 0xa
 551 0156 43523200 		.ascii	"CR2\000"
 552 015a 05       		.byte	0x5
 553 015b F602     		.2byte	0x2f6
 554 015d 11       		.byte	0x11
 555 015e 96000000 		.4byte	0x96
 556 0162 08       		.byte	0x8
 557 0163 0B       		.uleb128 0xb
 558 0164 8F010000 		.4byte	.LASF19
 559 0168 05       		.byte	0x5
 560 0169 F702     		.2byte	0x2f7
 561 016b 11       		.byte	0x11
 562 016c 96000000 		.4byte	0x96
 563 0170 0C       		.byte	0xc
 564 0171 00       		.byte	0
 565 0172 0C       		.uleb128 0xc
 566 0173 3C000000 		.4byte	.LASF20
 567 0177 05       		.byte	0x5
 568 0178 F802     		.2byte	0x2f8
 569 017a 03       		.byte	0x3
 570 017b 2F010000 		.4byte	0x12f
ARM GAS  /tmp/ccaQnwEu.s 			page 11


 571 017f 09       		.uleb128 0x9
 572 0180 94       		.byte	0x94
 573 0181 05       		.byte	0x5
 574 0182 FF02     		.2byte	0x2ff
 575 0184 09       		.byte	0x9
 576 0185 57030000 		.4byte	0x357
 577 0189 0A       		.uleb128 0xa
 578 018a 435200   		.ascii	"CR\000"
 579 018d 05       		.byte	0x5
 580 018e 0103     		.2byte	0x301
 581 0190 11       		.byte	0x11
 582 0191 96000000 		.4byte	0x96
 583 0195 00       		.byte	0
 584 0196 0B       		.uleb128 0xb
 585 0197 E3010000 		.4byte	.LASF21
 586 019b 05       		.byte	0x5
 587 019c 0203     		.2byte	0x302
 588 019e 11       		.byte	0x11
 589 019f 96000000 		.4byte	0x96
 590 01a3 04       		.byte	0x4
 591 01a4 0B       		.uleb128 0xb
 592 01a5 6D000000 		.4byte	.LASF22
 593 01a9 05       		.byte	0x5
 594 01aa 0303     		.2byte	0x303
 595 01ac 11       		.byte	0x11
 596 01ad 96000000 		.4byte	0x96
 597 01b1 08       		.byte	0x8
 598 01b2 0A       		.uleb128 0xa
 599 01b3 43495200 		.ascii	"CIR\000"
 600 01b7 05       		.byte	0x5
 601 01b8 0403     		.2byte	0x304
 602 01ba 11       		.byte	0x11
 603 01bb 96000000 		.4byte	0x96
 604 01bf 0C       		.byte	0xc
 605 01c0 0B       		.uleb128 0xb
 606 01c1 A7030000 		.4byte	.LASF23
 607 01c5 05       		.byte	0x5
 608 01c6 0503     		.2byte	0x305
 609 01c8 11       		.byte	0x11
 610 01c9 96000000 		.4byte	0x96
 611 01cd 10       		.byte	0x10
 612 01ce 0B       		.uleb128 0xb
 613 01cf CD010000 		.4byte	.LASF24
 614 01d3 05       		.byte	0x5
 615 01d4 0603     		.2byte	0x306
 616 01d6 11       		.byte	0x11
 617 01d7 96000000 		.4byte	0x96
 618 01db 14       		.byte	0x14
 619 01dc 0B       		.uleb128 0xb
 620 01dd B0030000 		.4byte	.LASF25
 621 01e1 05       		.byte	0x5
 622 01e2 0703     		.2byte	0x307
 623 01e4 11       		.byte	0x11
 624 01e5 96000000 		.4byte	0x96
 625 01e9 18       		.byte	0x18
 626 01ea 0B       		.uleb128 0xb
 627 01eb 2B020000 		.4byte	.LASF26
ARM GAS  /tmp/ccaQnwEu.s 			page 12


 628 01ef 05       		.byte	0x5
 629 01f0 0803     		.2byte	0x308
 630 01f2 11       		.byte	0x11
 631 01f3 8A000000 		.4byte	0x8a
 632 01f7 1C       		.byte	0x1c
 633 01f8 0B       		.uleb128 0xb
 634 01f9 0A000000 		.4byte	.LASF27
 635 01fd 05       		.byte	0x5
 636 01fe 0903     		.2byte	0x309
 637 0200 11       		.byte	0x11
 638 0201 96000000 		.4byte	0x96
 639 0205 20       		.byte	0x20
 640 0206 0B       		.uleb128 0xb
 641 0207 FD000000 		.4byte	.LASF28
 642 020b 05       		.byte	0x5
 643 020c 0A03     		.2byte	0x30a
 644 020e 11       		.byte	0x11
 645 020f 96000000 		.4byte	0x96
 646 0213 24       		.byte	0x24
 647 0214 0B       		.uleb128 0xb
 648 0215 35020000 		.4byte	.LASF29
 649 0219 05       		.byte	0x5
 650 021a 0B03     		.2byte	0x30b
 651 021c 11       		.byte	0x11
 652 021d 9B000000 		.4byte	0x9b
 653 0221 28       		.byte	0x28
 654 0222 0B       		.uleb128 0xb
 655 0223 94020000 		.4byte	.LASF30
 656 0227 05       		.byte	0x5
 657 0228 0C03     		.2byte	0x30c
 658 022a 11       		.byte	0x11
 659 022b 96000000 		.4byte	0x96
 660 022f 30       		.byte	0x30
 661 0230 0B       		.uleb128 0xb
 662 0231 13000000 		.4byte	.LASF31
 663 0235 05       		.byte	0x5
 664 0236 0D03     		.2byte	0x30d
 665 0238 11       		.byte	0x11
 666 0239 96000000 		.4byte	0x96
 667 023d 34       		.byte	0x34
 668 023e 0B       		.uleb128 0xb
 669 023f 84000000 		.4byte	.LASF32
 670 0243 05       		.byte	0x5
 671 0244 0E03     		.2byte	0x30e
 672 0246 11       		.byte	0x11
 673 0247 96000000 		.4byte	0x96
 674 024b 38       		.byte	0x38
 675 024c 0B       		.uleb128 0xb
 676 024d 3F020000 		.4byte	.LASF33
 677 0251 05       		.byte	0x5
 678 0252 0F03     		.2byte	0x30f
 679 0254 11       		.byte	0x11
 680 0255 8A000000 		.4byte	0x8a
 681 0259 3C       		.byte	0x3c
 682 025a 0B       		.uleb128 0xb
 683 025b 72000000 		.4byte	.LASF34
 684 025f 05       		.byte	0x5
ARM GAS  /tmp/ccaQnwEu.s 			page 13


 685 0260 1003     		.2byte	0x310
 686 0262 11       		.byte	0x11
 687 0263 96000000 		.4byte	0x96
 688 0267 40       		.byte	0x40
 689 0268 0B       		.uleb128 0xb
 690 0269 7A010000 		.4byte	.LASF35
 691 026d 05       		.byte	0x5
 692 026e 1103     		.2byte	0x311
 693 0270 11       		.byte	0x11
 694 0271 96000000 		.4byte	0x96
 695 0275 44       		.byte	0x44
 696 0276 0B       		.uleb128 0xb
 697 0277 49020000 		.4byte	.LASF36
 698 027b 05       		.byte	0x5
 699 027c 1203     		.2byte	0x312
 700 027e 11       		.byte	0x11
 701 027f 9B000000 		.4byte	0x9b
 702 0283 48       		.byte	0x48
 703 0284 0B       		.uleb128 0xb
 704 0285 00000000 		.4byte	.LASF37
 705 0289 05       		.byte	0x5
 706 028a 1303     		.2byte	0x313
 707 028c 11       		.byte	0x11
 708 028d 96000000 		.4byte	0x96
 709 0291 50       		.byte	0x50
 710 0292 0B       		.uleb128 0xb
 711 0293 19020000 		.4byte	.LASF38
 712 0297 05       		.byte	0x5
 713 0298 1403     		.2byte	0x314
 714 029a 11       		.byte	0x11
 715 029b 96000000 		.4byte	0x96
 716 029f 54       		.byte	0x54
 717 02a0 0B       		.uleb128 0xb
 718 02a1 63000000 		.4byte	.LASF39
 719 02a5 05       		.byte	0x5
 720 02a6 1503     		.2byte	0x315
 721 02a8 11       		.byte	0x11
 722 02a9 96000000 		.4byte	0x96
 723 02ad 58       		.byte	0x58
 724 02ae 0B       		.uleb128 0xb
 725 02af 53020000 		.4byte	.LASF40
 726 02b3 05       		.byte	0x5
 727 02b4 1603     		.2byte	0x316
 728 02b6 11       		.byte	0x11
 729 02b7 8A000000 		.4byte	0x8a
 730 02bb 5C       		.byte	0x5c
 731 02bc 0B       		.uleb128 0xb
 732 02bd D2030000 		.4byte	.LASF41
 733 02c1 05       		.byte	0x5
 734 02c2 1703     		.2byte	0x317
 735 02c4 11       		.byte	0x11
 736 02c5 96000000 		.4byte	0x96
 737 02c9 60       		.byte	0x60
 738 02ca 0B       		.uleb128 0xb
 739 02cb 53000000 		.4byte	.LASF42
 740 02cf 05       		.byte	0x5
 741 02d0 1803     		.2byte	0x318
ARM GAS  /tmp/ccaQnwEu.s 			page 14


 742 02d2 11       		.byte	0x11
 743 02d3 96000000 		.4byte	0x96
 744 02d7 64       		.byte	0x64
 745 02d8 0B       		.uleb128 0xb
 746 02d9 5D020000 		.4byte	.LASF43
 747 02dd 05       		.byte	0x5
 748 02de 1903     		.2byte	0x319
 749 02e0 11       		.byte	0x11
 750 02e1 9B000000 		.4byte	0x9b
 751 02e5 68       		.byte	0x68
 752 02e6 0B       		.uleb128 0xb
 753 02e7 2C000000 		.4byte	.LASF44
 754 02eb 05       		.byte	0x5
 755 02ec 1A03     		.2byte	0x31a
 756 02ee 11       		.byte	0x11
 757 02ef 96000000 		.4byte	0x96
 758 02f3 70       		.byte	0x70
 759 02f4 0A       		.uleb128 0xa
 760 02f5 43535200 		.ascii	"CSR\000"
 761 02f9 05       		.byte	0x5
 762 02fa 1B03     		.2byte	0x31b
 763 02fc 11       		.byte	0x11
 764 02fd 96000000 		.4byte	0x96
 765 0301 74       		.byte	0x74
 766 0302 0B       		.uleb128 0xb
 767 0303 7A000000 		.4byte	.LASF45
 768 0307 05       		.byte	0x5
 769 0308 1C03     		.2byte	0x31c
 770 030a 11       		.byte	0x11
 771 030b 9B000000 		.4byte	0x9b
 772 030f 78       		.byte	0x78
 773 0310 0B       		.uleb128 0xb
 774 0311 5D000000 		.4byte	.LASF46
 775 0315 05       		.byte	0x5
 776 0316 1D03     		.2byte	0x31d
 777 0318 11       		.byte	0x11
 778 0319 96000000 		.4byte	0x96
 779 031d 80       		.byte	0x80
 780 031e 0B       		.uleb128 0xb
 781 031f 31000000 		.4byte	.LASF47
 782 0323 05       		.byte	0x5
 783 0324 1E03     		.2byte	0x31e
 784 0326 11       		.byte	0x11
 785 0327 96000000 		.4byte	0x96
 786 032b 84       		.byte	0x84
 787 032c 0B       		.uleb128 0xb
 788 032d C7030000 		.4byte	.LASF48
 789 0331 05       		.byte	0x5
 790 0332 1F03     		.2byte	0x31f
 791 0334 11       		.byte	0x11
 792 0335 96000000 		.4byte	0x96
 793 0339 88       		.byte	0x88
 794 033a 0B       		.uleb128 0xb
 795 033b EB000000 		.4byte	.LASF49
 796 033f 05       		.byte	0x5
 797 0340 2003     		.2byte	0x320
 798 0342 11       		.byte	0x11
ARM GAS  /tmp/ccaQnwEu.s 			page 15


 799 0343 96000000 		.4byte	0x96
 800 0347 8C       		.byte	0x8c
 801 0348 0B       		.uleb128 0xb
 802 0349 F4000000 		.4byte	.LASF50
 803 034d 05       		.byte	0x5
 804 034e 2103     		.2byte	0x321
 805 0350 11       		.byte	0x11
 806 0351 96000000 		.4byte	0x96
 807 0355 90       		.byte	0x90
 808 0356 00       		.byte	0
 809 0357 0C       		.uleb128 0xc
 810 0358 DF000000 		.4byte	.LASF51
 811 035c 05       		.byte	0x5
 812 035d 2303     		.2byte	0x323
 813 035f 03       		.byte	0x3
 814 0360 7F010000 		.4byte	0x17f
 815 0364 04       		.uleb128 0x4
 816 0365 01       		.byte	0x1
 817 0366 08       		.byte	0x8
 818 0367 FE010000 		.4byte	.LASF52
 819 036b 04       		.uleb128 0x4
 820 036c 01       		.byte	0x1
 821 036d 02       		.byte	0x2
 822 036e 03020000 		.4byte	.LASF53
 823 0372 0D       		.uleb128 0xd
 824 0373 AB000000 		.4byte	0xab
 825 0377 01       		.byte	0x1
 826 0378 27       		.byte	0x27
 827 0379 0A       		.byte	0xa
 828 037a 05       		.uleb128 0x5
 829 037b 03       		.byte	0x3
 830 037c 00000000 		.4byte	SystemCoreClock
 831 0380 0E       		.uleb128 0xe
 832 0381 06010000 		.4byte	.LASF54
 833 0385 01       		.byte	0x1
 834 0386 A5       		.byte	0xa5
 835 0387 06       		.byte	0x6
 836 0388 00000000 		.4byte	.LFB336
 837 038c EC000000 		.4byte	.LFE336-.LFB336
 838 0390 01       		.uleb128 0x1
 839 0391 9C       		.byte	0x9c
 840 0392 B0030000 		.4byte	0x3b0
 841 0396 0F       		.uleb128 0xf
 842 0397 98000000 		.4byte	.LBB6
 843 039b 08000000 		.4byte	.LBE6-.LBB6
 844 039f 10       		.uleb128 0x10
 845 03a0 9E030000 		.4byte	.LASF62
 846 03a4 01       		.byte	0x1
 847 03a5 0F01     		.2byte	0x10f
 848 03a7 0E       		.byte	0xe
 849 03a8 8A000000 		.4byte	0x8a
 850 03ac 0101     		.2byte	0x101
 851 03ae 00       		.byte	0
 852 03af 00       		.byte	0
 853 03b0 0E       		.uleb128 0xe
 854 03b1 D6010000 		.4byte	.LASF55
 855 03b5 01       		.byte	0x1
ARM GAS  /tmp/ccaQnwEu.s 			page 16


 856 03b6 72       		.byte	0x72
 857 03b7 06       		.byte	0x6
 858 03b8 00000000 		.4byte	.LFB335
 859 03bc 80000000 		.4byte	.LFE335-.LFB335
 860 03c0 01       		.uleb128 0x1
 861 03c1 9C       		.byte	0x9c
 862 03c2 EE030000 		.4byte	0x3ee
 863 03c6 11       		.uleb128 0x11
 864 03c7 EE030000 		.4byte	0x3ee
 865 03cb 46000000 		.4byte	.LBI4
 866 03cf 02       		.byte	.LVU22
 867 03d0 46000000 		.4byte	.LBB4
 868 03d4 26000000 		.4byte	.LBE4-.LBB4
 869 03d8 01       		.byte	0x1
 870 03d9 7E       		.byte	0x7e
 871 03da 03       		.byte	0x3
 872 03db 12       		.uleb128 0x12
 873 03dc 70000000 		.4byte	.LVL0
 874 03e0 F7030000 		.4byte	0x3f7
 875 03e4 13       		.uleb128 0x13
 876 03e5 78000000 		.4byte	.LVL1
 877 03e9 04040000 		.4byte	0x404
 878 03ed 00       		.byte	0
 879 03ee 14       		.uleb128 0x14
 880 03ef 79020000 		.4byte	.LASF63
 881 03f3 01       		.byte	0x1
 882 03f4 36       		.byte	0x36
 883 03f5 0D       		.byte	0xd
 884 03f6 01       		.byte	0x1
 885 03f7 15       		.uleb128 0x15
 886 03f8 23020000 		.4byte	.LASF56
 887 03fc 23020000 		.4byte	.LASF56
 888 0400 06       		.byte	0x6
 889 0401 9602     		.2byte	0x296
 890 0403 08       		.byte	0x8
 891 0404 16       		.uleb128 0x16
 892 0405 82010000 		.4byte	.LASF57
 893 0409 82010000 		.4byte	.LASF57
 894 040d 07       		.byte	0x7
 895 040e A5       		.byte	0xa5
 896 040f 08       		.byte	0x8
 897 0410 00       		.byte	0
 898              		.section	.debug_abbrev,"",%progbits
 899              	.Ldebug_abbrev0:
 900 0000 01       		.uleb128 0x1
 901 0001 11       		.uleb128 0x11
 902 0002 01       		.byte	0x1
 903 0003 25       		.uleb128 0x25
 904 0004 0E       		.uleb128 0xe
 905 0005 13       		.uleb128 0x13
 906 0006 0B       		.uleb128 0xb
 907 0007 03       		.uleb128 0x3
 908 0008 0E       		.uleb128 0xe
 909 0009 1B       		.uleb128 0x1b
 910 000a 0E       		.uleb128 0xe
 911 000b 55       		.uleb128 0x55
 912 000c 17       		.uleb128 0x17
ARM GAS  /tmp/ccaQnwEu.s 			page 17


 913 000d 11       		.uleb128 0x11
 914 000e 01       		.uleb128 0x1
 915 000f 10       		.uleb128 0x10
 916 0010 17       		.uleb128 0x17
 917 0011 00       		.byte	0
 918 0012 00       		.byte	0
 919 0013 02       		.uleb128 0x2
 920 0014 24       		.uleb128 0x24
 921 0015 00       		.byte	0
 922 0016 0B       		.uleb128 0xb
 923 0017 0B       		.uleb128 0xb
 924 0018 3E       		.uleb128 0x3e
 925 0019 0B       		.uleb128 0xb
 926 001a 03       		.uleb128 0x3
 927 001b 08       		.uleb128 0x8
 928 001c 00       		.byte	0
 929 001d 00       		.byte	0
 930 001e 03       		.uleb128 0x3
 931 001f 16       		.uleb128 0x16
 932 0020 00       		.byte	0
 933 0021 03       		.uleb128 0x3
 934 0022 0E       		.uleb128 0xe
 935 0023 3A       		.uleb128 0x3a
 936 0024 0B       		.uleb128 0xb
 937 0025 3B       		.uleb128 0x3b
 938 0026 0B       		.uleb128 0xb
 939 0027 39       		.uleb128 0x39
 940 0028 0B       		.uleb128 0xb
 941 0029 49       		.uleb128 0x49
 942 002a 13       		.uleb128 0x13
 943 002b 00       		.byte	0
 944 002c 00       		.byte	0
 945 002d 04       		.uleb128 0x4
 946 002e 24       		.uleb128 0x24
 947 002f 00       		.byte	0
 948 0030 0B       		.uleb128 0xb
 949 0031 0B       		.uleb128 0xb
 950 0032 3E       		.uleb128 0x3e
 951 0033 0B       		.uleb128 0xb
 952 0034 03       		.uleb128 0x3
 953 0035 0E       		.uleb128 0xe
 954 0036 00       		.byte	0
 955 0037 00       		.byte	0
 956 0038 05       		.uleb128 0x5
 957 0039 35       		.uleb128 0x35
 958 003a 00       		.byte	0
 959 003b 49       		.uleb128 0x49
 960 003c 13       		.uleb128 0x13
 961 003d 00       		.byte	0
 962 003e 00       		.byte	0
 963 003f 06       		.uleb128 0x6
 964 0040 01       		.uleb128 0x1
 965 0041 01       		.byte	0x1
 966 0042 49       		.uleb128 0x49
 967 0043 13       		.uleb128 0x13
 968 0044 01       		.uleb128 0x1
 969 0045 13       		.uleb128 0x13
ARM GAS  /tmp/ccaQnwEu.s 			page 18


 970 0046 00       		.byte	0
 971 0047 00       		.byte	0
 972 0048 07       		.uleb128 0x7
 973 0049 21       		.uleb128 0x21
 974 004a 00       		.byte	0
 975 004b 49       		.uleb128 0x49
 976 004c 13       		.uleb128 0x13
 977 004d 2F       		.uleb128 0x2f
 978 004e 0B       		.uleb128 0xb
 979 004f 00       		.byte	0
 980 0050 00       		.byte	0
 981 0051 08       		.uleb128 0x8
 982 0052 34       		.uleb128 0x34
 983 0053 00       		.byte	0
 984 0054 03       		.uleb128 0x3
 985 0055 0E       		.uleb128 0xe
 986 0056 3A       		.uleb128 0x3a
 987 0057 0B       		.uleb128 0xb
 988 0058 3B       		.uleb128 0x3b
 989 0059 0B       		.uleb128 0xb
 990 005a 39       		.uleb128 0x39
 991 005b 0B       		.uleb128 0xb
 992 005c 49       		.uleb128 0x49
 993 005d 13       		.uleb128 0x13
 994 005e 3F       		.uleb128 0x3f
 995 005f 19       		.uleb128 0x19
 996 0060 3C       		.uleb128 0x3c
 997 0061 19       		.uleb128 0x19
 998 0062 00       		.byte	0
 999 0063 00       		.byte	0
 1000 0064 09       		.uleb128 0x9
 1001 0065 13       		.uleb128 0x13
 1002 0066 01       		.byte	0x1
 1003 0067 0B       		.uleb128 0xb
 1004 0068 0B       		.uleb128 0xb
 1005 0069 3A       		.uleb128 0x3a
 1006 006a 0B       		.uleb128 0xb
 1007 006b 3B       		.uleb128 0x3b
 1008 006c 05       		.uleb128 0x5
 1009 006d 39       		.uleb128 0x39
 1010 006e 0B       		.uleb128 0xb
 1011 006f 01       		.uleb128 0x1
 1012 0070 13       		.uleb128 0x13
 1013 0071 00       		.byte	0
 1014 0072 00       		.byte	0
 1015 0073 0A       		.uleb128 0xa
 1016 0074 0D       		.uleb128 0xd
 1017 0075 00       		.byte	0
 1018 0076 03       		.uleb128 0x3
 1019 0077 08       		.uleb128 0x8
 1020 0078 3A       		.uleb128 0x3a
 1021 0079 0B       		.uleb128 0xb
 1022 007a 3B       		.uleb128 0x3b
 1023 007b 05       		.uleb128 0x5
 1024 007c 39       		.uleb128 0x39
 1025 007d 0B       		.uleb128 0xb
 1026 007e 49       		.uleb128 0x49
ARM GAS  /tmp/ccaQnwEu.s 			page 19


 1027 007f 13       		.uleb128 0x13
 1028 0080 38       		.uleb128 0x38
 1029 0081 0B       		.uleb128 0xb
 1030 0082 00       		.byte	0
 1031 0083 00       		.byte	0
 1032 0084 0B       		.uleb128 0xb
 1033 0085 0D       		.uleb128 0xd
 1034 0086 00       		.byte	0
 1035 0087 03       		.uleb128 0x3
 1036 0088 0E       		.uleb128 0xe
 1037 0089 3A       		.uleb128 0x3a
 1038 008a 0B       		.uleb128 0xb
 1039 008b 3B       		.uleb128 0x3b
 1040 008c 05       		.uleb128 0x5
 1041 008d 39       		.uleb128 0x39
 1042 008e 0B       		.uleb128 0xb
 1043 008f 49       		.uleb128 0x49
 1044 0090 13       		.uleb128 0x13
 1045 0091 38       		.uleb128 0x38
 1046 0092 0B       		.uleb128 0xb
 1047 0093 00       		.byte	0
 1048 0094 00       		.byte	0
 1049 0095 0C       		.uleb128 0xc
 1050 0096 16       		.uleb128 0x16
 1051 0097 00       		.byte	0
 1052 0098 03       		.uleb128 0x3
 1053 0099 0E       		.uleb128 0xe
 1054 009a 3A       		.uleb128 0x3a
 1055 009b 0B       		.uleb128 0xb
 1056 009c 3B       		.uleb128 0x3b
 1057 009d 05       		.uleb128 0x5
 1058 009e 39       		.uleb128 0x39
 1059 009f 0B       		.uleb128 0xb
 1060 00a0 49       		.uleb128 0x49
 1061 00a1 13       		.uleb128 0x13
 1062 00a2 00       		.byte	0
 1063 00a3 00       		.byte	0
 1064 00a4 0D       		.uleb128 0xd
 1065 00a5 34       		.uleb128 0x34
 1066 00a6 00       		.byte	0
 1067 00a7 47       		.uleb128 0x47
 1068 00a8 13       		.uleb128 0x13
 1069 00a9 3A       		.uleb128 0x3a
 1070 00aa 0B       		.uleb128 0xb
 1071 00ab 3B       		.uleb128 0x3b
 1072 00ac 0B       		.uleb128 0xb
 1073 00ad 39       		.uleb128 0x39
 1074 00ae 0B       		.uleb128 0xb
 1075 00af 02       		.uleb128 0x2
 1076 00b0 18       		.uleb128 0x18
 1077 00b1 00       		.byte	0
 1078 00b2 00       		.byte	0
 1079 00b3 0E       		.uleb128 0xe
 1080 00b4 2E       		.uleb128 0x2e
 1081 00b5 01       		.byte	0x1
 1082 00b6 3F       		.uleb128 0x3f
 1083 00b7 19       		.uleb128 0x19
ARM GAS  /tmp/ccaQnwEu.s 			page 20


 1084 00b8 03       		.uleb128 0x3
 1085 00b9 0E       		.uleb128 0xe
 1086 00ba 3A       		.uleb128 0x3a
 1087 00bb 0B       		.uleb128 0xb
 1088 00bc 3B       		.uleb128 0x3b
 1089 00bd 0B       		.uleb128 0xb
 1090 00be 39       		.uleb128 0x39
 1091 00bf 0B       		.uleb128 0xb
 1092 00c0 27       		.uleb128 0x27
 1093 00c1 19       		.uleb128 0x19
 1094 00c2 11       		.uleb128 0x11
 1095 00c3 01       		.uleb128 0x1
 1096 00c4 12       		.uleb128 0x12
 1097 00c5 06       		.uleb128 0x6
 1098 00c6 40       		.uleb128 0x40
 1099 00c7 18       		.uleb128 0x18
 1100 00c8 9742     		.uleb128 0x2117
 1101 00ca 19       		.uleb128 0x19
 1102 00cb 01       		.uleb128 0x1
 1103 00cc 13       		.uleb128 0x13
 1104 00cd 00       		.byte	0
 1105 00ce 00       		.byte	0
 1106 00cf 0F       		.uleb128 0xf
 1107 00d0 0B       		.uleb128 0xb
 1108 00d1 01       		.byte	0x1
 1109 00d2 11       		.uleb128 0x11
 1110 00d3 01       		.uleb128 0x1
 1111 00d4 12       		.uleb128 0x12
 1112 00d5 06       		.uleb128 0x6
 1113 00d6 00       		.byte	0
 1114 00d7 00       		.byte	0
 1115 00d8 10       		.uleb128 0x10
 1116 00d9 34       		.uleb128 0x34
 1117 00da 00       		.byte	0
 1118 00db 03       		.uleb128 0x3
 1119 00dc 0E       		.uleb128 0xe
 1120 00dd 3A       		.uleb128 0x3a
 1121 00de 0B       		.uleb128 0xb
 1122 00df 3B       		.uleb128 0x3b
 1123 00e0 05       		.uleb128 0x5
 1124 00e1 39       		.uleb128 0x39
 1125 00e2 0B       		.uleb128 0xb
 1126 00e3 49       		.uleb128 0x49
 1127 00e4 13       		.uleb128 0x13
 1128 00e5 1C       		.uleb128 0x1c
 1129 00e6 05       		.uleb128 0x5
 1130 00e7 00       		.byte	0
 1131 00e8 00       		.byte	0
 1132 00e9 11       		.uleb128 0x11
 1133 00ea 1D       		.uleb128 0x1d
 1134 00eb 00       		.byte	0
 1135 00ec 31       		.uleb128 0x31
 1136 00ed 13       		.uleb128 0x13
 1137 00ee 52       		.uleb128 0x52
 1138 00ef 01       		.uleb128 0x1
 1139 00f0 B842     		.uleb128 0x2138
 1140 00f2 0B       		.uleb128 0xb
ARM GAS  /tmp/ccaQnwEu.s 			page 21


 1141 00f3 11       		.uleb128 0x11
 1142 00f4 01       		.uleb128 0x1
 1143 00f5 12       		.uleb128 0x12
 1144 00f6 06       		.uleb128 0x6
 1145 00f7 58       		.uleb128 0x58
 1146 00f8 0B       		.uleb128 0xb
 1147 00f9 59       		.uleb128 0x59
 1148 00fa 0B       		.uleb128 0xb
 1149 00fb 57       		.uleb128 0x57
 1150 00fc 0B       		.uleb128 0xb
 1151 00fd 00       		.byte	0
 1152 00fe 00       		.byte	0
 1153 00ff 12       		.uleb128 0x12
 1154 0100 898201   		.uleb128 0x4109
 1155 0103 00       		.byte	0
 1156 0104 11       		.uleb128 0x11
 1157 0105 01       		.uleb128 0x1
 1158 0106 31       		.uleb128 0x31
 1159 0107 13       		.uleb128 0x13
 1160 0108 00       		.byte	0
 1161 0109 00       		.byte	0
 1162 010a 13       		.uleb128 0x13
 1163 010b 898201   		.uleb128 0x4109
 1164 010e 00       		.byte	0
 1165 010f 11       		.uleb128 0x11
 1166 0110 01       		.uleb128 0x1
 1167 0111 9542     		.uleb128 0x2115
 1168 0113 19       		.uleb128 0x19
 1169 0114 31       		.uleb128 0x31
 1170 0115 13       		.uleb128 0x13
 1171 0116 00       		.byte	0
 1172 0117 00       		.byte	0
 1173 0118 14       		.uleb128 0x14
 1174 0119 2E       		.uleb128 0x2e
 1175 011a 00       		.byte	0
 1176 011b 03       		.uleb128 0x3
 1177 011c 0E       		.uleb128 0xe
 1178 011d 3A       		.uleb128 0x3a
 1179 011e 0B       		.uleb128 0xb
 1180 011f 3B       		.uleb128 0x3b
 1181 0120 0B       		.uleb128 0xb
 1182 0121 39       		.uleb128 0x39
 1183 0122 0B       		.uleb128 0xb
 1184 0123 27       		.uleb128 0x27
 1185 0124 19       		.uleb128 0x19
 1186 0125 20       		.uleb128 0x20
 1187 0126 0B       		.uleb128 0xb
 1188 0127 00       		.byte	0
 1189 0128 00       		.byte	0
 1190 0129 15       		.uleb128 0x15
 1191 012a 2E       		.uleb128 0x2e
 1192 012b 00       		.byte	0
 1193 012c 3F       		.uleb128 0x3f
 1194 012d 19       		.uleb128 0x19
 1195 012e 3C       		.uleb128 0x3c
 1196 012f 19       		.uleb128 0x19
 1197 0130 6E       		.uleb128 0x6e
ARM GAS  /tmp/ccaQnwEu.s 			page 22


 1198 0131 0E       		.uleb128 0xe
 1199 0132 03       		.uleb128 0x3
 1200 0133 0E       		.uleb128 0xe
 1201 0134 3A       		.uleb128 0x3a
 1202 0135 0B       		.uleb128 0xb
 1203 0136 3B       		.uleb128 0x3b
 1204 0137 05       		.uleb128 0x5
 1205 0138 39       		.uleb128 0x39
 1206 0139 0B       		.uleb128 0xb
 1207 013a 00       		.byte	0
 1208 013b 00       		.byte	0
 1209 013c 16       		.uleb128 0x16
 1210 013d 2E       		.uleb128 0x2e
 1211 013e 00       		.byte	0
 1212 013f 3F       		.uleb128 0x3f
 1213 0140 19       		.uleb128 0x19
 1214 0141 3C       		.uleb128 0x3c
 1215 0142 19       		.uleb128 0x19
 1216 0143 6E       		.uleb128 0x6e
 1217 0144 0E       		.uleb128 0xe
 1218 0145 03       		.uleb128 0x3
 1219 0146 0E       		.uleb128 0xe
 1220 0147 3A       		.uleb128 0x3a
 1221 0148 0B       		.uleb128 0xb
 1222 0149 3B       		.uleb128 0x3b
 1223 014a 0B       		.uleb128 0xb
 1224 014b 39       		.uleb128 0x39
 1225 014c 0B       		.uleb128 0xb
 1226 014d 00       		.byte	0
 1227 014e 00       		.byte	0
 1228 014f 00       		.byte	0
 1229              		.section	.debug_aranges,"",%progbits
 1230 0000 24000000 		.4byte	0x24
 1231 0004 0200     		.2byte	0x2
 1232 0006 00000000 		.4byte	.Ldebug_info0
 1233 000a 04       		.byte	0x4
 1234 000b 00       		.byte	0
 1235 000c 0000     		.2byte	0
 1236 000e 0000     		.2byte	0
 1237 0010 00000000 		.4byte	.LFB335
 1238 0014 80000000 		.4byte	.LFE335-.LFB335
 1239 0018 00000000 		.4byte	.LFB336
 1240 001c EC000000 		.4byte	.LFE336-.LFB336
 1241 0020 00000000 		.4byte	0
 1242 0024 00000000 		.4byte	0
 1243              		.section	.debug_ranges,"",%progbits
 1244              	.Ldebug_ranges0:
 1245 0000 00000000 		.4byte	.LFB335
 1246 0004 80000000 		.4byte	.LFE335
 1247 0008 00000000 		.4byte	.LFB336
 1248 000c EC000000 		.4byte	.LFE336
 1249 0010 00000000 		.4byte	0
 1250 0014 00000000 		.4byte	0
 1251              		.section	.debug_line,"",%progbits
 1252              	.Ldebug_line0:
 1253 0000 93040000 		.section	.debug_str,"MS",%progbits,1
 1253      0300FE01 
ARM GAS  /tmp/ccaQnwEu.s 			page 23


 1253      00000201 
 1253      FB0E0D00 
 1253      01010101 
 1254              	.LASF37:
 1255 0000 41484231 		.ascii	"AHB1LPENR\000"
 1255      4C50454E 
 1255      5200
 1256              	.LASF27:
 1257 000a 41504231 		.ascii	"APB1RSTR\000"
 1257      52535452 
 1257      00
 1258              	.LASF31:
 1259 0013 41484232 		.ascii	"AHB2ENR\000"
 1259      454E5200 
 1260              	.LASF5:
 1261 001b 73686F72 		.ascii	"short int\000"
 1261      7420696E 
 1261      7400
 1262              	.LASF8:
 1263 0025 73697A65 		.ascii	"size_t\000"
 1263      5F7400
 1264              	.LASF44:
 1265 002c 42444352 		.ascii	"BDCR\000"
 1265      00
 1266              	.LASF47:
 1267 0031 504C4C49 		.ascii	"PLLI2SCFGR\000"
 1267      32534346 
 1267      475200
 1268              	.LASF20:
 1269 003c 5057525F 		.ascii	"PWR_TypeDef\000"
 1269      54797065 
 1269      44656600 
 1270              	.LASF9:
 1271 0048 5F5F7569 		.ascii	"__uint32_t\000"
 1271      6E743332 
 1271      5F7400
 1272              	.LASF42:
 1273 0053 41504232 		.ascii	"APB2LPENR\000"
 1273      4C50454E 
 1273      5200
 1274              	.LASF46:
 1275 005d 53534347 		.ascii	"SSCGR\000"
 1275      5200
 1276              	.LASF39:
 1277 0063 41484233 		.ascii	"AHB3LPENR\000"
 1277      4C50454E 
 1277      5200
 1278              	.LASF22:
 1279 006d 43464752 		.ascii	"CFGR\000"
 1279      00
 1280              	.LASF34:
 1281 0072 41504231 		.ascii	"APB1ENR\000"
 1281      454E5200 
 1282              	.LASF45:
 1283 007a 52455345 		.ascii	"RESERVED6\000"
 1283      52564544 
 1283      3600
ARM GAS  /tmp/ccaQnwEu.s 			page 24


 1284              	.LASF32:
 1285 0084 41484233 		.ascii	"AHB3ENR\000"
 1285      454E5200 
 1286              	.LASF14:
 1287 008c 4F50544B 		.ascii	"OPTKEYR\000"
 1287      45595200 
 1288              	.LASF1:
 1289 0094 6C6F6E67 		.ascii	"long long int\000"
 1289      206C6F6E 
 1289      6720696E 
 1289      7400
 1290              	.LASF60:
 1291 00a2 2F686F6D 		.ascii	"/home/mahathi/mathur407_payload2/4.0.7/build/CUAVv5"
 1291      652F6D61 
 1291      68617468 
 1291      692F6D61 
 1291      74687572 
 1292 00d5 00       		.ascii	"\000"
 1293              	.LASF7:
 1294 00d6 6C6F6E67 		.ascii	"long int\000"
 1294      20696E74 
 1294      00
 1295              	.LASF51:
 1296 00df 5243435F 		.ascii	"RCC_TypeDef\000"
 1296      54797065 
 1296      44656600 
 1297              	.LASF49:
 1298 00eb 44434B43 		.ascii	"DCKCFGR1\000"
 1298      46475231 
 1298      00
 1299              	.LASF50:
 1300 00f4 44434B43 		.ascii	"DCKCFGR2\000"
 1300      46475232 
 1300      00
 1301              	.LASF28:
 1302 00fd 41504232 		.ascii	"APB2RSTR\000"
 1302      52535452 
 1302      00
 1303              	.LASF54:
 1304 0106 73746D33 		.ascii	"stm32_clock_init\000"
 1304      325F636C 
 1304      6F636B5F 
 1304      696E6974 
 1304      00
 1305              	.LASF16:
 1306 0117 4F505443 		.ascii	"OPTCR1\000"
 1306      523100
 1307              	.LASF13:
 1308 011e 4B455952 		.ascii	"KEYR\000"
 1308      00
 1309              	.LASF2:
 1310 0123 6C6F6E67 		.ascii	"long double\000"
 1310      20646F75 
 1310      626C6500 
 1311              	.LASF59:
 1312 012f 2E2E2F2E 		.ascii	"../../modules/ChibiOS/os/hal/ports/STM32/STM32F7xx/"
 1312      2E2F6D6F 
ARM GAS  /tmp/ccaQnwEu.s 			page 25


 1312      64756C65 
 1312      732F4368 
 1312      6962694F 
 1313 0162 68616C5F 		.ascii	"hal_lld.c\000"
 1313      6C6C642E 
 1313      6300
 1314              	.LASF4:
 1315 016c 756E7369 		.ascii	"unsigned char\000"
 1315      676E6564 
 1315      20636861 
 1315      7200
 1316              	.LASF35:
 1317 017a 41504232 		.ascii	"APB2ENR\000"
 1317      454E5200 
 1318              	.LASF57:
 1319 0182 69727149 		.ascii	"irqInit\000"
 1319      6E697400 
 1320              	.LASF18:
 1321 018a 43535231 		.ascii	"CSR1\000"
 1321      00
 1322              	.LASF19:
 1323 018f 43535232 		.ascii	"CSR2\000"
 1323      00
 1324              	.LASF3:
 1325 0194 7369676E 		.ascii	"signed char\000"
 1325      65642063 
 1325      68617200 
 1326              	.LASF11:
 1327 01a0 6C6F6E67 		.ascii	"long long unsigned int\000"
 1327      206C6F6E 
 1327      6720756E 
 1327      7369676E 
 1327      65642069 
 1328              	.LASF12:
 1329 01b7 75696E74 		.ascii	"uint32_t\000"
 1329      33325F74 
 1329      00
 1330              	.LASF0:
 1331 01c0 756E7369 		.ascii	"unsigned int\000"
 1331      676E6564 
 1331      20696E74 
 1331      00
 1332              	.LASF24:
 1333 01cd 41484232 		.ascii	"AHB2RSTR\000"
 1333      52535452 
 1333      00
 1334              	.LASF55:
 1335 01d6 68616C5F 		.ascii	"hal_lld_init\000"
 1335      6C6C645F 
 1335      696E6974 
 1335      00
 1336              	.LASF21:
 1337 01e3 504C4C43 		.ascii	"PLLCFGR\000"
 1337      46475200 
 1338              	.LASF6:
 1339 01eb 73686F72 		.ascii	"short unsigned int\000"
 1339      7420756E 
ARM GAS  /tmp/ccaQnwEu.s 			page 26


 1339      7369676E 
 1339      65642069 
 1339      6E7400
 1340              	.LASF52:
 1341 01fe 63686172 		.ascii	"char\000"
 1341      00
 1342              	.LASF53:
 1343 0203 5F426F6F 		.ascii	"_Bool\000"
 1343      6C00
 1344              	.LASF61:
 1345 0209 53797374 		.ascii	"SystemCoreClock\000"
 1345      656D436F 
 1345      7265436C 
 1345      6F636B00 
 1346              	.LASF38:
 1347 0219 41484232 		.ascii	"AHB2LPENR\000"
 1347      4C50454E 
 1347      5200
 1348              	.LASF56:
 1349 0223 646D6149 		.ascii	"dmaInit\000"
 1349      6E697400 
 1350              	.LASF26:
 1351 022b 52455345 		.ascii	"RESERVED0\000"
 1351      52564544 
 1351      3000
 1352              	.LASF29:
 1353 0235 52455345 		.ascii	"RESERVED1\000"
 1353      52564544 
 1353      3100
 1354              	.LASF33:
 1355 023f 52455345 		.ascii	"RESERVED2\000"
 1355      52564544 
 1355      3200
 1356              	.LASF36:
 1357 0249 52455345 		.ascii	"RESERVED3\000"
 1357      52564544 
 1357      3300
 1358              	.LASF40:
 1359 0253 52455345 		.ascii	"RESERVED4\000"
 1359      52564544 
 1359      3400
 1360              	.LASF43:
 1361 025d 52455345 		.ascii	"RESERVED5\000"
 1361      52564544 
 1361      3500
 1362              	.LASF10:
 1363 0267 6C6F6E67 		.ascii	"long unsigned int\000"
 1363      20756E73 
 1363      69676E65 
 1363      6420696E 
 1363      7400
 1364              	.LASF63:
 1365 0279 68616C5F 		.ascii	"hal_lld_backup_domain_init\000"
 1365      6C6C645F 
 1365      6261636B 
 1365      75705F64 
 1365      6F6D6169 
ARM GAS  /tmp/ccaQnwEu.s 			page 27


 1366              	.LASF30:
 1367 0294 41484231 		.ascii	"AHB1ENR\000"
 1367      454E5200 
 1368              	.LASF58:
 1369 029c 474E5520 		.ascii	"GNU C17 10.2.1 20201103 (release) -mcpu=cortex-m7 -"
 1369      43313720 
 1369      31302E32 
 1369      2E312032 
 1369      30323031 
 1370 02cf 6D666C6F 		.ascii	"mfloat-abi=hard -mfpu=fpv4-sp-d16 -mno-thumb-interw"
 1370      61742D61 
 1370      62693D68 
 1370      61726420 
 1370      2D6D6670 
 1371 0302 6F726B20 		.ascii	"ork -mthumb -march=armv7e-m+fp -g -Os -fomit-frame-"
 1371      2D6D7468 
 1371      756D6220 
 1371      2D6D6172 
 1371      63683D61 
 1372 0335 706F696E 		.ascii	"pointer -falign-functions=16 -ffunction-sections -f"
 1372      74657220 
 1372      2D66616C 
 1372      69676E2D 
 1372      66756E63 
 1373 0368 64617461 		.ascii	"data-sections -fno-common -fsingle-precision-consta"
 1373      2D736563 
 1373      74696F6E 
 1373      73202D66 
 1373      6E6F2D63 
 1374 039b 6E7400   		.ascii	"nt\000"
 1375              	.LASF62:
 1376 039e 64636B63 		.ascii	"dckcfgr1\000"
 1376      66677231 
 1376      00
 1377              	.LASF23:
 1378 03a7 41484231 		.ascii	"AHB1RSTR\000"
 1378      52535452 
 1378      00
 1379              	.LASF25:
 1380 03b0 41484233 		.ascii	"AHB3RSTR\000"
 1380      52535452 
 1380      00
 1381              	.LASF17:
 1382 03b9 464C4153 		.ascii	"FLASH_TypeDef\000"
 1382      485F5479 
 1382      70654465 
 1382      6600
 1383              	.LASF48:
 1384 03c7 504C4C53 		.ascii	"PLLSAICFGR\000"
 1384      41494346 
 1384      475200
 1385              	.LASF41:
 1386 03d2 41504231 		.ascii	"APB1LPENR\000"
 1386      4C50454E 
 1386      5200
 1387              	.LASF15:
 1388 03dc 4F505443 		.ascii	"OPTCR\000"
ARM GAS  /tmp/ccaQnwEu.s 			page 28


 1388      5200
 1389              		.ident	"GCC: (GNU Arm Embedded Toolchain 10-2020-q4-major) 10.2.1 20201103 (release)"
ARM GAS  /tmp/ccaQnwEu.s 			page 29


DEFINED SYMBOLS
                            *ABS*:0000000000000000 hal_lld.c
     /tmp/ccaQnwEu.s:18     .text.hal_lld_init:0000000000000000 $t
     /tmp/ccaQnwEu.s:26     .text.hal_lld_init:0000000000000000 hal_lld_init
     /tmp/ccaQnwEu.s:134    .text.hal_lld_init:0000000000000078 $d
     /tmp/ccaQnwEu.s:140    .text.stm32_clock_init:0000000000000000 $t
     /tmp/ccaQnwEu.s:147    .text.stm32_clock_init:0000000000000000 stm32_clock_init
     /tmp/ccaQnwEu.s:352    .text.stm32_clock_init:00000000000000d4 $d
     /tmp/ccaQnwEu.s:366    .data.SystemCoreClock:0000000000000000 SystemCoreClock
     /tmp/ccaQnwEu.s:363    .data.SystemCoreClock:0000000000000000 $d

UNDEFINED SYMBOLS
dmaInit
irqInit
