ARM GAS  /tmp/ccz1UGrt.s 			page 1


   1              		.cpu cortex-m7
   2              		.eabi_attribute 27, 1
   3              		.eabi_attribute 28, 1
   4              		.eabi_attribute 20, 1
   5              		.eabi_attribute 21, 1
   6              		.eabi_attribute 23, 3
   7              		.eabi_attribute 24, 1
   8              		.eabi_attribute 25, 1
   9              		.eabi_attribute 26, 1
  10              		.eabi_attribute 30, 4
  11              		.eabi_attribute 34, 1
  12              		.eabi_attribute 18, 4
  13              		.file	"hal_adc.c"
  14              		.text
  15              	.Ltext0:
  16              		.cfi_sections	.debug_frame
  17              		.section	.text.adcInit,"ax",%progbits
  18              		.align	1
  19              		.global	adcInit
  20              		.arch armv7e-m
  21              		.syntax unified
  22              		.thumb
  23              		.thumb_func
  24              		.fpu fpv4-sp-d16
  25              		.type	adcInit, %function
  26              	adcInit:
  27              	.LFB334:
  28              		.file 1 "../../modules/ChibiOS/os/hal/src/hal_adc.c"
  29              		.loc 1 56 20 view -0
  30              		.cfi_startproc
  31              		@ args = 0, pretend = 0, frame = 0
  32              		@ frame_needed = 0, uses_anonymous_args = 0
  33              		@ link register save eliminated.
  34              		.loc 1 58 3 view .LVU1
  35 0000 FFF7FEBF 		b	adc_lld_init
  36              	.LVL0:
  37              		.cfi_endproc
  38              	.LFE334:
  39              		.size	adcInit, .-adcInit
  40              		.section	.text.adcObjectInit,"ax",%progbits
  41              		.align	1
  42              		.global	adcObjectInit
  43              		.syntax unified
  44              		.thumb
  45              		.thumb_func
  46              		.fpu fpv4-sp-d16
  47              		.type	adcObjectInit, %function
  48              	adcObjectInit:
  49              	.LVL1:
  50              	.LFB335:
  51              		.loc 1 68 37 view -0
  52              		.cfi_startproc
  53              		@ args = 0, pretend = 0, frame = 0
  54              		@ frame_needed = 0, uses_anonymous_args = 0
  55              		@ link register save eliminated.
  56              		.loc 1 70 3 view .LVU3
  57              		.loc 1 70 18 is_stmt 0 view .LVU4
ARM GAS  /tmp/ccz1UGrt.s 			page 2


  58 0000 0123     		movs	r3, #1
  59 0002 0370     		strb	r3, [r0]
  60              		.loc 1 71 3 is_stmt 1 view .LVU5
  61              		.loc 1 71 18 is_stmt 0 view .LVU6
  62 0004 0023     		movs	r3, #0
  63              		.loc 1 72 18 view .LVU7
  64 0006 C0E90133 		strd	r3, r3, [r0, #4]
  65              		.loc 1 73 3 is_stmt 1 view .LVU8
  66              		.loc 1 74 18 is_stmt 0 view .LVU9
  67 000a C0E90333 		strd	r3, r3, [r0, #12]
  68              		.loc 1 76 3 is_stmt 1 view .LVU10
  69              		.loc 1 76 18 is_stmt 0 view .LVU11
  70 000e 4361     		str	r3, [r0, #20]
  71              		.loc 1 84 1 view .LVU12
  72 0010 7047     		bx	lr
  73              		.cfi_endproc
  74              	.LFE335:
  75              		.size	adcObjectInit, .-adcObjectInit
  76              		.section	.text.adcStart,"ax",%progbits
  77              		.align	1
  78              		.global	adcStart
  79              		.syntax unified
  80              		.thumb
  81              		.thumb_func
  82              		.fpu fpv4-sp-d16
  83              		.type	adcStart, %function
  84              	adcStart:
  85              	.LVL2:
  86              	.LFB336:
  87              		.loc 1 95 57 is_stmt 1 view -0
  88              		.cfi_startproc
  89              		@ args = 0, pretend = 0, frame = 0
  90              		@ frame_needed = 0, uses_anonymous_args = 0
  91              		.loc 1 97 3 view .LVU14
  92              		.loc 1 97 3 view .LVU15
  93              		.loc 1 97 3 view .LVU16
  94              		.loc 1 99 3 view .LVU17
  95              	.LBB56:
  96              	.LBI56:
  97              		.file 2 "../../modules/ChibiOS/os/hal/osal/rt/osal.h"
  98              		.loc 2 509 20 view .LVU18
  99              	.LBE56:
 100              		.loc 2 511 3 view .LVU19
 101              	.LBB70:
 102              	.LBB57:
 103              	.LBI57:
 104              		.file 3 "../../modules/ChibiOS/os/rt/include/chsys.h"
 105              		.loc 3 353 20 view .LVU20
 106              	.LBB58:
 107              		.loc 3 355 3 view .LVU21
 108              	.LBB59:
 109              	.LBI59:
 110              		.file 4 "../../modules/ChibiOS/os/common/ports/ARMCMx/chcore_v7m.h"
 111              		.loc 4 602 20 view .LVU22
 112              	.LBE59:
 113              	.LBE58:
 114              	.LBE57:
ARM GAS  /tmp/ccz1UGrt.s 			page 3


 115              	.LBE70:
 116              		.loc 4 610 3 view .LVU23
 117              	.LBB71:
 118              	.LBB68:
 119              	.LBB66:
 120              	.LBB64:
 121              	.LBB60:
 122              	.LBI60:
 123              		.file 5 "../../modules/ChibiOS/os/common/ext/ARM/CMSIS/Core/Include/cmsis_gcc.h"
 124              		.loc 5 491 27 view .LVU24
 125              	.LBB61:
 126              		.loc 5 493 3 view .LVU25
 127              	.LBE61:
 128              	.LBE60:
 129              	.LBE64:
 130              	.LBE66:
 131              	.LBE68:
 132              	.LBE71:
 133              		.loc 1 95 57 is_stmt 0 view .LVU26
 134 0000 38B5     		push	{r3, r4, r5, lr}
 135              		.cfi_def_cfa_offset 16
 136              		.cfi_offset 3, -16
 137              		.cfi_offset 4, -12
 138              		.cfi_offset 5, -8
 139              		.cfi_offset 14, -4
 140              		.loc 1 95 57 view .LVU27
 141 0002 0446     		mov	r4, r0
 142 0004 0D46     		mov	r5, r1
 143              	.LBB72:
 144              	.LBB69:
 145              	.LBB67:
 146              	.LBB65:
 147              	.LBB63:
 148              	.LBB62:
 149              		.loc 5 493 3 view .LVU28
 150 0006 2023     		movs	r3, #32
 151              		.syntax unified
 152              	@ 493 "../../modules/ChibiOS/os/common/ext/ARM/CMSIS/Core/Include/cmsis_gcc.h" 1
 153 0008 83F31188 		MSR basepri, r3
 154              	@ 0 "" 2
 155              	.LVL3:
 156              		.loc 5 493 3 view .LVU29
 157              		.thumb
 158              		.syntax unified
 159              	.LBE62:
 160              	.LBE63:
 161              	.LBE65:
 162              		.loc 3 356 3 is_stmt 1 view .LVU30
 163 000c FFF7FEFF 		bl	_stats_start_measure_crit_thd
 164              	.LVL4:
 165              		.loc 3 357 20 view .LVU31
 166              	.LBE67:
 167              	.LBE69:
 168              	.LBE72:
 169              		.loc 1 100 3 view .LVU32
 170              		.loc 1 100 3 view .LVU33
 171              		.loc 1 100 3 view .LVU34
ARM GAS  /tmp/ccz1UGrt.s 			page 4


 172              		.loc 1 102 3 view .LVU35
 173              		.loc 1 103 3 is_stmt 0 view .LVU36
 174 0010 2046     		mov	r0, r4
 175              		.loc 1 102 16 view .LVU37
 176 0012 6560     		str	r5, [r4, #4]
 177              		.loc 1 103 3 is_stmt 1 view .LVU38
 178 0014 FFF7FEFF 		bl	adc_lld_start
 179              	.LVL5:
 180              		.loc 1 104 3 view .LVU39
 181              		.loc 1 104 15 is_stmt 0 view .LVU40
 182 0018 0223     		movs	r3, #2
 183 001a 2370     		strb	r3, [r4]
 184              		.loc 1 105 3 is_stmt 1 view .LVU41
 185              	.LBB73:
 186              	.LBI73:
 187              		.loc 2 520 20 view .LVU42
 188              	.LBE73:
 189              		.loc 2 522 3 view .LVU43
 190              	.LBB82:
 191              	.LBB74:
 192              	.LBI74:
 193              		.loc 3 365 20 view .LVU44
 194              	.LBB75:
 195              		.loc 3 367 22 view .LVU45
 196              		.loc 3 368 3 view .LVU46
 197 001c FFF7FEFF 		bl	_stats_stop_measure_crit_thd
 198              	.LVL6:
 199              		.loc 3 374 3 view .LVU47
 200              		.loc 3 374 3 view .LVU48
 201              		.loc 3 374 3 view .LVU49
 202              		.loc 3 378 3 view .LVU50
 203              	.LBB76:
 204              	.LBI76:
 205              		.loc 4 626 20 view .LVU51
 206              	.LBE76:
 207              	.LBE75:
 208              	.LBE74:
 209              	.LBE82:
 210              		.loc 4 629 3 view .LVU52
 211              	.LBB83:
 212              	.LBB81:
 213              	.LBB80:
 214              	.LBB79:
 215              	.LBB77:
 216              	.LBI77:
 217              		.loc 5 491 27 view .LVU53
 218              	.LBB78:
 219              		.loc 5 493 3 view .LVU54
 220 0020 0023     		movs	r3, #0
 221              		.syntax unified
 222              	@ 493 "../../modules/ChibiOS/os/common/ext/ARM/CMSIS/Core/Include/cmsis_gcc.h" 1
 223 0022 83F31188 		MSR basepri, r3
 224              	@ 0 "" 2
 225              	.LVL7:
 226              		.loc 5 493 3 is_stmt 0 view .LVU55
 227              		.thumb
 228              		.syntax unified
ARM GAS  /tmp/ccz1UGrt.s 			page 5


 229              	.LBE78:
 230              	.LBE77:
 231              	.LBE79:
 232              	.LBE80:
 233              	.LBE81:
 234              	.LBE83:
 235              		.loc 1 106 1 view .LVU56
 236 0026 38BD     		pop	{r3, r4, r5, pc}
 237              		.loc 1 106 1 view .LVU57
 238              		.cfi_endproc
 239              	.LFE336:
 240              		.size	adcStart, .-adcStart
 241              		.section	.text.adcStop,"ax",%progbits
 242              		.align	1
 243              		.global	adcStop
 244              		.syntax unified
 245              		.thumb
 246              		.thumb_func
 247              		.fpu fpv4-sp-d16
 248              		.type	adcStop, %function
 249              	adcStop:
 250              	.LVL8:
 251              	.LFB337:
 252              		.loc 1 115 31 is_stmt 1 view -0
 253              		.cfi_startproc
 254              		@ args = 0, pretend = 0, frame = 0
 255              		@ frame_needed = 0, uses_anonymous_args = 0
 256              		.loc 1 117 3 view .LVU59
 257              		.loc 1 117 3 view .LVU60
 258              		.loc 1 117 3 view .LVU61
 259              		.loc 1 119 3 view .LVU62
 260              	.LBB98:
 261              	.LBI98:
 262              		.loc 2 509 20 view .LVU63
 263              	.LBE98:
 264              		.loc 2 511 3 view .LVU64
 265              	.LBB112:
 266              	.LBB99:
 267              	.LBI99:
 268              		.loc 3 353 20 view .LVU65
 269              	.LBB100:
 270              		.loc 3 355 3 view .LVU66
 271              	.LBB101:
 272              	.LBI101:
 273              		.loc 4 602 20 view .LVU67
 274              	.LBE101:
 275              	.LBE100:
 276              	.LBE99:
 277              	.LBE112:
 278              		.loc 4 610 3 view .LVU68
 279              	.LBB113:
 280              	.LBB110:
 281              	.LBB108:
 282              	.LBB106:
 283              	.LBB102:
 284              	.LBI102:
 285              		.loc 5 491 27 view .LVU69
ARM GAS  /tmp/ccz1UGrt.s 			page 6


 286              	.LBB103:
 287              		.loc 5 493 3 view .LVU70
 288              	.LBE103:
 289              	.LBE102:
 290              	.LBE106:
 291              	.LBE108:
 292              	.LBE110:
 293              	.LBE113:
 294              		.loc 1 115 31 is_stmt 0 view .LVU71
 295 0000 38B5     		push	{r3, r4, r5, lr}
 296              		.cfi_def_cfa_offset 16
 297              		.cfi_offset 3, -16
 298              		.cfi_offset 4, -12
 299              		.cfi_offset 5, -8
 300              		.cfi_offset 14, -4
 301              		.loc 1 115 31 view .LVU72
 302 0002 0446     		mov	r4, r0
 303              	.LBB114:
 304              	.LBB111:
 305              	.LBB109:
 306              	.LBB107:
 307              	.LBB105:
 308              	.LBB104:
 309              		.loc 5 493 3 view .LVU73
 310 0004 2023     		movs	r3, #32
 311              		.syntax unified
 312              	@ 493 "../../modules/ChibiOS/os/common/ext/ARM/CMSIS/Core/Include/cmsis_gcc.h" 1
 313 0006 83F31188 		MSR basepri, r3
 314              	@ 0 "" 2
 315              	.LVL9:
 316              		.loc 5 493 3 view .LVU74
 317              		.thumb
 318              		.syntax unified
 319              	.LBE104:
 320              	.LBE105:
 321              	.LBE107:
 322              		.loc 3 356 3 is_stmt 1 view .LVU75
 323 000a FFF7FEFF 		bl	_stats_start_measure_crit_thd
 324              	.LVL10:
 325              		.loc 3 357 20 view .LVU76
 326              	.LBE109:
 327              	.LBE111:
 328              	.LBE114:
 329              		.loc 1 121 3 view .LVU77
 330              		.loc 1 121 3 view .LVU78
 331              		.loc 1 121 3 view .LVU79
 332              		.loc 1 124 3 view .LVU80
 333 000e 2046     		mov	r0, r4
 334 0010 FFF7FEFF 		bl	adc_lld_stop
 335              	.LVL11:
 336              		.loc 1 125 3 view .LVU81
 337              		.loc 1 125 16 is_stmt 0 view .LVU82
 338 0014 0025     		movs	r5, #0
 339              		.loc 1 126 16 view .LVU83
 340 0016 0123     		movs	r3, #1
 341              		.loc 1 125 16 view .LVU84
 342 0018 6560     		str	r5, [r4, #4]
ARM GAS  /tmp/ccz1UGrt.s 			page 7


 343              		.loc 1 126 3 is_stmt 1 view .LVU85
 344              		.loc 1 126 16 is_stmt 0 view .LVU86
 345 001a 2370     		strb	r3, [r4]
 346              		.loc 1 128 3 is_stmt 1 view .LVU87
 347              	.LBB115:
 348              	.LBI115:
 349              		.loc 2 520 20 view .LVU88
 350              	.LBE115:
 351              		.loc 2 522 3 view .LVU89
 352              	.LBB124:
 353              	.LBB116:
 354              	.LBI116:
 355              		.loc 3 365 20 view .LVU90
 356              	.LBB117:
 357              		.loc 3 367 22 view .LVU91
 358              		.loc 3 368 3 view .LVU92
 359 001c FFF7FEFF 		bl	_stats_stop_measure_crit_thd
 360              	.LVL12:
 361              		.loc 3 374 3 view .LVU93
 362              		.loc 3 374 3 view .LVU94
 363              		.loc 3 374 3 view .LVU95
 364              		.loc 3 378 3 view .LVU96
 365              	.LBB118:
 366              	.LBI118:
 367              		.loc 4 626 20 view .LVU97
 368              	.LBE118:
 369              	.LBE117:
 370              	.LBE116:
 371              	.LBE124:
 372              		.loc 4 629 3 view .LVU98
 373              	.LBB125:
 374              	.LBB123:
 375              	.LBB122:
 376              	.LBB121:
 377              	.LBB119:
 378              	.LBI119:
 379              		.loc 5 491 27 view .LVU99
 380              	.LBB120:
 381              		.loc 5 493 3 view .LVU100
 382              		.syntax unified
 383              	@ 493 "../../modules/ChibiOS/os/common/ext/ARM/CMSIS/Core/Include/cmsis_gcc.h" 1
 384 0020 85F31188 		MSR basepri, r5
 385              	@ 0 "" 2
 386              	.LVL13:
 387              		.loc 5 493 3 is_stmt 0 view .LVU101
 388              		.thumb
 389              		.syntax unified
 390              	.LBE120:
 391              	.LBE119:
 392              	.LBE121:
 393              	.LBE122:
 394              	.LBE123:
 395              	.LBE125:
 396              		.loc 1 129 1 view .LVU102
 397 0024 38BD     		pop	{r3, r4, r5, pc}
 398              		.loc 1 129 1 view .LVU103
 399              		.cfi_endproc
ARM GAS  /tmp/ccz1UGrt.s 			page 8


 400              	.LFE337:
 401              		.size	adcStop, .-adcStop
 402              		.section	.text.adcStartConversion,"ax",%progbits
 403              		.align	1
 404              		.global	adcStartConversion
 405              		.syntax unified
 406              		.thumb
 407              		.thumb_func
 408              		.fpu fpv4-sp-d16
 409              		.type	adcStartConversion, %function
 410              	adcStartConversion:
 411              	.LVL14:
 412              	.LFB338:
 413              		.loc 1 150 39 is_stmt 1 view -0
 414              		.cfi_startproc
 415              		@ args = 0, pretend = 0, frame = 0
 416              		@ frame_needed = 0, uses_anonymous_args = 0
 417              		.loc 1 152 3 view .LVU105
 418              	.LBB142:
 419              	.LBI142:
 420              		.loc 2 509 20 view .LVU106
 421              	.LBE142:
 422              		.loc 2 511 3 view .LVU107
 423              	.LBB156:
 424              	.LBB143:
 425              	.LBI143:
 426              		.loc 3 353 20 view .LVU108
 427              	.LBB144:
 428              		.loc 3 355 3 view .LVU109
 429              	.LBB145:
 430              	.LBI145:
 431              		.loc 4 602 20 view .LVU110
 432              	.LBE145:
 433              	.LBE144:
 434              	.LBE143:
 435              	.LBE156:
 436              		.loc 4 610 3 view .LVU111
 437              	.LBB157:
 438              	.LBB154:
 439              	.LBB152:
 440              	.LBB150:
 441              	.LBB146:
 442              	.LBI146:
 443              		.loc 5 491 27 view .LVU112
 444              	.LBB147:
 445              		.loc 5 493 3 view .LVU113
 446              	.LBE147:
 447              	.LBE146:
 448              	.LBE150:
 449              	.LBE152:
 450              	.LBE154:
 451              	.LBE157:
 452              		.loc 1 150 39 is_stmt 0 view .LVU114
 453 0000 F8B5     		push	{r3, r4, r5, r6, r7, lr}
 454              		.cfi_def_cfa_offset 24
 455              		.cfi_offset 3, -24
 456              		.cfi_offset 4, -20
ARM GAS  /tmp/ccz1UGrt.s 			page 9


 457              		.cfi_offset 5, -16
 458              		.cfi_offset 6, -12
 459              		.cfi_offset 7, -8
 460              		.cfi_offset 14, -4
 461              		.loc 1 150 39 view .LVU115
 462 0002 1E46     		mov	r6, r3
 463 0004 0446     		mov	r4, r0
 464 0006 0D46     		mov	r5, r1
 465 0008 1746     		mov	r7, r2
 466              	.LBB158:
 467              	.LBB155:
 468              	.LBB153:
 469              	.LBB151:
 470              	.LBB149:
 471              	.LBB148:
 472              		.loc 5 493 3 view .LVU116
 473 000a 2023     		movs	r3, #32
 474              	.LVL15:
 475              		.loc 5 493 3 view .LVU117
 476              		.syntax unified
 477              	@ 493 "../../modules/ChibiOS/os/common/ext/ARM/CMSIS/Core/Include/cmsis_gcc.h" 1
 478 000c 83F31188 		MSR basepri, r3
 479              	@ 0 "" 2
 480              	.LVL16:
 481              		.loc 5 493 3 view .LVU118
 482              		.thumb
 483              		.syntax unified
 484              	.LBE148:
 485              	.LBE149:
 486              	.LBE151:
 487              		.loc 3 356 3 is_stmt 1 view .LVU119
 488 0010 FFF7FEFF 		bl	_stats_start_measure_crit_thd
 489              	.LVL17:
 490              		.loc 3 357 20 view .LVU120
 491              	.LBE153:
 492              	.LBE155:
 493              	.LBE158:
 494              		.loc 1 153 3 view .LVU121
 495              	.LBB159:
 496              	.LBI159:
 497              		.loc 1 175 6 view .LVU122
 498              	.LBB160:
 499              		.loc 1 180 23 view .LVU123
 500              		.loc 1 181 3 view .LVU124
 501              		.loc 1 181 3 view .LVU125
 502              		.loc 1 181 3 view .LVU126
 503              		.loc 1 183 3 view .LVU127
 504              		.loc 1 183 3 view .LVU128
 505              		.loc 1 183 3 view .LVU129
 506              		.loc 1 187 3 view .LVU130
 507              		.loc 1 190 18 is_stmt 0 view .LVU131
 508 0014 0323     		movs	r3, #3
 509              		.loc 1 191 3 view .LVU132
 510 0016 2046     		mov	r0, r4
 511              		.loc 1 189 18 view .LVU133
 512 0018 2561     		str	r5, [r4, #16]
 513              		.loc 1 190 18 view .LVU134
ARM GAS  /tmp/ccz1UGrt.s 			page 10


 514 001a 2370     		strb	r3, [r4]
 515              		.loc 1 188 18 view .LVU135
 516 001c C4E90276 		strd	r7, r6, [r4, #8]
 517              		.loc 1 189 3 is_stmt 1 view .LVU136
 518              		.loc 1 190 3 view .LVU137
 519              		.loc 1 191 3 view .LVU138
 520 0020 FFF7FEFF 		bl	adc_lld_start_conversion
 521              	.LVL18:
 522              		.loc 1 191 3 is_stmt 0 view .LVU139
 523              	.LBE160:
 524              	.LBE159:
 525              		.loc 1 154 3 is_stmt 1 view .LVU140
 526              	.LBB161:
 527              	.LBI161:
 528              		.loc 2 520 20 view .LVU141
 529              	.LBE161:
 530              		.loc 2 522 3 view .LVU142
 531              	.LBB170:
 532              	.LBB162:
 533              	.LBI162:
 534              		.loc 3 365 20 view .LVU143
 535              	.LBB163:
 536              		.loc 3 367 22 view .LVU144
 537              		.loc 3 368 3 view .LVU145
 538 0024 FFF7FEFF 		bl	_stats_stop_measure_crit_thd
 539              	.LVL19:
 540              		.loc 3 374 3 view .LVU146
 541              		.loc 3 374 3 view .LVU147
 542              		.loc 3 374 3 view .LVU148
 543              		.loc 3 378 3 view .LVU149
 544              	.LBB164:
 545              	.LBI164:
 546              		.loc 4 626 20 view .LVU150
 547              	.LBE164:
 548              	.LBE163:
 549              	.LBE162:
 550              	.LBE170:
 551              		.loc 4 629 3 view .LVU151
 552              	.LBB171:
 553              	.LBB169:
 554              	.LBB168:
 555              	.LBB167:
 556              	.LBB165:
 557              	.LBI165:
 558              		.loc 5 491 27 view .LVU152
 559              	.LBB166:
 560              		.loc 5 493 3 view .LVU153
 561 0028 0023     		movs	r3, #0
 562              		.syntax unified
 563              	@ 493 "../../modules/ChibiOS/os/common/ext/ARM/CMSIS/Core/Include/cmsis_gcc.h" 1
 564 002a 83F31188 		MSR basepri, r3
 565              	@ 0 "" 2
 566              	.LVL20:
 567              		.loc 5 493 3 is_stmt 0 view .LVU154
 568              		.thumb
 569              		.syntax unified
 570              	.LBE166:
ARM GAS  /tmp/ccz1UGrt.s 			page 11


 571              	.LBE165:
 572              	.LBE167:
 573              	.LBE168:
 574              	.LBE169:
 575              	.LBE171:
 576              		.loc 1 155 1 view .LVU155
 577 002e F8BD     		pop	{r3, r4, r5, r6, r7, pc}
 578              		.loc 1 155 1 view .LVU156
 579              		.cfi_endproc
 580              	.LFE338:
 581              		.size	adcStartConversion, .-adcStartConversion
 582              		.section	.text.adcStartConversionI,"ax",%progbits
 583              		.align	1
 584              		.global	adcStartConversionI
 585              		.syntax unified
 586              		.thumb
 587              		.thumb_func
 588              		.fpu fpv4-sp-d16
 589              		.type	adcStartConversionI, %function
 590              	adcStartConversionI:
 591              	.LVL21:
 592              	.LFB339:
 593              		.loc 1 178 40 is_stmt 1 view -0
 594              		.cfi_startproc
 595              		@ args = 0, pretend = 0, frame = 0
 596              		@ frame_needed = 0, uses_anonymous_args = 0
 597              		@ link register save eliminated.
 598              		.loc 1 180 23 view .LVU158
 599              		.loc 1 181 3 view .LVU159
 600              		.loc 1 181 3 view .LVU160
 601              		.loc 1 181 3 view .LVU161
 602              		.loc 1 183 3 view .LVU162
 603              		.loc 1 183 3 view .LVU163
 604              		.loc 1 183 3 view .LVU164
 605              		.loc 1 187 3 view .LVU165
 606              		.loc 1 188 18 is_stmt 0 view .LVU166
 607 0000 C0E90223 		strd	r2, r3, [r0, #8]
 608              		.loc 1 189 3 is_stmt 1 view .LVU167
 609              		.loc 1 190 18 is_stmt 0 view .LVU168
 610 0004 0323     		movs	r3, #3
 611              	.LVL22:
 612              		.loc 1 189 18 view .LVU169
 613 0006 0161     		str	r1, [r0, #16]
 614              		.loc 1 190 3 is_stmt 1 view .LVU170
 615              		.loc 1 178 40 is_stmt 0 view .LVU171
 616 0008 10B4     		push	{r4}
 617              		.cfi_def_cfa_offset 4
 618              		.cfi_offset 4, -4
 619              		.loc 1 192 1 view .LVU172
 620 000a 5DF8044B 		ldr	r4, [sp], #4
 621              		.cfi_restore 4
 622              		.cfi_def_cfa_offset 0
 623              		.loc 1 190 18 view .LVU173
 624 000e 0370     		strb	r3, [r0]
 625              		.loc 1 191 3 is_stmt 1 view .LVU174
 626 0010 FFF7FEBF 		b	adc_lld_start_conversion
 627              	.LVL23:
ARM GAS  /tmp/ccz1UGrt.s 			page 12


 628              		.loc 1 191 3 is_stmt 0 view .LVU175
 629              		.cfi_endproc
 630              	.LFE339:
 631              		.size	adcStartConversionI, .-adcStartConversionI
 632              		.section	.text.adcStopConversion,"ax",%progbits
 633              		.align	1
 634              		.global	adcStopConversion
 635              		.syntax unified
 636              		.thumb
 637              		.thumb_func
 638              		.fpu fpv4-sp-d16
 639              		.type	adcStopConversion, %function
 640              	adcStopConversion:
 641              	.LVL24:
 642              	.LFB340:
 643              		.loc 1 204 41 is_stmt 1 view -0
 644              		.cfi_startproc
 645              		@ args = 0, pretend = 0, frame = 0
 646              		@ frame_needed = 0, uses_anonymous_args = 0
 647              		.loc 1 206 3 view .LVU177
 648              		.loc 1 206 3 view .LVU178
 649              		.loc 1 206 3 view .LVU179
 650              		.loc 1 208 3 view .LVU180
 651              	.LBB188:
 652              	.LBI188:
 653              		.loc 2 509 20 view .LVU181
 654              	.LBE188:
 655              		.loc 2 511 3 view .LVU182
 656              	.LBB207:
 657              	.LBB189:
 658              	.LBI189:
 659              		.loc 3 353 20 view .LVU183
 660              	.LBB190:
 661              		.loc 3 355 3 view .LVU184
 662              	.LBB191:
 663              	.LBI191:
 664              		.loc 4 602 20 view .LVU185
 665              	.LBE191:
 666              	.LBE190:
 667              	.LBE189:
 668              	.LBE207:
 669              		.loc 4 610 3 view .LVU186
 670              	.LBB208:
 671              	.LBB204:
 672              	.LBB201:
 673              	.LBB198:
 674              	.LBB192:
 675              	.LBI192:
 676              		.loc 5 491 27 view .LVU187
 677              	.LBB193:
 678              		.loc 5 493 3 view .LVU188
 679              	.LBE193:
 680              	.LBE192:
 681              	.LBE198:
 682              	.LBE201:
 683              	.LBE204:
 684              	.LBE208:
ARM GAS  /tmp/ccz1UGrt.s 			page 13


 685              		.loc 1 204 41 is_stmt 0 view .LVU189
 686 0000 10B5     		push	{r4, lr}
 687              		.cfi_def_cfa_offset 8
 688              		.cfi_offset 4, -8
 689              		.cfi_offset 14, -4
 690              	.LBB209:
 691              	.LBB205:
 692              	.LBB202:
 693              	.LBB199:
 694              	.LBB196:
 695              	.LBB194:
 696              		.loc 5 493 3 view .LVU190
 697 0002 2023     		movs	r3, #32
 698              	.LBE194:
 699              	.LBE196:
 700              	.LBE199:
 701              	.LBE202:
 702              	.LBE205:
 703              	.LBE209:
 704              		.loc 1 204 41 view .LVU191
 705 0004 0446     		mov	r4, r0
 706              	.LBB210:
 707              	.LBB206:
 708              	.LBB203:
 709              	.LBB200:
 710              	.LBB197:
 711              	.LBB195:
 712              		.loc 5 493 3 view .LVU192
 713              		.syntax unified
 714              	@ 493 "../../modules/ChibiOS/os/common/ext/ARM/CMSIS/Core/Include/cmsis_gcc.h" 1
 715 0006 83F31188 		MSR basepri, r3
 716              	@ 0 "" 2
 717              	.LVL25:
 718              		.loc 5 493 3 view .LVU193
 719              		.thumb
 720              		.syntax unified
 721              	.LBE195:
 722              	.LBE197:
 723              	.LBE200:
 724              		.loc 3 356 3 is_stmt 1 view .LVU194
 725 000a FFF7FEFF 		bl	_stats_start_measure_crit_thd
 726              	.LVL26:
 727              		.loc 3 357 20 view .LVU195
 728              	.LBE203:
 729              	.LBE206:
 730              	.LBE210:
 731              		.loc 1 209 3 view .LVU196
 732              		.loc 1 209 3 view .LVU197
 733              		.loc 1 209 3 view .LVU198
 734              		.loc 1 211 3 view .LVU199
 735              		.loc 1 211 6 is_stmt 0 view .LVU200
 736 000e 2378     		ldrb	r3, [r4]	@ zero_extendqisi2
 737 0010 022B     		cmp	r3, #2
 738 0012 0CD0     		beq	.L8
 739              		.loc 1 212 5 is_stmt 1 view .LVU201
 740 0014 2046     		mov	r0, r4
 741 0016 FFF7FEFF 		bl	adc_lld_stop_conversion
ARM GAS  /tmp/ccz1UGrt.s 			page 14


 742              	.LVL27:
 743              		.loc 1 213 5 view .LVU202
 744              		.loc 1 213 17 is_stmt 0 view .LVU203
 745 001a 0023     		movs	r3, #0
 746              		.loc 1 214 17 view .LVU204
 747 001c 2046     		mov	r0, r4
 748              	.LBB211:
 749              	.LBB212:
 750              		.loc 2 790 3 view .LVU205
 751 001e 6FF00101 		mvn	r1, #1
 752              	.LBE212:
 753              	.LBE211:
 754              		.loc 1 213 17 view .LVU206
 755 0022 2361     		str	r3, [r4, #16]
 756              		.loc 1 214 5 is_stmt 1 view .LVU207
 757              		.loc 1 214 17 is_stmt 0 view .LVU208
 758 0024 0223     		movs	r3, #2
 759 0026 00F8143B 		strb	r3, [r0], #20
 760              		.loc 1 215 5 is_stmt 1 view .LVU209
 761              	.LVL28:
 762              	.LBB214:
 763              	.LBI211:
 764              		.loc 2 788 20 view .LVU210
 765              	.LBB213:
 766              		.loc 2 790 3 view .LVU211
 767 002a FFF7FEFF 		bl	chThdResumeS
 768              	.LVL29:
 769              	.L8:
 770              		.loc 2 790 3 is_stmt 0 view .LVU212
 771              	.LBE213:
 772              	.LBE214:
 773              		.loc 1 217 3 is_stmt 1 view .LVU213
 774              	.LBB215:
 775              	.LBI215:
 776              		.loc 2 520 20 view .LVU214
 777              	.LBE215:
 778              		.loc 2 522 3 view .LVU215
 779              	.LBB224:
 780              	.LBB216:
 781              	.LBI216:
 782              		.loc 3 365 20 view .LVU216
 783              	.LBB217:
 784              		.loc 3 367 22 view .LVU217
 785              		.loc 3 368 3 view .LVU218
 786 002e FFF7FEFF 		bl	_stats_stop_measure_crit_thd
 787              	.LVL30:
 788              		.loc 3 374 3 view .LVU219
 789              		.loc 3 374 3 view .LVU220
 790              		.loc 3 374 3 view .LVU221
 791              		.loc 3 378 3 view .LVU222
 792              	.LBB218:
 793              	.LBI218:
 794              		.loc 4 626 20 view .LVU223
 795              	.LBE218:
 796              	.LBE217:
 797              	.LBE216:
 798              	.LBE224:
ARM GAS  /tmp/ccz1UGrt.s 			page 15


 799              		.loc 4 629 3 view .LVU224
 800              	.LBB225:
 801              	.LBB223:
 802              	.LBB222:
 803              	.LBB221:
 804              	.LBB219:
 805              	.LBI219:
 806              		.loc 5 491 27 view .LVU225
 807              	.LBB220:
 808              		.loc 5 493 3 view .LVU226
 809 0032 0023     		movs	r3, #0
 810              		.syntax unified
 811              	@ 493 "../../modules/ChibiOS/os/common/ext/ARM/CMSIS/Core/Include/cmsis_gcc.h" 1
 812 0034 83F31188 		MSR basepri, r3
 813              	@ 0 "" 2
 814              	.LVL31:
 815              		.loc 5 493 3 is_stmt 0 view .LVU227
 816              		.thumb
 817              		.syntax unified
 818              	.LBE220:
 819              	.LBE219:
 820              	.LBE221:
 821              	.LBE222:
 822              	.LBE223:
 823              	.LBE225:
 824              		.loc 1 218 1 view .LVU228
 825 0038 10BD     		pop	{r4, pc}
 826              		.loc 1 218 1 view .LVU229
 827              		.cfi_endproc
 828              	.LFE340:
 829              		.size	adcStopConversion, .-adcStopConversion
 830              		.section	.text.adcStopConversionI,"ax",%progbits
 831              		.align	1
 832              		.global	adcStopConversionI
 833              		.syntax unified
 834              		.thumb
 835              		.thumb_func
 836              		.fpu fpv4-sp-d16
 837              		.type	adcStopConversionI, %function
 838              	adcStopConversionI:
 839              	.LVL32:
 840              	.LFB341:
 841              		.loc 1 230 42 is_stmt 1 view -0
 842              		.cfi_startproc
 843              		@ args = 0, pretend = 0, frame = 0
 844              		@ frame_needed = 0, uses_anonymous_args = 0
 845              		.loc 1 232 23 view .LVU231
 846              		.loc 1 233 3 view .LVU232
 847              		.loc 1 233 3 view .LVU233
 848              		.loc 1 233 3 view .LVU234
 849              		.loc 1 234 3 view .LVU235
 850              		.loc 1 234 3 view .LVU236
 851              		.loc 1 234 3 view .LVU237
 852              		.loc 1 239 3 view .LVU238
 853              		.loc 1 230 42 is_stmt 0 view .LVU239
 854 0000 10B5     		push	{r4, lr}
 855              		.cfi_def_cfa_offset 8
ARM GAS  /tmp/ccz1UGrt.s 			page 16


 856              		.cfi_offset 4, -8
 857              		.cfi_offset 14, -4
 858              		.loc 1 239 6 view .LVU240
 859 0002 0378     		ldrb	r3, [r0]	@ zero_extendqisi2
 860              		.loc 1 230 42 view .LVU241
 861 0004 0446     		mov	r4, r0
 862              		.loc 1 239 6 view .LVU242
 863 0006 022B     		cmp	r3, #2
 864 0008 0DD0     		beq	.L12
 865              		.loc 1 240 5 is_stmt 1 view .LVU243
 866 000a FFF7FEFF 		bl	adc_lld_stop_conversion
 867              	.LVL33:
 868              		.loc 1 241 5 view .LVU244
 869              		.loc 1 241 17 is_stmt 0 view .LVU245
 870 000e 0023     		movs	r3, #0
 871              		.loc 1 242 17 view .LVU246
 872 0010 2046     		mov	r0, r4
 873              	.LBB226:
 874              	.LBB227:
 875              		.loc 2 775 3 view .LVU247
 876 0012 6FF00101 		mvn	r1, #1
 877              	.LBE227:
 878              	.LBE226:
 879              		.loc 1 241 17 view .LVU248
 880 0016 2361     		str	r3, [r4, #16]
 881              		.loc 1 242 5 is_stmt 1 view .LVU249
 882              		.loc 1 242 17 is_stmt 0 view .LVU250
 883 0018 0223     		movs	r3, #2
 884 001a 00F8143B 		strb	r3, [r0], #20
 885              		.loc 1 243 5 is_stmt 1 view .LVU251
 886              	.LVL34:
 887              	.LBB230:
 888              	.LBI226:
 889              		.loc 2 773 20 view .LVU252
 890              	.LBB228:
 891              		.loc 2 775 3 view .LVU253
 892              	.LBE228:
 893              	.LBE230:
 894              		.loc 1 245 1 is_stmt 0 view .LVU254
 895 001e BDE81040 		pop	{r4, lr}
 896              		.cfi_remember_state
 897              		.cfi_restore 14
 898              		.cfi_restore 4
 899              		.cfi_def_cfa_offset 0
 900              	.LVL35:
 901              	.LBB231:
 902              	.LBB229:
 903              		.loc 2 775 3 view .LVU255
 904 0022 FFF7FEBF 		b	chThdResumeI
 905              	.LVL36:
 906              	.L12:
 907              		.cfi_restore_state
 908              		.loc 2 775 3 view .LVU256
 909              	.LBE229:
 910              	.LBE231:
 911              		.loc 1 245 1 view .LVU257
 912 0026 10BD     		pop	{r4, pc}
ARM GAS  /tmp/ccz1UGrt.s 			page 17


 913              		.cfi_endproc
 914              	.LFE341:
 915              		.size	adcStopConversionI, .-adcStopConversionI
 916              		.section	.text.adcConvert,"ax",%progbits
 917              		.align	1
 918              		.global	adcConvert
 919              		.syntax unified
 920              		.thumb
 921              		.thumb_func
 922              		.fpu fpv4-sp-d16
 923              		.type	adcConvert, %function
 924              	adcConvert:
 925              	.LVL37:
 926              	.LFB342:
 927              		.loc 1 274 32 is_stmt 1 view -0
 928              		.cfi_startproc
 929              		@ args = 0, pretend = 0, frame = 8
 930              		@ frame_needed = 0, uses_anonymous_args = 0
 931              		.loc 1 275 3 view .LVU259
 932              		.loc 1 277 3 view .LVU260
 933              	.LBB250:
 934              	.LBI250:
 935              		.loc 2 509 20 view .LVU261
 936              	.LBE250:
 937              		.loc 2 511 3 view .LVU262
 938              	.LBB264:
 939              	.LBB251:
 940              	.LBI251:
 941              		.loc 3 353 20 view .LVU263
 942              	.LBB252:
 943              		.loc 3 355 3 view .LVU264
 944              	.LBB253:
 945              	.LBI253:
 946              		.loc 4 602 20 view .LVU265
 947              	.LBE253:
 948              	.LBE252:
 949              	.LBE251:
 950              	.LBE264:
 951              		.loc 4 610 3 view .LVU266
 952              	.LBB265:
 953              	.LBB262:
 954              	.LBB260:
 955              	.LBB258:
 956              	.LBB254:
 957              	.LBI254:
 958              		.loc 5 491 27 view .LVU267
 959              	.LBB255:
 960              		.loc 5 493 3 view .LVU268
 961              	.LBE255:
 962              	.LBE254:
 963              	.LBE258:
 964              	.LBE260:
 965              	.LBE262:
 966              	.LBE265:
 967              		.loc 1 274 32 is_stmt 0 view .LVU269
 968 0000 F7B5     		push	{r0, r1, r2, r4, r5, r6, r7, lr}
 969              		.cfi_def_cfa_offset 32
ARM GAS  /tmp/ccz1UGrt.s 			page 18


 970              		.cfi_offset 4, -20
 971              		.cfi_offset 5, -16
 972              		.cfi_offset 6, -12
 973              		.cfi_offset 7, -8
 974              		.cfi_offset 14, -4
 975              		.loc 1 274 32 view .LVU270
 976 0002 1E46     		mov	r6, r3
 977 0004 0446     		mov	r4, r0
 978 0006 0D46     		mov	r5, r1
 979 0008 1746     		mov	r7, r2
 980              	.LBB266:
 981              	.LBB263:
 982              	.LBB261:
 983              	.LBB259:
 984              	.LBB257:
 985              	.LBB256:
 986              		.loc 5 493 3 view .LVU271
 987 000a 2023     		movs	r3, #32
 988              	.LVL38:
 989              		.loc 5 493 3 view .LVU272
 990              		.syntax unified
 991              	@ 493 "../../modules/ChibiOS/os/common/ext/ARM/CMSIS/Core/Include/cmsis_gcc.h" 1
 992 000c 83F31188 		MSR basepri, r3
 993              	@ 0 "" 2
 994              	.LVL39:
 995              		.loc 5 493 3 view .LVU273
 996              		.thumb
 997              		.syntax unified
 998              	.LBE256:
 999              	.LBE257:
 1000              	.LBE259:
 1001              		.loc 3 356 3 is_stmt 1 view .LVU274
 1002 0010 FFF7FEFF 		bl	_stats_start_measure_crit_thd
 1003              	.LVL40:
 1004              		.loc 3 357 20 view .LVU275
 1005              	.LBE261:
 1006              	.LBE263:
 1007              	.LBE266:
 1008              		.loc 1 278 3 view .LVU276
 1009              		.loc 1 278 3 view .LVU277
 1010              		.loc 1 278 3 view .LVU278
 1011              		.loc 1 279 3 view .LVU279
 1012              	.LBB267:
 1013              	.LBI267:
 1014              		.loc 1 175 6 view .LVU280
 1015              	.LBB268:
 1016              		.loc 1 180 23 view .LVU281
 1017              		.loc 1 181 3 view .LVU282
 1018              		.loc 1 181 3 view .LVU283
 1019              		.loc 1 181 3 view .LVU284
 1020              		.loc 1 183 3 view .LVU285
 1021              		.loc 1 183 3 view .LVU286
 1022              		.loc 1 183 3 view .LVU287
 1023              		.loc 1 187 3 view .LVU288
 1024              		.loc 1 190 18 is_stmt 0 view .LVU289
 1025 0014 0323     		movs	r3, #3
 1026              		.loc 1 191 3 view .LVU290
ARM GAS  /tmp/ccz1UGrt.s 			page 19


 1027 0016 2046     		mov	r0, r4
 1028              		.loc 1 189 18 view .LVU291
 1029 0018 2561     		str	r5, [r4, #16]
 1030              		.loc 1 190 18 view .LVU292
 1031 001a 2370     		strb	r3, [r4]
 1032              		.loc 1 188 18 view .LVU293
 1033 001c C4E90276 		strd	r7, r6, [r4, #8]
 1034              		.loc 1 189 3 is_stmt 1 view .LVU294
 1035              		.loc 1 190 3 view .LVU295
 1036              		.loc 1 191 3 view .LVU296
 1037 0020 FFF7FEFF 		bl	adc_lld_start_conversion
 1038              	.LVL41:
 1039              		.loc 1 191 3 is_stmt 0 view .LVU297
 1040              	.LBE268:
 1041              	.LBE267:
 1042              		.loc 1 280 3 is_stmt 1 view .LVU298
 1043              	.LBB269:
 1044              	.LBI269:
 1045              		.loc 2 733 21 view .LVU299
 1046              	.LBB270:
 1047              		.loc 2 735 3 view .LVU300
 1048              		.loc 2 735 10 is_stmt 0 view .LVU301
 1049 0024 4FF0FF31 		mov	r1, #-1
 1050 0028 04F11400 		add	r0, r4, #20
 1051              	.LVL42:
 1052              		.loc 2 735 10 view .LVU302
 1053 002c FFF7FEFF 		bl	chThdSuspendTimeoutS
 1054              	.LVL43:
 1055              		.loc 2 735 10 view .LVU303
 1056 0030 0190     		str	r0, [sp, #4]
 1057              	.LVL44:
 1058              		.loc 2 735 10 view .LVU304
 1059              	.LBE270:
 1060              	.LBE269:
 1061              		.loc 1 281 3 is_stmt 1 view .LVU305
 1062              	.LBB271:
 1063              	.LBI271:
 1064              		.loc 2 520 20 view .LVU306
 1065              	.LBE271:
 1066              		.loc 2 522 3 view .LVU307
 1067              	.LBB280:
 1068              	.LBB272:
 1069              	.LBI272:
 1070              		.loc 3 365 20 view .LVU308
 1071              	.LBB273:
 1072              		.loc 3 367 22 view .LVU309
 1073              		.loc 3 368 3 view .LVU310
 1074 0032 FFF7FEFF 		bl	_stats_stop_measure_crit_thd
 1075              	.LVL45:
 1076              		.loc 3 374 3 view .LVU311
 1077              		.loc 3 374 3 view .LVU312
 1078              		.loc 3 374 3 view .LVU313
 1079              		.loc 3 378 3 view .LVU314
 1080              	.LBB274:
 1081              	.LBI274:
 1082              		.loc 4 626 20 view .LVU315
 1083              	.LBE274:
ARM GAS  /tmp/ccz1UGrt.s 			page 20


 1084              	.LBE273:
 1085              	.LBE272:
 1086              	.LBE280:
 1087              		.loc 4 629 3 view .LVU316
 1088              	.LBB281:
 1089              	.LBB279:
 1090              	.LBB278:
 1091              	.LBB277:
 1092              	.LBB275:
 1093              	.LBI275:
 1094              		.loc 5 491 27 view .LVU317
 1095              	.LBB276:
 1096              		.loc 5 493 3 view .LVU318
 1097 0036 0023     		movs	r3, #0
 1098              		.syntax unified
 1099              	@ 493 "../../modules/ChibiOS/os/common/ext/ARM/CMSIS/Core/Include/cmsis_gcc.h" 1
 1100 0038 83F31188 		MSR basepri, r3
 1101              	@ 0 "" 2
 1102              	.LVL46:
 1103              		.loc 5 493 3 is_stmt 0 view .LVU319
 1104              		.thumb
 1105              		.syntax unified
 1106              	.LBE276:
 1107              	.LBE275:
 1108              	.LBE277:
 1109              	.LBE278:
 1110              	.LBE279:
 1111              	.LBE281:
 1112              		.loc 1 282 3 is_stmt 1 view .LVU320
 1113              		.loc 1 283 1 is_stmt 0 view .LVU321
 1114 003c 0198     		ldr	r0, [sp, #4]
 1115 003e 03B0     		add	sp, sp, #12
 1116              		.cfi_def_cfa_offset 20
 1117              		@ sp needed
 1118 0040 F0BD     		pop	{r4, r5, r6, r7, pc}
 1119              		.loc 1 283 1 view .LVU322
 1120              		.cfi_endproc
 1121              	.LFE342:
 1122              		.size	adcConvert, .-adcConvert
 1123              		.text
 1124              	.Letext0:
 1125              		.file 6 "/opt/gcc-arm-none-eabi-10-2020-q4-major/lib/gcc/arm-none-eabi/10.2.1/include/stddef.h"
 1126              		.file 7 "/opt/gcc-arm-none-eabi-10-2020-q4-major/arm-none-eabi/include/machine/_default_types.h"
 1127              		.file 8 "/opt/gcc-arm-none-eabi-10-2020-q4-major/arm-none-eabi/include/sys/_stdint.h"
 1128              		.file 9 "../../modules/ChibiOS/os/common/ports/ARMCMx/compilers/GCC/chtypes.h"
 1129              		.file 10 "../../modules/ChibiOS/os/rt/include/chsystypes.h"
 1130              		.file 11 "../../modules/ChibiOS/os/rt/include/chschd.h"
 1131              		.file 12 "../../modules/ChibiOS/os/rt/include/chtime.h"
 1132              		.file 13 "../../modules/ChibiOS/os/common/ext/ST/STM32F7xx/stm32f767xx.h"
 1133              		.file 14 "../../modules/ChibiOS/os/common/ports/ARMCMx/chcore.h"
 1134              		.file 15 "../../modules/ChibiOS/os/rt/include/chtm.h"
 1135              		.file 16 "../../modules/ChibiOS/os/rt/include/chsem.h"
 1136              		.file 17 "../../modules/ChibiOS/os/rt/include/chmtx.h"
 1137              		.file 18 "../../modules/ChibiOS/os/hal/ports/STM32/LLD/DMAv2/stm32_dma.h"
 1138              		.file 19 "../../modules/ChibiOS/os/hal/include/hal_adc.h"
 1139              		.file 20 "../../modules/ChibiOS/os/hal/ports/STM32/LLD/ADCv2/hal_adc_lld.h"
 1140              		.file 21 "../../modules/ChibiOS/os/rt/include/chstats.h"
ARM GAS  /tmp/ccz1UGrt.s 			page 21


 1141              		.file 22 "../../modules/ChibiOS/os/rt/include/chthreads.h"