ARM GAS  /tmp/ccRTqG2G.s 			page 1


   1              		.cpu cortex-m7
   2              		.eabi_attribute 27, 1
   3              		.eabi_attribute 28, 1
   4              		.eabi_attribute 20, 1
   5              		.eabi_attribute 21, 1
   6              		.eabi_attribute 23, 3
   7              		.eabi_attribute 24, 1
   8              		.eabi_attribute 25, 1
   9              		.eabi_attribute 26, 1
  10              		.eabi_attribute 30, 4
  11              		.eabi_attribute 34, 1
  12              		.eabi_attribute 18, 4
  13              		.file	"hal_usb.c"
  14              		.text
  15              	.Ltext0:
  16              		.cfi_sections	.debug_frame
  17              		.section	.text.chSysLockFromISR,"ax",%progbits
  18              		.align	1
  19              		.arch armv7e-m
  20              		.syntax unified
  21              		.thumb
  22              		.thumb_func
  23              		.fpu fpv4-sp-d16
  24              		.type	chSysLockFromISR, %function
  25              	chSysLockFromISR:
  26              	.LFB197:
  27              		.file 1 "../../modules/ChibiOS/os/rt/include/chsys.h"
  28              		.loc 1 393 43 view -0
  29              		.cfi_startproc
  30              		@ args = 0, pretend = 0, frame = 0
  31              		@ frame_needed = 0, uses_anonymous_args = 0
  32              		@ link register save eliminated.
  33              		.loc 1 395 3 view .LVU1
  34              	.LBB82:
  35              	.LBI82:
  36              		.file 2 "../../modules/ChibiOS/os/common/ports/ARMCMx/chcore_v7m.h"
  37              		.loc 2 641 20 view .LVU2
  38              	.LBE82:
  39              		.loc 2 643 3 view .LVU3
  40              	.LBB87:
  41              	.LBB83:
  42              	.LBI83:
  43              		.loc 2 602 20 view .LVU4
  44              	.LBE83:
  45              	.LBE87:
  46              		.loc 2 610 3 view .LVU5
  47              	.LVL0:
  48              	.LBB88:
  49              	.LBB86:
  50              	.LBB84:
  51              	.LBI84:
  52              		.file 3 "../../modules/ChibiOS/os/common/ext/ARM/CMSIS/Core/Include/cmsis_gcc.h"
  53              		.loc 3 491 27 view .LVU6
  54              	.LBB85:
  55              		.loc 3 493 3 view .LVU7
  56 0000 2023     		movs	r3, #32
  57              		.syntax unified
ARM GAS  /tmp/ccRTqG2G.s 			page 2


  58              	@ 493 "../../modules/ChibiOS/os/common/ext/ARM/CMSIS/Core/Include/cmsis_gcc.h" 1
  59 0002 83F31188 		MSR basepri, r3
  60              	@ 0 "" 2
  61              	.LVL1:
  62              		.loc 3 493 3 is_stmt 0 view .LVU8
  63              		.thumb
  64              		.syntax unified
  65              	.LBE85:
  66              	.LBE84:
  67              	.LBE86:
  68              	.LBE88:
  69              		.loc 1 396 3 is_stmt 1 view .LVU9
  70 0006 FFF7FEBF 		b	_stats_start_measure_crit_isr
  71              	.LVL2:
  72              		.cfi_endproc
  73              	.LFE197:
  74              		.size	chSysLockFromISR, .-chSysLockFromISR
  75              		.section	.text.chSysUnlockFromISR,"ax",%progbits
  76              		.align	1
  77              		.syntax unified
  78              		.thumb
  79              		.thumb_func
  80              		.fpu fpv4-sp-d16
  81              		.type	chSysUnlockFromISR, %function
  82              	chSysUnlockFromISR:
  83              	.LFB198:
  84              		.loc 1 413 45 view -0
  85              		.cfi_startproc
  86              		@ args = 0, pretend = 0, frame = 0
  87              		@ frame_needed = 0, uses_anonymous_args = 0
  88              		.loc 1 415 31 view .LVU11
  89              		.loc 1 416 3 view .LVU12
  90              		.loc 1 413 45 is_stmt 0 view .LVU13
  91 0000 08B5     		push	{r3, lr}
  92              		.cfi_def_cfa_offset 8
  93              		.cfi_offset 3, -8
  94              		.cfi_offset 14, -4
  95              		.loc 1 416 3 view .LVU14
  96 0002 FFF7FEFF 		bl	_stats_stop_measure_crit_isr
  97              	.LVL3:
  98              		.loc 1 417 3 is_stmt 1 view .LVU15
  99              	.LBB89:
 100              	.LBI89:
 101              		.loc 2 652 20 view .LVU16
 102              	.LBE89:
 103              		.loc 2 654 3 view .LVU17
 104              	.LBB94:
 105              	.LBB90:
 106              	.LBI90:
 107              		.loc 2 626 20 view .LVU18
 108              	.LBE90:
 109              	.LBE94:
 110              		.loc 2 629 3 view .LVU19
 111              	.LBB95:
 112              	.LBB93:
 113              	.LBB91:
 114              	.LBI91:
ARM GAS  /tmp/ccRTqG2G.s 			page 3


 115              		.loc 3 491 27 view .LVU20
 116              	.LBB92:
 117              		.loc 3 493 3 view .LVU21
 118 0006 0023     		movs	r3, #0
 119              		.syntax unified
 120              	@ 493 "../../modules/ChibiOS/os/common/ext/ARM/CMSIS/Core/Include/cmsis_gcc.h" 1
 121 0008 83F31188 		MSR basepri, r3
 122              	@ 0 "" 2
 123              	.LVL4:
 124              		.loc 3 493 3 is_stmt 0 view .LVU22
 125              		.thumb
 126              		.syntax unified
 127              	.LBE92:
 128              	.LBE91:
 129              	.LBE93:
 130              	.LBE95:
 131              		.loc 1 418 1 view .LVU23
 132 000c 08BD     		pop	{r3, pc}
 133              		.cfi_endproc
 134              	.LFE198:
 135              		.size	chSysUnlockFromISR, .-chSysUnlockFromISR
 136              		.section	.text.usbInit,"ax",%progbits
 137              		.align	1
 138              		.global	usbInit
 139              		.syntax unified
 140              		.thumb
 141              		.thumb_func
 142              		.fpu fpv4-sp-d16
 143              		.type	usbInit, %function
 144              	usbInit:
 145              	.LFB337:
 146              		.file 4 "../../modules/ChibiOS/os/hal/src/hal_usb.c"
 147              		.loc 4 270 20 is_stmt 1 view -0
 148              		.cfi_startproc
 149              		@ args = 0, pretend = 0, frame = 0
 150              		@ frame_needed = 0, uses_anonymous_args = 0
 151              		@ link register save eliminated.
 152              		.loc 4 272 3 view .LVU25
 153 0000 FFF7FEBF 		b	usb_lld_init
 154              	.LVL5:
 155              		.cfi_endproc
 156              	.LFE337:
 157              		.size	usbInit, .-usbInit
 158              		.section	.text.usbObjectInit,"ax",%progbits
 159              		.align	1
 160              		.global	usbObjectInit
 161              		.syntax unified
 162              		.thumb
 163              		.thumb_func
 164              		.fpu fpv4-sp-d16
 165              		.type	usbObjectInit, %function
 166              	usbObjectInit:
 167              	.LVL6:
 168              	.LFB338:
 169              		.loc 4 282 37 view -0
 170              		.cfi_startproc
 171              		@ args = 0, pretend = 0, frame = 0
ARM GAS  /tmp/ccRTqG2G.s 			page 4


 172              		@ frame_needed = 0, uses_anonymous_args = 0
 173              		.loc 4 283 3 view .LVU27
 174              		.loc 4 285 3 view .LVU28
 175              		.loc 4 285 22 is_stmt 0 view .LVU29
 176 0000 0123     		movs	r3, #1
 177              		.loc 4 288 25 view .LVU30
 178 0002 2822     		movs	r2, #40
 179 0004 0021     		movs	r1, #0
 180              		.loc 4 282 37 view .LVU31
 181 0006 10B5     		push	{r4, lr}
 182              		.cfi_def_cfa_offset 8
 183              		.cfi_offset 4, -8
 184              		.cfi_offset 14, -4
 185              		.loc 4 282 37 view .LVU32
 186 0008 0446     		mov	r4, r0
 187              		.loc 4 285 22 view .LVU33
 188 000a 00F8243B 		strb	r3, [r0], #36
 189              	.LVL7:
 190              		.loc 4 286 3 is_stmt 1 view .LVU34
 191              		.loc 4 287 3 view .LVU35
 192              		.loc 4 287 15 view .LVU36
 193              		.loc 4 288 25 is_stmt 0 view .LVU37
 194 000e FFF7FEFF 		bl	memset
 195              	.LVL8:
 196              		.loc 4 291 3 is_stmt 1 view .LVU38
 197              		.loc 4 292 3 view .LVU39
 198              		.loc 4 286 22 is_stmt 0 view .LVU40
 199 0012 0023     		movs	r3, #0
 200              		.loc 4 291 22 view .LVU41
 201 0014 C4E90133 		strd	r3, r3, [r4, #4]
 202              		.loc 4 293 1 view .LVU42
 203 0018 10BD     		pop	{r4, pc}
 204              		.loc 4 293 1 view .LVU43
 205              		.cfi_endproc
 206              	.LFE338:
 207              		.size	usbObjectInit, .-usbObjectInit
 208              		.section	.text.usbStart,"ax",%progbits
 209              		.align	1
 210              		.global	usbStart
 211              		.syntax unified
 212              		.thumb
 213              		.thumb_func
 214              		.fpu fpv4-sp-d16
 215              		.type	usbStart, %function
 216              	usbStart:
 217              	.LVL9:
 218              	.LFB339:
 219              		.loc 4 303 57 is_stmt 1 view -0
 220              		.cfi_startproc
 221              		@ args = 0, pretend = 0, frame = 0
 222              		@ frame_needed = 0, uses_anonymous_args = 0
 223              		.loc 4 304 3 view .LVU45
 224              		.loc 4 306 3 view .LVU46
 225              		.loc 4 306 3 view .LVU47
 226              		.loc 4 306 3 view .LVU48
 227              		.loc 4 308 3 view .LVU49
 228              	.LBB110:
ARM GAS  /tmp/ccRTqG2G.s 			page 5


 229              	.LBI110:
 230              		.file 5 "../../modules/ChibiOS/os/hal/osal/rt/osal.h"
 231              		.loc 5 509 20 view .LVU50
 232              	.LBE110:
 233              		.loc 5 511 3 view .LVU51
 234              	.LBB124:
 235              	.LBB111:
 236              	.LBI111:
 237              		.loc 1 353 20 view .LVU52
 238              	.LBB112:
 239              		.loc 1 355 3 view .LVU53
 240              	.LBB113:
 241              	.LBI113:
 242              		.loc 2 602 20 view .LVU54
 243              	.LBE113:
 244              	.LBE112:
 245              	.LBE111:
 246              	.LBE124:
 247              		.loc 2 610 3 view .LVU55
 248              	.LBB125:
 249              	.LBB122:
 250              	.LBB120:
 251              	.LBB118:
 252              	.LBB114:
 253              	.LBI114:
 254              		.loc 3 491 27 view .LVU56
 255              	.LBB115:
 256              		.loc 3 493 3 view .LVU57
 257              	.LBE115:
 258              	.LBE114:
 259              	.LBE118:
 260              	.LBE120:
 261              	.LBE122:
 262              	.LBE125:
 263              		.loc 4 303 57 is_stmt 0 view .LVU58
 264 0000 38B5     		push	{r3, r4, r5, lr}
 265              		.cfi_def_cfa_offset 16
 266              		.cfi_offset 3, -16
 267              		.cfi_offset 4, -12
 268              		.cfi_offset 5, -8
 269              		.cfi_offset 14, -4
 270              		.loc 4 303 57 view .LVU59
 271 0002 0446     		mov	r4, r0
 272 0004 0D46     		mov	r5, r1
 273              	.LBB126:
 274              	.LBB123:
 275              	.LBB121:
 276              	.LBB119:
 277              	.LBB117:
 278              	.LBB116:
 279              		.loc 3 493 3 view .LVU60
 280 0006 2023     		movs	r3, #32
 281              		.syntax unified
 282              	@ 493 "../../modules/ChibiOS/os/common/ext/ARM/CMSIS/Core/Include/cmsis_gcc.h" 1
 283 0008 83F31188 		MSR basepri, r3
 284              	@ 0 "" 2
 285              	.LVL10:
ARM GAS  /tmp/ccRTqG2G.s 			page 6


 286              		.loc 3 493 3 view .LVU61
 287              		.thumb
 288              		.syntax unified
 289              	.LBE116:
 290              	.LBE117:
 291              	.LBE119:
 292              		.loc 1 356 3 is_stmt 1 view .LVU62
 293 000c FFF7FEFF 		bl	_stats_start_measure_crit_thd
 294              	.LVL11:
 295              		.loc 1 357 20 view .LVU63
 296              	.LBE121:
 297              	.LBE123:
 298              	.LBE126:
 299              		.loc 4 309 3 view .LVU64
 300              		.loc 4 309 3 view .LVU65
 301              		.loc 4 309 3 view .LVU66
 302              		.loc 4 311 3 view .LVU67
 303              		.loc 4 311 16 is_stmt 0 view .LVU68
 304 0010 6560     		str	r5, [r4, #4]
 305              		.loc 4 312 3 is_stmt 1 view .LVU69
 306              	.LVL12:
 307              		.loc 4 312 15 view .LVU70
 308              		.loc 4 313 5 view .LVU71
 309              		.loc 4 313 18 is_stmt 0 view .LVU72
 310 0012 0025     		movs	r5, #0
 311              	.LVL13:
 312              		.loc 4 315 3 view .LVU73
 313 0014 2046     		mov	r0, r4
 314              		.loc 4 313 18 view .LVU74
 315 0016 C4E90355 		strd	r5, r5, [r4, #12]
 316              		.loc 4 312 49 is_stmt 1 view .LVU75
 317              	.LVL14:
 318              		.loc 4 312 15 view .LVU76
 319              		.loc 4 313 5 view .LVU77
 320              		.loc 4 313 18 is_stmt 0 view .LVU78
 321 001a C4E90555 		strd	r5, r5, [r4, #20]
 322              		.loc 4 312 49 is_stmt 1 view .LVU79
 323              	.LVL15:
 324              		.loc 4 312 15 view .LVU80
 325              		.loc 4 313 5 view .LVU81
 326              		.loc 4 313 18 is_stmt 0 view .LVU82
 327 001e C4E90755 		strd	r5, r5, [r4, #28]
 328              		.loc 4 312 49 is_stmt 1 view .LVU83
 329              	.LVL16:
 330              		.loc 4 312 15 view .LVU84
 331              		.loc 4 315 3 view .LVU85
 332 0022 FFF7FEFF 		bl	usb_lld_start
 333              	.LVL17:
 334              		.loc 4 316 3 view .LVU86
 335              		.loc 4 316 15 is_stmt 0 view .LVU87
 336 0026 0223     		movs	r3, #2
 337 0028 2370     		strb	r3, [r4]
 338              		.loc 4 317 3 is_stmt 1 view .LVU88
 339              	.LBB127:
 340              	.LBI127:
 341              		.loc 5 520 20 view .LVU89
 342              	.LBE127:
ARM GAS  /tmp/ccRTqG2G.s 			page 7


 343              		.loc 5 522 3 view .LVU90
 344              	.LBB136:
 345              	.LBB128:
 346              	.LBI128:
 347              		.loc 1 365 20 view .LVU91
 348              	.LBB129:
 349              		.loc 1 367 22 view .LVU92
 350              		.loc 1 368 3 view .LVU93
 351 002a FFF7FEFF 		bl	_stats_stop_measure_crit_thd
 352              	.LVL18:
 353              		.loc 1 374 3 view .LVU94
 354              		.loc 1 374 3 view .LVU95
 355              		.loc 1 374 3 view .LVU96
 356              		.loc 1 378 3 view .LVU97
 357              	.LBB130:
 358              	.LBI130:
 359              		.loc 2 626 20 view .LVU98
 360              	.LBE130:
 361              	.LBE129:
 362              	.LBE128:
 363              	.LBE136:
 364              		.loc 2 629 3 view .LVU99
 365              	.LBB137:
 366              	.LBB135:
 367              	.LBB134:
 368              	.LBB133:
 369              	.LBB131:
 370              	.LBI131:
 371              		.loc 3 491 27 view .LVU100
 372              	.LBB132:
 373              		.loc 3 493 3 view .LVU101
 374              		.syntax unified
 375              	@ 493 "../../modules/ChibiOS/os/common/ext/ARM/CMSIS/Core/Include/cmsis_gcc.h" 1
 376 002e 85F31188 		MSR basepri, r5
 377              	@ 0 "" 2
 378              	.LVL19:
 379              		.loc 3 493 3 is_stmt 0 view .LVU102
 380              		.thumb
 381              		.syntax unified
 382              	.LBE132:
 383              	.LBE131:
 384              	.LBE133:
 385              	.LBE134:
 386              	.LBE135:
 387              	.LBE137:
 388              		.loc 4 318 1 view .LVU103
 389 0032 38BD     		pop	{r3, r4, r5, pc}
 390              		.loc 4 318 1 view .LVU104
 391              		.cfi_endproc
 392              	.LFE339:
 393              		.size	usbStart, .-usbStart
 394              		.section	.text.usbStop,"ax",%progbits
 395              		.align	1
 396              		.global	usbStop
 397              		.syntax unified
 398              		.thumb
 399              		.thumb_func
ARM GAS  /tmp/ccRTqG2G.s 			page 8


 400              		.fpu fpv4-sp-d16
 401              		.type	usbStop, %function
 402              	usbStop:
 403              	.LVL20:
 404              	.LFB340:
 405              		.loc 4 327 31 is_stmt 1 view -0
 406              		.cfi_startproc
 407              		@ args = 0, pretend = 0, frame = 0
 408              		@ frame_needed = 0, uses_anonymous_args = 0
 409              		.loc 4 328 3 view .LVU106
 410              		.loc 4 330 3 view .LVU107
 411              		.loc 4 330 3 view .LVU108
 412              		.loc 4 330 3 view .LVU109
 413              		.loc 4 332 3 view .LVU110
 414              	.LBB154:
 415              	.LBI154:
 416              		.loc 5 509 20 view .LVU111
 417              	.LBE154:
 418              		.loc 5 511 3 view .LVU112
 419              	.LBB168:
 420              	.LBB155:
 421              	.LBI155:
 422              		.loc 1 353 20 view .LVU113
 423              	.LBB156:
 424              		.loc 1 355 3 view .LVU114
 425              	.LBB157:
 426              	.LBI157:
 427              		.loc 2 602 20 view .LVU115
 428              	.LBE157:
 429              	.LBE156:
 430              	.LBE155:
 431              	.LBE168:
 432              		.loc 2 610 3 view .LVU116
 433              	.LBB169:
 434              	.LBB166:
 435              	.LBB164:
 436              	.LBB162:
 437              	.LBB158:
 438              	.LBI158:
 439              		.loc 3 491 27 view .LVU117
 440              	.LBB159:
 441              		.loc 3 493 3 view .LVU118
 442              	.LBE159:
 443              	.LBE158:
 444              	.LBE162:
 445              	.LBE164:
 446              	.LBE166:
 447              	.LBE169:
 448              		.loc 4 327 31 is_stmt 0 view .LVU119
 449 0000 38B5     		push	{r3, r4, r5, lr}
 450              		.cfi_def_cfa_offset 16
 451              		.cfi_offset 3, -16
 452              		.cfi_offset 4, -12
 453              		.cfi_offset 5, -8
 454              		.cfi_offset 14, -4
 455              		.loc 4 327 31 view .LVU120
 456 0002 0446     		mov	r4, r0
ARM GAS  /tmp/ccRTqG2G.s 			page 9


 457              	.LBB170:
 458              	.LBB167:
 459              	.LBB165:
 460              	.LBB163:
 461              	.LBB161:
 462              	.LBB160:
 463              		.loc 3 493 3 view .LVU121
 464 0004 2023     		movs	r3, #32
 465              		.syntax unified
 466              	@ 493 "../../modules/ChibiOS/os/common/ext/ARM/CMSIS/Core/Include/cmsis_gcc.h" 1
 467 0006 83F31188 		MSR basepri, r3
 468              	@ 0 "" 2
 469              	.LVL21:
 470              		.loc 3 493 3 view .LVU122
 471              		.thumb
 472              		.syntax unified
 473              	.LBE160:
 474              	.LBE161:
 475              	.LBE163:
 476              		.loc 1 356 3 is_stmt 1 view .LVU123
 477 000a FFF7FEFF 		bl	_stats_start_measure_crit_thd
 478              	.LVL22:
 479              		.loc 1 357 20 view .LVU124
 480              	.LBE165:
 481              	.LBE167:
 482              	.LBE170:
 483              		.loc 4 334 3 view .LVU125
 484              		.loc 4 334 3 view .LVU126
 485              		.loc 4 334 3 view .LVU127
 486              		.loc 4 339 3 view .LVU128
 487 000e 2046     		mov	r0, r4
 488 0010 FFF7FEFF 		bl	usb_lld_stop
 489              	.LVL23:
 490              		.loc 4 340 3 view .LVU129
 491              		.loc 4 340 16 is_stmt 0 view .LVU130
 492 0014 0025     		movs	r5, #0
 493              		.loc 4 341 16 view .LVU131
 494 0016 0123     		movs	r3, #1
 495              		.loc 4 340 16 view .LVU132
 496 0018 6560     		str	r5, [r4, #4]
 497              		.loc 4 341 3 is_stmt 1 view .LVU133
 498              		.loc 4 341 16 is_stmt 0 view .LVU134
 499 001a 2370     		strb	r3, [r4]
 500              		.loc 4 344 3 is_stmt 1 view .LVU135
 501              	.LVL24:
 502              		.loc 4 344 15 view .LVU136
 503              		.loc 4 355 5 view .LVU137
 504              		.loc 4 355 18 is_stmt 0 view .LVU138
 505 001c C4E90355 		strd	r5, r5, [r4, #12]
 506              		.loc 4 344 49 is_stmt 1 view .LVU139
 507              	.LVL25:
 508              		.loc 4 344 15 view .LVU140
 509              		.loc 4 355 5 view .LVU141
 510              		.loc 4 355 18 is_stmt 0 view .LVU142
 511 0020 C4E90555 		strd	r5, r5, [r4, #20]
 512              		.loc 4 344 49 is_stmt 1 view .LVU143
 513              	.LVL26:
ARM GAS  /tmp/ccRTqG2G.s 			page 10


 514              		.loc 4 344 15 view .LVU144
 515              		.loc 4 355 5 view .LVU145
 516              		.loc 4 355 18 is_stmt 0 view .LVU146
 517 0024 C4E90755 		strd	r5, r5, [r4, #28]
 518              		.loc 4 344 49 is_stmt 1 view .LVU147
 519              	.LVL27:
 520              		.loc 4 344 15 view .LVU148
 521              		.loc 4 357 3 view .LVU149
 522              	.LBB171:
 523              	.LBI171:
 524              		.loc 5 616 20 view .LVU150
 525              	.LBB172:
 526              		.loc 5 618 3 view .LVU151
 527 0028 FFF7FEFF 		bl	chSchRescheduleS
 528              	.LVL28:
 529              	.LBE172:
 530              	.LBE171:
 531              		.loc 4 359 3 view .LVU152
 532              	.LBB173:
 533              	.LBI173:
 534              		.loc 5 520 20 view .LVU153
 535              	.LBE173:
 536              		.loc 5 522 3 view .LVU154
 537              	.LBB182:
 538              	.LBB174:
 539              	.LBI174:
 540              		.loc 1 365 20 view .LVU155
 541              	.LBB175:
 542              		.loc 1 367 22 view .LVU156
 543              		.loc 1 368 3 view .LVU157
 544 002c FFF7FEFF 		bl	_stats_stop_measure_crit_thd
 545              	.LVL29:
 546              		.loc 1 374 3 view .LVU158
 547              		.loc 1 374 3 view .LVU159
 548              		.loc 1 374 3 view .LVU160
 549              		.loc 1 378 3 view .LVU161
 550              	.LBB176:
 551              	.LBI176:
 552              		.loc 2 626 20 view .LVU162
 553              	.LBE176:
 554              	.LBE175:
 555              	.LBE174:
 556              	.LBE182:
 557              		.loc 2 629 3 view .LVU163
 558              	.LBB183:
 559              	.LBB181:
 560              	.LBB180:
 561              	.LBB179:
 562              	.LBB177:
 563              	.LBI177:
 564              		.loc 3 491 27 view .LVU164
 565              	.LBB178:
 566              		.loc 3 493 3 view .LVU165
 567              		.syntax unified
 568              	@ 493 "../../modules/ChibiOS/os/common/ext/ARM/CMSIS/Core/Include/cmsis_gcc.h" 1
 569 0030 85F31188 		MSR basepri, r5
 570              	@ 0 "" 2
ARM GAS  /tmp/ccRTqG2G.s 			page 11


 571              	.LVL30:
 572              		.loc 3 493 3 is_stmt 0 view .LVU166
 573              		.thumb
 574              		.syntax unified
 575              	.LBE178:
 576              	.LBE177:
 577              	.LBE179:
 578              	.LBE180:
 579              	.LBE181:
 580              	.LBE183:
 581              		.loc 4 360 1 view .LVU167
 582 0034 38BD     		pop	{r3, r4, r5, pc}
 583              		.loc 4 360 1 view .LVU168
 584              		.cfi_endproc
 585              	.LFE340:
 586              		.size	usbStop, .-usbStop
 587              		.section	.text.usbInitEndpointI,"ax",%progbits
 588              		.align	1
 589              		.global	usbInitEndpointI
 590              		.syntax unified
 591              		.thumb
 592              		.thumb_func
 593              		.fpu fpv4-sp-d16
 594              		.type	usbInitEndpointI, %function
 595              	usbInitEndpointI:
 596              	.LVL31:
 597              	.LFB341:
 598              		.loc 4 376 54 is_stmt 1 view -0
 599              		.cfi_startproc
 600              		@ args = 0, pretend = 0, frame = 0
 601              		@ frame_needed = 0, uses_anonymous_args = 0
 602              		.loc 4 378 23 view .LVU170
 603              		.loc 4 379 3 view .LVU171
 604              		.loc 4 379 3 view .LVU172
 605              		.loc 4 379 3 view .LVU173
 606              		.loc 4 380 3 view .LVU174
 607              		.loc 4 380 3 view .LVU175
 608              		.loc 4 380 3 view .LVU176
 609              		.loc 4 382 3 view .LVU177
 610              		.loc 4 382 3 view .LVU178
 611              		.loc 4 382 3 view .LVU179
 612              		.loc 4 385 3 view .LVU180
 613              		.loc 4 376 54 is_stmt 0 view .LVU181
 614 0000 70B5     		push	{r4, r5, r6, lr}
 615              		.cfi_def_cfa_offset 16
 616              		.cfi_offset 4, -16
 617              		.cfi_offset 5, -12
 618              		.cfi_offset 6, -8
 619              		.cfi_offset 14, -4
 620              		.loc 4 385 17 view .LVU182
 621 0002 00EB8103 		add	r3, r0, r1, lsl #2
 622              		.loc 4 376 54 view .LVU183
 623 0006 0546     		mov	r5, r0
 624              		.loc 4 388 11 view .LVU184
 625 0008 5069     		ldr	r0, [r2, #20]
 626              	.LVL32:
 627              		.loc 4 376 54 view .LVU185
ARM GAS  /tmp/ccRTqG2G.s 			page 12


 628 000a 0E46     		mov	r6, r1
 629 000c 1446     		mov	r4, r2
 630              		.loc 4 385 17 view .LVU186
 631 000e DA60     		str	r2, [r3, #12]
 632              		.loc 4 388 3 is_stmt 1 view .LVU187
 633              		.loc 4 388 6 is_stmt 0 view .LVU188
 634 0010 18B1     		cbz	r0, .L8
 635              		.loc 4 389 5 is_stmt 1 view .LVU189
 636 0012 1022     		movs	r2, #16
 637              	.LVL33:
 638              		.loc 4 389 5 is_stmt 0 view .LVU190
 639 0014 0021     		movs	r1, #0
 640              	.LVL34:
 641              		.loc 4 389 5 view .LVU191
 642 0016 FFF7FEFF 		bl	memset
 643              	.LVL35:
 644              	.L8:
 645              		.loc 4 391 3 is_stmt 1 view .LVU192
 646              		.loc 4 391 11 is_stmt 0 view .LVU193
 647 001a A069     		ldr	r0, [r4, #24]
 648              		.loc 4 391 6 view .LVU194
 649 001c 18B1     		cbz	r0, .L9
 650              		.loc 4 392 5 is_stmt 1 view .LVU195
 651 001e 1022     		movs	r2, #16
 652 0020 0021     		movs	r1, #0
 653 0022 FFF7FEFF 		bl	memset
 654              	.LVL36:
 655              	.L9:
 656              		.loc 4 396 3 view .LVU196
 657 0026 3146     		mov	r1, r6
 658 0028 2846     		mov	r0, r5
 659              		.loc 4 397 1 is_stmt 0 view .LVU197
 660 002a BDE87040 		pop	{r4, r5, r6, lr}
 661              		.cfi_restore 14
 662              		.cfi_restore 6
 663              		.cfi_restore 5
 664              		.cfi_restore 4
 665              		.cfi_def_cfa_offset 0
 666              	.LVL37:
 667              		.loc 4 396 3 view .LVU198
 668 002e FFF7FEBF 		b	usb_lld_init_endpoint
 669              	.LVL38:
 670              		.loc 4 396 3 view .LVU199
 671              		.cfi_endproc
 672              	.LFE341:
 673              		.size	usbInitEndpointI, .-usbInitEndpointI
 674              		.section	.text.usbDisableEndpointsI,"ax",%progbits
 675              		.align	1
 676              		.global	usbDisableEndpointsI
 677              		.syntax unified
 678              		.thumb
 679              		.thumb_func
 680              		.fpu fpv4-sp-d16
 681              		.type	usbDisableEndpointsI, %function
 682              	usbDisableEndpointsI:
 683              	.LVL39:
 684              	.LFB342:
ARM GAS  /tmp/ccRTqG2G.s 			page 13


 685              		.loc 4 410 44 is_stmt 1 view -0
 686              		.cfi_startproc
 687              		@ args = 0, pretend = 0, frame = 0
 688              		@ frame_needed = 0, uses_anonymous_args = 0
 689              		@ link register save eliminated.
 690              		.loc 4 411 3 view .LVU201
 691              		.loc 4 413 23 view .LVU202
 692              		.loc 4 414 3 view .LVU203
 693              		.loc 4 414 3 view .LVU204
 694              		.loc 4 414 3 view .LVU205
 695              		.loc 4 415 3 view .LVU206
 696              		.loc 4 415 3 view .LVU207
 697              		.loc 4 415 3 view .LVU208
 698              		.loc 4 417 3 view .LVU209
 699              		.loc 4 418 3 view .LVU210
 700              		.loc 4 417 22 is_stmt 0 view .LVU211
 701 0000 8268     		ldr	r2, [r0, #8]
 702 0002 02F00112 		and	r2, r2, #65537
 703 0006 8260     		str	r2, [r0, #8]
 704              		.loc 4 420 3 is_stmt 1 view .LVU212
 705              	.LVL40:
 706              		.loc 4 420 15 view .LVU213
 707              		.loc 4 432 5 view .LVU214
 708              		.loc 4 432 18 is_stmt 0 view .LVU215
 709 0008 0022     		movs	r2, #0
 710 000a C0E90422 		strd	r2, r2, [r0, #16]
 711              		.loc 4 420 49 is_stmt 1 view .LVU216
 712              	.LVL41:
 713              		.loc 4 420 15 view .LVU217
 714              		.loc 4 432 5 view .LVU218
 715              		.loc 4 432 18 is_stmt 0 view .LVU219
 716 000e C0E90622 		strd	r2, r2, [r0, #24]
 717              		.loc 4 420 49 is_stmt 1 view .LVU220
 718              	.LVL42:
 719              		.loc 4 420 15 view .LVU221
 720              		.loc 4 432 5 view .LVU222
 721              		.loc 4 432 18 is_stmt 0 view .LVU223
 722 0012 0262     		str	r2, [r0, #32]
 723              		.loc 4 420 49 is_stmt 1 view .LVU224
 724              	.LVL43:
 725              		.loc 4 420 15 view .LVU225
 726              		.loc 4 436 3 view .LVU226
 727 0014 FFF7FEBF 		b	usb_lld_disable_endpoints
 728              	.LVL44:
 729              		.loc 4 436 3 is_stmt 0 view .LVU227
 730              		.cfi_endproc
 731              	.LFE342:
 732              		.size	usbDisableEndpointsI, .-usbDisableEndpointsI
 733              		.section	.text.usbStartReceiveI,"ax",%progbits
 734              		.align	1
 735              		.global	usbStartReceiveI
 736              		.syntax unified
 737              		.thumb
 738              		.thumb_func
 739              		.fpu fpv4-sp-d16
 740              		.type	usbStartReceiveI, %function
 741              	usbStartReceiveI:
ARM GAS  /tmp/ccRTqG2G.s 			page 14


 742              	.LVL45:
 743              	.LFB343:
 744              		.loc 4 454 47 is_stmt 1 view -0
 745              		.cfi_startproc
 746              		@ args = 0, pretend = 0, frame = 0
 747              		@ frame_needed = 0, uses_anonymous_args = 0
 748              		@ link register save eliminated.
 749              		.loc 4 455 3 view .LVU229
 750              		.loc 4 457 23 view .LVU230
 751              		.loc 4 458 3 view .LVU231
 752              		.loc 4 458 3 view .LVU232
 753              		.loc 4 458 3 view .LVU233
 754              		.loc 4 459 3 view .LVU234
 755              		.loc 4 459 3 view .LVU235
 756              		.loc 4 459 3 view .LVU236
 757              		.loc 4 462 3 view .LVU237
 758              		.loc 4 454 47 is_stmt 0 view .LVU238
 759 0000 F0B4     		push	{r4, r5, r6, r7}
 760              		.cfi_def_cfa_offset 16
 761              		.cfi_offset 4, -16
 762              		.cfi_offset 5, -12
 763              		.cfi_offset 6, -8
 764              		.cfi_offset 7, -4
 765              		.loc 4 462 46 view .LVU239
 766 0002 0125     		movs	r5, #1
 767              		.loc 4 466 18 view .LVU240
 768 0004 00EB8104 		add	r4, r0, r1, lsl #2
 769              		.loc 4 462 19 view .LVU241
 770 0008 4789     		ldrh	r7, [r0, #10]
 771              		.loc 4 462 46 view .LVU242
 772 000a 8D40     		lsls	r5, r5, r1
 773              		.loc 4 466 7 view .LVU243
 774 000c E468     		ldr	r4, [r4, #12]
 775              		.loc 4 462 19 view .LVU244
 776 000e 3D43     		orrs	r5, r5, r7
 777              		.loc 4 466 7 view .LVU245
 778 0010 A469     		ldr	r4, [r4, #24]
 779              		.loc 4 462 19 view .LVU246
 780 0012 4581     		strh	r5, [r0, #10]	@ movhi
 781              		.loc 4 466 3 is_stmt 1 view .LVU247
 782              	.LVL46:
 783              		.loc 4 468 3 view .LVU248
 784              		.loc 4 469 15 is_stmt 0 view .LVU249
 785 0014 2360     		str	r3, [r4]
 786              		.loc 4 470 15 view .LVU250
 787 0016 0023     		movs	r3, #0
 788              	.LVL47:
 789              		.loc 4 468 15 view .LVU251
 790 0018 A260     		str	r2, [r4, #8]
 791              		.loc 4 469 3 is_stmt 1 view .LVU252
 792              		.loc 4 470 3 view .LVU253
 793              		.loc 4 470 15 is_stmt 0 view .LVU254
 794 001a 6360     		str	r3, [r4, #4]
 795              		.loc 4 476 3 is_stmt 1 view .LVU255
 796              		.loc 4 477 1 is_stmt 0 view .LVU256
 797 001c F0BC     		pop	{r4, r5, r6, r7}
 798              		.cfi_restore 7
ARM GAS  /tmp/ccRTqG2G.s 			page 15


 799              		.cfi_restore 6
 800              		.cfi_restore 5
 801              		.cfi_restore 4
 802              		.cfi_def_cfa_offset 0
 803              	.LVL48:
 804              		.loc 4 476 3 view .LVU257
 805 001e FFF7FEBF 		b	usb_lld_start_out
 806              	.LVL49:
 807              		.loc 4 476 3 view .LVU258
 808              		.cfi_endproc
 809              	.LFE343:
 810              		.size	usbStartReceiveI, .-usbStartReceiveI
 811              		.section	.text.usbStartTransmitI,"ax",%progbits
 812              		.align	1
 813              		.global	usbStartTransmitI
 814              		.syntax unified
 815              		.thumb
 816              		.thumb_func
 817              		.fpu fpv4-sp-d16
 818              		.type	usbStartTransmitI, %function
 819              	usbStartTransmitI:
 820              	.LVL50:
 821              	.LFB344:
 822              		.loc 4 493 54 is_stmt 1 view -0
 823              		.cfi_startproc
 824              		@ args = 0, pretend = 0, frame = 0
 825              		@ frame_needed = 0, uses_anonymous_args = 0
 826              		@ link register save eliminated.
 827              		.loc 4 494 3 view .LVU260
 828              		.loc 4 496 23 view .LVU261
 829              		.loc 4 497 3 view .LVU262
 830              		.loc 4 497 3 view .LVU263
 831              		.loc 4 497 3 view .LVU264
 832              		.loc 4 498 3 view .LVU265
 833              		.loc 4 498 3 view .LVU266
 834              		.loc 4 498 3 view .LVU267
 835              		.loc 4 501 3 view .LVU268
 836              		.loc 4 493 54 is_stmt 0 view .LVU269
 837 0000 F0B4     		push	{r4, r5, r6, r7}
 838              		.cfi_def_cfa_offset 16
 839              		.cfi_offset 4, -16
 840              		.cfi_offset 5, -12
 841              		.cfi_offset 6, -8
 842              		.cfi_offset 7, -4
 843              		.loc 4 501 49 view .LVU270
 844 0002 0125     		movs	r5, #1
 845              		.loc 4 505 18 view .LVU271
 846 0004 00EB8104 		add	r4, r0, r1, lsl #2
 847              		.loc 4 501 22 view .LVU272
 848 0008 0789     		ldrh	r7, [r0, #8]
 849              		.loc 4 501 49 view .LVU273
 850 000a 8D40     		lsls	r5, r5, r1
 851              		.loc 4 505 7 view .LVU274
 852 000c E468     		ldr	r4, [r4, #12]
 853              		.loc 4 501 22 view .LVU275
 854 000e 3D43     		orrs	r5, r5, r7
 855              		.loc 4 505 7 view .LVU276
ARM GAS  /tmp/ccRTqG2G.s 			page 16


 856 0010 6469     		ldr	r4, [r4, #20]
 857              		.loc 4 501 22 view .LVU277
 858 0012 0581     		strh	r5, [r0, #8]	@ movhi
 859              		.loc 4 505 3 is_stmt 1 view .LVU278
 860              	.LVL51:
 861              		.loc 4 507 3 view .LVU279
 862              		.loc 4 508 15 is_stmt 0 view .LVU280
 863 0014 2360     		str	r3, [r4]
 864              		.loc 4 509 15 view .LVU281
 865 0016 0023     		movs	r3, #0
 866              	.LVL52:
 867              		.loc 4 507 15 view .LVU282
 868 0018 A260     		str	r2, [r4, #8]
 869              		.loc 4 508 3 is_stmt 1 view .LVU283
 870              		.loc 4 509 3 view .LVU284
 871              		.loc 4 509 15 is_stmt 0 view .LVU285
 872 001a 6360     		str	r3, [r4, #4]
 873              		.loc 4 515 3 is_stmt 1 view .LVU286
 874              		.loc 4 516 1 is_stmt 0 view .LVU287
 875 001c F0BC     		pop	{r4, r5, r6, r7}
 876              		.cfi_restore 7
 877              		.cfi_restore 6
 878              		.cfi_restore 5
 879              		.cfi_restore 4
 880              		.cfi_def_cfa_offset 0
 881              	.LVL53:
 882              		.loc 4 515 3 view .LVU288
 883 001e FFF7FEBF 		b	usb_lld_start_in
 884              	.LVL54:
 885              		.loc 4 515 3 view .LVU289
 886              		.cfi_endproc
 887              	.LFE344:
 888              		.size	usbStartTransmitI, .-usbStartTransmitI
 889              		.section	.text.usbStallReceiveI,"ax",%progbits
 890              		.align	1
 891              		.global	usbStallReceiveI
 892              		.syntax unified
 893              		.thumb
 894              		.thumb_func
 895              		.fpu fpv4-sp-d16
 896              		.type	usbStallReceiveI, %function
 897              	usbStallReceiveI:
 898              	.LVL55:
 899              	.LFB345:
 900              		.loc 4 599 52 is_stmt 1 view -0
 901              		.cfi_startproc
 902              		@ args = 0, pretend = 0, frame = 0
 903              		@ frame_needed = 0, uses_anonymous_args = 0
 904              		.loc 4 601 23 view .LVU291
 905              		.loc 4 602 3 view .LVU292
 906              		.loc 4 602 3 view .LVU293
 907              		.loc 4 602 3 view .LVU294
 908              		.loc 4 604 3 view .LVU295
 909              		.loc 4 604 7 is_stmt 0 view .LVU296
 910 0000 0122     		movs	r2, #1
 911              		.loc 4 599 52 view .LVU297
 912 0002 10B5     		push	{r4, lr}
ARM GAS  /tmp/ccRTqG2G.s 			page 17


 913              		.cfi_def_cfa_offset 8
 914              		.cfi_offset 4, -8
 915              		.cfi_offset 14, -4
 916              		.loc 4 604 7 view .LVU298
 917 0004 02FA01F3 		lsl	r3, r2, r1
 918 0008 4489     		ldrh	r4, [r0, #10]
 919              		.loc 4 604 6 view .LVU299
 920 000a 1C40     		ands	r4, r3, r4
 921 000c 03D1     		bne	.L21
 922              		.loc 4 608 3 is_stmt 1 view .LVU300
 923 000e FFF7FEFF 		bl	usb_lld_stall_out
 924              	.LVL56:
 925              		.loc 4 609 3 view .LVU301
 926              		.loc 4 609 10 is_stmt 0 view .LVU302
 927 0012 2046     		mov	r0, r4
 928              	.L20:
 929              		.loc 4 610 1 view .LVU303
 930 0014 10BD     		pop	{r4, pc}
 931              	.LVL57:
 932              	.L21:
 933              		.loc 4 605 12 view .LVU304
 934 0016 1046     		mov	r0, r2
 935              	.LVL58:
 936              		.loc 4 605 12 view .LVU305
 937 0018 FCE7     		b	.L20
 938              		.cfi_endproc
 939              	.LFE345:
 940              		.size	usbStallReceiveI, .-usbStallReceiveI
 941              		.section	.text.usbStallTransmitI,"ax",%progbits
 942              		.align	1
 943              		.global	usbStallTransmitI
 944              		.syntax unified
 945              		.thumb
 946              		.thumb_func
 947              		.fpu fpv4-sp-d16
 948              		.type	usbStallTransmitI, %function
 949              	usbStallTransmitI:
 950              	.LVL59:
 951              	.LFB346:
 952              		.loc 4 624 53 is_stmt 1 view -0
 953              		.cfi_startproc
 954              		@ args = 0, pretend = 0, frame = 0
 955              		@ frame_needed = 0, uses_anonymous_args = 0
 956              		.loc 4 626 23 view .LVU307
 957              		.loc 4 627 3 view .LVU308
 958              		.loc 4 627 3 view .LVU309
 959              		.loc 4 627 3 view .LVU310
 960              		.loc 4 629 3 view .LVU311
 961              		.loc 4 629 7 is_stmt 0 view .LVU312
 962 0000 0122     		movs	r2, #1
 963              		.loc 4 624 53 view .LVU313
 964 0002 10B5     		push	{r4, lr}
 965              		.cfi_def_cfa_offset 8
 966              		.cfi_offset 4, -8
 967              		.cfi_offset 14, -4
 968              		.loc 4 629 7 view .LVU314
 969 0004 02FA01F3 		lsl	r3, r2, r1
ARM GAS  /tmp/ccRTqG2G.s 			page 18


 970 0008 0489     		ldrh	r4, [r0, #8]
 971              		.loc 4 629 6 view .LVU315
 972 000a 1C40     		ands	r4, r3, r4
 973 000c 03D1     		bne	.L24
 974              		.loc 4 633 3 is_stmt 1 view .LVU316
 975 000e FFF7FEFF 		bl	usb_lld_stall_in
 976              	.LVL60:
 977              		.loc 4 634 3 view .LVU317
 978              		.loc 4 634 10 is_stmt 0 view .LVU318
 979 0012 2046     		mov	r0, r4
 980              	.L23:
 981              		.loc 4 635 1 view .LVU319
 982 0014 10BD     		pop	{r4, pc}
 983              	.LVL61:
 984              	.L24:
 985              		.loc 4 630 12 view .LVU320
 986 0016 1046     		mov	r0, r2
 987              	.LVL62:
 988              		.loc 4 630 12 view .LVU321
 989 0018 FCE7     		b	.L23
 990              		.cfi_endproc
 991              	.LFE346:
 992              		.size	usbStallTransmitI, .-usbStallTransmitI
 993              		.section	.text.usbWakeupHost,"ax",%progbits
 994              		.align	1
 995              		.global	usbWakeupHost
 996              		.syntax unified
 997              		.thumb
 998              		.thumb_func
 999              		.fpu fpv4-sp-d16
 1000              		.type	usbWakeupHost, %function
 1001              	usbWakeupHost:
 1002              	.LVL63:
 1003              	.LFB347:
 1004              		.loc 4 646 37 is_stmt 1 view -0
 1005              		.cfi_startproc
 1006              		@ args = 0, pretend = 0, frame = 0
 1007              		@ frame_needed = 0, uses_anonymous_args = 0
 1008              		.loc 4 648 3 view .LVU323
 1009              		.loc 4 646 37 is_stmt 0 view .LVU324
 1010 0000 10B5     		push	{r4, lr}
 1011              		.cfi_def_cfa_offset 8
 1012              		.cfi_offset 4, -8
 1013              		.cfi_offset 14, -4
 1014              		.loc 4 648 6 view .LVU325
 1015 0002 0378     		ldrb	r3, [r0]	@ zero_extendqisi2
 1016              		.loc 4 646 37 view .LVU326
 1017 0004 0446     		mov	r4, r0
 1018              		.loc 4 648 6 view .LVU327
 1019 0006 052B     		cmp	r3, #5
 1020 0008 11D1     		bne	.L25
 1021              		.loc 4 650 5 is_stmt 1 view .LVU328
 1022              		.loc 4 650 5 view .LVU329
 1023 000a C26E     		ldr	r2, [r0, #108]
 1024              	.LBB184:
 1025              	.LBB185:
 1026              		.loc 5 720 3 is_stmt 0 view .LVU330
ARM GAS  /tmp/ccRTqG2G.s 			page 19


 1027 000c 4FF4FA60 		mov	r0, #2000
 1028              	.LVL64:
 1029              		.loc 5 720 3 view .LVU331
 1030              	.LBE185:
 1031              	.LBE184:
 1032              		.loc 4 650 5 view .LVU332
 1033 0010 D2F80438 		ldr	r3, [r2, #2052]
 1034 0014 43F00103 		orr	r3, r3, #1
 1035 0018 C2F80438 		str	r3, [r2, #2052]
 1036              		.loc 4 650 5 is_stmt 1 view .LVU333
 1037              	.LVL65:
 1038              	.LBB187:
 1039              	.LBI184:
 1040              		.loc 5 718 20 view .LVU334
 1041              	.LBB186:
 1042              		.loc 5 720 3 view .LVU335
 1043 001c FFF7FEFF 		bl	chThdSleep
 1044              	.LVL66:
 1045              		.loc 5 720 3 is_stmt 0 view .LVU336
 1046              	.LBE186:
 1047              	.LBE187:
 1048              		.loc 4 650 5 is_stmt 1 view .LVU337
 1049 0020 E26E     		ldr	r2, [r4, #108]
 1050 0022 D2F80438 		ldr	r3, [r2, #2052]
 1051 0026 23F00103 		bic	r3, r3, #1
 1052 002a C2F80438 		str	r3, [r2, #2052]
 1053              		.loc 4 650 5 view .LVU338
 1054              	.L25:
 1055              		.loc 4 652 1 is_stmt 0 view .LVU339
 1056 002e 10BD     		pop	{r4, pc}
 1057              		.loc 4 652 1 view .LVU340
 1058              		.cfi_endproc
 1059              	.LFE347:
 1060              		.size	usbWakeupHost, .-usbWakeupHost
 1061              		.section	.text._usb_reset,"ax",%progbits
 1062              		.align	1
 1063              		.global	_usb_reset
 1064              		.syntax unified
 1065              		.thumb
 1066              		.thumb_func
 1067              		.fpu fpv4-sp-d16
 1068              		.type	_usb_reset, %function
 1069              	_usb_reset:
 1070              	.LVL67:
 1071              	.LFB348:
 1072              		.loc 4 663 34 is_stmt 1 view -0
 1073              		.cfi_startproc
 1074              		@ args = 0, pretend = 0, frame = 0
 1075              		@ frame_needed = 0, uses_anonymous_args = 0
 1076              		.loc 4 664 3 view .LVU342
 1077              		.loc 4 667 3 view .LVU343
 1078              		.loc 4 663 34 is_stmt 0 view .LVU344
 1079 0000 70B5     		push	{r4, r5, r6, lr}
 1080              		.cfi_def_cfa_offset 16
 1081              		.cfi_offset 4, -16
 1082              		.cfi_offset 5, -12
 1083              		.cfi_offset 6, -8
ARM GAS  /tmp/ccRTqG2G.s 			page 20


 1084              		.cfi_offset 14, -4
 1085              		.loc 4 667 23 view .LVU345
 1086 0002 0223     		movs	r3, #2
 1087              		.loc 4 670 23 view .LVU346
 1088 0004 0025     		movs	r5, #0
 1089              		.loc 4 663 34 view .LVU347
 1090 0006 0446     		mov	r4, r0
 1091              		.loc 4 667 23 view .LVU348
 1092 0008 0370     		strb	r3, [r0]
 1093              		.loc 4 670 3 is_stmt 1 view .LVU349
 1094              		.loc 4 671 3 view .LVU350
 1095              		.loc 4 672 3 view .LVU351
 1096              		.loc 4 670 23 is_stmt 0 view .LVU352
 1097 000a 4566     		str	r5, [r0, #100]
 1098              		.loc 4 673 3 is_stmt 1 view .LVU353
 1099              		.loc 4 674 3 view .LVU354
 1100              		.loc 4 677 3 view .LVU355
 1101              	.LVL68:
 1102              		.loc 4 677 15 view .LVU356
 1103              		.loc 4 691 5 view .LVU357
 1104              		.loc 4 677 49 view .LVU358
 1105              		.loc 4 677 15 view .LVU359
 1106              		.loc 4 691 5 view .LVU360
 1107              		.loc 4 677 49 view .LVU361
 1108              		.loc 4 677 15 view .LVU362
 1109              		.loc 4 691 5 view .LVU363
 1110              		.loc 4 677 49 view .LVU364
 1111              		.loc 4 677 15 view .LVU365
 1112              		.loc 4 691 5 view .LVU366
 1113              		.loc 4 677 49 view .LVU367
 1114              		.loc 4 677 15 view .LVU368
 1115              		.loc 4 691 5 view .LVU369
 1116              		.loc 4 677 49 view .LVU370
 1117              		.loc 4 677 15 view .LVU371
 1118              		.loc 4 691 5 view .LVU372
 1119              		.loc 4 691 18 is_stmt 0 view .LVU373
 1120 000c 0562     		str	r5, [r0, #32]
 1121              		.loc 4 677 49 is_stmt 1 view .LVU374
 1122              	.LVL69:
 1123              		.loc 4 677 15 view .LVU375
 1124              		.loc 4 695 3 view .LVU376
 1125              		.loc 4 695 18 is_stmt 0 view .LVU377
 1126 000e 80F84C50 		strb	r5, [r0, #76]
 1127              		.loc 4 698 3 is_stmt 1 view .LVU378
 1128              		.loc 4 691 18 is_stmt 0 view .LVU379
 1129 0012 C0E90255 		strd	r5, r5, [r0, #8]
 1130 0016 C0E90455 		strd	r5, r5, [r0, #16]
 1131 001a C0E90655 		strd	r5, r5, [r0, #24]
 1132              		.loc 4 698 3 view .LVU380
 1133 001e FFF7FEFF 		bl	usb_lld_reset
 1134              	.LVL70:
 1135              		.loc 4 701 3 is_stmt 1 view .LVU381
 1136 0022 6368     		ldr	r3, [r4, #4]
 1137 0024 1B68     		ldr	r3, [r3]
 1138 0026 23B1     		cbz	r3, .L27
 1139              		.loc 4 701 3 discriminator 1 view .LVU382
 1140 0028 2946     		mov	r1, r5
ARM GAS  /tmp/ccRTqG2G.s 			page 21


 1141 002a 2046     		mov	r0, r4
 1142              		.loc 4 702 1 is_stmt 0 discriminator 1 view .LVU383
 1143 002c BDE87040 		pop	{r4, r5, r6, lr}
 1144              		.cfi_remember_state
 1145              		.cfi_restore 14
 1146              		.cfi_restore 6
 1147              		.cfi_restore 5
 1148              		.cfi_restore 4
 1149              		.cfi_def_cfa_offset 0
 1150              	.LVL71:
 1151              		.loc 4 701 3 discriminator 1 view .LVU384
 1152 0030 1847     		bx	r3	@ indirect register sibling call
 1153              	.LVL72:
 1154              	.L27:
 1155              		.cfi_restore_state
 1156              		.loc 4 702 1 view .LVU385
 1157 0032 70BD     		pop	{r4, r5, r6, pc}
 1158              		.loc 4 702 1 view .LVU386
 1159              		.cfi_endproc
 1160              	.LFE348:
 1161              		.size	_usb_reset, .-_usb_reset
 1162              		.section	.text._usb_suspend,"ax",%progbits
 1163              		.align	1
 1164              		.global	_usb_suspend
 1165              		.syntax unified
 1166              		.thumb
 1167              		.thumb_func
 1168              		.fpu fpv4-sp-d16
 1169              		.type	_usb_suspend, %function
 1170              	_usb_suspend:
 1171              	.LVL73:
 1172              	.LFB349:
 1173              		.loc 4 713 36 is_stmt 1 view -0
 1174              		.cfi_startproc
 1175              		@ args = 0, pretend = 0, frame = 0
 1176              		@ frame_needed = 0, uses_anonymous_args = 0
 1177              		@ link register save eliminated.
 1178              		.loc 4 717 3 view .LVU388
 1179              		.loc 4 717 21 is_stmt 0 view .LVU389
 1180 0000 0278     		ldrb	r2, [r0]	@ zero_extendqisi2
 1181              		.loc 4 721 3 view .LVU390
 1182 0002 4368     		ldr	r3, [r0, #4]
 1183              		.loc 4 717 21 view .LVU391
 1184 0004 80F86820 		strb	r2, [r0, #104]
 1185              		.loc 4 718 3 is_stmt 1 view .LVU392
 1186              		.loc 4 718 21 is_stmt 0 view .LVU393
 1187 0008 0522     		movs	r2, #5
 1188 000a 0270     		strb	r2, [r0]
 1189              		.loc 4 721 3 is_stmt 1 view .LVU394
 1190 000c 1B68     		ldr	r3, [r3]
 1191 000e 0BB1     		cbz	r3, .L29
 1192              		.loc 4 721 3 discriminator 1 view .LVU395
 1193 0010 0421     		movs	r1, #4
 1194 0012 1847     		bx	r3	@ indirect register sibling call
 1195              	.LVL74:
 1196              	.L29:
 1197              		.loc 4 742 1 is_stmt 0 view .LVU396
ARM GAS  /tmp/ccRTqG2G.s 			page 22


 1198 0014 7047     		bx	lr
 1199              		.cfi_endproc
 1200              	.LFE349:
 1201              		.size	_usb_suspend, .-_usb_suspend
 1202              		.section	.text._usb_wakeup,"ax",%progbits
 1203              		.align	1
 1204              		.global	_usb_wakeup
 1205              		.syntax unified
 1206              		.thumb
 1207              		.thumb_func
 1208              		.fpu fpv4-sp-d16
 1209              		.type	_usb_wakeup, %function
 1210              	_usb_wakeup:
 1211              	.LVL75:
 1212              	.LFB350:
 1213              		.loc 4 753 35 is_stmt 1 view -0
 1214              		.cfi_startproc
 1215              		@ args = 0, pretend = 0, frame = 0
 1216              		@ frame_needed = 0, uses_anonymous_args = 0
 1217              		@ link register save eliminated.
 1218              		.loc 4 756 3 view .LVU398
 1219              		.loc 4 756 15 is_stmt 0 view .LVU399
 1220 0000 90F86820 		ldrb	r2, [r0, #104]	@ zero_extendqisi2
 1221              		.loc 4 759 3 view .LVU400
 1222 0004 4368     		ldr	r3, [r0, #4]
 1223              		.loc 4 756 15 view .LVU401
 1224 0006 0270     		strb	r2, [r0]
 1225              		.loc 4 759 3 is_stmt 1 view .LVU402
 1226 0008 1B68     		ldr	r3, [r3]
 1227 000a 0BB1     		cbz	r3, .L31
 1228              		.loc 4 759 3 discriminator 1 view .LVU403
 1229 000c 0521     		movs	r1, #5
 1230 000e 1847     		bx	r3	@ indirect register sibling call
 1231              	.LVL76:
 1232              	.L31:
 1233              		.loc 4 760 1 is_stmt 0 view .LVU404
 1234 0010 7047     		bx	lr
 1235              		.cfi_endproc
 1236              	.LFE350:
 1237              		.size	_usb_wakeup, .-_usb_wakeup
 1238              		.section	.text._usb_ep0setup,"ax",%progbits
 1239              		.align	1
 1240              		.global	_usb_ep0setup
 1241              		.syntax unified
 1242              		.thumb
 1243              		.thumb_func
 1244              		.fpu fpv4-sp-d16
 1245              		.type	_usb_ep0setup, %function
 1246              	_usb_ep0setup:
 1247              	.LVL77:
 1248              	.LFB351:
 1249              		.loc 4 772 49 is_stmt 1 view -0
 1250              		.cfi_startproc
 1251              		@ args = 0, pretend = 0, frame = 0
 1252              		@ frame_needed = 0, uses_anonymous_args = 0
 1253              		.loc 4 773 3 view .LVU406
 1254              		.loc 4 777 3 view .LVU407
ARM GAS  /tmp/ccRTqG2G.s 			page 23


 1255              		.loc 4 772 49 is_stmt 0 view .LVU408
 1256 0000 70B5     		push	{r4, r5, r6, lr}
 1257              		.cfi_def_cfa_offset 16
 1258              		.cfi_offset 4, -16
 1259              		.cfi_offset 5, -12
 1260              		.cfi_offset 6, -8
 1261              		.cfi_offset 14, -4
 1262              		.loc 4 777 6 view .LVU409
 1263 0002 90F84C30 		ldrb	r3, [r0, #76]	@ zero_extendqisi2
 1264              		.loc 4 772 49 view .LVU410
 1265 0006 0446     		mov	r4, r0
 1266              		.loc 4 777 6 view .LVU411
 1267 0008 13B1     		cbz	r3, .L34
 1268              		.loc 4 782 5 is_stmt 1 view .LVU412
 1269              		.loc 4 782 20 is_stmt 0 view .LVU413
 1270 000a 0023     		movs	r3, #0
 1271 000c 80F84C30 		strb	r3, [r0, #76]
 1272              	.L34:
 1273              		.loc 4 786 3 is_stmt 1 view .LVU414
 1274 0010 04F15C02 		add	r2, r4, #92
 1275 0014 2046     		mov	r0, r4
 1276              	.LVL78:
 1277              		.loc 4 786 3 is_stmt 0 view .LVU415
 1278 0016 FFF7FEFF 		bl	usb_lld_read_setup
 1279              	.LVL79:
 1280              		.loc 4 791 3 is_stmt 1 view .LVU416
 1281              		.loc 4 791 20 is_stmt 0 view .LVU417
 1282 001a 6368     		ldr	r3, [r4, #4]
 1283 001c 9B68     		ldr	r3, [r3, #8]
 1284              		.loc 4 791 6 view .LVU418
 1285 001e B3B9     		cbnz	r3, .L35
 1286              	.L39:
 1287              		.loc 4 797 5 is_stmt 1 view .LVU419
 1288              		.loc 4 797 22 is_stmt 0 view .LVU420
 1289 0020 94F85C30 		ldrb	r3, [r4, #92]	@ zero_extendqisi2
 1290              		.loc 4 797 8 view .LVU421
 1291 0024 13F06005 		ands	r5, r3, #96
 1292 0028 33D0     		beq	.L116
 1293              	.L55:
 1294              		.loc 4 803 7 is_stmt 1 view .LVU422
 1295 002a 0021     		movs	r1, #0
 1296 002c 2046     		mov	r0, r4
 1297 002e FFF7FEFF 		bl	usb_lld_stall_in
 1298              	.LVL80:
 1299              		.loc 4 804 7 view .LVU423
 1300 0032 0021     		movs	r1, #0
 1301 0034 2046     		mov	r0, r4
 1302 0036 FFF7FEFF 		bl	usb_lld_stall_out
 1303              	.LVL81:
 1304              		.loc 4 805 7 view .LVU424
 1305 003a 6368     		ldr	r3, [r4, #4]
 1306 003c 1B68     		ldr	r3, [r3]
 1307 003e 13B1     		cbz	r3, .L68
 1308              		.loc 4 805 7 discriminator 1 view .LVU425
 1309 0040 0621     		movs	r1, #6
 1310 0042 2046     		mov	r0, r4
 1311 0044 9847     		blx	r3
ARM GAS  /tmp/ccRTqG2G.s 			page 24


 1312              	.LVL82:
 1313              	.L68:
 1314              		.loc 4 805 56 discriminator 3 view .LVU426
 1315              		.loc 4 806 7 discriminator 3 view .LVU427
 1316              		.loc 4 806 22 is_stmt 0 discriminator 3 view .LVU428
 1317 0046 0623     		movs	r3, #6
 1318 0048 84F84C30 		strb	r3, [r4, #76]
 1319              		.loc 4 807 7 is_stmt 1 discriminator 3 view .LVU429
 1320              		.loc 4 868 1 is_stmt 0 discriminator 3 view .LVU430
 1321 004c 70BD     		pop	{r4, r5, r6, pc}
 1322              	.LVL83:
 1323              	.L35:
 1324              		.loc 4 792 9 discriminator 1 view .LVU431
 1325 004e 2046     		mov	r0, r4
 1326 0050 9847     		blx	r3
 1327              	.LVL84:
 1328              		.loc 4 791 48 discriminator 1 view .LVU432
 1329 0052 0028     		cmp	r0, #0
 1330 0054 E4D0     		beq	.L39
 1331              	.L38:
 1332              		.loc 4 819 3 is_stmt 1 view .LVU433
 1333              	.LVL85:
 1334              		.loc 4 52 3 view .LVU434
 1335              		.loc 4 54 3 view .LVU435
 1336              		.loc 4 55 3 view .LVU436
 1337              		.loc 4 56 3 view .LVU437
 1338              		.loc 4 819 7 is_stmt 0 view .LVU438
 1339 0056 B4F86230 		ldrh	r3, [r4, #98]	@ unaligned
 1340              	.LVL86:
 1341              		.loc 4 821 3 is_stmt 1 view .LVU439
 1342              		.loc 4 821 6 is_stmt 0 view .LVU440
 1343 005a 626D     		ldr	r2, [r4, #84]
 1344 005c 9A42     		cmp	r2, r3
 1345              		.loc 4 822 5 is_stmt 1 view .LVU441
 1346              		.loc 4 822 16 is_stmt 0 view .LVU442
 1347 005e 88BF     		it	hi
 1348 0060 6365     		strhi	r3, [r4, #84]
 1349              		.loc 4 824 3 is_stmt 1 view .LVU443
 1350              		.loc 4 824 6 is_stmt 0 view .LVU444
 1351 0062 94F95C30 		ldrsb	r3, [r4, #92]
 1352              	.LVL87:
 1353              		.loc 4 826 13 view .LVU445
 1354 0066 656D     		ldr	r5, [r4, #84]
 1355              		.loc 4 824 6 view .LVU446
 1356 0068 002B     		cmp	r3, #0
 1357 006a 80F20081 		bge	.L71
 1358              		.loc 4 826 5 is_stmt 1 view .LVU447
 1359              		.loc 4 826 8 is_stmt 0 view .LVU448
 1360 006e 002D     		cmp	r5, #0
 1361 0070 00F0F180 		beq	.L72
 1362              		.loc 4 828 7 is_stmt 1 view .LVU449
 1363              		.loc 4 828 22 is_stmt 0 view .LVU450
 1364 0074 0923     		movs	r3, #9
 1365 0076 84F84C30 		strb	r3, [r4, #76]
 1366              		.loc 4 829 7 is_stmt 1 view .LVU451
 1367              	.LBB216:
 1368              	.LBI216:
ARM GAS  /tmp/ccRTqG2G.s 			page 25


 1369              		.loc 5 531 20 view .LVU452
 1370              	.LBB217:
 1371              		.loc 5 533 3 view .LVU453
 1372 007a FFF7FEFF 		bl	chSysLockFromISR
 1373              	.LVL88:
 1374              		.loc 5 533 3 is_stmt 0 view .LVU454
 1375              	.LBE217:
 1376              	.LBE216:
 1377              		.loc 4 830 7 is_stmt 1 view .LVU455
 1378 007e D4E91423 		ldrd	r2, r3, [r4, #80]
 1379              	.L124:
 1380 0082 0021     		movs	r1, #0
 1381 0084 2046     		mov	r0, r4
 1382 0086 FFF7FEFF 		bl	usbStartTransmitI
 1383              	.LVL89:
 1384              	.L125:
 1385              		.loc 4 831 7 view .LVU456
 1386              	.LBB218:
 1387              	.LBI218:
 1388              		.loc 5 542 20 view .LVU457
 1389              	.LBB219:
 1390              		.loc 5 544 3 view .LVU458
 1391              	.LBE219:
 1392              	.LBE218:
 1393              		.loc 4 868 1 is_stmt 0 view .LVU459
 1394 008a BDE87040 		pop	{r4, r5, r6, lr}
 1395              		.cfi_remember_state
 1396              		.cfi_restore 14
 1397              		.cfi_restore 6
 1398              		.cfi_restore 5
 1399              		.cfi_restore 4
 1400              		.cfi_def_cfa_offset 0
 1401              	.LVL90:
 1402              	.LBB221:
 1403              	.LBB220:
 1404              		.loc 5 544 3 view .LVU460
 1405 008e FFF7FEBF 		b	chSysUnlockFromISR
 1406              	.LVL91:
 1407              	.L116:
 1408              		.cfi_restore_state
 1409              		.loc 5 544 3 view .LVU461
 1410              	.LBE220:
 1411              	.LBE221:
 1412              	.LBB222:
 1413              	.LBI222:
 1414              		.loc 4 84 13 is_stmt 1 view .LVU462
 1415              	.LBB223:
 1416              		.loc 4 85 3 view .LVU463
 1417              		.loc 4 88 3 view .LVU464
 1418              		.loc 4 90 13 is_stmt 0 view .LVU465
 1419 0092 94F85D20 		ldrb	r2, [r4, #93]	@ zero_extendqisi2
 1420              		.loc 4 88 38 view .LVU466
 1421 0096 03F07F03 		and	r3, r3, #127
 1422              		.loc 4 89 63 view .LVU467
 1423 009a 43EA0223 		orr	r3, r3, r2, lsl #8
 1424              		.loc 4 88 3 view .LVU468
 1425 009e 40F20232 		movw	r2, #770
ARM GAS  /tmp/ccRTqG2G.s 			page 26


 1426 00a2 9342     		cmp	r3, r2
 1427 00a4 00F0C480 		beq	.L40
 1428 00a8 21D8     		bhi	.L41
 1429 00aa B3F5807F 		cmp	r3, #256
 1430 00ae 48D0     		beq	.L42
 1431 00b0 0DD8     		bhi	.L43
 1432 00b2 012B     		cmp	r3, #1
 1433 00b4 3FD0     		beq	.L44
 1434 00b6 022B     		cmp	r3, #2
 1435 00b8 00F09280 		beq	.L45
 1436 00bc 002B     		cmp	r3, #0
 1437 00be B4D1     		bne	.L55
 1438              		.loc 4 93 5 is_stmt 1 view .LVU469
 1439 00c0 04F16402 		add	r2, r4, #100
 1440 00c4 2265     		str	r2, [r4, #80]
 1441              		.loc 4 93 5 view .LVU470
 1442 00c6 0222     		movs	r2, #2
 1443 00c8 6265     		str	r2, [r4, #84]
 1444              		.loc 4 93 5 view .LVU471
 1445              	.L121:
 1446              		.loc 4 122 5 view .LVU472
 1447 00ca A365     		str	r3, [r4, #88]
 1448              		.loc 4 122 42 view .LVU473
 1449              		.loc 4 126 5 view .LVU474
 1450              	.LVL92:
 1451              		.loc 4 126 5 is_stmt 0 view .LVU475
 1452 00cc C3E7     		b	.L38
 1453              	.LVL93:
 1454              	.L43:
 1455              		.loc 4 88 3 view .LVU476
 1456 00ce B3F5817F 		cmp	r3, #258
 1457 00d2 00F09A80 		beq	.L48
 1458 00d6 B3F5407F 		cmp	r3, #768
 1459 00da A6D1     		bne	.L55
 1460              		.loc 4 107 5 is_stmt 1 view .LVU477
 1461              		.loc 4 107 8 is_stmt 0 view .LVU478
 1462 00dc 94F85E30 		ldrb	r3, [r4, #94]	@ zero_extendqisi2
 1463 00e0 012B     		cmp	r3, #1
 1464 00e2 A2D1     		bne	.L55
 1465              		.loc 4 108 7 is_stmt 1 view .LVU479
 1466              		.loc 4 108 20 is_stmt 0 view .LVU480
 1467 00e4 B4F86430 		ldrh	r3, [r4, #100]
 1468 00e8 43F00203 		orr	r3, r3, #2
 1469 00ec 32E0     		b	.L127
 1470              	.L41:
 1471              		.loc 4 88 3 view .LVU481
 1472 00ee B3F5006F 		cmp	r3, #2048
 1473 00f2 4DD0     		beq	.L50
 1474 00f4 17D8     		bhi	.L51
 1475 00f6 B3F5A06F 		cmp	r3, #1280
 1476 00fa 31D0     		beq	.L52
 1477 00fc A3F5C063 		sub	r3, r3, #1536
 1478 0100 012B     		cmp	r3, #1
 1479 0102 92D8     		bhi	.L55
 1480              		.loc 4 130 5 is_stmt 1 view .LVU482
 1481              	.LVL94:
 1482              		.loc 4 130 5 is_stmt 0 view .LVU483
ARM GAS  /tmp/ccRTqG2G.s 			page 27


 1483              	.LBE223:
 1484              	.LBE222:
 1485              		.loc 4 52 3 is_stmt 1 view .LVU484
 1486              		.loc 4 54 3 view .LVU485
 1487              		.loc 4 55 3 view .LVU486
 1488              		.loc 4 56 3 view .LVU487
 1489              	.LBB231:
 1490              	.LBB230:
 1491              		.loc 4 130 22 is_stmt 0 view .LVU488
 1492 0104 6368     		ldr	r3, [r4, #4]
 1493              		.loc 4 130 10 view .LVU489
 1494 0106 2046     		mov	r0, r4
 1495 0108 94F85E20 		ldrb	r2, [r4, #94]	@ zero_extendqisi2
 1496 010c 5E68     		ldr	r6, [r3, #4]
 1497 010e 94F85F10 		ldrb	r1, [r4, #95]	@ zero_extendqisi2
 1498 0112 B4F86030 		ldrh	r3, [r4, #96]	@ unaligned
 1499 0116 B047     		blx	r6
 1500              	.LVL95:
 1501              		.loc 4 133 5 is_stmt 1 view .LVU490
 1502              		.loc 4 133 8 is_stmt 0 view .LVU491
 1503 0118 0028     		cmp	r0, #0
 1504 011a 86D0     		beq	.L55
 1505              		.loc 4 137 5 is_stmt 1 view .LVU492
 1506 011c 4368     		ldr	r3, [r0, #4]
 1507 011e 2365     		str	r3, [r4, #80]
 1508              		.loc 4 137 5 view .LVU493
 1509 0120 0368     		ldr	r3, [r0]
 1510              	.LVL96:
 1511              	.L122:
 1512              		.loc 4 142 5 is_stmt 0 view .LVU494
 1513 0122 6365     		str	r3, [r4, #84]
 1514 0124 1AE0     		b	.L123
 1515              	.L51:
 1516              		.loc 4 88 3 view .LVU495
 1517 0126 B3F5106F 		cmp	r3, #2304
 1518 012a 36D0     		beq	.L54
 1519 012c 40F60242 		movw	r2, #3074
 1520 0130 9342     		cmp	r3, r2
 1521 0132 7FF47AAF 		bne	.L55
 1522              	.L44:
 1523              		.loc 4 176 5 is_stmt 1 view .LVU496
 1524 0136 564B     		ldr	r3, .L131
 1525              	.L126:
 1526              		.loc 4 190 9 is_stmt 0 view .LVU497
 1527 0138 2365     		str	r3, [r4, #80]
 1528              		.loc 4 190 9 is_stmt 1 view .LVU498
 1529 013a 0223     		movs	r3, #2
 1530 013c 6365     		str	r3, [r4, #84]
 1531              		.loc 4 190 9 view .LVU499
 1532 013e 0023     		movs	r3, #0
 1533 0140 C3E7     		b	.L121
 1534              	.L42:
 1535              		.loc 4 98 5 view .LVU500
 1536              		.loc 4 98 8 is_stmt 0 view .LVU501
 1537 0142 94F85E30 		ldrb	r3, [r4, #94]	@ zero_extendqisi2
 1538 0146 012B     		cmp	r3, #1
 1539 0148 7FF46FAF 		bne	.L55
ARM GAS  /tmp/ccRTqG2G.s 			page 28


 1540              		.loc 4 99 7 is_stmt 1 view .LVU502
 1541              		.loc 4 99 20 is_stmt 0 view .LVU503
 1542 014c B4F86430 		ldrh	r3, [r4, #100]
 1543 0150 23F00203 		bic	r3, r3, #2
 1544              	.L127:
 1545              		.loc 4 108 20 view .LVU504
 1546 0154 A4F86430 		strh	r3, [r4, #100]	@ movhi
 1547              		.loc 4 109 7 is_stmt 1 view .LVU505
 1548 0158 C4E91455 		strd	r5, r5, [r4, #80]
 1549              		.loc 4 109 7 view .LVU506
 1550              	.L123:
 1551              		.loc 4 142 5 view .LVU507
 1552 015c A565     		str	r5, [r4, #88]
 1553              		.loc 4 142 58 view .LVU508
 1554              		.loc 4 143 5 view .LVU509
 1555              	.LVL97:
 1556              		.loc 4 143 5 is_stmt 0 view .LVU510
 1557 015e 7AE7     		b	.L38
 1558              	.LVL98:
 1559              	.L52:
 1560              		.loc 4 118 5 is_stmt 1 view .LVU511
 1561              		.loc 4 118 8 is_stmt 0 view .LVU512
 1562 0160 B4F85C30 		ldrh	r3, [r4, #92]
 1563 0164 B3F5A06F 		cmp	r3, #1280
 1564 0168 0ED1     		bne	.L57
 1565              		.loc 4 120 7 is_stmt 1 view .LVU513
 1566              	.LVL99:
 1567              	.LBB224:
 1568              	.LBI224:
 1569              		.loc 4 64 13 view .LVU514
 1570              	.LBB225:
 1571              		.loc 4 66 3 view .LVU515
 1572              		.loc 4 66 17 is_stmt 0 view .LVU516
 1573 016a 94F85E30 		ldrb	r3, [r4, #94]	@ zero_extendqisi2
 1574              		.loc 4 67 3 view .LVU517
 1575 016e 2046     		mov	r0, r4
 1576              		.loc 4 66 17 view .LVU518
 1577 0170 84F86630 		strb	r3, [r4, #102]
 1578              		.loc 4 67 3 is_stmt 1 view .LVU519
 1579 0174 FFF7FEFF 		bl	usb_lld_set_address
 1580              	.LVL100:
 1581              		.loc 4 68 3 view .LVU520
 1582 0178 6368     		ldr	r3, [r4, #4]
 1583 017a 1B68     		ldr	r3, [r3]
 1584 017c 13B1     		cbz	r3, .L58
 1585              		.loc 4 68 3 view .LVU521
 1586 017e 0121     		movs	r1, #1
 1587 0180 2046     		mov	r0, r4
 1588 0182 9847     		blx	r3
 1589              	.LVL101:
 1590              	.L58:
 1591              		.loc 4 68 52 view .LVU522
 1592              		.loc 4 69 3 view .LVU523
 1593              		.loc 4 69 15 is_stmt 0 view .LVU524
 1594 0184 0323     		movs	r3, #3
 1595 0186 2370     		strb	r3, [r4]
 1596              	.LVL102:
ARM GAS  /tmp/ccRTqG2G.s 			page 29


 1597              	.L57:
 1598              		.loc 4 69 15 view .LVU525
 1599              	.LBE225:
 1600              	.LBE224:
 1601              		.loc 4 122 5 is_stmt 1 view .LVU526
 1602 0188 0023     		movs	r3, #0
 1603 018a C4E91433 		strd	r3, r3, [r4, #80]
 1604 018e 9CE7     		b	.L121
 1605              	.L50:
 1606              		.loc 4 142 5 view .LVU527
 1607 0190 04F16703 		add	r3, r4, #103
 1608 0194 2365     		str	r3, [r4, #80]
 1609              		.loc 4 142 5 view .LVU528
 1610 0196 0123     		movs	r3, #1
 1611 0198 C3E7     		b	.L122
 1612              	.L54:
 1613              		.loc 4 153 7 view .LVU529
 1614              		.loc 4 153 10 is_stmt 0 view .LVU530
 1615 019a 2378     		ldrb	r3, [r4]	@ zero_extendqisi2
 1616 019c 042B     		cmp	r3, #4
 1617 019e 0FD1     		bne	.L60
 1618              		.loc 4 155 9 is_stmt 1 view .LVU531
 1619              	.LBB226:
 1620              	.LBI226:
 1621              		.loc 5 531 20 view .LVU532
 1622              	.LBB227:
 1623              		.loc 5 533 3 view .LVU533
 1624 01a0 FFF7FEFF 		bl	chSysLockFromISR
 1625              	.LVL103:
 1626              	.LBE227:
 1627              	.LBE226:
 1628              		.loc 4 156 9 view .LVU534
 1629 01a4 2046     		mov	r0, r4
 1630 01a6 FFF7FEFF 		bl	usbDisableEndpointsI
 1631              	.LVL104:
 1632              		.loc 4 157 9 view .LVU535
 1633              	.LBB228:
 1634              	.LBI228:
 1635              		.loc 5 542 20 view .LVU536
 1636              	.LBB229:
 1637              		.loc 5 544 3 view .LVU537
 1638 01aa FFF7FEFF 		bl	chSysUnlockFromISR
 1639              	.LVL105:
 1640              	.LBE229:
 1641              	.LBE228:
 1642              		.loc 4 158 9 view .LVU538
 1643              		.loc 4 159 21 is_stmt 0 view .LVU539
 1644 01ae 0321     		movs	r1, #3
 1645              		.loc 4 160 9 view .LVU540
 1646 01b0 6368     		ldr	r3, [r4, #4]
 1647              		.loc 4 158 29 view .LVU541
 1648 01b2 84F86750 		strb	r5, [r4, #103]
 1649              		.loc 4 159 9 is_stmt 1 view .LVU542
 1650              		.loc 4 159 21 is_stmt 0 view .LVU543
 1651 01b6 2170     		strb	r1, [r4]
 1652              		.loc 4 160 9 is_stmt 1 view .LVU544
 1653 01b8 1B68     		ldr	r3, [r3]
ARM GAS  /tmp/ccRTqG2G.s 			page 30


 1654 01ba 0BB1     		cbz	r3, .L60
 1655              		.loc 4 160 9 view .LVU545
 1656 01bc 2046     		mov	r0, r4
 1657 01be 9847     		blx	r3
 1658              	.LVL106:
 1659              	.L60:
 1660              		.loc 4 160 63 view .LVU546
 1661              		.loc 4 162 7 view .LVU547
 1662              		.loc 4 162 22 is_stmt 0 view .LVU548
 1663 01c0 94F85E30 		ldrb	r3, [r4, #94]	@ zero_extendqisi2
 1664              		.loc 4 162 10 view .LVU549
 1665 01c4 002B     		cmp	r3, #0
 1666 01c6 DFD0     		beq	.L57
 1667              		.loc 4 164 9 is_stmt 1 view .LVU550
 1668              		.loc 4 164 29 is_stmt 0 view .LVU551
 1669 01c8 84F86730 		strb	r3, [r4, #103]
 1670              		.loc 4 165 9 is_stmt 1 view .LVU552
 1671              		.loc 4 165 21 is_stmt 0 view .LVU553
 1672 01cc 0423     		movs	r3, #4
 1673 01ce 2370     		strb	r3, [r4]
 1674              		.loc 4 166 9 is_stmt 1 view .LVU554
 1675 01d0 6368     		ldr	r3, [r4, #4]
 1676 01d2 1B68     		ldr	r3, [r3]
 1677 01d4 002B     		cmp	r3, #0
 1678 01d6 D7D0     		beq	.L57
 1679              		.loc 4 166 9 view .LVU555
 1680 01d8 0221     		movs	r1, #2
 1681 01da 2046     		mov	r0, r4
 1682 01dc 9847     		blx	r3
 1683              	.LVL107:
 1684 01de D3E7     		b	.L57
 1685              	.L45:
 1686              		.loc 4 181 5 view .LVU556
 1687              		.loc 4 181 21 is_stmt 0 view .LVU557
 1688 01e0 94F86030 		ldrb	r3, [r4, #96]	@ zero_extendqisi2
 1689              		.loc 4 182 15 view .LVU558
 1690 01e4 2046     		mov	r0, r4
 1691              		.loc 4 181 8 view .LVU559
 1692 01e6 1D06     		lsls	r5, r3, #24
 1693              		.loc 4 182 15 view .LVU560
 1694 01e8 03F00F01 		and	r1, r3, #15
 1695              		.loc 4 181 8 view .LVU561
 1696 01ec 0AD5     		bpl	.L63
 1697              	.LVL108:
 1698              		.loc 4 182 7 is_stmt 1 view .LVU562
 1699              		.loc 4 182 15 is_stmt 0 view .LVU563
 1700 01ee FFF7FEFF 		bl	usb_lld_get_status_in
 1701              	.LVL109:
 1702              	.L129:
 1703              		.loc 4 199 7 view .LVU564
 1704 01f2 0128     		cmp	r0, #1
 1705 01f4 04D0     		beq	.L64
 1706 01f6 0228     		cmp	r0, #2
 1707 01f8 7FF417AF 		bne	.L55
 1708              		.loc 4 190 9 is_stmt 1 view .LVU565
 1709 01fc 254B     		ldr	r3, .L131+4
 1710 01fe 9BE7     		b	.L126
ARM GAS  /tmp/ccRTqG2G.s 			page 31


 1711              	.L64:
 1712              		.loc 4 185 9 view .LVU566
 1713 0200 254B     		ldr	r3, .L131+8
 1714 0202 99E7     		b	.L126
 1715              	.LVL110:
 1716              	.L63:
 1717              		.loc 4 199 7 view .LVU567
 1718              		.loc 4 199 15 is_stmt 0 view .LVU568
 1719 0204 FFF7FEFF 		bl	usb_lld_get_status_out
 1720              	.LVL111:
 1721              		.loc 4 199 15 view .LVU569
 1722 0208 F3E7     		b	.L129
 1723              	.L48:
 1724              		.loc 4 217 5 is_stmt 1 view .LVU570
 1725              		.loc 4 217 8 is_stmt 0 view .LVU571
 1726 020a 94F85E30 		ldrb	r3, [r4, #94]	@ zero_extendqisi2
 1727 020e 002B     		cmp	r3, #0
 1728 0210 7FF40BAF 		bne	.L55
 1729              		.loc 4 221 5 is_stmt 1 view .LVU572
 1730              		.loc 4 221 21 is_stmt 0 view .LVU573
 1731 0214 94F86030 		ldrb	r3, [r4, #96]	@ zero_extendqisi2
 1732              		.loc 4 221 8 view .LVU574
 1733 0218 13F00F01 		ands	r1, r3, #15
 1734 021c B4D0     		beq	.L57
 1735              		.loc 4 222 7 is_stmt 1 view .LVU575
 1736              		.loc 4 222 10 is_stmt 0 view .LVU576
 1737 021e 1A06     		lsls	r2, r3, #24
 1738              		.loc 4 223 9 view .LVU577
 1739 0220 2046     		mov	r0, r4
 1740              		.loc 4 222 10 view .LVU578
 1741 0222 02D5     		bpl	.L66
 1742              	.LVL112:
 1743              		.loc 4 223 9 is_stmt 1 view .LVU579
 1744 0224 FFF7FEFF 		bl	usb_lld_clear_in
 1745              	.LVL113:
 1746              		.loc 4 223 9 is_stmt 0 view .LVU580
 1747 0228 AEE7     		b	.L57
 1748              	.LVL114:
 1749              	.L66:
 1750              		.loc 4 226 9 is_stmt 1 view .LVU581
 1751 022a FFF7FEFF 		bl	usb_lld_clear_out
 1752              	.LVL115:
 1753              		.loc 4 226 9 is_stmt 0 view .LVU582
 1754 022e ABE7     		b	.L57
 1755              	.L40:
 1756              		.loc 4 233 5 is_stmt 1 view .LVU583
 1757              		.loc 4 233 8 is_stmt 0 view .LVU584
 1758 0230 94F85E30 		ldrb	r3, [r4, #94]	@ zero_extendqisi2
 1759 0234 002B     		cmp	r3, #0
 1760 0236 7FF4F8AE 		bne	.L55
 1761              		.loc 4 237 5 is_stmt 1 view .LVU585
 1762              		.loc 4 237 21 is_stmt 0 view .LVU586
 1763 023a 94F86030 		ldrb	r3, [r4, #96]	@ zero_extendqisi2
 1764              		.loc 4 237 8 view .LVU587
 1765 023e 13F00F01 		ands	r1, r3, #15
 1766 0242 A1D0     		beq	.L57
 1767              		.loc 4 238 7 is_stmt 1 view .LVU588
ARM GAS  /tmp/ccRTqG2G.s 			page 32


 1768              		.loc 4 238 10 is_stmt 0 view .LVU589
 1769 0244 1B06     		lsls	r3, r3, #24
 1770              		.loc 4 239 9 view .LVU590
 1771 0246 2046     		mov	r0, r4
 1772              		.loc 4 238 10 view .LVU591
 1773 0248 02D5     		bpl	.L67
 1774              	.LVL116:
 1775              		.loc 4 239 9 is_stmt 1 view .LVU592
 1776 024a FFF7FEFF 		bl	usb_lld_stall_in
 1777              	.LVL117:
 1778              		.loc 4 239 9 is_stmt 0 view .LVU593
 1779 024e 9BE7     		b	.L57
 1780              	.LVL118:
 1781              	.L67:
 1782              		.loc 4 242 9 is_stmt 1 view .LVU594
 1783 0250 FFF7FEFF 		bl	usb_lld_stall_out
 1784              	.LVL119:
 1785              		.loc 4 242 9 is_stmt 0 view .LVU595
 1786 0254 98E7     		b	.L57
 1787              	.LVL120:
 1788              	.L72:
 1789              		.loc 4 242 9 view .LVU596
 1790              	.LBE230:
 1791              	.LBE231:
 1792              		.loc 4 836 7 is_stmt 1 view .LVU597
 1793              		.loc 4 836 22 is_stmt 0 view .LVU598
 1794 0256 1423     		movs	r3, #20
 1795 0258 84F84C30 		strb	r3, [r4, #76]
 1796              		.loc 4 838 7 is_stmt 1 view .LVU599
 1797              	.LBB232:
 1798              	.LBI232:
 1799              		.loc 5 531 20 view .LVU600
 1800              	.LBB233:
 1801              		.loc 5 533 3 view .LVU601
 1802 025c FFF7FEFF 		bl	chSysLockFromISR
 1803              	.LVL121:
 1804              		.loc 5 533 3 is_stmt 0 view .LVU602
 1805              	.LBE233:
 1806              	.LBE232:
 1807              		.loc 4 839 7 is_stmt 1 view .LVU603
 1808 0260 2B46     		mov	r3, r5
 1809 0262 2A46     		mov	r2, r5
 1810              	.L130:
 1811              		.loc 4 852 7 is_stmt 0 view .LVU604
 1812 0264 0021     		movs	r1, #0
 1813 0266 2046     		mov	r0, r4
 1814 0268 FFF7FEFF 		bl	usbStartReceiveI
 1815              	.LVL122:
 1816              		.loc 4 853 7 is_stmt 1 view .LVU605
 1817              	.LBB234:
 1818              	.LBI234:
 1819              		.loc 5 542 20 view .LVU606
 1820              	.LBB235:
 1821              		.loc 5 544 3 view .LVU607
 1822 026c 0DE7     		b	.L125
 1823              	.LVL123:
 1824              	.L71:
ARM GAS  /tmp/ccRTqG2G.s 			page 33


 1825              		.loc 5 544 3 is_stmt 0 view .LVU608
 1826              	.LBE235:
 1827              	.LBE234:
 1828              		.loc 4 848 5 is_stmt 1 view .LVU609
 1829              		.loc 4 848 8 is_stmt 0 view .LVU610
 1830 026e 3DB1     		cbz	r5, .L73
 1831              		.loc 4 850 7 is_stmt 1 view .LVU611
 1832              		.loc 4 850 22 is_stmt 0 view .LVU612
 1833 0270 1523     		movs	r3, #21
 1834 0272 84F84C30 		strb	r3, [r4, #76]
 1835              		.loc 4 851 7 is_stmt 1 view .LVU613
 1836              	.LBB236:
 1837              	.LBI236:
 1838              		.loc 5 531 20 view .LVU614
 1839              	.LBB237:
 1840              		.loc 5 533 3 view .LVU615
 1841 0276 FFF7FEFF 		bl	chSysLockFromISR
 1842              	.LVL124:
 1843              		.loc 5 533 3 is_stmt 0 view .LVU616
 1844              	.LBE237:
 1845              	.LBE236:
 1846              		.loc 4 852 7 is_stmt 1 view .LVU617
 1847 027a D4E91423 		ldrd	r2, r3, [r4, #80]
 1848 027e F1E7     		b	.L130
 1849              	.LVL125:
 1850              	.L73:
 1851              		.loc 4 858 7 view .LVU618
 1852              		.loc 4 858 22 is_stmt 0 view .LVU619
 1853 0280 0B23     		movs	r3, #11
 1854 0282 84F84C30 		strb	r3, [r4, #76]
 1855              		.loc 4 860 7 is_stmt 1 view .LVU620
 1856              	.LBB238:
 1857              	.LBI238:
 1858              		.loc 5 531 20 view .LVU621
 1859              	.LBB239:
 1860              		.loc 5 533 3 view .LVU622
 1861 0286 FFF7FEFF 		bl	chSysLockFromISR
 1862              	.LVL126:
 1863              		.loc 5 533 3 is_stmt 0 view .LVU623
 1864              	.LBE239:
 1865              	.LBE238:
 1866              		.loc 4 861 7 is_stmt 1 view .LVU624
 1867 028a 2B46     		mov	r3, r5
 1868 028c 2A46     		mov	r2, r5
 1869 028e F8E6     		b	.L124
 1870              	.L132:
 1871              		.align	2
 1872              	.L131:
 1873 0290 00000000 		.word	.LANCHOR0
 1874 0294 00000000 		.word	.LANCHOR2
 1875 0298 00000000 		.word	.LANCHOR1
 1876              		.cfi_endproc
 1877              	.LFE351:
 1878              		.size	_usb_ep0setup, .-_usb_ep0setup
 1879              		.section	.text._usb_ep0in,"ax",%progbits
 1880              		.align	1
 1881              		.global	_usb_ep0in
ARM GAS  /tmp/ccRTqG2G.s 			page 34


 1882              		.syntax unified
 1883              		.thumb
 1884              		.thumb_func
 1885              		.fpu fpv4-sp-d16
 1886              		.type	_usb_ep0in, %function
 1887              	_usb_ep0in:
 1888              	.LVL127:
 1889              	.LFB352:
 1890              		.loc 4 880 46 view -0
 1891              		.cfi_startproc
 1892              		@ args = 0, pretend = 0, frame = 0
 1893              		@ frame_needed = 0, uses_anonymous_args = 0
 1894              		.loc 4 881 3 view .LVU626
 1895              		.loc 4 883 3 view .LVU627
 1896              		.loc 4 884 3 view .LVU628
 1897              		.loc 4 880 46 is_stmt 0 view .LVU629
 1898 0000 38B5     		push	{r3, r4, r5, lr}
 1899              		.cfi_def_cfa_offset 16
 1900              		.cfi_offset 3, -16
 1901              		.cfi_offset 4, -12
 1902              		.cfi_offset 5, -8
 1903              		.cfi_offset 14, -4
 1904              		.loc 4 884 15 view .LVU630
 1905 0002 90F84C30 		ldrb	r3, [r0, #76]	@ zero_extendqisi2
 1906              		.loc 4 880 46 view .LVU631
 1907 0006 0446     		mov	r4, r0
 1908              		.loc 4 884 3 view .LVU632
 1909 0008 002B     		cmp	r3, #0
 1910 000a 3DD0     		beq	.L134
 1911 000c 063B     		subs	r3, r3, #6
 1912 000e DAB2     		uxtb	r2, r3
 1913 0010 0F2A     		cmp	r2, #15
 1914 0012 24D8     		bhi	.L133
 1915 0014 0F2B     		cmp	r3, #15
 1916 0016 22D8     		bhi	.L133
 1917 0018 DFE803F0 		tbb	[pc, r3]
 1918              	.L136:
 1919 001c 36       		.byte	(.L134-.L136)/2
 1920 001d 21       		.byte	(.L133-.L136)/2
 1921 001e 21       		.byte	(.L133-.L136)/2
 1922 001f 08       		.byte	(.L139-.L136)/2
 1923 0020 22       		.byte	(.L138-.L136)/2
 1924 0021 31       		.byte	(.L137-.L136)/2
 1925 0022 21       		.byte	(.L133-.L136)/2
 1926 0023 21       		.byte	(.L133-.L136)/2
 1927 0024 21       		.byte	(.L133-.L136)/2
 1928 0025 21       		.byte	(.L133-.L136)/2
 1929 0026 21       		.byte	(.L133-.L136)/2
 1930 0027 21       		.byte	(.L133-.L136)/2
 1931 0028 21       		.byte	(.L133-.L136)/2
 1932 0029 21       		.byte	(.L133-.L136)/2
 1933 002a 36       		.byte	(.L134-.L136)/2
 1934 002b 36       		.byte	(.L134-.L136)/2
 1935              		.p2align 1
 1936              	.L139:
 1937              		.loc 4 886 5 is_stmt 1 view .LVU633
 1938              	.LVL128:
ARM GAS  /tmp/ccRTqG2G.s 			page 35


 1939              		.loc 4 52 3 view .LVU634
 1940              		.loc 4 54 3 view .LVU635
 1941              		.loc 4 55 3 view .LVU636
 1942              		.loc 4 56 3 view .LVU637
 1943              		.loc 4 890 5 view .LVU638
 1944              		.loc 4 890 14 is_stmt 0 view .LVU639
 1945 002c 436D     		ldr	r3, [r0, #84]
 1946              		.loc 4 886 9 view .LVU640
 1947 002e B0F86220 		ldrh	r2, [r0, #98]	@ unaligned
 1948              		.loc 4 890 8 view .LVU641
 1949 0032 9342     		cmp	r3, r2
 1950 0034 14D2     		bcs	.L138
 1951              		.loc 4 891 36 discriminator 1 view .LVU642
 1952 0036 C268     		ldr	r2, [r0, #12]
 1953 0038 158A     		ldrh	r5, [r2, #16]
 1954              		.loc 4 891 22 discriminator 1 view .LVU643
 1955 003a B3FBF5F2 		udiv	r2, r3, r5
 1956 003e 05FB1235 		mls	r5, r5, r2, r3
 1957              		.loc 4 890 28 discriminator 1 view .LVU644
 1958 0042 6DB9     		cbnz	r5, .L138
 1959              		.loc 4 892 7 is_stmt 1 view .LVU645
 1960              	.LBB240:
 1961              	.LBI240:
 1962              		.loc 5 531 20 view .LVU646
 1963              	.LBB241:
 1964              		.loc 5 533 3 view .LVU647
 1965 0044 FFF7FEFF 		bl	chSysLockFromISR
 1966              	.LVL129:
 1967              		.loc 5 533 3 is_stmt 0 view .LVU648
 1968              	.LBE241:
 1969              	.LBE240:
 1970              		.loc 4 893 7 is_stmt 1 view .LVU649
 1971 0048 2B46     		mov	r3, r5
 1972 004a 2A46     		mov	r2, r5
 1973 004c 2946     		mov	r1, r5
 1974 004e 2046     		mov	r0, r4
 1975 0050 FFF7FEFF 		bl	usbStartTransmitI
 1976              	.LVL130:
 1977              		.loc 4 894 7 view .LVU650
 1978              	.LBB242:
 1979              	.LBI242:
 1980              		.loc 5 542 20 view .LVU651
 1981              	.LBB243:
 1982              		.loc 5 544 3 view .LVU652
 1983 0054 FFF7FEFF 		bl	chSysUnlockFromISR
 1984              	.LVL131:
 1985              	.LBE243:
 1986              	.LBE242:
 1987              		.loc 4 895 7 view .LVU653
 1988              		.loc 4 895 22 is_stmt 0 view .LVU654
 1989 0058 0A23     		movs	r3, #10
 1990              	.L151:
 1991              		.loc 4 930 20 discriminator 3 view .LVU655
 1992 005a 84F84C30 		strb	r3, [r4, #76]
 1993              		.loc 4 931 5 is_stmt 1 discriminator 3 view .LVU656
 1994              		.loc 4 933 5 discriminator 3 view .LVU657
 1995              	.L133:
ARM GAS  /tmp/ccRTqG2G.s 			page 36


 1996              		.loc 4 935 1 is_stmt 0 view .LVU658
 1997 005e 38BD     		pop	{r3, r4, r5, pc}
 1998              	.LVL132:
 1999              	.L138:
 2000              		.loc 4 901 5 is_stmt 1 view .LVU659
 2001              		.loc 4 901 20 is_stmt 0 view .LVU660
 2002 0060 1423     		movs	r3, #20
 2003 0062 84F84C30 		strb	r3, [r4, #76]
 2004              		.loc 4 903 5 is_stmt 1 view .LVU661
 2005              	.LBB244:
 2006              	.LBI244:
 2007              		.loc 5 531 20 view .LVU662
 2008              	.LBB245:
 2009              		.loc 5 533 3 view .LVU663
 2010 0066 FFF7FEFF 		bl	chSysLockFromISR
 2011              	.LVL133:
 2012              		.loc 5 533 3 is_stmt 0 view .LVU664
 2013              	.LBE245:
 2014              	.LBE244:
 2015              		.loc 4 904 5 is_stmt 1 view .LVU665
 2016 006a 0023     		movs	r3, #0
 2017 006c 2046     		mov	r0, r4
 2018 006e 1A46     		mov	r2, r3
 2019 0070 1946     		mov	r1, r3
 2020 0072 FFF7FEFF 		bl	usbStartReceiveI
 2021              	.LVL134:
 2022              		.loc 4 905 5 view .LVU666
 2023              	.LBB246:
 2024              	.LBI246:
 2025              		.loc 5 542 20 view .LVU667
 2026              	.LBB247:
 2027              		.loc 5 544 3 view .LVU668
 2028              	.LBE247:
 2029              	.LBE246:
 2030              		.loc 4 935 1 is_stmt 0 view .LVU669
 2031 0076 BDE83840 		pop	{r3, r4, r5, lr}
 2032              		.cfi_remember_state
 2033              		.cfi_restore 14
 2034              		.cfi_restore 5
 2035              		.cfi_restore 4
 2036              		.cfi_restore 3
 2037              		.cfi_def_cfa_offset 0
 2038              	.LVL135:
 2039              	.LBB249:
 2040              	.LBB248:
 2041              		.loc 5 544 3 view .LVU670
 2042 007a FFF7FEBF 		b	chSysUnlockFromISR
 2043              	.LVL136:
 2044              	.L137:
 2045              		.cfi_restore_state
 2046              		.loc 5 544 3 view .LVU671
 2047              	.LBE248:
 2048              	.LBE249:
 2049              		.loc 4 912 5 is_stmt 1 view .LVU672
 2050              		.loc 4 912 13 is_stmt 0 view .LVU673
 2051 007e 836D     		ldr	r3, [r0, #88]
 2052              		.loc 4 912 8 view .LVU674
ARM GAS  /tmp/ccRTqG2G.s 			page 37


 2053 0080 03B1     		cbz	r3, .L140
 2054              		.loc 4 913 7 is_stmt 1 view .LVU675
 2055 0082 9847     		blx	r3
 2056              	.LVL137:
 2057              	.L140:
 2058              		.loc 4 915 5 view .LVU676
 2059              		.loc 4 915 20 is_stmt 0 view .LVU677
 2060 0084 0023     		movs	r3, #0
 2061 0086 E8E7     		b	.L151
 2062              	.LVL138:
 2063              	.L134:
 2064              		.loc 4 921 5 is_stmt 1 discriminator 5 view .LVU678
 2065              		.loc 4 927 5 discriminator 5 view .LVU679
 2066 0088 0021     		movs	r1, #0
 2067              	.LVL139:
 2068              		.loc 4 927 5 is_stmt 0 discriminator 5 view .LVU680
 2069 008a 2046     		mov	r0, r4
 2070              	.LVL140:
 2071              		.loc 4 927 5 discriminator 5 view .LVU681
 2072 008c FFF7FEFF 		bl	usb_lld_stall_in
 2073              	.LVL141:
 2074              		.loc 4 928 5 is_stmt 1 discriminator 5 view .LVU682
 2075 0090 0021     		movs	r1, #0
 2076 0092 2046     		mov	r0, r4
 2077 0094 FFF7FEFF 		bl	usb_lld_stall_out
 2078              	.LVL142:
 2079              		.loc 4 929 5 discriminator 5 view .LVU683
 2080 0098 6368     		ldr	r3, [r4, #4]
 2081 009a 1B68     		ldr	r3, [r3]
 2082 009c 13B1     		cbz	r3, .L141
 2083              		.loc 4 929 5 discriminator 1 view .LVU684
 2084 009e 0621     		movs	r1, #6
 2085 00a0 2046     		mov	r0, r4
 2086 00a2 9847     		blx	r3
 2087              	.LVL143:
 2088              	.L141:
 2089              		.loc 4 929 54 discriminator 3 view .LVU685
 2090              		.loc 4 930 5 discriminator 3 view .LVU686
 2091              		.loc 4 930 20 is_stmt 0 discriminator 3 view .LVU687
 2092 00a4 0623     		movs	r3, #6
 2093 00a6 D8E7     		b	.L151
 2094              		.cfi_endproc
 2095              	.LFE352:
 2096              		.size	_usb_ep0in, .-_usb_ep0in
 2097              		.section	.text._usb_ep0out,"ax",%progbits
 2098              		.align	1
 2099              		.global	_usb_ep0out
 2100              		.syntax unified
 2101              		.thumb
 2102              		.thumb_func
 2103              		.fpu fpv4-sp-d16
 2104              		.type	_usb_ep0out, %function
 2105              	_usb_ep0out:
 2106              	.LVL144:
 2107              	.LFB353:
 2108              		.loc 4 947 47 is_stmt 1 view -0
 2109              		.cfi_startproc
ARM GAS  /tmp/ccRTqG2G.s 			page 38


 2110              		@ args = 0, pretend = 0, frame = 0
 2111              		@ frame_needed = 0, uses_anonymous_args = 0
 2112              		.loc 4 949 3 view .LVU689
 2113              		.loc 4 950 3 view .LVU690
 2114              		.loc 4 947 47 is_stmt 0 view .LVU691
 2115 0000 10B5     		push	{r4, lr}
 2116              		.cfi_def_cfa_offset 8
 2117              		.cfi_offset 4, -8
 2118              		.cfi_offset 14, -4
 2119              		.loc 4 950 15 view .LVU692
 2120 0002 90F84C30 		ldrb	r3, [r0, #76]	@ zero_extendqisi2
 2121              		.loc 4 947 47 view .LVU693
 2122 0006 0446     		mov	r4, r0
 2123              		.loc 4 950 3 view .LVU694
 2124 0008 142B     		cmp	r3, #20
 2125 000a 29D0     		beq	.L153
 2126 000c 17D8     		bhi	.L154
 2127 000e 062B     		cmp	r3, #6
 2128 0010 05D0     		beq	.L155
 2129 0012 01D8     		bhi	.L156
 2130 0014 1BB1     		cbz	r3, .L155
 2131              	.LVL145:
 2132              	.L152:
 2133              		.loc 4 994 1 view .LVU695
 2134 0016 10BD     		pop	{r4, pc}
 2135              	.LVL146:
 2136              	.L156:
 2137              		.loc 4 950 3 view .LVU696
 2138 0018 093B     		subs	r3, r3, #9
 2139 001a 022B     		cmp	r3, #2
 2140 001c FBD8     		bhi	.L152
 2141              	.L155:
 2142              		.loc 4 980 5 is_stmt 1 discriminator 5 view .LVU697
 2143              		.loc 4 986 5 discriminator 5 view .LVU698
 2144 001e 0021     		movs	r1, #0
 2145              	.LVL147:
 2146              		.loc 4 986 5 is_stmt 0 discriminator 5 view .LVU699
 2147 0020 2046     		mov	r0, r4
 2148              	.LVL148:
 2149              		.loc 4 986 5 discriminator 5 view .LVU700
 2150 0022 FFF7FEFF 		bl	usb_lld_stall_in
 2151              	.LVL149:
 2152              		.loc 4 987 5 is_stmt 1 discriminator 5 view .LVU701
 2153 0026 0021     		movs	r1, #0
 2154 0028 2046     		mov	r0, r4
 2155 002a FFF7FEFF 		bl	usb_lld_stall_out
 2156              	.LVL150:
 2157              		.loc 4 988 5 discriminator 5 view .LVU702
 2158 002e 6368     		ldr	r3, [r4, #4]
 2159 0030 1B68     		ldr	r3, [r3]
 2160 0032 13B1     		cbz	r3, .L159
 2161              		.loc 4 988 5 discriminator 1 view .LVU703
 2162 0034 0621     		movs	r1, #6
 2163 0036 2046     		mov	r0, r4
 2164 0038 9847     		blx	r3
 2165              	.LVL151:
 2166              	.L159:
ARM GAS  /tmp/ccRTqG2G.s 			page 39


 2167              		.loc 4 988 54 discriminator 3 view .LVU704
 2168              		.loc 4 989 5 discriminator 3 view .LVU705
 2169              		.loc 4 989 20 is_stmt 0 discriminator 3 view .LVU706
 2170 003a 0623     		movs	r3, #6
 2171 003c 19E0     		b	.L172
 2172              	.LVL152:
 2173              	.L154:
 2174              		.loc 4 950 3 view .LVU707
 2175 003e 152B     		cmp	r3, #21
 2176 0040 E9D1     		bne	.L152
 2177              		.loc 4 953 5 is_stmt 1 view .LVU708
 2178              		.loc 4 953 20 is_stmt 0 view .LVU709
 2179 0042 0B23     		movs	r3, #11
 2180 0044 80F84C30 		strb	r3, [r0, #76]
 2181              		.loc 4 955 5 is_stmt 1 view .LVU710
 2182              	.LBB250:
 2183              	.LBI250:
 2184              		.loc 5 531 20 view .LVU711
 2185              	.LBB251:
 2186              		.loc 5 533 3 view .LVU712
 2187 0048 FFF7FEFF 		bl	chSysLockFromISR
 2188              	.LVL153:
 2189              		.loc 5 533 3 is_stmt 0 view .LVU713
 2190              	.LBE251:
 2191              	.LBE250:
 2192              		.loc 4 956 5 is_stmt 1 view .LVU714
 2193 004c 0023     		movs	r3, #0
 2194 004e 2046     		mov	r0, r4
 2195 0050 1A46     		mov	r2, r3
 2196 0052 1946     		mov	r1, r3
 2197 0054 FFF7FEFF 		bl	usbStartTransmitI
 2198              	.LVL154:
 2199              		.loc 4 957 5 view .LVU715
 2200              	.LBB252:
 2201              	.LBI252:
 2202              		.loc 5 542 20 view .LVU716
 2203              	.LBB253:
 2204              		.loc 5 544 3 view .LVU717
 2205              	.LBE253:
 2206              	.LBE252:
 2207              		.loc 4 994 1 is_stmt 0 view .LVU718
 2208 0058 BDE81040 		pop	{r4, lr}
 2209              		.cfi_remember_state
 2210              		.cfi_restore 14
 2211              		.cfi_restore 4
 2212              		.cfi_def_cfa_offset 0
 2213              	.LVL155:
 2214              	.LBB255:
 2215              	.LBB254:
 2216              		.loc 5 544 3 view .LVU719
 2217 005c FFF7FEBF 		b	chSysUnlockFromISR
 2218              	.LVL156:
 2219              	.L153:
 2220              		.cfi_restore_state
 2221              		.loc 5 544 3 view .LVU720
 2222              	.LBE254:
 2223              	.LBE255:
ARM GAS  /tmp/ccRTqG2G.s 			page 40


 2224              		.loc 4 966 5 is_stmt 1 view .LVU721
 2225              		.loc 4 966 9 is_stmt 0 view .LVU722
 2226 0060 C368     		ldr	r3, [r0, #12]
 2227 0062 9B69     		ldr	r3, [r3, #24]
 2228              		.loc 4 966 8 view .LVU723
 2229 0064 5B68     		ldr	r3, [r3, #4]
 2230 0066 002B     		cmp	r3, #0
 2231 0068 D5D1     		bne	.L152
 2232              		.loc 4 970 5 is_stmt 1 view .LVU724
 2233              		.loc 4 970 13 is_stmt 0 view .LVU725
 2234 006a 836D     		ldr	r3, [r0, #88]
 2235              		.loc 4 970 8 view .LVU726
 2236 006c 03B1     		cbz	r3, .L158
 2237              		.loc 4 971 7 is_stmt 1 view .LVU727
 2238 006e 9847     		blx	r3
 2239              	.LVL157:
 2240              	.L158:
 2241              		.loc 4 973 5 view .LVU728
 2242              		.loc 4 973 20 is_stmt 0 view .LVU729
 2243 0070 0023     		movs	r3, #0
 2244              	.L172:
 2245              		.loc 4 989 20 discriminator 3 view .LVU730
 2246 0072 84F84C30 		strb	r3, [r4, #76]
 2247              		.loc 4 990 5 is_stmt 1 discriminator 3 view .LVU731
 2248              		.loc 4 992 5 discriminator 3 view .LVU732
 2249              		.loc 4 990 5 is_stmt 0 discriminator 3 view .LVU733
 2250 0076 CEE7     		b	.L152
 2251              		.cfi_endproc
 2252              	.LFE353:
 2253              		.size	_usb_ep0out, .-_usb_ep0out
 2254              		.section	.rodata.active_status,"a"
 2255              		.set	.LANCHOR2,. + 0
 2256              		.type	active_status, %object
 2257              		.size	active_status, 2
 2258              	active_status:
 2259 0000 0000     		.space	2
 2260              		.section	.rodata.halted_status,"a"
 2261              		.set	.LANCHOR1,. + 0
 2262              		.type	halted_status, %object
 2263              		.size	halted_status, 2
 2264              	halted_status:
 2265 0000 0100     		.ascii	"\001\000"
 2266              		.section	.rodata.zero_status,"a"
 2267              		.set	.LANCHOR0,. + 0
 2268              		.type	zero_status, %object
 2269              		.size	zero_status, 2
 2270              	zero_status:
 2271 0000 0000     		.space	2
 2272              		.text
 2273              	.Letext0:
 2274              		.file 6 "/opt/gcc-arm-none-eabi-10-2020-q4-major/lib/gcc/arm-none-eabi/10.2.1/include/stddef.h"
 2275              		.file 7 "/opt/gcc-arm-none-eabi-10-2020-q4-major/arm-none-eabi/include/machine/_default_types.h"
 2276              		.file 8 "/opt/gcc-arm-none-eabi-10-2020-q4-major/arm-none-eabi/include/sys/_stdint.h"
 2277              		.file 9 "../../modules/ChibiOS/os/common/ports/ARMCMx/compilers/GCC/chtypes.h"
 2278              		.file 10 "../../modules/ChibiOS/os/rt/include/chsystypes.h"
 2279              		.file 11 "../../modules/ChibiOS/os/rt/include/chschd.h"
 2280              		.file 12 "../../modules/ChibiOS/os/rt/include/chtime.h"
ARM GAS  /tmp/ccRTqG2G.s 			page 41


 2281              		.file 13 "../../modules/ChibiOS/os/common/ports/ARMCMx/chcore.h"
 2282              		.file 14 "../../modules/ChibiOS/os/rt/include/chtm.h"
 2283              		.file 15 "../../modules/ChibiOS/os/rt/include/chsem.h"
 2284              		.file 16 "../../modules/ChibiOS/os/rt/include/chmtx.h"
 2285              		.file 17 "../../modules/ChibiOS/os/hal/include/hal_usb.h"
 2286              		.file 18 "../../modules/ChibiOS/os/hal/ports/STM32/LLD/OTGv1/hal_usb_lld.h"
 2287              		.file 19 "../../modules/ChibiOS/os/hal/ports/STM32/LLD/OTGv1/stm32_otg.h"
 2288              		.file 20 "../../modules/ChibiOS/os/rt/include/chthreads.h"
 2289              		.file 21 "../../modules/ChibiOS/os/rt/include/chstats.h"
 2290              		.file 22 "<built-in>"