ARM GAS  /tmp/ccYyvzZD.s 			page 1


   1              		.cpu cortex-m7
   2              		.eabi_attribute 27, 1
   3              		.eabi_attribute 28, 1
   4              		.eabi_attribute 20, 1
   5              		.eabi_attribute 21, 1
   6              		.eabi_attribute 23, 3
   7              		.eabi_attribute 24, 1
   8              		.eabi_attribute 25, 1
   9              		.eabi_attribute 26, 1
  10              		.eabi_attribute 30, 4
  11              		.eabi_attribute 34, 1
  12              		.eabi_attribute 18, 4
  13              		.file	"hal_spi.c"
  14              		.text
  15              	.Ltext0:
  16              		.cfi_sections	.debug_frame
  17              		.section	.text.chSysLock,"ax",%progbits
  18              		.align	1
  19              		.arch armv7e-m
  20              		.syntax unified
  21              		.thumb
  22              		.thumb_func
  23              		.fpu fpv4-sp-d16
  24              		.type	chSysLock, %function
  25              	chSysLock:
  26              	.LFB195:
  27              		.file 1 "../../modules/ChibiOS/os/rt/include/chsys.h"
  28              		.loc 1 353 36 view -0
  29              		.cfi_startproc
  30              		@ args = 0, pretend = 0, frame = 0
  31              		@ frame_needed = 0, uses_anonymous_args = 0
  32              		@ link register save eliminated.
  33              		.loc 1 355 3 view .LVU1
  34              	.LBB76:
  35              	.LBI76:
  36              		.file 2 "../../modules/ChibiOS/os/common/ports/ARMCMx/chcore_v7m.h"
  37              		.loc 2 602 20 view .LVU2
  38              	.LBE76:
  39              		.loc 2 610 3 view .LVU3
  40              	.LVL0:
  41              	.LBB79:
  42              	.LBB77:
  43              	.LBI77:
  44              		.file 3 "../../modules/ChibiOS/os/common/ext/ARM/CMSIS/Core/Include/cmsis_gcc.h"
  45              		.loc 3 491 27 view .LVU4
  46              	.LBB78:
  47              		.loc 3 493 3 view .LVU5
  48 0000 2023     		movs	r3, #32
  49              		.syntax unified
  50              	@ 493 "../../modules/ChibiOS/os/common/ext/ARM/CMSIS/Core/Include/cmsis_gcc.h" 1
  51 0002 83F31188 		MSR basepri, r3
  52              	@ 0 "" 2
  53              	.LVL1:
  54              		.loc 3 493 3 is_stmt 0 view .LVU6
  55              		.thumb
  56              		.syntax unified
  57              	.LBE78:
ARM GAS  /tmp/ccYyvzZD.s 			page 2


  58              	.LBE77:
  59              	.LBE79:
  60              		.loc 1 356 3 is_stmt 1 view .LVU7
  61 0006 FFF7FEBF 		b	_stats_start_measure_crit_thd
  62              	.LVL2:
  63              		.cfi_endproc
  64              	.LFE195:
  65              		.size	chSysLock, .-chSysLock
  66              		.section	.text.chSysUnlock,"ax",%progbits
  67              		.align	1
  68              		.syntax unified
  69              		.thumb
  70              		.thumb_func
  71              		.fpu fpv4-sp-d16
  72              		.type	chSysUnlock, %function
  73              	chSysUnlock:
  74              	.LFB196:
  75              		.loc 1 365 38 view -0
  76              		.cfi_startproc
  77              		@ args = 0, pretend = 0, frame = 0
  78              		@ frame_needed = 0, uses_anonymous_args = 0
  79              		.loc 1 367 22 view .LVU9
  80              		.loc 1 368 3 view .LVU10
  81              		.loc 1 365 38 is_stmt 0 view .LVU11
  82 0000 08B5     		push	{r3, lr}
  83              		.cfi_def_cfa_offset 8
  84              		.cfi_offset 3, -8
  85              		.cfi_offset 14, -4
  86              		.loc 1 368 3 view .LVU12
  87 0002 FFF7FEFF 		bl	_stats_stop_measure_crit_thd
  88              	.LVL3:
  89              		.loc 1 374 3 is_stmt 1 view .LVU13
  90              		.loc 1 374 3 view .LVU14
  91              		.loc 1 374 3 view .LVU15
  92              		.loc 1 378 3 view .LVU16
  93              	.LBB80:
  94              	.LBI80:
  95              		.loc 2 626 20 view .LVU17
  96              	.LBE80:
  97              		.loc 2 629 3 view .LVU18
  98              	.LBB83:
  99              	.LBB81:
 100              	.LBI81:
 101              		.loc 3 491 27 view .LVU19
 102              	.LBB82:
 103              		.loc 3 493 3 view .LVU20
 104 0006 0023     		movs	r3, #0
 105              		.syntax unified
 106              	@ 493 "../../modules/ChibiOS/os/common/ext/ARM/CMSIS/Core/Include/cmsis_gcc.h" 1
 107 0008 83F31188 		MSR basepri, r3
 108              	@ 0 "" 2
 109              	.LVL4:
 110              		.loc 3 493 3 is_stmt 0 view .LVU21
 111              		.thumb
 112              		.syntax unified
 113              	.LBE82:
 114              	.LBE81:
ARM GAS  /tmp/ccYyvzZD.s 			page 3


 115              	.LBE83:
 116              		.loc 1 379 1 view .LVU22
 117 000c 08BD     		pop	{r3, pc}
 118              		.cfi_endproc
 119              	.LFE196:
 120              		.size	chSysUnlock, .-chSysUnlock
 121              		.section	.text.osalThreadSuspendS.isra.0,"ax",%progbits
 122              		.align	1
 123              		.syntax unified
 124              		.thumb
 125              		.thumb_func
 126              		.fpu fpv4-sp-d16
 127              		.type	osalThreadSuspendS.isra.0, %function
 128              	osalThreadSuspendS.isra.0:
 129              	.LVL5:
 130              	.LFB352:
 131              		.file 4 "../../modules/ChibiOS/os/hal/osal/rt/osal.h"
 132              		.loc 4 733 21 is_stmt 1 view -0
 133              		.cfi_startproc
 134              		@ args = 0, pretend = 0, frame = 0
 135              		@ frame_needed = 0, uses_anonymous_args = 0
 136              		@ link register save eliminated.
 137              		.loc 4 735 3 view .LVU24
 138              		.loc 4 735 10 is_stmt 0 view .LVU25
 139 0000 4FF0FF31 		mov	r1, #-1
 140 0004 FFF7FEBF 		b	chThdSuspendTimeoutS
 141              	.LVL6:
 142              		.loc 4 735 10 view .LVU26
 143              		.cfi_endproc
 144              	.LFE352:
 145              		.size	osalThreadSuspendS.isra.0, .-osalThreadSuspendS.isra.0
 146              		.section	.text.spiInit,"ax",%progbits
 147              		.align	1
 148              		.global	spiInit
 149              		.syntax unified
 150              		.thumb
 151              		.thumb_func
 152              		.fpu fpv4-sp-d16
 153              		.type	spiInit, %function
 154              	spiInit:
 155              	.LFB334:
 156              		.file 5 "../../modules/ChibiOS/os/hal/src/hal_spi.c"
 157              		.loc 5 56 20 is_stmt 1 view -0
 158              		.cfi_startproc
 159              		@ args = 0, pretend = 0, frame = 0
 160              		@ frame_needed = 0, uses_anonymous_args = 0
 161              		@ link register save eliminated.
 162              		.loc 5 58 3 view .LVU28
 163 0000 FFF7FEBF 		b	spi_lld_init
 164              	.LVL7:
 165              		.cfi_endproc
 166              	.LFE334:
 167              		.size	spiInit, .-spiInit
 168              		.section	.text.spiObjectInit,"ax",%progbits
 169              		.align	1
 170              		.global	spiObjectInit
 171              		.syntax unified
ARM GAS  /tmp/ccYyvzZD.s 			page 4


 172              		.thumb
 173              		.thumb_func
 174              		.fpu fpv4-sp-d16
 175              		.type	spiObjectInit, %function
 176              	spiObjectInit:
 177              	.LVL8:
 178              	.LFB335:
 179              		.loc 5 68 37 view -0
 180              		.cfi_startproc
 181              		@ args = 0, pretend = 0, frame = 0
 182              		@ frame_needed = 0, uses_anonymous_args = 0
 183              		@ link register save eliminated.
 184              		.loc 5 70 3 view .LVU30
 185              		.loc 5 70 15 is_stmt 0 view .LVU31
 186 0000 0123     		movs	r3, #1
 187 0002 0370     		strb	r3, [r0]
 188              		.loc 5 71 3 is_stmt 1 view .LVU32
 189              		.loc 5 71 16 is_stmt 0 view .LVU33
 190 0004 0023     		movs	r3, #0
 191              		.loc 5 73 16 view .LVU34
 192 0006 C0E90133 		strd	r3, r3, [r0, #4]
 193              		.loc 5 76 3 is_stmt 1 view .LVU35
 194              	.LVL9:
 195              	.LBB84:
 196              	.LBI84:
 197              		.loc 4 971 20 view .LVU36
 198              	.LBB85:
 199              		.loc 4 974 3 view .LVU37
 200 000a 0C30     		adds	r0, r0, #12
 201              	.LVL10:
 202              		.loc 4 974 3 is_stmt 0 view .LVU38
 203 000c FFF7FEBF 		b	chMtxObjectInit
 204              	.LVL11:
 205              		.loc 4 974 3 view .LVU39
 206              	.LBE85:
 207              	.LBE84:
 208              		.cfi_endproc
 209              	.LFE335:
 210              		.size	spiObjectInit, .-spiObjectInit
 211              		.section	.text.spiStart,"ax",%progbits
 212              		.align	1
 213              		.global	spiStart
 214              		.syntax unified
 215              		.thumb
 216              		.thumb_func
 217              		.fpu fpv4-sp-d16
 218              		.type	spiStart, %function
 219              	spiStart:
 220              	.LVL12:
 221              	.LFB336:
 222              		.loc 5 91 57 is_stmt 1 view -0
 223              		.cfi_startproc
 224              		@ args = 0, pretend = 0, frame = 0
 225              		@ frame_needed = 0, uses_anonymous_args = 0
 226              		.loc 5 93 3 view .LVU41
 227              		.loc 5 93 3 view .LVU42
 228              		.loc 5 93 3 view .LVU43
ARM GAS  /tmp/ccYyvzZD.s 			page 5


 229              		.loc 5 95 3 view .LVU44
 230              	.LBB86:
 231              	.LBI86:
 232              		.loc 4 509 20 view .LVU45
 233              	.LBB87:
 234              		.loc 4 511 3 view .LVU46
 235              	.LBE87:
 236              	.LBE86:
 237              		.loc 5 91 57 is_stmt 0 view .LVU47
 238 0000 38B5     		push	{r3, r4, r5, lr}
 239              		.cfi_def_cfa_offset 16
 240              		.cfi_offset 3, -16
 241              		.cfi_offset 4, -12
 242              		.cfi_offset 5, -8
 243              		.cfi_offset 14, -4
 244              		.loc 5 91 57 view .LVU48
 245 0002 0446     		mov	r4, r0
 246 0004 0D46     		mov	r5, r1
 247              	.LBB89:
 248              	.LBB88:
 249              		.loc 4 511 3 view .LVU49
 250 0006 FFF7FEFF 		bl	chSysLock
 251              	.LVL13:
 252              		.loc 4 511 3 view .LVU50
 253              	.LBE88:
 254              	.LBE89:
 255              		.loc 5 96 3 is_stmt 1 view .LVU51
 256              		.loc 5 96 3 view .LVU52
 257              		.loc 5 96 3 view .LVU53
 258              		.loc 5 98 3 view .LVU54
 259              		.loc 5 99 3 is_stmt 0 view .LVU55
 260 000a 2046     		mov	r0, r4
 261              		.loc 5 98 16 view .LVU56
 262 000c 6560     		str	r5, [r4, #4]
 263              		.loc 5 99 3 is_stmt 1 view .LVU57
 264 000e FFF7FEFF 		bl	spi_lld_start
 265              	.LVL14:
 266              		.loc 5 100 3 view .LVU58
 267              		.loc 5 100 15 is_stmt 0 view .LVU59
 268 0012 0223     		movs	r3, #2
 269 0014 2370     		strb	r3, [r4]
 270              		.loc 5 101 3 is_stmt 1 view .LVU60
 271              	.LBB90:
 272              	.LBI90:
 273              		.loc 4 520 20 view .LVU61
 274              	.LBB91:
 275              		.loc 4 522 3 view .LVU62
 276              	.LBE91:
 277              	.LBE90:
 278              		.loc 5 102 1 is_stmt 0 view .LVU63
 279 0016 BDE83840 		pop	{r3, r4, r5, lr}
 280              		.cfi_restore 14
 281              		.cfi_restore 5
 282              		.cfi_restore 4
 283              		.cfi_restore 3
 284              		.cfi_def_cfa_offset 0
 285              	.LVL15:
ARM GAS  /tmp/ccYyvzZD.s 			page 6


 286              	.LBB93:
 287              	.LBB92:
 288              		.loc 4 522 3 view .LVU64
 289 001a FFF7FEBF 		b	chSysUnlock
 290              	.LVL16:
 291              	.LBE92:
 292              	.LBE93:
 293              		.cfi_endproc
 294              	.LFE336:
 295              		.size	spiStart, .-spiStart
 296              		.section	.text.spiStop,"ax",%progbits
 297              		.align	1
 298              		.global	spiStop
 299              		.syntax unified
 300              		.thumb
 301              		.thumb_func
 302              		.fpu fpv4-sp-d16
 303              		.type	spiStop, %function
 304              	spiStop:
 305              	.LVL17:
 306              	.LFB337:
 307              		.loc 5 111 31 is_stmt 1 view -0
 308              		.cfi_startproc
 309              		@ args = 0, pretend = 0, frame = 0
 310              		@ frame_needed = 0, uses_anonymous_args = 0
 311              		.loc 5 113 3 view .LVU66
 312              		.loc 5 113 3 view .LVU67
 313              		.loc 5 113 3 view .LVU68
 314              		.loc 5 115 3 view .LVU69
 315              	.LBB94:
 316              	.LBI94:
 317              		.loc 4 509 20 view .LVU70
 318              	.LBB95:
 319              		.loc 4 511 3 view .LVU71
 320              	.LBE95:
 321              	.LBE94:
 322              		.loc 5 111 31 is_stmt 0 view .LVU72
 323 0000 10B5     		push	{r4, lr}
 324              		.cfi_def_cfa_offset 8
 325              		.cfi_offset 4, -8
 326              		.cfi_offset 14, -4
 327              		.loc 5 111 31 view .LVU73
 328 0002 0446     		mov	r4, r0
 329              	.LBB97:
 330              	.LBB96:
 331              		.loc 4 511 3 view .LVU74
 332 0004 FFF7FEFF 		bl	chSysLock
 333              	.LVL18:
 334              		.loc 4 511 3 view .LVU75
 335              	.LBE96:
 336              	.LBE97:
 337              		.loc 5 117 3 is_stmt 1 view .LVU76
 338              		.loc 5 117 3 view .LVU77
 339              		.loc 5 117 3 view .LVU78
 340              		.loc 5 120 3 view .LVU79
 341 0008 2046     		mov	r0, r4
 342 000a FFF7FEFF 		bl	spi_lld_stop
ARM GAS  /tmp/ccYyvzZD.s 			page 7


 343              	.LVL19:
 344              		.loc 5 121 3 view .LVU80
 345              		.loc 5 121 16 is_stmt 0 view .LVU81
 346 000e 0023     		movs	r3, #0
 347 0010 6360     		str	r3, [r4, #4]
 348              		.loc 5 122 3 is_stmt 1 view .LVU82
 349              		.loc 5 122 16 is_stmt 0 view .LVU83
 350 0012 0123     		movs	r3, #1
 351 0014 2370     		strb	r3, [r4]
 352              		.loc 5 124 3 is_stmt 1 view .LVU84
 353              	.LBB98:
 354              	.LBI98:
 355              		.loc 4 520 20 view .LVU85
 356              	.LBB99:
 357              		.loc 4 522 3 view .LVU86
 358              	.LBE99:
 359              	.LBE98:
 360              		.loc 5 125 1 is_stmt 0 view .LVU87
 361 0016 BDE81040 		pop	{r4, lr}
 362              		.cfi_restore 14
 363              		.cfi_restore 4
 364              		.cfi_def_cfa_offset 0
 365              	.LVL20:
 366              	.LBB101:
 367              	.LBB100:
 368              		.loc 4 522 3 view .LVU88
 369 001a FFF7FEBF 		b	chSysUnlock
 370              	.LVL21:
 371              	.LBE100:
 372              	.LBE101:
 373              		.cfi_endproc
 374              	.LFE337:
 375              		.size	spiStop, .-spiStop
 376              		.section	.text.spiSelect,"ax",%progbits
 377              		.align	1
 378              		.global	spiSelect
 379              		.syntax unified
 380              		.thumb
 381              		.thumb_func
 382              		.fpu fpv4-sp-d16
 383              		.type	spiSelect, %function
 384              	spiSelect:
 385              	.LVL22:
 386              	.LFB338:
 387              		.loc 5 134 33 is_stmt 1 view -0
 388              		.cfi_startproc
 389              		@ args = 0, pretend = 0, frame = 0
 390              		@ frame_needed = 0, uses_anonymous_args = 0
 391              		.loc 5 136 3 view .LVU90
 392              		.loc 5 136 3 view .LVU91
 393              		.loc 5 136 3 view .LVU92
 394              		.loc 5 138 3 view .LVU93
 395              	.LBB102:
 396              	.LBI102:
 397              		.loc 4 509 20 view .LVU94
 398              	.LBB103:
 399              		.loc 4 511 3 view .LVU95
ARM GAS  /tmp/ccYyvzZD.s 			page 8


 400              	.LBE103:
 401              	.LBE102:
 402              		.loc 5 134 33 is_stmt 0 view .LVU96
 403 0000 10B5     		push	{r4, lr}
 404              		.cfi_def_cfa_offset 8
 405              		.cfi_offset 4, -8
 406              		.cfi_offset 14, -4
 407              		.loc 5 134 33 view .LVU97
 408 0002 0446     		mov	r4, r0
 409              	.LBB105:
 410              	.LBB104:
 411              		.loc 4 511 3 view .LVU98
 412 0004 FFF7FEFF 		bl	chSysLock
 413              	.LVL23:
 414              		.loc 4 511 3 view .LVU99
 415              	.LBE104:
 416              	.LBE105:
 417              		.loc 5 139 3 is_stmt 1 view .LVU100
 418              		.loc 5 139 3 view .LVU101
 419              		.loc 5 139 3 view .LVU102
 420              		.loc 5 140 3 view .LVU103
 421              		.loc 5 140 3 view .LVU104
 422 0008 6368     		ldr	r3, [r4, #4]
 423 000a D3E90221 		ldrd	r2, r1, [r3, #8]
 424 000e 0123     		movs	r3, #1
 425 0010 8B40     		lsls	r3, r3, r1
 426 0012 9BB2     		uxth	r3, r3
 427              		.loc 5 142 1 is_stmt 0 view .LVU105
 428 0014 BDE81040 		pop	{r4, lr}
 429              		.cfi_restore 14
 430              		.cfi_restore 4
 431              		.cfi_def_cfa_offset 0
 432              	.LVL24:
 433              		.loc 5 140 3 view .LVU106
 434 0018 5383     		strh	r3, [r2, #26]	@ movhi
 435              		.loc 5 140 3 is_stmt 1 view .LVU107
 436              		.loc 5 141 3 view .LVU108
 437              	.LBB106:
 438              	.LBI106:
 439              		.loc 4 520 20 view .LVU109
 440              	.LBB107:
 441              		.loc 4 522 3 view .LVU110
 442 001a FFF7FEBF 		b	chSysUnlock
 443              	.LVL25:
 444              	.LBE107:
 445              	.LBE106:
 446              		.cfi_endproc
 447              	.LFE338:
 448              		.size	spiSelect, .-spiSelect
 449              		.section	.text.spiUnselect,"ax",%progbits
 450              		.align	1
 451              		.global	spiUnselect
 452              		.syntax unified
 453              		.thumb
 454              		.thumb_func
 455              		.fpu fpv4-sp-d16
 456              		.type	spiUnselect, %function
ARM GAS  /tmp/ccYyvzZD.s 			page 9


 457              	spiUnselect:
 458              	.LVL26:
 459              	.LFB339:
 460              		.loc 5 152 35 view -0
 461              		.cfi_startproc
 462              		@ args = 0, pretend = 0, frame = 0
 463              		@ frame_needed = 0, uses_anonymous_args = 0
 464              		.loc 5 154 3 view .LVU112
 465              		.loc 5 154 3 view .LVU113
 466              		.loc 5 154 3 view .LVU114
 467              		.loc 5 156 3 view .LVU115
 468              	.LBB108:
 469              	.LBI108:
 470              		.loc 4 509 20 view .LVU116
 471              	.LBB109:
 472              		.loc 4 511 3 view .LVU117
 473              	.LBE109:
 474              	.LBE108:
 475              		.loc 5 152 35 is_stmt 0 view .LVU118
 476 0000 10B5     		push	{r4, lr}
 477              		.cfi_def_cfa_offset 8
 478              		.cfi_offset 4, -8
 479              		.cfi_offset 14, -4
 480              		.loc 5 152 35 view .LVU119
 481 0002 0446     		mov	r4, r0
 482              	.LBB111:
 483              	.LBB110:
 484              		.loc 4 511 3 view .LVU120
 485 0004 FFF7FEFF 		bl	chSysLock
 486              	.LVL27:
 487              		.loc 4 511 3 view .LVU121
 488              	.LBE110:
 489              	.LBE111:
 490              		.loc 5 157 3 is_stmt 1 view .LVU122
 491              		.loc 5 157 3 view .LVU123
 492              		.loc 5 157 3 view .LVU124
 493              		.loc 5 158 3 view .LVU125
 494              		.loc 5 158 3 view .LVU126
 495 0008 6368     		ldr	r3, [r4, #4]
 496 000a D3E90221 		ldrd	r2, r1, [r3, #8]
 497 000e 0123     		movs	r3, #1
 498 0010 8B40     		lsls	r3, r3, r1
 499 0012 9BB2     		uxth	r3, r3
 500              		.loc 5 160 1 is_stmt 0 view .LVU127
 501 0014 BDE81040 		pop	{r4, lr}
 502              		.cfi_restore 14
 503              		.cfi_restore 4
 504              		.cfi_def_cfa_offset 0
 505              	.LVL28:
 506              		.loc 5 158 3 view .LVU128
 507 0018 1383     		strh	r3, [r2, #24]	@ movhi
 508              		.loc 5 158 3 is_stmt 1 view .LVU129
 509              		.loc 5 159 3 view .LVU130
 510              	.LBB112:
 511              	.LBI112:
 512              		.loc 4 520 20 view .LVU131
 513              	.LBB113:
ARM GAS  /tmp/ccYyvzZD.s 			page 10


 514              		.loc 4 522 3 view .LVU132
 515 001a FFF7FEBF 		b	chSysUnlock
 516              	.LVL29:
 517              	.LBE113:
 518              	.LBE112:
 519              		.cfi_endproc
 520              	.LFE339:
 521              		.size	spiUnselect, .-spiUnselect
 522              		.section	.text.spiStartIgnore,"ax",%progbits
 523              		.align	1
 524              		.global	spiStartIgnore
 525              		.syntax unified
 526              		.thumb
 527              		.thumb_func
 528              		.fpu fpv4-sp-d16
 529              		.type	spiStartIgnore, %function
 530              	spiStartIgnore:
 531              	.LVL30:
 532              	.LFB340:
 533              		.loc 5 175 48 view -0
 534              		.cfi_startproc
 535              		@ args = 0, pretend = 0, frame = 8
 536              		@ frame_needed = 0, uses_anonymous_args = 0
 537              		.loc 5 177 3 view .LVU134
 538              		.loc 5 177 3 view .LVU135
 539              		.loc 5 177 3 view .LVU136
 540              		.loc 5 179 3 view .LVU137
 541              	.LBB114:
 542              	.LBI114:
 543              		.loc 4 509 20 view .LVU138
 544              	.LBB115:
 545              		.loc 4 511 3 view .LVU139
 546              	.LBE115:
 547              	.LBE114:
 548              		.loc 5 175 48 is_stmt 0 view .LVU140
 549 0000 13B5     		push	{r0, r1, r4, lr}
 550              		.cfi_def_cfa_offset 16
 551              		.cfi_offset 4, -8
 552              		.cfi_offset 14, -4
 553              		.loc 5 175 48 view .LVU141
 554 0002 0446     		mov	r4, r0
 555 0004 0191     		str	r1, [sp, #4]
 556              	.LBB117:
 557              	.LBB116:
 558              		.loc 4 511 3 view .LVU142
 559 0006 FFF7FEFF 		bl	chSysLock
 560              	.LVL31:
 561              		.loc 4 511 3 view .LVU143
 562              	.LBE116:
 563              	.LBE117:
 564              		.loc 5 180 3 is_stmt 1 view .LVU144
 565              		.loc 5 180 3 view .LVU145
 566              		.loc 5 180 3 view .LVU146
 567              		.loc 5 181 3 view .LVU147
 568 000a 0323     		movs	r3, #3
 569 000c 0199     		ldr	r1, [sp, #4]
 570 000e 2046     		mov	r0, r4
ARM GAS  /tmp/ccYyvzZD.s 			page 11


 571 0010 2370     		strb	r3, [r4]
 572              		.loc 5 181 3 view .LVU148
 573 0012 FFF7FEFF 		bl	spi_lld_ignore
 574              	.LVL32:
 575              		.loc 5 181 27 view .LVU149
 576              		.loc 5 182 3 view .LVU150
 577              	.LBB118:
 578              	.LBI118:
 579              		.loc 4 520 20 view .LVU151
 580              	.LBB119:
 581              		.loc 4 522 3 view .LVU152
 582              	.LBE119:
 583              	.LBE118:
 584              		.loc 5 183 1 is_stmt 0 view .LVU153
 585 0016 02B0     		add	sp, sp, #8
 586              		.cfi_def_cfa_offset 8
 587              		@ sp needed
 588 0018 BDE81040 		pop	{r4, lr}
 589              		.cfi_restore 14
 590              		.cfi_restore 4
 591              		.cfi_def_cfa_offset 0
 592              	.LVL33:
 593              	.LBB121:
 594              	.LBB120:
 595              		.loc 4 522 3 view .LVU154
 596 001c FFF7FEBF 		b	chSysUnlock
 597              	.LVL34:
 598              	.LBE120:
 599              	.LBE121:
 600              		.cfi_endproc
 601              	.LFE340:
 602              		.size	spiStartIgnore, .-spiStartIgnore
 603              		.section	.text.spiStartExchange,"ax",%progbits
 604              		.align	1
 605              		.global	spiStartExchange
 606              		.syntax unified
 607              		.thumb
 608              		.thumb_func
 609              		.fpu fpv4-sp-d16
 610              		.type	spiStartExchange, %function
 611              	spiStartExchange:
 612              	.LVL35:
 613              	.LFB341:
 614              		.loc 5 203 55 is_stmt 1 view -0
 615              		.cfi_startproc
 616              		@ args = 0, pretend = 0, frame = 16
 617              		@ frame_needed = 0, uses_anonymous_args = 0
 618              		.loc 5 205 3 view .LVU156
 619              		.loc 5 205 3 view .LVU157
 620              		.loc 5 205 3 view .LVU158
 621              		.loc 5 208 3 view .LVU159
 622              	.LBB122:
 623              	.LBI122:
 624              		.loc 4 509 20 view .LVU160
 625              	.LBB123:
 626              		.loc 4 511 3 view .LVU161
 627              	.LBE123:
ARM GAS  /tmp/ccYyvzZD.s 			page 12


 628              	.LBE122:
 629              		.loc 5 203 55 is_stmt 0 view .LVU162
 630 0000 1FB5     		push	{r0, r1, r2, r3, r4, lr}
 631              		.cfi_def_cfa_offset 24
 632              		.cfi_offset 4, -8
 633              		.cfi_offset 14, -4
 634              		.loc 5 203 55 view .LVU163
 635 0002 0446     		mov	r4, r0
 636 0004 0193     		str	r3, [sp, #4]
 637 0006 CDE90221 		strd	r2, r1, [sp, #8]
 638              	.LBB125:
 639              	.LBB124:
 640              		.loc 4 511 3 view .LVU164
 641 000a FFF7FEFF 		bl	chSysLock
 642              	.LVL36:
 643              		.loc 4 511 3 view .LVU165
 644              	.LBE124:
 645              	.LBE125:
 646              		.loc 5 209 3 is_stmt 1 view .LVU166
 647              		.loc 5 209 3 view .LVU167
 648              		.loc 5 209 3 view .LVU168
 649              		.loc 5 210 3 view .LVU169
 650 000e 0320     		movs	r0, #3
 651 0010 0399     		ldr	r1, [sp, #12]
 652 0012 2070     		strb	r0, [r4]
 653              		.loc 5 210 3 view .LVU170
 654 0014 2046     		mov	r0, r4
 655 0016 DDE90132 		ldrd	r3, r2, [sp, #4]
 656 001a FFF7FEFF 		bl	spi_lld_exchange
 657              	.LVL37:
 658              		.loc 5 210 43 view .LVU171
 659              		.loc 5 211 3 view .LVU172
 660              	.LBB126:
 661              	.LBI126:
 662              		.loc 4 520 20 view .LVU173
 663              	.LBB127:
 664              		.loc 4 522 3 view .LVU174
 665              	.LBE127:
 666              	.LBE126:
 667              		.loc 5 212 1 is_stmt 0 view .LVU175
 668 001e 04B0     		add	sp, sp, #16
 669              		.cfi_def_cfa_offset 8
 670              		@ sp needed
 671 0020 BDE81040 		pop	{r4, lr}
 672              		.cfi_restore 14
 673              		.cfi_restore 4
 674              		.cfi_def_cfa_offset 0
 675              	.LVL38:
 676              	.LBB129:
 677              	.LBB128:
 678              		.loc 4 522 3 view .LVU176
 679 0024 FFF7FEBF 		b	chSysUnlock
 680              	.LVL39:
 681              	.LBE128:
 682              	.LBE129:
 683              		.cfi_endproc
 684              	.LFE341:
ARM GAS  /tmp/ccYyvzZD.s 			page 13


 685              		.size	spiStartExchange, .-spiStartExchange
 686              		.section	.text.spiStartSend,"ax",%progbits
 687              		.align	1
 688              		.global	spiStartSend
 689              		.syntax unified
 690              		.thumb
 691              		.thumb_func
 692              		.fpu fpv4-sp-d16
 693              		.type	spiStartSend, %function
 694              	spiStartSend:
 695              	.LVL40:
 696              	.LFB342:
 697              		.loc 5 229 65 is_stmt 1 view -0
 698              		.cfi_startproc
 699              		@ args = 0, pretend = 0, frame = 8
 700              		@ frame_needed = 0, uses_anonymous_args = 0
 701              		.loc 5 231 3 view .LVU178
 702              		.loc 5 231 3 view .LVU179
 703              		.loc 5 231 3 view .LVU180
 704              		.loc 5 233 3 view .LVU181
 705              	.LBB130:
 706              	.LBI130:
 707              		.loc 4 509 20 view .LVU182
 708              	.LBB131:
 709              		.loc 4 511 3 view .LVU183
 710              	.LBE131:
 711              	.LBE130:
 712              		.loc 5 229 65 is_stmt 0 view .LVU184
 713 0000 13B5     		push	{r0, r1, r4, lr}
 714              		.cfi_def_cfa_offset 16
 715              		.cfi_offset 4, -8
 716              		.cfi_offset 14, -4
 717              		.loc 5 229 65 view .LVU185
 718 0002 0446     		mov	r4, r0
 719 0004 CDE90021 		strd	r2, r1, [sp]
 720              	.LBB133:
 721              	.LBB132:
 722              		.loc 4 511 3 view .LVU186
 723 0008 FFF7FEFF 		bl	chSysLock
 724              	.LVL41:
 725              		.loc 4 511 3 view .LVU187
 726              	.LBE132:
 727              	.LBE133:
 728              		.loc 5 234 3 is_stmt 1 view .LVU188
 729              		.loc 5 234 3 view .LVU189
 730              		.loc 5 234 3 view .LVU190
 731              		.loc 5 235 3 view .LVU191
 732 000c 0323     		movs	r3, #3
 733 000e 2046     		mov	r0, r4
 734 0010 2370     		strb	r3, [r4]
 735              		.loc 5 235 3 view .LVU192
 736 0012 DDE90021 		ldrd	r2, r1, [sp]
 737 0016 FFF7FEFF 		bl	spi_lld_send
 738              	.LVL42:
 739              		.loc 5 235 32 view .LVU193
 740              		.loc 5 236 3 view .LVU194
 741              	.LBB134:
ARM GAS  /tmp/ccYyvzZD.s 			page 14


 742              	.LBI134:
 743              		.loc 4 520 20 view .LVU195
 744              	.LBB135:
 745              		.loc 4 522 3 view .LVU196
 746              	.LBE135:
 747              	.LBE134:
 748              		.loc 5 237 1 is_stmt 0 view .LVU197
 749 001a 02B0     		add	sp, sp, #8
 750              		.cfi_def_cfa_offset 8
 751              	.LVL43:
 752              		.loc 5 237 1 view .LVU198
 753              		@ sp needed
 754 001c BDE81040 		pop	{r4, lr}
 755              		.cfi_restore 14
 756              		.cfi_restore 4
 757              		.cfi_def_cfa_offset 0
 758              	.LVL44:
 759              	.LBB137:
 760              	.LBB136:
 761              		.loc 4 522 3 view .LVU199
 762 0020 FFF7FEBF 		b	chSysUnlock
 763              	.LVL45:
 764              	.LBE136:
 765              	.LBE137:
 766              		.cfi_endproc
 767              	.LFE342:
 768              		.size	spiStartSend, .-spiStartSend
 769              		.section	.text.spiStartReceive,"ax",%progbits
 770              		.align	1
 771              		.global	spiStartReceive
 772              		.syntax unified
 773              		.thumb
 774              		.thumb_func
 775              		.fpu fpv4-sp-d16
 776              		.type	spiStartReceive, %function
 777              	spiStartReceive:
 778              	.LVL46:
 779              	.LFB343:
 780              		.loc 5 254 62 is_stmt 1 view -0
 781              		.cfi_startproc
 782              		@ args = 0, pretend = 0, frame = 8
 783              		@ frame_needed = 0, uses_anonymous_args = 0
 784              		.loc 5 256 3 view .LVU201
 785              		.loc 5 256 3 view .LVU202
 786              		.loc 5 256 3 view .LVU203
 787              		.loc 5 258 3 view .LVU204
 788              	.LBB138:
 789              	.LBI138:
 790              		.loc 4 509 20 view .LVU205
 791              	.LBB139:
 792              		.loc 4 511 3 view .LVU206
 793              	.LBE139:
 794              	.LBE138:
 795              		.loc 5 254 62 is_stmt 0 view .LVU207
 796 0000 13B5     		push	{r0, r1, r4, lr}
 797              		.cfi_def_cfa_offset 16
 798              		.cfi_offset 4, -8
ARM GAS  /tmp/ccYyvzZD.s 			page 15


 799              		.cfi_offset 14, -4
 800              		.loc 5 254 62 view .LVU208
 801 0002 0446     		mov	r4, r0
 802 0004 CDE90021 		strd	r2, r1, [sp]
 803              	.LBB141:
 804              	.LBB140:
 805              		.loc 4 511 3 view .LVU209
 806 0008 FFF7FEFF 		bl	chSysLock
 807              	.LVL47:
 808              		.loc 4 511 3 view .LVU210
 809              	.LBE140:
 810              	.LBE141:
 811              		.loc 5 259 3 is_stmt 1 view .LVU211
 812              		.loc 5 259 3 view .LVU212
 813              		.loc 5 259 3 view .LVU213
 814              		.loc 5 260 3 view .LVU214
 815 000c 0323     		movs	r3, #3
 816 000e 2046     		mov	r0, r4
 817 0010 2370     		strb	r3, [r4]
 818              		.loc 5 260 3 view .LVU215
 819 0012 DDE90021 		ldrd	r2, r1, [sp]
 820 0016 FFF7FEFF 		bl	spi_lld_receive
 821              	.LVL48:
 822              		.loc 5 260 35 view .LVU216
 823              		.loc 5 261 3 view .LVU217
 824              	.LBB142:
 825              	.LBI142:
 826              		.loc 4 520 20 view .LVU218
 827              	.LBB143:
 828              		.loc 4 522 3 view .LVU219
 829              	.LBE143:
 830              	.LBE142:
 831              		.loc 5 262 1 is_stmt 0 view .LVU220
 832 001a 02B0     		add	sp, sp, #8
 833              		.cfi_def_cfa_offset 8
 834              	.LVL49:
 835              		.loc 5 262 1 view .LVU221
 836              		@ sp needed
 837 001c BDE81040 		pop	{r4, lr}
 838              		.cfi_restore 14
 839              		.cfi_restore 4
 840              		.cfi_def_cfa_offset 0
 841              	.LVL50:
 842              	.LBB145:
 843              	.LBB144:
 844              		.loc 4 522 3 view .LVU222
 845 0020 FFF7FEBF 		b	chSysUnlock
 846              	.LVL51:
 847              	.LBE144:
 848              	.LBE145:
 849              		.cfi_endproc
 850              	.LFE343:
 851              		.size	spiStartReceive, .-spiStartReceive
 852              		.section	.text.spiAbortI,"ax",%progbits
 853              		.align	1
 854              		.global	spiAbortI
 855              		.syntax unified
ARM GAS  /tmp/ccYyvzZD.s 			page 16


 856              		.thumb
 857              		.thumb_func
 858              		.fpu fpv4-sp-d16
 859              		.type	spiAbortI, %function
 860              	spiAbortI:
 861              	.LVL52:
 862              	.LFB344:
 863              		.loc 5 272 33 is_stmt 1 view -0
 864              		.cfi_startproc
 865              		@ args = 0, pretend = 0, frame = 0
 866              		@ frame_needed = 0, uses_anonymous_args = 0
 867              		.loc 5 274 23 view .LVU224
 868              		.loc 5 276 3 view .LVU225
 869              		.loc 5 276 3 view .LVU226
 870              		.loc 5 276 3 view .LVU227
 871              		.loc 5 277 3 view .LVU228
 872              		.loc 5 277 3 view .LVU229
 873              		.loc 5 277 3 view .LVU230
 874              		.loc 5 280 3 view .LVU231
 875              		.loc 5 272 33 is_stmt 0 view .LVU232
 876 0000 10B5     		push	{r4, lr}
 877              		.cfi_def_cfa_offset 8
 878              		.cfi_offset 4, -8
 879              		.cfi_offset 14, -4
 880              		.loc 5 272 33 view .LVU233
 881 0002 0446     		mov	r4, r0
 882              		.loc 5 280 3 view .LVU234
 883 0004 FFF7FEFF 		bl	spi_lld_abort
 884              	.LVL53:
 885              		.loc 5 281 3 is_stmt 1 view .LVU235
 886              		.loc 5 281 15 is_stmt 0 view .LVU236
 887 0008 0223     		movs	r3, #2
 888              	.LBB146:
 889              	.LBB147:
 890              		.loc 4 775 3 view .LVU237
 891 000a 0021     		movs	r1, #0
 892              	.LBE147:
 893              	.LBE146:
 894              		.loc 5 281 15 view .LVU238
 895 000c 2046     		mov	r0, r4
 896 000e 00F8083B 		strb	r3, [r0], #8
 897              		.loc 5 283 3 is_stmt 1 view .LVU239
 898              	.LVL54:
 899              	.LBB150:
 900              	.LBI146:
 901              		.loc 4 773 20 view .LVU240
 902              	.LBB148:
 903              		.loc 4 775 3 view .LVU241
 904              	.LBE148:
 905              	.LBE150:
 906              		.loc 5 285 1 is_stmt 0 view .LVU242
 907 0012 BDE81040 		pop	{r4, lr}
 908              		.cfi_restore 14
 909              		.cfi_restore 4
 910              		.cfi_def_cfa_offset 0
 911              	.LVL55:
 912              	.LBB151:
ARM GAS  /tmp/ccYyvzZD.s 			page 17


 913              	.LBB149:
 914              		.loc 4 775 3 view .LVU243
 915 0016 FFF7FEBF 		b	chThdResumeI
 916              	.LVL56:
 917              		.loc 4 775 3 view .LVU244
 918              	.LBE149:
 919              	.LBE151:
 920              		.cfi_endproc
 921              	.LFE344:
 922              		.size	spiAbortI, .-spiAbortI
 923              		.section	.text.spiAbort,"ax",%progbits
 924              		.align	1
 925              		.global	spiAbort
 926              		.syntax unified
 927              		.thumb
 928              		.thumb_func
 929              		.fpu fpv4-sp-d16
 930              		.type	spiAbort, %function
 931              	spiAbort:
 932              	.LVL57:
 933              	.LFB345:
 934              		.loc 5 294 32 is_stmt 1 view -0
 935              		.cfi_startproc
 936              		@ args = 0, pretend = 0, frame = 0
 937              		@ frame_needed = 0, uses_anonymous_args = 0
 938              		.loc 5 296 3 view .LVU246
 939              	.LBB152:
 940              	.LBI152:
 941              		.loc 4 509 20 view .LVU247
 942              	.LBB153:
 943              		.loc 4 511 3 view .LVU248
 944              	.LBE153:
 945              	.LBE152:
 946              		.loc 5 294 32 is_stmt 0 view .LVU249
 947 0000 10B5     		push	{r4, lr}
 948              		.cfi_def_cfa_offset 8
 949              		.cfi_offset 4, -8
 950              		.cfi_offset 14, -4
 951              		.loc 5 294 32 view .LVU250
 952 0002 0446     		mov	r4, r0
 953              	.LBB155:
 954              	.LBB154:
 955              		.loc 4 511 3 view .LVU251
 956 0004 FFF7FEFF 		bl	chSysLock
 957              	.LVL58:
 958              		.loc 4 511 3 view .LVU252
 959              	.LBE154:
 960              	.LBE155:
 961              		.loc 5 297 3 is_stmt 1 view .LVU253
 962              		.loc 5 297 3 view .LVU254
 963              		.loc 5 297 3 view .LVU255
 964              		.loc 5 299 3 view .LVU256
 965              		.loc 5 299 6 is_stmt 0 view .LVU257
 966 0008 2378     		ldrb	r3, [r4]	@ zero_extendqisi2
 967 000a 032B     		cmp	r3, #3
 968 000c 04D1     		bne	.L16
 969              		.loc 5 300 5 is_stmt 1 view .LVU258
ARM GAS  /tmp/ccYyvzZD.s 			page 18


 970 000e 2046     		mov	r0, r4
 971 0010 FFF7FEFF 		bl	spiAbortI
 972              	.LVL59:
 973              		.loc 5 301 5 view .LVU259
 974              	.LBB156:
 975              	.LBI156:
 976              		.loc 4 616 20 view .LVU260
 977              	.LBB157:
 978              		.loc 4 618 3 view .LVU261
 979 0014 FFF7FEFF 		bl	chSchRescheduleS
 980              	.LVL60:
 981              	.L16:
 982              	.LBE157:
 983              	.LBE156:
 984              		.loc 5 303 3 view .LVU262
 985              	.LBB158:
 986              	.LBI158:
 987              		.loc 4 520 20 view .LVU263
 988              	.LBB159:
 989              		.loc 4 522 3 view .LVU264
 990              	.LBE159:
 991              	.LBE158:
 992              		.loc 5 304 1 is_stmt 0 view .LVU265
 993 0018 BDE81040 		pop	{r4, lr}
 994              		.cfi_restore 14
 995              		.cfi_restore 4
 996              		.cfi_def_cfa_offset 0
 997              	.LVL61:
 998              	.LBB161:
 999              	.LBB160:
 1000              		.loc 4 522 3 view .LVU266
 1001 001c FFF7FEBF 		b	chSysUnlock
 1002              	.LVL62:
 1003              	.LBE160:
 1004              	.LBE161:
 1005              		.cfi_endproc
 1006              	.LFE345:
 1007              		.size	spiAbort, .-spiAbort
 1008              		.section	.text.spiIgnore,"ax",%progbits
 1009              		.align	1
 1010              		.global	spiIgnore
 1011              		.syntax unified
 1012              		.thumb
 1013              		.thumb_func
 1014              		.fpu fpv4-sp-d16
 1015              		.type	spiIgnore, %function
 1016              	spiIgnore:
 1017              	.LVL63:
 1018              	.LFB346:
 1019              		.loc 5 322 43 is_stmt 1 view -0
 1020              		.cfi_startproc
 1021              		@ args = 0, pretend = 0, frame = 8
 1022              		@ frame_needed = 0, uses_anonymous_args = 0
 1023              		.loc 5 324 3 view .LVU268
 1024              		.loc 5 324 3 view .LVU269
 1025              		.loc 5 324 3 view .LVU270
 1026              		.loc 5 326 3 view .LVU271
ARM GAS  /tmp/ccYyvzZD.s 			page 19


 1027              		.loc 5 326 3 view .LVU272
 1028              		.loc 5 326 3 view .LVU273
 1029              		.loc 5 329 3 view .LVU274
 1030              	.LBB162:
 1031              	.LBI162:
 1032              		.loc 4 509 20 view .LVU275
 1033              	.LBB163:
 1034              		.loc 4 511 3 view .LVU276
 1035              	.LBE163:
 1036              	.LBE162:
 1037              		.loc 5 322 43 is_stmt 0 view .LVU277
 1038 0000 13B5     		push	{r0, r1, r4, lr}
 1039              		.cfi_def_cfa_offset 16
 1040              		.cfi_offset 4, -8
 1041              		.cfi_offset 14, -4
 1042              		.loc 5 322 43 view .LVU278
 1043 0002 0446     		mov	r4, r0
 1044 0004 0191     		str	r1, [sp, #4]
 1045              	.LBB165:
 1046              	.LBB164:
 1047              		.loc 4 511 3 view .LVU279
 1048 0006 FFF7FEFF 		bl	chSysLock
 1049              	.LVL64:
 1050              		.loc 4 511 3 view .LVU280
 1051              	.LBE164:
 1052              	.LBE165:
 1053              		.loc 5 330 3 is_stmt 1 view .LVU281
 1054              		.loc 5 330 3 view .LVU282
 1055              		.loc 5 330 3 view .LVU283
 1056              		.loc 5 331 3 view .LVU284
 1057 000a 0323     		movs	r3, #3
 1058 000c 0199     		ldr	r1, [sp, #4]
 1059 000e 2046     		mov	r0, r4
 1060 0010 2370     		strb	r3, [r4]
 1061              		.loc 5 331 3 view .LVU285
 1062 0012 FFF7FEFF 		bl	spi_lld_ignore
 1063              	.LVL65:
 1064              		.loc 5 331 27 view .LVU286
 1065              		.loc 5 332 3 view .LVU287
 1066              		.loc 5 332 10 is_stmt 0 view .LVU288
 1067 0016 04F10800 		add	r0, r4, #8
 1068 001a FFF7FEFF 		bl	osalThreadSuspendS.isra.0
 1069              	.LVL66:
 1070              		.loc 5 333 3 is_stmt 1 view .LVU289
 1071              	.LBB166:
 1072              	.LBI166:
 1073              		.loc 4 520 20 view .LVU290
 1074              	.LBB167:
 1075              		.loc 4 522 3 view .LVU291
 1076              	.LBE167:
 1077              	.LBE166:
 1078              		.loc 5 334 1 is_stmt 0 view .LVU292
 1079 001e 02B0     		add	sp, sp, #8
 1080              		.cfi_def_cfa_offset 8
 1081              		@ sp needed
 1082 0020 BDE81040 		pop	{r4, lr}
 1083              		.cfi_restore 14
ARM GAS  /tmp/ccYyvzZD.s 			page 20


 1084              		.cfi_restore 4
 1085              		.cfi_def_cfa_offset 0
 1086              	.LVL67:
 1087              	.LBB169:
 1088              	.LBB168:
 1089              		.loc 4 522 3 view .LVU293
 1090 0024 FFF7FEBF 		b	chSysUnlock
 1091              	.LVL68:
 1092              	.LBE168:
 1093              	.LBE169:
 1094              		.cfi_endproc
 1095              	.LFE346:
 1096              		.size	spiIgnore, .-spiIgnore
 1097              		.section	.text.spiExchange,"ax",%progbits
 1098              		.align	1
 1099              		.global	spiExchange
 1100              		.syntax unified
 1101              		.thumb
 1102              		.thumb_func
 1103              		.fpu fpv4-sp-d16
 1104              		.type	spiExchange, %function
 1105              	spiExchange:
 1106              	.LVL69:
 1107              	.LFB347:
 1108              		.loc 5 355 50 is_stmt 1 view -0
 1109              		.cfi_startproc
 1110              		@ args = 0, pretend = 0, frame = 16
 1111              		@ frame_needed = 0, uses_anonymous_args = 0
 1112              		.loc 5 357 3 view .LVU295
 1113              		.loc 5 357 3 view .LVU296
 1114              		.loc 5 357 3 view .LVU297
 1115              		.loc 5 360 3 view .LVU298
 1116              		.loc 5 360 3 view .LVU299
 1117              		.loc 5 360 3 view .LVU300
 1118              		.loc 5 363 3 view .LVU301
 1119              	.LBB170:
 1120              	.LBI170:
 1121              		.loc 4 509 20 view .LVU302
 1122              	.LBB171:
 1123              		.loc 4 511 3 view .LVU303
 1124              	.LBE171:
 1125              	.LBE170:
 1126              		.loc 5 355 50 is_stmt 0 view .LVU304
 1127 0000 1FB5     		push	{r0, r1, r2, r3, r4, lr}
 1128              		.cfi_def_cfa_offset 24
 1129              		.cfi_offset 4, -8
 1130              		.cfi_offset 14, -4
 1131              		.loc 5 355 50 view .LVU305
 1132 0002 0446     		mov	r4, r0
 1133 0004 0193     		str	r3, [sp, #4]
 1134 0006 CDE90221 		strd	r2, r1, [sp, #8]
 1135              	.LBB173:
 1136              	.LBB172:
 1137              		.loc 4 511 3 view .LVU306
 1138 000a FFF7FEFF 		bl	chSysLock
 1139              	.LVL70:
 1140              		.loc 4 511 3 view .LVU307
ARM GAS  /tmp/ccYyvzZD.s 			page 21


 1141              	.LBE172:
 1142              	.LBE173:
 1143              		.loc 5 364 3 is_stmt 1 view .LVU308
 1144              		.loc 5 364 3 view .LVU309
 1145              		.loc 5 364 3 view .LVU310
 1146              		.loc 5 365 3 view .LVU311
 1147 000e 0320     		movs	r0, #3
 1148 0010 0399     		ldr	r1, [sp, #12]
 1149 0012 2070     		strb	r0, [r4]
 1150              		.loc 5 365 3 view .LVU312
 1151 0014 2046     		mov	r0, r4
 1152 0016 DDE90132 		ldrd	r3, r2, [sp, #4]
 1153 001a FFF7FEFF 		bl	spi_lld_exchange
 1154              	.LVL71:
 1155              		.loc 5 365 43 view .LVU313
 1156              		.loc 5 366 3 view .LVU314
 1157              		.loc 5 366 10 is_stmt 0 view .LVU315
 1158 001e 04F10800 		add	r0, r4, #8
 1159 0022 FFF7FEFF 		bl	osalThreadSuspendS.isra.0
 1160              	.LVL72:
 1161              		.loc 5 367 3 is_stmt 1 view .LVU316
 1162              	.LBB174:
 1163              	.LBI174:
 1164              		.loc 4 520 20 view .LVU317
 1165              	.LBB175:
 1166              		.loc 4 522 3 view .LVU318
 1167              	.LBE175:
 1168              	.LBE174:
 1169              		.loc 5 368 1 is_stmt 0 view .LVU319
 1170 0026 04B0     		add	sp, sp, #16
 1171              		.cfi_def_cfa_offset 8
 1172              		@ sp needed
 1173 0028 BDE81040 		pop	{r4, lr}
 1174              		.cfi_restore 14
 1175              		.cfi_restore 4
 1176              		.cfi_def_cfa_offset 0
 1177              	.LVL73:
 1178              	.LBB177:
 1179              	.LBB176:
 1180              		.loc 4 522 3 view .LVU320
 1181 002c FFF7FEBF 		b	chSysUnlock
 1182              	.LVL74:
 1183              	.LBE176:
 1184              	.LBE177:
 1185              		.cfi_endproc
 1186              	.LFE347:
 1187              		.size	spiExchange, .-spiExchange
 1188              		.section	.text.spiSend,"ax",%progbits
 1189              		.align	1
 1190              		.global	spiSend
 1191              		.syntax unified
 1192              		.thumb
 1193              		.thumb_func
 1194              		.fpu fpv4-sp-d16
 1195              		.type	spiSend, %function
 1196              	spiSend:
 1197              	.LVL75:
ARM GAS  /tmp/ccYyvzZD.s 			page 22


 1198              	.LFB348:
 1199              		.loc 5 386 60 is_stmt 1 view -0
 1200              		.cfi_startproc
 1201              		@ args = 0, pretend = 0, frame = 8
 1202              		@ frame_needed = 0, uses_anonymous_args = 0
 1203              		.loc 5 388 3 view .LVU322
 1204              		.loc 5 388 3 view .LVU323
 1205              		.loc 5 388 3 view .LVU324
 1206              		.loc 5 390 3 view .LVU325
 1207              		.loc 5 390 3 view .LVU326
 1208              		.loc 5 390 3 view .LVU327
 1209              		.loc 5 393 3 view .LVU328
 1210              	.LBB178:
 1211              	.LBI178:
 1212              		.loc 4 509 20 view .LVU329
 1213              	.LBB179:
 1214              		.loc 4 511 3 view .LVU330
 1215              	.LBE179:
 1216              	.LBE178:
 1217              		.loc 5 386 60 is_stmt 0 view .LVU331
 1218 0000 13B5     		push	{r0, r1, r4, lr}
 1219              		.cfi_def_cfa_offset 16
 1220              		.cfi_offset 4, -8
 1221              		.cfi_offset 14, -4
 1222              		.loc 5 386 60 view .LVU332
 1223 0002 0446     		mov	r4, r0
 1224 0004 CDE90021 		strd	r2, r1, [sp]
 1225              	.LBB181:
 1226              	.LBB180:
 1227              		.loc 4 511 3 view .LVU333
 1228 0008 FFF7FEFF 		bl	chSysLock
 1229              	.LVL76:
 1230              		.loc 4 511 3 view .LVU334
 1231              	.LBE180:
 1232              	.LBE181:
 1233              		.loc 5 394 3 is_stmt 1 view .LVU335
 1234              		.loc 5 394 3 view .LVU336
 1235              		.loc 5 394 3 view .LVU337
 1236              		.loc 5 395 3 view .LVU338
 1237 000c 0323     		movs	r3, #3
 1238 000e 2046     		mov	r0, r4
 1239 0010 2370     		strb	r3, [r4]
 1240              		.loc 5 395 3 view .LVU339
 1241 0012 DDE90021 		ldrd	r2, r1, [sp]
 1242 0016 FFF7FEFF 		bl	spi_lld_send
 1243              	.LVL77:
 1244              		.loc 5 395 32 view .LVU340
 1245              		.loc 5 396 3 view .LVU341
 1246              		.loc 5 396 10 is_stmt 0 view .LVU342
 1247 001a 04F10800 		add	r0, r4, #8
 1248 001e FFF7FEFF 		bl	osalThreadSuspendS.isra.0
 1249              	.LVL78:
 1250              		.loc 5 397 3 is_stmt 1 view .LVU343
 1251              	.LBB182:
 1252              	.LBI182:
 1253              		.loc 4 520 20 view .LVU344
 1254              	.LBB183:
ARM GAS  /tmp/ccYyvzZD.s 			page 23


 1255              		.loc 4 522 3 view .LVU345
 1256              	.LBE183:
 1257              	.LBE182:
 1258              		.loc 5 398 1 is_stmt 0 view .LVU346
 1259 0022 02B0     		add	sp, sp, #8
 1260              		.cfi_def_cfa_offset 8
 1261              	.LVL79:
 1262              		.loc 5 398 1 view .LVU347
 1263              		@ sp needed
 1264 0024 BDE81040 		pop	{r4, lr}
 1265              		.cfi_restore 14
 1266              		.cfi_restore 4
 1267              		.cfi_def_cfa_offset 0
 1268              	.LVL80:
 1269              	.LBB185:
 1270              	.LBB184:
 1271              		.loc 4 522 3 view .LVU348
 1272 0028 FFF7FEBF 		b	chSysUnlock
 1273              	.LVL81:
 1274              	.LBE184:
 1275              	.LBE185:
 1276              		.cfi_endproc
 1277              	.LFE348:
 1278              		.size	spiSend, .-spiSend
 1279              		.section	.text.spiReceive,"ax",%progbits
 1280              		.align	1
 1281              		.global	spiReceive
 1282              		.syntax unified
 1283              		.thumb
 1284              		.thumb_func
 1285              		.fpu fpv4-sp-d16
 1286              		.type	spiReceive, %function
 1287              	spiReceive:
 1288              	.LVL82:
 1289              	.LFB349:
 1290              		.loc 5 416 57 is_stmt 1 view -0
 1291              		.cfi_startproc
 1292              		@ args = 0, pretend = 0, frame = 8
 1293              		@ frame_needed = 0, uses_anonymous_args = 0
 1294              		.loc 5 418 3 view .LVU350
 1295              		.loc 5 418 3 view .LVU351
 1296              		.loc 5 418 3 view .LVU352
 1297              		.loc 5 420 3 view .LVU353
 1298              		.loc 5 420 3 view .LVU354
 1299              		.loc 5 420 3 view .LVU355
 1300              		.loc 5 423 3 view .LVU356
 1301              	.LBB186:
 1302              	.LBI186:
 1303              		.loc 4 509 20 view .LVU357
 1304              	.LBB187:
 1305              		.loc 4 511 3 view .LVU358
 1306              	.LBE187:
 1307              	.LBE186:
 1308              		.loc 5 416 57 is_stmt 0 view .LVU359
 1309 0000 13B5     		push	{r0, r1, r4, lr}
 1310              		.cfi_def_cfa_offset 16
 1311              		.cfi_offset 4, -8
ARM GAS  /tmp/ccYyvzZD.s 			page 24


 1312              		.cfi_offset 14, -4
 1313              		.loc 5 416 57 view .LVU360
 1314 0002 0446     		mov	r4, r0
 1315 0004 CDE90021 		strd	r2, r1, [sp]
 1316              	.LBB189:
 1317              	.LBB188:
 1318              		.loc 4 511 3 view .LVU361
 1319 0008 FFF7FEFF 		bl	chSysLock
 1320              	.LVL83:
 1321              		.loc 4 511 3 view .LVU362
 1322              	.LBE188:
 1323              	.LBE189:
 1324              		.loc 5 424 3 is_stmt 1 view .LVU363
 1325              		.loc 5 424 3 view .LVU364
 1326              		.loc 5 424 3 view .LVU365
 1327              		.loc 5 425 3 view .LVU366
 1328 000c 0323     		movs	r3, #3
 1329 000e 2046     		mov	r0, r4
 1330 0010 2370     		strb	r3, [r4]
 1331              		.loc 5 425 3 view .LVU367
 1332 0012 DDE90021 		ldrd	r2, r1, [sp]
 1333 0016 FFF7FEFF 		bl	spi_lld_receive
 1334              	.LVL84:
 1335              		.loc 5 425 35 view .LVU368
 1336              		.loc 5 426 3 view .LVU369
 1337              		.loc 5 426 10 is_stmt 0 view .LVU370
 1338 001a 04F10800 		add	r0, r4, #8
 1339 001e FFF7FEFF 		bl	osalThreadSuspendS.isra.0
 1340              	.LVL85:
 1341              		.loc 5 427 3 is_stmt 1 view .LVU371
 1342              	.LBB190:
 1343              	.LBI190:
 1344              		.loc 4 520 20 view .LVU372
 1345              	.LBB191:
 1346              		.loc 4 522 3 view .LVU373
 1347              	.LBE191:
 1348              	.LBE190:
 1349              		.loc 5 428 1 is_stmt 0 view .LVU374
 1350 0022 02B0     		add	sp, sp, #8
 1351              		.cfi_def_cfa_offset 8
 1352              	.LVL86:
 1353              		.loc 5 428 1 view .LVU375
 1354              		@ sp needed
 1355 0024 BDE81040 		pop	{r4, lr}
 1356              		.cfi_restore 14
 1357              		.cfi_restore 4
 1358              		.cfi_def_cfa_offset 0
 1359              	.LVL87:
 1360              	.LBB193:
 1361              	.LBB192:
 1362              		.loc 4 522 3 view .LVU376
 1363 0028 FFF7FEBF 		b	chSysUnlock
 1364              	.LVL88:
 1365              	.LBE192:
 1366              	.LBE193:
 1367              		.cfi_endproc
 1368              	.LFE349:
ARM GAS  /tmp/ccYyvzZD.s 			page 25


 1369              		.size	spiReceive, .-spiReceive
 1370              		.section	.text.spiAcquireBus,"ax",%progbits
 1371              		.align	1
 1372              		.global	spiAcquireBus
 1373              		.syntax unified
 1374              		.thumb
 1375              		.thumb_func
 1376              		.fpu fpv4-sp-d16
 1377              		.type	spiAcquireBus, %function
 1378              	spiAcquireBus:
 1379              	.LVL89:
 1380              	.LFB350:
 1381              		.loc 5 443 37 is_stmt 1 view -0
 1382              		.cfi_startproc
 1383              		@ args = 0, pretend = 0, frame = 0
 1384              		@ frame_needed = 0, uses_anonymous_args = 0
 1385              		@ link register save eliminated.
 1386              		.loc 5 445 3 view .LVU378
 1387              		.loc 5 445 3 view .LVU379
 1388              		.loc 5 445 3 view .LVU380
 1389              		.loc 5 447 3 view .LVU381
 1390              	.LBB194:
 1391              	.LBI194:
 1392              		.loc 4 991 20 view .LVU382
 1393              	.LBB195:
 1394              		.loc 4 994 3 view .LVU383
 1395 0000 0C30     		adds	r0, r0, #12
 1396              	.LVL90:
 1397              		.loc 4 994 3 is_stmt 0 view .LVU384
 1398 0002 FFF7FEBF 		b	chMtxLock
 1399              	.LVL91:
 1400              		.loc 4 994 3 view .LVU385
 1401              	.LBE195:
 1402              	.LBE194:
 1403              		.cfi_endproc
 1404              	.LFE350:
 1405              		.size	spiAcquireBus, .-spiAcquireBus
 1406              		.section	.text.spiReleaseBus,"ax",%progbits
 1407              		.align	1
 1408              		.global	spiReleaseBus
 1409              		.syntax unified
 1410              		.thumb
 1411              		.thumb_func
 1412              		.fpu fpv4-sp-d16
 1413              		.type	spiReleaseBus, %function
 1414              	spiReleaseBus:
 1415              	.LVL92:
 1416              	.LFB351:
 1417              		.loc 5 459 37 is_stmt 1 view -0
 1418              		.cfi_startproc
 1419              		@ args = 0, pretend = 0, frame = 0
 1420              		@ frame_needed = 0, uses_anonymous_args = 0
 1421              		@ link register save eliminated.
 1422              		.loc 5 461 3 view .LVU387
 1423              		.loc 5 461 3 view .LVU388
 1424              		.loc 5 461 3 view .LVU389
 1425              		.loc 5 463 3 view .LVU390
ARM GAS  /tmp/ccYyvzZD.s 			page 26


 1426              	.LBB196:
 1427              	.LBI196:
 1428              		.loc 4 1015 20 view .LVU391
 1429              	.LBB197:
 1430              		.loc 4 1018 3 view .LVU392
 1431 0000 0C30     		adds	r0, r0, #12
 1432              	.LVL93:
 1433              		.loc 4 1018 3 is_stmt 0 view .LVU393
 1434 0002 FFF7FEBF 		b	chMtxUnlock
 1435              	.LVL94:
 1436              		.loc 4 1018 3 view .LVU394
 1437              	.LBE197:
 1438              	.LBE196:
 1439              		.cfi_endproc
 1440              	.LFE351:
 1441              		.size	spiReleaseBus, .-spiReleaseBus
 1442              		.text
 1443              	.Letext0:
 1444              		.file 6 "/opt/gcc-arm-none-eabi-10-2020-q4-major/lib/gcc/arm-none-eabi/10.2.1/include/stddef.h"
 1445              		.file 7 "/opt/gcc-arm-none-eabi-10-2020-q4-major/arm-none-eabi/include/machine/_default_types.h"
 1446              		.file 8 "/opt/gcc-arm-none-eabi-10-2020-q4-major/arm-none-eabi/include/sys/_stdint.h"
 1447              		.file 9 "/opt/gcc-arm-none-eabi-10-2020-q4-major/arm-none-eabi/include/stdint.h"
 1448              		.file 10 "../../modules/ChibiOS/os/common/ports/ARMCMx/compilers/GCC/chtypes.h"
 1449              		.file 11 "../../modules/ChibiOS/os/rt/include/chsystypes.h"
 1450              		.file 12 "../../modules/ChibiOS/os/rt/include/chschd.h"
 1451              		.file 13 "../../modules/ChibiOS/os/rt/include/chtime.h"
 1452              		.file 14 "../../modules/ChibiOS/os/common/ext/ST/STM32F7xx/stm32f767xx.h"
 1453              		.file 15 "../../modules/ChibiOS/os/common/ports/ARMCMx/chcore.h"
 1454              		.file 16 "../../modules/ChibiOS/os/rt/include/chtm.h"
 1455              		.file 17 "../../modules/ChibiOS/os/rt/include/chsem.h"
 1456              		.file 18 "../../modules/ChibiOS/os/rt/include/chmtx.h"
 1457              		.file 19 "../../modules/ChibiOS/os/hal/ports/STM32/LLD/DMAv2/stm32_dma.h"
 1458              		.file 20 "../../modules/ChibiOS/os/hal/ports/STM32/LLD/GPIOv2/stm32_gpio.h"
 1459              		.file 21 "../../modules/ChibiOS/os/hal/ports/STM32/LLD/GPIOv2/hal_pal_lld.h"
 1460              		.file 22 "../../modules/ChibiOS/os/hal/include/hal_spi.h"
 1461              		.file 23 "../../modules/ChibiOS/os/hal/ports/STM32/LLD/SPIv2/hal_spi_lld.h"
 1462              		.file 24 "../../modules/ChibiOS/os/rt/include/chthreads.h"
 1463              		.file 25 "../../modules/ChibiOS/os/rt/include/chstats.h"