ARM GAS  /tmp/ccpB36Aw.s 			page 1


   1              		.cpu cortex-m7
   2              		.eabi_attribute 27, 1
   3              		.eabi_attribute 28, 1
   4              		.eabi_attribute 20, 1
   5              		.eabi_attribute 21, 1
   6              		.eabi_attribute 23, 3
   7              		.eabi_attribute 24, 1
   8              		.eabi_attribute 25, 1
   9              		.eabi_attribute 26, 1
  10              		.eabi_attribute 30, 4
  11              		.eabi_attribute 34, 1
  12              		.eabi_attribute 18, 4
  13              		.file	"hal_buffers.c"
  14              		.text
  15              	.Ltext0:
  16              		.cfi_sections	.debug_frame
  17              		.section	.text.chSysLock,"ax",%progbits
  18              		.align	1
  19              		.arch armv7e-m
  20              		.syntax unified
  21              		.thumb
  22              		.thumb_func
  23              		.fpu fpv4-sp-d16
  24              		.type	chSysLock, %function
  25              	chSysLock:
  26              	.LFB195:
  27              		.file 1 "../../modules/ChibiOS/os/rt/include/chsys.h"
  28              		.loc 1 353 36 view -0
  29              		.cfi_startproc
  30              		@ args = 0, pretend = 0, frame = 0
  31              		@ frame_needed = 0, uses_anonymous_args = 0
  32              		@ link register save eliminated.
  33              		.loc 1 355 3 view .LVU1
  34              	.LBB103:
  35              	.LBI103:
  36              		.file 2 "../../modules/ChibiOS/os/common/ports/ARMCMx/chcore_v7m.h"
  37              		.loc 2 602 20 view .LVU2
  38              	.LBE103:
  39              		.loc 2 610 3 view .LVU3
  40              	.LVL0:
  41              	.LBB106:
  42              	.LBB104:
  43              	.LBI104:
  44              		.file 3 "../../modules/ChibiOS/os/common/ext/ARM/CMSIS/Core/Include/cmsis_gcc.h"
  45              		.loc 3 491 27 view .LVU4
  46              	.LBB105:
  47              		.loc 3 493 3 view .LVU5
  48 0000 2023     		movs	r3, #32
  49              		.syntax unified
  50              	@ 493 "../../modules/ChibiOS/os/common/ext/ARM/CMSIS/Core/Include/cmsis_gcc.h" 1
  51 0002 83F31188 		MSR basepri, r3
  52              	@ 0 "" 2
  53              	.LVL1:
  54              		.loc 3 493 3 is_stmt 0 view .LVU6
  55              		.thumb
  56              		.syntax unified
  57              	.LBE105:
ARM GAS  /tmp/ccpB36Aw.s 			page 2


  58              	.LBE104:
  59              	.LBE106:
  60              		.loc 1 356 3 is_stmt 1 view .LVU7
  61 0006 FFF7FEBF 		b	_stats_start_measure_crit_thd
  62              	.LVL2:
  63              		.cfi_endproc
  64              	.LFE195:
  65              		.size	chSysLock, .-chSysLock
  66              		.section	.text.chSysUnlock,"ax",%progbits
  67              		.align	1
  68              		.syntax unified
  69              		.thumb
  70              		.thumb_func
  71              		.fpu fpv4-sp-d16
  72              		.type	chSysUnlock, %function
  73              	chSysUnlock:
  74              	.LFB196:
  75              		.loc 1 365 38 view -0
  76              		.cfi_startproc
  77              		@ args = 0, pretend = 0, frame = 0
  78              		@ frame_needed = 0, uses_anonymous_args = 0
  79              		.loc 1 367 22 view .LVU9
  80              		.loc 1 368 3 view .LVU10
  81              		.loc 1 365 38 is_stmt 0 view .LVU11
  82 0000 08B5     		push	{r3, lr}
  83              		.cfi_def_cfa_offset 8
  84              		.cfi_offset 3, -8
  85              		.cfi_offset 14, -4
  86              		.loc 1 368 3 view .LVU12
  87 0002 FFF7FEFF 		bl	_stats_stop_measure_crit_thd
  88              	.LVL3:
  89              		.loc 1 374 3 is_stmt 1 view .LVU13
  90              		.loc 1 374 3 view .LVU14
  91              		.loc 1 374 3 view .LVU15
  92              		.loc 1 378 3 view .LVU16
  93              	.LBB107:
  94              	.LBI107:
  95              		.loc 2 626 20 view .LVU17
  96              	.LBE107:
  97              		.loc 2 629 3 view .LVU18
  98              	.LBB110:
  99              	.LBB108:
 100              	.LBI108:
 101              		.loc 3 491 27 view .LVU19
 102              	.LBB109:
 103              		.loc 3 493 3 view .LVU20
 104 0006 0023     		movs	r3, #0
 105              		.syntax unified
 106              	@ 493 "../../modules/ChibiOS/os/common/ext/ARM/CMSIS/Core/Include/cmsis_gcc.h" 1
 107 0008 83F31188 		MSR basepri, r3
 108              	@ 0 "" 2
 109              	.LVL4:
 110              		.loc 3 493 3 is_stmt 0 view .LVU21
 111              		.thumb
 112              		.syntax unified
 113              	.LBE109:
 114              	.LBE108:
ARM GAS  /tmp/ccpB36Aw.s 			page 3


 115              	.LBE110:
 116              		.loc 1 379 1 view .LVU22
 117 000c 08BD     		pop	{r3, pc}
 118              		.cfi_endproc
 119              	.LFE196:
 120              		.size	chSysUnlock, .-chSysUnlock
 121              		.section	.text.ibqObjectInit,"ax",%progbits
 122              		.align	1
 123              		.global	ibqObjectInit
 124              		.syntax unified
 125              		.thumb
 126              		.thumb_func
 127              		.fpu fpv4-sp-d16
 128              		.type	ibqObjectInit, %function
 129              	ibqObjectInit:
 130              	.LVL5:
 131              	.LFB334:
 132              		.file 4 "../../modules/ChibiOS/os/hal/src/hal_buffers.c"
 133              		.loc 4 77 72 is_stmt 1 view -0
 134              		.cfi_startproc
 135              		@ args = 12, pretend = 0, frame = 0
 136              		@ frame_needed = 0, uses_anonymous_args = 0
 137              		.loc 4 79 3 view .LVU24
 138              		.loc 4 79 3 view .LVU25
 139              		.loc 4 79 3 view .LVU26
 140              		.loc 4 81 3 view .LVU27
 141              	.LBB111:
 142              	.LBI111:
 143              		.file 5 "../../modules/ChibiOS/os/hal/osal/rt/osal.h"
 144              		.loc 5 800 20 view .LVU28
 145              	.LBE111:
 146              		.loc 5 802 3 view .LVU29
 147              	.LBB119:
 148              	.LBB112:
 149              	.LBI112:
 150              		.file 6 "../../modules/ChibiOS/os/rt/include/chthreads.h"
 151              		.loc 6 392 20 view .LVU30
 152              	.LBE112:
 153              	.LBE119:
 154              		.loc 6 394 3 view .LVU31
 155              	.LBB120:
 156              	.LBB117:
 157              	.LBB113:
 158              	.LBI113:
 159              		.file 7 "../../modules/ChibiOS/os/rt/include/chschd.h"
 160              		.loc 7 537 20 view .LVU32
 161              	.LBB114:
 162              		.loc 7 539 3 view .LVU33
 163              	.LBE114:
 164              	.LBE113:
 165              	.LBE117:
 166              	.LBE120:
 167              		.loc 4 77 72 is_stmt 0 view .LVU34
 168 0000 30B5     		push	{r4, r5, lr}
 169              		.cfi_def_cfa_offset 12
 170              		.cfi_offset 4, -12
 171              		.cfi_offset 5, -8
ARM GAS  /tmp/ccpB36Aw.s 			page 4


 172              		.cfi_offset 14, -4
 173              		.loc 4 86 33 view .LVU35
 174 0002 0433     		adds	r3, r3, #4
 175              	.LVL6:
 176              		.loc 4 77 72 view .LVU36
 177 0004 039C     		ldr	r4, [sp, #12]
 178              		.loc 4 82 19 view .LVU37
 179 0006 0172     		strb	r1, [r0, #8]
 180              		.loc 4 83 19 view .LVU38
 181 0008 0021     		movs	r1, #0
 182              	.LVL7:
 183              		.loc 4 86 24 view .LVU39
 184 000a 04FB0325 		mla	r5, r4, r3, r2
 185              		.loc 4 83 19 view .LVU40
 186 000e C160     		str	r1, [r0, #12]
 187              		.loc 4 87 19 view .LVU41
 188 0010 C0E90653 		strd	r5, r3, [r0, #24]
 189              		.loc 4 92 19 view .LVU42
 190 0014 049B     		ldr	r3, [sp, #16]
 191              	.LVL8:
 192              		.loc 4 92 19 view .LVU43
 193 0016 0363     		str	r3, [r0, #48]
 194              		.loc 4 93 19 view .LVU44
 195 0018 059B     		ldr	r3, [sp, #20]
 196              	.LBB121:
 197              	.LBB118:
 198              	.LBB116:
 199              	.LBB115:
 200              		.loc 7 540 13 view .LVU45
 201 001a C0E90000 		strd	r0, r0, [r0]
 202              	.LVL9:
 203              		.loc 7 540 13 view .LVU46
 204              	.LBE115:
 205              	.LBE116:
 206              	.LBE118:
 207              	.LBE121:
 208              		.loc 4 82 3 is_stmt 1 view .LVU47
 209              		.loc 4 83 3 view .LVU48
 210              		.loc 4 84 3 view .LVU49
 211              		.loc 4 85 19 is_stmt 0 view .LVU50
 212 001e C0E90422 		strd	r2, r2, [r0, #16]
 213              		.loc 4 86 3 is_stmt 1 view .LVU51
 214              		.loc 4 88 3 view .LVU52
 215              		.loc 4 89 19 is_stmt 0 view .LVU53
 216 0022 C0E90842 		strd	r4, r2, [r0, #32]
 217              		.loc 4 90 3 is_stmt 1 view .LVU54
 218              		.loc 4 91 19 is_stmt 0 view .LVU55
 219 0026 C0E90A11 		strd	r1, r1, [r0, #40]
 220              		.loc 4 92 3 is_stmt 1 view .LVU56
 221              		.loc 4 93 3 view .LVU57
 222              		.loc 4 93 19 is_stmt 0 view .LVU58
 223 002a 4363     		str	r3, [r0, #52]
 224              		.loc 4 94 1 view .LVU59
 225 002c 30BD     		pop	{r4, r5, pc}
 226              		.loc 4 94 1 view .LVU60
 227              		.cfi_endproc
 228              	.LFE334:
ARM GAS  /tmp/ccpB36Aw.s 			page 5


 229              		.size	ibqObjectInit, .-ibqObjectInit
 230              		.section	.text.ibqResetI,"ax",%progbits
 231              		.align	1
 232              		.global	ibqResetI
 233              		.syntax unified
 234              		.thumb
 235              		.thumb_func
 236              		.fpu fpv4-sp-d16
 237              		.type	ibqResetI, %function
 238              	ibqResetI:
 239              	.LVL10:
 240              	.LFB335:
 241              		.loc 4 107 45 is_stmt 1 view -0
 242              		.cfi_startproc
 243              		@ args = 0, pretend = 0, frame = 0
 244              		@ frame_needed = 0, uses_anonymous_args = 0
 245              		@ link register save eliminated.
 246              		.loc 4 109 23 view .LVU62
 247              		.loc 4 111 3 view .LVU63
 248              		.loc 4 111 19 is_stmt 0 view .LVU64
 249 0000 0022     		movs	r2, #0
 250              		.loc 4 112 25 view .LVU65
 251 0002 416A     		ldr	r1, [r0, #36]
 252              		.loc 4 111 19 view .LVU66
 253 0004 C260     		str	r2, [r0, #12]
 254              		.loc 4 112 3 is_stmt 1 view .LVU67
 255              		.loc 4 113 19 is_stmt 0 view .LVU68
 256 0006 C0E90411 		strd	r1, r1, [r0, #16]
 257              		.loc 4 114 3 is_stmt 1 view .LVU69
 258              		.loc 4 115 19 is_stmt 0 view .LVU70
 259 000a C0E90A22 		strd	r2, r2, [r0, #40]
 260              		.loc 4 116 3 is_stmt 1 view .LVU71
 261              	.LVL11:
 262              	.LBB122:
 263              	.LBI122:
 264              		.loc 5 855 20 view .LVU72
 265              	.LBB123:
 266              		.loc 5 857 3 view .LVU73
 267 000e 6FF00101 		mvn	r1, #1
 268 0012 FFF7FEBF 		b	chThdDequeueAllI
 269              	.LVL12:
 270              		.loc 5 857 3 is_stmt 0 view .LVU74
 271              	.LBE123:
 272              	.LBE122:
 273              		.cfi_endproc
 274              	.LFE335:
 275              		.size	ibqResetI, .-ibqResetI
 276              		.section	.text.ibqGetEmptyBufferI,"ax",%progbits
 277              		.align	1
 278              		.global	ibqGetEmptyBufferI
 279              		.syntax unified
 280              		.thumb
 281              		.thumb_func
 282              		.fpu fpv4-sp-d16
 283              		.type	ibqGetEmptyBufferI, %function
 284              	ibqGetEmptyBufferI:
 285              	.LVL13:
ARM GAS  /tmp/ccpB36Aw.s 			page 6


 286              	.LFB336:
 287              		.loc 4 129 58 is_stmt 1 view -0
 288              		.cfi_startproc
 289              		@ args = 0, pretend = 0, frame = 0
 290              		@ frame_needed = 0, uses_anonymous_args = 0
 291              		@ link register save eliminated.
 292              		.loc 4 131 23 view .LVU76
 293              		.loc 4 133 3 view .LVU77
 294              		.loc 4 133 7 is_stmt 0 view .LVU78
 295 0000 D0E90432 		ldrd	r3, r2, [r0, #16]
 296 0004 9342     		cmp	r3, r2
 297 0006 01D1     		bne	.L6
 298              		.loc 4 133 7 discriminator 1 view .LVU79
 299 0008 C268     		ldr	r2, [r0, #12]
 300 000a 0AB9     		cbnz	r2, .L8
 301              	.L6:
 302              		.loc 4 137 3 is_stmt 1 view .LVU80
 303              		.loc 4 137 23 is_stmt 0 view .LVU81
 304 000c 181D     		adds	r0, r3, #4
 305              	.LVL14:
 306              		.loc 4 137 23 view .LVU82
 307 000e 7047     		bx	lr
 308              	.LVL15:
 309              	.L8:
 310              		.loc 4 134 12 view .LVU83
 311 0010 0020     		movs	r0, #0
 312              	.LVL16:
 313              		.loc 4 138 1 view .LVU84
 314 0012 7047     		bx	lr
 315              		.cfi_endproc
 316              	.LFE336:
 317              		.size	ibqGetEmptyBufferI, .-ibqGetEmptyBufferI
 318              		.section	.text.ibqPostFullBufferI,"ax",%progbits
 319              		.align	1
 320              		.global	ibqPostFullBufferI
 321              		.syntax unified
 322              		.thumb
 323              		.thumb_func
 324              		.fpu fpv4-sp-d16
 325              		.type	ibqPostFullBufferI, %function
 326              	ibqPostFullBufferI:
 327              	.LVL17:
 328              	.LFB337:
 329              		.loc 4 148 67 is_stmt 1 view -0
 330              		.cfi_startproc
 331              		@ args = 0, pretend = 0, frame = 0
 332              		@ frame_needed = 0, uses_anonymous_args = 0
 333              		@ link register save eliminated.
 334              		.loc 4 150 23 view .LVU86
 335              		.loc 4 152 3 view .LVU87
 336              		.loc 4 152 3 view .LVU88
 337              		.loc 4 152 3 view .LVU89
 338              		.loc 4 153 3 view .LVU90
 339              		.loc 4 153 3 view .LVU91
 340              		.loc 4 153 3 view .LVU92
 341              		.loc 4 156 3 view .LVU93
 342              		.loc 4 156 19 is_stmt 0 view .LVU94
ARM GAS  /tmp/ccpB36Aw.s 			page 7


 343 0000 0369     		ldr	r3, [r0, #16]
 344              		.loc 4 156 29 view .LVU95
 345 0002 1960     		str	r1, [r3]
 346              		.loc 4 159 3 is_stmt 1 view .LVU96
 347              	.LBB124:
 348              	.LBB125:
 349              		.loc 5 844 3 is_stmt 0 view .LVU97
 350 0004 0021     		movs	r1, #0
 351              	.LVL18:
 352              		.loc 5 844 3 view .LVU98
 353              	.LBE125:
 354              	.LBE124:
 355              		.loc 4 159 7 view .LVU99
 356 0006 C268     		ldr	r2, [r0, #12]
 357              		.loc 4 159 17 view .LVU100
 358 0008 0132     		adds	r2, r2, #1
 359 000a C260     		str	r2, [r0, #12]
 360              	.LVL19:
 361              		.loc 4 160 3 is_stmt 1 view .LVU101
 362              		.loc 4 160 16 is_stmt 0 view .LVU102
 363 000c C269     		ldr	r2, [r0, #28]
 364 000e 1344     		add	r3, r3, r2
 365              		.loc 4 161 6 view .LVU103
 366 0010 8269     		ldr	r2, [r0, #24]
 367 0012 9342     		cmp	r3, r2
 368              		.loc 4 160 16 view .LVU104
 369 0014 0361     		str	r3, [r0, #16]
 370              		.loc 4 161 3 is_stmt 1 view .LVU105
 371              		.loc 4 162 5 view .LVU106
 372              		.loc 4 162 18 is_stmt 0 view .LVU107
 373 0016 24BF     		itt	cs
 374 0018 436A     		ldrcs	r3, [r0, #36]
 375 001a 0361     		strcs	r3, [r0, #16]
 376              		.loc 4 166 3 is_stmt 1 view .LVU108
 377              	.LVL20:
 378              	.LBB127:
 379              	.LBI124:
 380              		.loc 5 842 20 view .LVU109
 381              	.LBB126:
 382              		.loc 5 844 3 view .LVU110
 383 001c FFF7FEBF 		b	chThdDequeueNextI
 384              	.LVL21:
 385              		.loc 5 844 3 is_stmt 0 view .LVU111
 386              	.LBE126:
 387              	.LBE127:
 388              		.cfi_endproc
 389              	.LFE337:
 390              		.size	ibqPostFullBufferI, .-ibqPostFullBufferI
 391              		.section	.text.ibqGetFullBufferTimeoutS,"ax",%progbits
 392              		.align	1
 393              		.global	ibqGetFullBufferTimeoutS
 394              		.syntax unified
 395              		.thumb
 396              		.thumb_func
 397              		.fpu fpv4-sp-d16
 398              		.type	ibqGetFullBufferTimeoutS, %function
 399              	ibqGetFullBufferTimeoutS:
ARM GAS  /tmp/ccpB36Aw.s 			page 8


 400              	.LVL22:
 401              	.LFB339:
 402              		.loc 4 223 57 is_stmt 1 view -0
 403              		.cfi_startproc
 404              		@ args = 0, pretend = 0, frame = 0
 405              		@ frame_needed = 0, uses_anonymous_args = 0
 406              		.loc 4 223 57 is_stmt 0 view .LVU113
 407 0000 38B5     		push	{r3, r4, r5, lr}
 408              		.cfi_def_cfa_offset 16
 409              		.cfi_offset 3, -16
 410              		.cfi_offset 4, -12
 411              		.cfi_offset 5, -8
 412              		.cfi_offset 14, -4
 413 0002 0446     		mov	r4, r0
 414 0004 0D46     		mov	r5, r1
 415              		.loc 4 225 23 is_stmt 1 view .LVU114
 416              		.loc 4 227 3 view .LVU115
 417              	.LVL23:
 418              	.L12:
 419              		.loc 4 227 9 view .LVU116
 420              		.loc 4 227 10 is_stmt 0 view .LVU117
 421 0006 E368     		ldr	r3, [r4, #12]
 422              		.loc 4 227 9 view .LVU118
 423 0008 3BB1     		cbz	r3, .L14
 424              	.LVL24:
 425              	.LBB136:
 426              	.LBI136:
 427              		.loc 4 222 9 is_stmt 1 view .LVU119
 428              	.LBB137:
 429              		.loc 4 237 3 view .LVU120
 430              		.loc 4 237 3 view .LVU121
 431              		.loc 4 237 3 view .LVU122
 432              		.loc 4 240 3 view .LVU123
 433              		.loc 4 240 19 is_stmt 0 view .LVU124
 434 000a 6269     		ldr	r2, [r4, #20]
 435              		.loc 4 241 13 view .LVU125
 436 000c 0020     		movs	r0, #0
 437              		.loc 4 240 28 view .LVU126
 438 000e 131D     		adds	r3, r2, #4
 439              		.loc 4 241 25 view .LVU127
 440 0010 1268     		ldr	r2, [r2]
 441              		.loc 4 240 13 view .LVU128
 442 0012 A362     		str	r3, [r4, #40]
 443              		.loc 4 241 3 is_stmt 1 view .LVU129
 444              		.loc 4 241 25 is_stmt 0 view .LVU130
 445 0014 1344     		add	r3, r3, r2
 446              		.loc 4 241 13 view .LVU131
 447 0016 E362     		str	r3, [r4, #44]
 448              		.loc 4 243 3 is_stmt 1 view .LVU132
 449              	.LVL25:
 450              		.loc 4 243 3 is_stmt 0 view .LVU133
 451 0018 07E0     		b	.L11
 452              	.L14:
 453              		.loc 4 243 3 view .LVU134
 454              	.LBE137:
 455              	.LBE136:
 456              	.LBB138:
ARM GAS  /tmp/ccpB36Aw.s 			page 9


 457              		.loc 4 228 5 is_stmt 1 view .LVU135
 458              		.loc 4 228 8 is_stmt 0 view .LVU136
 459 001a 237A     		ldrb	r3, [r4, #8]	@ zero_extendqisi2
 460 001c 33B9     		cbnz	r3, .L15
 461              		.loc 4 231 5 is_stmt 1 view .LVU137
 462              	.LVL26:
 463              	.LBB139:
 464              	.LBI139:
 465              		.loc 5 828 21 view .LVU138
 466              	.LBB140:
 467              		.loc 5 831 3 view .LVU139
 468              		.loc 5 831 10 is_stmt 0 view .LVU140
 469 001e 2946     		mov	r1, r5
 470 0020 2046     		mov	r0, r4
 471 0022 FFF7FEFF 		bl	chThdEnqueueTimeoutS
 472              	.LVL27:
 473              		.loc 5 831 10 view .LVU141
 474              	.LBE140:
 475              	.LBE139:
 476              		.loc 4 232 5 is_stmt 1 view .LVU142
 477              		.loc 4 232 8 is_stmt 0 view .LVU143
 478 0026 0028     		cmp	r0, #0
 479              		.loc 4 232 8 view .LVU144
 480 0028 EDDA     		bge	.L12
 481              	.LVL28:
 482              	.L11:
 483              		.loc 4 232 8 view .LVU145
 484              	.LBE138:
 485              		.loc 4 244 1 view .LVU146
 486 002a 38BD     		pop	{r3, r4, r5, pc}
 487              	.LVL29:
 488              	.L15:
 489              	.LBB141:
 490              		.loc 4 229 14 view .LVU147
 491 002c 6FF00100 		mvn	r0, #1
 492 0030 FBE7     		b	.L11
 493              	.LBE141:
 494              		.cfi_endproc
 495              	.LFE339:
 496              		.size	ibqGetFullBufferTimeoutS, .-ibqGetFullBufferTimeoutS
 497              		.section	.text.ibqGetFullBufferTimeout,"ax",%progbits
 498              		.align	1
 499              		.global	ibqGetFullBufferTimeout
 500              		.syntax unified
 501              		.thumb
 502              		.thumb_func
 503              		.fpu fpv4-sp-d16
 504              		.type	ibqGetFullBufferTimeout, %function
 505              	ibqGetFullBufferTimeout:
 506              	.LVL30:
 507              	.LFB338:
 508              		.loc 4 191 54 is_stmt 1 view -0
 509              		.cfi_startproc
 510              		@ args = 0, pretend = 0, frame = 8
 511              		@ frame_needed = 0, uses_anonymous_args = 0
 512              		.loc 4 192 3 view .LVU149
 513              		.loc 4 194 3 view .LVU150
ARM GAS  /tmp/ccpB36Aw.s 			page 10


 514              	.LBB142:
 515              	.LBI142:
 516              		.loc 5 509 20 view .LVU151
 517              	.LBB143:
 518              		.loc 5 511 3 view .LVU152
 519              	.LBE143:
 520              	.LBE142:
 521              		.loc 4 191 54 is_stmt 0 view .LVU153
 522 0000 07B5     		push	{r0, r1, r2, lr}
 523              		.cfi_def_cfa_offset 16
 524              		.cfi_offset 14, -4
 525              		.loc 4 191 54 view .LVU154
 526 0002 CDE90010 		strd	r1, r0, [sp]
 527              	.LBB145:
 528              	.LBB144:
 529              		.loc 5 511 3 view .LVU155
 530 0006 FFF7FEFF 		bl	chSysLock
 531              	.LVL31:
 532              		.loc 5 511 3 view .LVU156
 533              	.LBE144:
 534              	.LBE145:
 535              		.loc 4 195 3 is_stmt 1 view .LVU157
 536              		.loc 4 195 9 is_stmt 0 view .LVU158
 537 000a DDE90010 		ldrd	r1, r0, [sp]
 538 000e FFF7FEFF 		bl	ibqGetFullBufferTimeoutS
 539              	.LVL32:
 540 0012 0090     		str	r0, [sp]
 541              	.LVL33:
 542              		.loc 4 196 3 is_stmt 1 view .LVU159
 543              	.LBB146:
 544              	.LBI146:
 545              		.loc 5 520 20 view .LVU160
 546              	.LBB147:
 547              		.loc 5 522 3 view .LVU161
 548 0014 FFF7FEFF 		bl	chSysUnlock
 549              	.LVL34:
 550              		.loc 5 522 3 is_stmt 0 view .LVU162
 551              	.LBE147:
 552              	.LBE146:
 553              		.loc 4 198 3 is_stmt 1 view .LVU163
 554              		.loc 4 199 1 is_stmt 0 view .LVU164
 555 0018 0098     		ldr	r0, [sp]
 556 001a 03B0     		add	sp, sp, #12
 557              		.cfi_def_cfa_offset 4
 558              	.LVL35:
 559              		.loc 4 199 1 view .LVU165
 560              		@ sp needed
 561 001c 5DF804FB 		ldr	pc, [sp], #4
 562              		.loc 4 199 1 view .LVU166
 563              		.cfi_endproc
 564              	.LFE338:
 565              		.size	ibqGetFullBufferTimeout, .-ibqGetFullBufferTimeout
 566              		.section	.text.ibqReleaseEmptyBufferS,"ax",%progbits
 567              		.align	1
 568              		.global	ibqReleaseEmptyBufferS
 569              		.syntax unified
 570              		.thumb
ARM GAS  /tmp/ccpB36Aw.s 			page 11


 571              		.thumb_func
 572              		.fpu fpv4-sp-d16
 573              		.type	ibqReleaseEmptyBufferS, %function
 574              	ibqReleaseEmptyBufferS:
 575              	.LVL36:
 576              	.LFB341:
 577              		.loc 4 269 60 is_stmt 1 view -0
 578              		.cfi_startproc
 579              		@ args = 0, pretend = 0, frame = 0
 580              		@ frame_needed = 0, uses_anonymous_args = 0
 581              		@ link register save eliminated.
 582              		.loc 4 271 23 view .LVU168
 583              		.loc 4 272 3 view .LVU169
 584              		.loc 4 272 3 view .LVU170
 585              		.loc 4 272 3 view .LVU171
 586              		.loc 4 275 3 view .LVU172
 587              		.loc 4 275 7 is_stmt 0 view .LVU173
 588 0000 C368     		ldr	r3, [r0, #12]
 589              		.loc 4 276 16 view .LVU174
 590 0002 C269     		ldr	r2, [r0, #28]
 591              		.loc 4 275 17 view .LVU175
 592 0004 013B     		subs	r3, r3, #1
 593 0006 C360     		str	r3, [r0, #12]
 594              		.loc 4 276 3 is_stmt 1 view .LVU176
 595              		.loc 4 276 16 is_stmt 0 view .LVU177
 596 0008 4369     		ldr	r3, [r0, #20]
 597 000a 1344     		add	r3, r3, r2
 598              		.loc 4 277 6 view .LVU178
 599 000c 8269     		ldr	r2, [r0, #24]
 600 000e 9342     		cmp	r3, r2
 601              		.loc 4 276 16 view .LVU179
 602 0010 4361     		str	r3, [r0, #20]
 603              		.loc 4 277 3 is_stmt 1 view .LVU180
 604              		.loc 4 278 5 view .LVU181
 605              		.loc 4 278 18 is_stmt 0 view .LVU182
 606 0012 24BF     		itt	cs
 607 0014 436A     		ldrcs	r3, [r0, #36]
 608 0016 4361     		strcs	r3, [r0, #20]
 609              		.loc 4 282 3 is_stmt 1 view .LVU183
 610              		.loc 4 282 13 is_stmt 0 view .LVU184
 611 0018 0023     		movs	r3, #0
 612 001a 8362     		str	r3, [r0, #40]
 613              		.loc 4 285 3 is_stmt 1 view .LVU185
 614              		.loc 4 285 11 is_stmt 0 view .LVU186
 615 001c 036B     		ldr	r3, [r0, #48]
 616              		.loc 4 285 6 view .LVU187
 617 001e 03B1     		cbz	r3, .L17
 618              		.loc 4 286 5 is_stmt 1 view .LVU188
 619 0020 1847     		bx	r3	@ indirect register sibling call
 620              	.LVL37:
 621              	.L17:
 622              		.loc 4 288 1 is_stmt 0 view .LVU189
 623 0022 7047     		bx	lr
 624              		.cfi_endproc
 625              	.LFE341:
 626              		.size	ibqReleaseEmptyBufferS, .-ibqReleaseEmptyBufferS
 627              		.section	.text.ibqReleaseEmptyBuffer,"ax",%progbits
ARM GAS  /tmp/ccpB36Aw.s 			page 12


 628              		.align	1
 629              		.global	ibqReleaseEmptyBuffer
 630              		.syntax unified
 631              		.thumb
 632              		.thumb_func
 633              		.fpu fpv4-sp-d16
 634              		.type	ibqReleaseEmptyBuffer, %function
 635              	ibqReleaseEmptyBuffer:
 636              	.LVL38:
 637              	.LFB340:
 638              		.loc 4 254 57 is_stmt 1 view -0
 639              		.cfi_startproc
 640              		@ args = 0, pretend = 0, frame = 8
 641              		@ frame_needed = 0, uses_anonymous_args = 0
 642              		.loc 4 256 3 view .LVU191
 643              	.LBB148:
 644              	.LBI148:
 645              		.loc 5 509 20 view .LVU192
 646              	.LBB149:
 647              		.loc 5 511 3 view .LVU193
 648              	.LBE149:
 649              	.LBE148:
 650              		.loc 4 254 57 is_stmt 0 view .LVU194
 651 0000 07B5     		push	{r0, r1, r2, lr}
 652              		.cfi_def_cfa_offset 16
 653              		.cfi_offset 14, -4
 654              		.loc 4 254 57 view .LVU195
 655 0002 0190     		str	r0, [sp, #4]
 656              	.LBB151:
 657              	.LBB150:
 658              		.loc 5 511 3 view .LVU196
 659 0004 FFF7FEFF 		bl	chSysLock
 660              	.LVL39:
 661              		.loc 5 511 3 view .LVU197
 662              	.LBE150:
 663              	.LBE151:
 664              		.loc 4 257 3 is_stmt 1 view .LVU198
 665 0008 0198     		ldr	r0, [sp, #4]
 666 000a FFF7FEFF 		bl	ibqReleaseEmptyBufferS
 667              	.LVL40:
 668              		.loc 4 258 3 view .LVU199
 669              	.LBB152:
 670              	.LBI152:
 671              		.loc 5 520 20 view .LVU200
 672              	.LBB153:
 673              		.loc 5 522 3 view .LVU201
 674              	.LBE153:
 675              	.LBE152:
 676              		.loc 4 259 1 is_stmt 0 view .LVU202
 677 000e 03B0     		add	sp, sp, #12
 678              		.cfi_def_cfa_offset 4
 679              		@ sp needed
 680 0010 5DF804EB 		ldr	lr, [sp], #4
 681              		.cfi_restore 14
 682              		.cfi_def_cfa_offset 0
 683              	.LVL41:
 684              	.LBB155:
ARM GAS  /tmp/ccpB36Aw.s 			page 13


 685              	.LBB154:
 686              		.loc 5 522 3 view .LVU203
 687 0014 FFF7FEBF 		b	chSysUnlock
 688              	.LVL42:
 689              	.LBE154:
 690              	.LBE155:
 691              		.cfi_endproc
 692              	.LFE340:
 693              		.size	ibqReleaseEmptyBuffer, .-ibqReleaseEmptyBuffer
 694              		.section	.text.ibqGetTimeout,"ax",%progbits
 695              		.align	1
 696              		.global	ibqGetTimeout
 697              		.syntax unified
 698              		.thumb
 699              		.thumb_func
 700              		.fpu fpv4-sp-d16
 701              		.type	ibqGetTimeout, %function
 702              	ibqGetTimeout:
 703              	.LVL43:
 704              	.LFB342:
 705              		.loc 4 309 73 is_stmt 1 view -0
 706              		.cfi_startproc
 707              		@ args = 0, pretend = 0, frame = 8
 708              		@ frame_needed = 0, uses_anonymous_args = 0
 709              		.loc 4 310 3 view .LVU205
 710              		.loc 4 312 3 view .LVU206
 711              	.LBB156:
 712              	.LBI156:
 713              		.loc 5 509 20 view .LVU207
 714              	.LBB157:
 715              		.loc 5 511 3 view .LVU208
 716              	.LBE157:
 717              	.LBE156:
 718              		.loc 4 309 73 is_stmt 0 view .LVU209
 719 0000 37B5     		push	{r0, r1, r2, r4, r5, lr}
 720              		.cfi_def_cfa_offset 24
 721              		.cfi_offset 4, -12
 722              		.cfi_offset 5, -8
 723              		.cfi_offset 14, -4
 724              		.loc 4 309 73 view .LVU210
 725 0002 0446     		mov	r4, r0
 726 0004 0191     		str	r1, [sp, #4]
 727              	.LBB159:
 728              	.LBB158:
 729              		.loc 5 511 3 view .LVU211
 730 0006 FFF7FEFF 		bl	chSysLock
 731              	.LVL44:
 732              		.loc 5 511 3 view .LVU212
 733              	.LBE158:
 734              	.LBE159:
 735              		.loc 4 315 3 is_stmt 1 view .LVU213
 736              		.loc 4 315 6 is_stmt 0 view .LVU214
 737 000a 0199     		ldr	r1, [sp, #4]
 738 000c A36A     		ldr	r3, [r4, #40]
 739 000e 4BB9     		cbnz	r3, .L22
 740              		.loc 4 316 5 is_stmt 1 view .LVU215
 741              		.loc 4 316 11 is_stmt 0 view .LVU216
ARM GAS  /tmp/ccpB36Aw.s 			page 14


 742 0010 2046     		mov	r0, r4
 743 0012 FFF7FEFF 		bl	ibqGetFullBufferTimeoutS
 744              	.LVL45:
 745              		.loc 4 317 5 is_stmt 1 view .LVU217
 746              		.loc 4 317 8 is_stmt 0 view .LVU218
 747 0016 0546     		mov	r5, r0
 748 0018 20B1     		cbz	r0, .L22
 749              	.LVL46:
 750              	.L24:
 751              		.loc 4 333 3 is_stmt 1 view .LVU219
 752              	.LBB160:
 753              	.LBI160:
 754              		.loc 5 520 20 view .LVU220
 755              	.LBB161:
 756              		.loc 5 522 3 view .LVU221
 757 001a FFF7FEFF 		bl	chSysUnlock
 758              	.LVL47:
 759              	.LBE161:
 760              	.LBE160:
 761              		.loc 4 334 3 view .LVU222
 762              		.loc 4 335 1 is_stmt 0 view .LVU223
 763 001e 2846     		mov	r0, r5
 764 0020 03B0     		add	sp, sp, #12
 765              		.cfi_remember_state
 766              		.cfi_def_cfa_offset 12
 767              		@ sp needed
 768 0022 30BD     		pop	{r4, r5, pc}
 769              	.LVL48:
 770              	.L22:
 771              		.cfi_restore_state
 772              		.loc 4 324 3 is_stmt 1 view .LVU224
 773              		.loc 4 324 7 is_stmt 0 view .LVU225
 774 0024 A36A     		ldr	r3, [r4, #40]
 775              		.loc 4 329 6 view .LVU226
 776 0026 E26A     		ldr	r2, [r4, #44]
 777              		.loc 4 324 7 view .LVU227
 778 0028 13F8015B 		ldrb	r5, [r3], #1	@ zero_extendqisi2
 779              	.LVL49:
 780              		.loc 4 325 3 is_stmt 1 view .LVU228
 781              		.loc 4 329 6 is_stmt 0 view .LVU229
 782 002c 9342     		cmp	r3, r2
 783              		.loc 4 325 12 view .LVU230
 784 002e A362     		str	r3, [r4, #40]
 785              		.loc 4 329 3 is_stmt 1 view .LVU231
 786              		.loc 4 329 6 is_stmt 0 view .LVU232
 787 0030 F3D3     		bcc	.L24
 788              		.loc 4 330 5 is_stmt 1 view .LVU233
 789 0032 2046     		mov	r0, r4
 790 0034 FFF7FEFF 		bl	ibqReleaseEmptyBufferS
 791              	.LVL50:
 792 0038 EFE7     		b	.L24
 793              		.cfi_endproc
 794              	.LFE342:
 795              		.size	ibqGetTimeout, .-ibqGetTimeout
 796              		.section	.text.ibqReadTimeout,"ax",%progbits
 797              		.align	1
 798              		.global	ibqReadTimeout
ARM GAS  /tmp/ccpB36Aw.s 			page 15


 799              		.syntax unified
 800              		.thumb
 801              		.thumb_func
 802              		.fpu fpv4-sp-d16
 803              		.type	ibqReadTimeout, %function
 804              	ibqReadTimeout:
 805              	.LVL51:
 806              	.LFB343:
 807              		.loc 4 359 56 view -0
 808              		.cfi_startproc
 809              		@ args = 0, pretend = 0, frame = 0
 810              		@ frame_needed = 0, uses_anonymous_args = 0
 811              		.loc 4 360 3 view .LVU235
 812              		.loc 4 362 3 view .LVU236
 813              		.loc 4 362 3 view .LVU237
 814              		.loc 4 362 3 view .LVU238
 815              		.loc 4 364 3 view .LVU239
 816              	.LBB162:
 817              	.LBI162:
 818              		.loc 5 509 20 view .LVU240
 819              	.LBB163:
 820              		.loc 5 511 3 view .LVU241
 821              	.LBE163:
 822              	.LBE162:
 823              		.loc 4 359 56 is_stmt 0 view .LVU242
 824 0000 2DE9F843 		push	{r3, r4, r5, r6, r7, r8, r9, lr}
 825              		.cfi_def_cfa_offset 32
 826              		.cfi_offset 3, -32
 827              		.cfi_offset 4, -28
 828              		.cfi_offset 5, -24
 829              		.cfi_offset 6, -20
 830              		.cfi_offset 7, -16
 831              		.cfi_offset 8, -12
 832              		.cfi_offset 9, -8
 833              		.cfi_offset 14, -4
 834              		.loc 4 360 10 view .LVU243
 835 0004 0026     		movs	r6, #0
 836              		.loc 4 359 56 view .LVU244
 837 0006 0446     		mov	r4, r0
 838 0008 0D46     		mov	r5, r1
 839 000a 9046     		mov	r8, r2
 840 000c 9946     		mov	r9, r3
 841              	.LBB165:
 842              	.LBB164:
 843              		.loc 5 511 3 view .LVU245
 844 000e FFF7FEFF 		bl	chSysLock
 845              	.LVL52:
 846              	.L35:
 847              		.loc 5 511 3 view .LVU246
 848              	.LBE164:
 849              	.LBE165:
 850              		.loc 4 366 3 is_stmt 1 view .LVU247
 851              	.LBB166:
 852              		.loc 4 367 5 view .LVU248
 853              		.loc 4 370 5 view .LVU249
 854              		.loc 4 370 8 is_stmt 0 view .LVU250
 855 0012 A36A     		ldr	r3, [r4, #40]
ARM GAS  /tmp/ccpB36Aw.s 			page 16


 856 0014 4BB9     		cbnz	r3, .L29
 857              	.LBB167:
 858              		.loc 4 371 7 is_stmt 1 view .LVU251
 859              		.loc 4 374 7 view .LVU252
 860              		.loc 4 374 13 is_stmt 0 view .LVU253
 861 0016 4946     		mov	r1, r9
 862 0018 2046     		mov	r0, r4
 863 001a FFF7FEFF 		bl	ibqGetFullBufferTimeoutS
 864              	.LVL53:
 865              		.loc 4 377 7 is_stmt 1 view .LVU254
 866              		.loc 4 377 10 is_stmt 0 view .LVU255
 867 001e 20B1     		cbz	r0, .L29
 868              		.loc 4 378 9 is_stmt 1 view .LVU256
 869              	.LBB168:
 870              	.LBI168:
 871              		.loc 5 520 20 view .LVU257
 872              	.LBB169:
 873              		.loc 5 522 3 view .LVU258
 874 0020 FFF7FEFF 		bl	chSysUnlock
 875              	.LVL54:
 876              		.loc 5 522 3 is_stmt 0 view .LVU259
 877              	.LBE169:
 878              	.LBE168:
 879              		.loc 4 379 9 is_stmt 1 view .LVU260
 880              	.L28:
 881              		.loc 4 379 9 is_stmt 0 view .LVU261
 882              	.LBE167:
 883              	.LBE166:
 884              		.loc 4 417 1 view .LVU262
 885 0024 3046     		mov	r0, r6
 886 0026 BDE8F883 		pop	{r3, r4, r5, r6, r7, r8, r9, pc}
 887              	.LVL55:
 888              	.L29:
 889              	.LBB174:
 890              		.loc 4 384 5 is_stmt 1 view .LVU263
 891              		.loc 4 384 10 is_stmt 0 view .LVU264
 892 002a D4E90A17 		ldrd	r1, r7, [r4, #40]
 893 002e 7A1A     		subs	r2, r7, r1
 894              	.LVL56:
 895              		.loc 4 385 5 is_stmt 1 view .LVU265
 896              		.loc 4 385 19 is_stmt 0 view .LVU266
 897 0030 A8EB0607 		sub	r7, r8, r6
 898 0034 9742     		cmp	r7, r2
 899 0036 28BF     		it	cs
 900 0038 1746     		movcs	r7, r2
 901              	.LVL57:
 902              		.loc 4 391 5 is_stmt 1 view .LVU267
 903              		.loc 4 391 8 is_stmt 0 view .LVU268
 904 003a 402F     		cmp	r7, #64
 905 003c 1BD9     		bls	.L31
 906              		.loc 4 393 7 is_stmt 1 view .LVU269
 907 003e 2B46     		mov	r3, r5
 908 0040 01F14002 		add	r2, r1, #64
 909              	.L32:
 910              		.loc 4 393 7 is_stmt 0 view .LVU270
 911 0044 51F8040B 		ldr	r0, [r1], #4	@ unaligned
 912 0048 9142     		cmp	r1, r2
ARM GAS  /tmp/ccpB36Aw.s 			page 17


 913 004a 43F8040B 		str	r0, [r3], #4	@ unaligned
 914 004e F9D1     		bne	.L32
 915              		.loc 4 394 7 is_stmt 1 view .LVU271
 916              		.loc 4 395 17 is_stmt 0 view .LVU272
 917 0050 A36A     		ldr	r3, [r4, #40]
 918              		.loc 4 394 17 view .LVU273
 919 0052 4035     		adds	r5, r5, #64
 920              	.LVL58:
 921              		.loc 4 395 7 is_stmt 1 view .LVU274
 922              		.loc 4 396 17 is_stmt 0 view .LVU275
 923 0054 4036     		adds	r6, r6, #64
 924              	.LVL59:
 925              		.loc 4 395 17 view .LVU276
 926 0056 4033     		adds	r3, r3, #64
 927 0058 A362     		str	r3, [r4, #40]
 928              		.loc 4 396 7 is_stmt 1 view .LVU277
 929              	.LVL60:
 930              	.L33:
 931              		.loc 4 406 5 view .LVU278
 932              		.loc 4 406 8 is_stmt 0 view .LVU279
 933 005a D4E90A23 		ldrd	r2, r3, [r4, #40]
 934 005e 9A42     		cmp	r2, r3
 935 0060 02D3     		bcc	.L34
 936              		.loc 4 407 7 is_stmt 1 view .LVU280
 937 0062 2046     		mov	r0, r4
 938 0064 FFF7FEFF 		bl	ibqReleaseEmptyBufferS
 939              	.LVL61:
 940              	.L34:
 941              		.loc 4 411 5 view .LVU281
 942              	.LBB170:
 943              	.LBI170:
 944              		.loc 5 520 20 view .LVU282
 945              	.LBB171:
 946              		.loc 5 522 3 view .LVU283
 947 0068 FFF7FEFF 		bl	chSysUnlock
 948              	.LVL62:
 949              	.LBE171:
 950              	.LBE170:
 951              		.loc 4 412 5 view .LVU284
 952              		.loc 4 412 8 is_stmt 0 view .LVU285
 953 006c 4645     		cmp	r6, r8
 954 006e D9D2     		bcs	.L28
 955              		.loc 4 415 5 is_stmt 1 view .LVU286
 956              	.LBB172:
 957              	.LBI172:
 958              		.loc 5 509 20 view .LVU287
 959              	.LBB173:
 960              		.loc 5 511 3 view .LVU288
 961 0070 FFF7FEFF 		bl	chSysLock
 962              	.LVL63:
 963              		.loc 5 512 1 is_stmt 0 view .LVU289
 964 0074 CDE7     		b	.L35
 965              	.L31:
 966              		.loc 5 512 1 view .LVU290
 967              	.LBE173:
 968              	.LBE172:
 969              		.loc 4 399 7 is_stmt 1 view .LVU291
ARM GAS  /tmp/ccpB36Aw.s 			page 18


 970 0076 2846     		mov	r0, r5
 971 0078 3A46     		mov	r2, r7
 972 007a FFF7FEFF 		bl	memcpy
 973              	.LVL64:
 974              		.loc 4 400 7 view .LVU292
 975              		.loc 4 401 17 is_stmt 0 view .LVU293
 976 007e A36A     		ldr	r3, [r4, #40]
 977              		.loc 4 400 17 view .LVU294
 978 0080 3D44     		add	r5, r5, r7
 979              	.LVL65:
 980              		.loc 4 401 7 is_stmt 1 view .LVU295
 981              		.loc 4 402 17 is_stmt 0 view .LVU296
 982 0082 3E44     		add	r6, r6, r7
 983              	.LVL66:
 984              		.loc 4 401 17 view .LVU297
 985 0084 3B44     		add	r3, r3, r7
 986 0086 A362     		str	r3, [r4, #40]
 987              		.loc 4 402 7 is_stmt 1 view .LVU298
 988              	.LVL67:
 989              		.loc 4 402 7 is_stmt 0 view .LVU299
 990 0088 E7E7     		b	.L33
 991              	.LBE174:
 992              		.cfi_endproc
 993              	.LFE343:
 994              		.size	ibqReadTimeout, .-ibqReadTimeout
 995              		.section	.text.obqObjectInit,"ax",%progbits
 996              		.align	1
 997              		.global	obqObjectInit
 998              		.syntax unified
 999              		.thumb
 1000              		.thumb_func
 1001              		.fpu fpv4-sp-d16
 1002              		.type	obqObjectInit, %function
 1003              	obqObjectInit:
 1004              	.LVL68:
 1005              	.LFB344:
 1006              		.loc 4 433 72 is_stmt 1 view -0
 1007              		.cfi_startproc
 1008              		@ args = 12, pretend = 0, frame = 0
 1009              		@ frame_needed = 0, uses_anonymous_args = 0
 1010              		.loc 4 435 3 view .LVU301
 1011              		.loc 4 435 3 view .LVU302
 1012              		.loc 4 435 3 view .LVU303
 1013              		.loc 4 437 3 view .LVU304
 1014              	.LBB175:
 1015              	.LBI175:
 1016              		.loc 5 800 20 view .LVU305
 1017              	.LBE175:
 1018              		.loc 5 802 3 view .LVU306
 1019              	.LBB183:
 1020              	.LBB176:
 1021              	.LBI176:
 1022              		.loc 6 392 20 view .LVU307
 1023              	.LBE176:
 1024              	.LBE183:
 1025              		.loc 6 394 3 view .LVU308
 1026              	.LBB184:
ARM GAS  /tmp/ccpB36Aw.s 			page 19


 1027              	.LBB181:
 1028              	.LBB177:
 1029              	.LBI177:
 1030              		.loc 7 537 20 view .LVU309
 1031              	.LBB178:
 1032              		.loc 7 539 3 view .LVU310
 1033              	.LBE178:
 1034              	.LBE177:
 1035              	.LBE181:
 1036              	.LBE184:
 1037              		.loc 4 433 72 is_stmt 0 view .LVU311
 1038 0000 10B5     		push	{r4, lr}
 1039              		.cfi_def_cfa_offset 8
 1040              		.cfi_offset 4, -8
 1041              		.cfi_offset 14, -4
 1042              		.loc 4 433 72 view .LVU312
 1043 0002 029C     		ldr	r4, [sp, #8]
 1044              		.loc 4 442 33 view .LVU313
 1045 0004 0433     		adds	r3, r3, #4
 1046              	.LVL69:
 1047              		.loc 4 438 19 view .LVU314
 1048 0006 0172     		strb	r1, [r0, #8]
 1049              		.loc 4 442 24 view .LVU315
 1050 0008 04FB0321 		mla	r1, r4, r3, r2
 1051              	.LVL70:
 1052              		.loc 4 439 19 view .LVU316
 1053 000c C460     		str	r4, [r0, #12]
 1054              		.loc 4 443 19 view .LVU317
 1055 000e C0E90613 		strd	r1, r3, [r0, #24]
 1056              		.loc 4 446 19 view .LVU318
 1057 0012 0023     		movs	r3, #0
 1058              	.LVL71:
 1059              		.loc 4 447 19 view .LVU319
 1060 0014 C0E90A33 		strd	r3, r3, [r0, #40]
 1061              		.loc 4 448 19 view .LVU320
 1062 0018 039B     		ldr	r3, [sp, #12]
 1063 001a 0363     		str	r3, [r0, #48]
 1064              		.loc 4 449 19 view .LVU321
 1065 001c 049B     		ldr	r3, [sp, #16]
 1066              	.LBB185:
 1067              	.LBB182:
 1068              	.LBB180:
 1069              	.LBB179:
 1070              		.loc 7 540 13 view .LVU322
 1071 001e C0E90000 		strd	r0, r0, [r0]
 1072              	.LVL72:
 1073              		.loc 7 540 13 view .LVU323
 1074              	.LBE179:
 1075              	.LBE180:
 1076              	.LBE182:
 1077              	.LBE185:
 1078              		.loc 4 438 3 is_stmt 1 view .LVU324
 1079              		.loc 4 439 3 view .LVU325
 1080              		.loc 4 440 3 view .LVU326
 1081              		.loc 4 441 19 is_stmt 0 view .LVU327
 1082 0022 C0E90422 		strd	r2, r2, [r0, #16]
 1083              		.loc 4 442 3 is_stmt 1 view .LVU328
ARM GAS  /tmp/ccpB36Aw.s 			page 20


 1084              		.loc 4 444 3 view .LVU329
 1085              		.loc 4 445 19 is_stmt 0 view .LVU330
 1086 0026 C0E90842 		strd	r4, r2, [r0, #32]
 1087              		.loc 4 446 3 is_stmt 1 view .LVU331
 1088              		.loc 4 448 3 view .LVU332
 1089              		.loc 4 449 3 view .LVU333
 1090              		.loc 4 449 19 is_stmt 0 view .LVU334
 1091 002a 4363     		str	r3, [r0, #52]
 1092              		.loc 4 450 1 view .LVU335
 1093 002c 10BD     		pop	{r4, pc}
 1094              		.loc 4 450 1 view .LVU336
 1095              		.cfi_endproc
 1096              	.LFE344:
 1097              		.size	obqObjectInit, .-obqObjectInit
 1098              		.section	.text.obqResetI,"ax",%progbits
 1099              		.align	1
 1100              		.global	obqResetI
 1101              		.syntax unified
 1102              		.thumb
 1103              		.thumb_func
 1104              		.fpu fpv4-sp-d16
 1105              		.type	obqResetI, %function
 1106              	obqResetI:
 1107              	.LVL73:
 1108              	.LFB345:
 1109              		.loc 4 463 46 is_stmt 1 view -0
 1110              		.cfi_startproc
 1111              		@ args = 0, pretend = 0, frame = 0
 1112              		@ frame_needed = 0, uses_anonymous_args = 0
 1113              		@ link register save eliminated.
 1114              		.loc 4 465 23 view .LVU338
 1115              		.loc 4 467 3 view .LVU339
 1116              		.loc 4 467 21 is_stmt 0 view .LVU340
 1117 0000 026A     		ldr	r2, [r0, #32]
 1118              	.LBB186:
 1119              	.LBB187:
 1120              		.loc 5 857 3 view .LVU341
 1121 0002 6FF00101 		mvn	r1, #1
 1122              	.LBE187:
 1123              	.LBE186:
 1124              		.loc 4 467 19 view .LVU342
 1125 0006 C260     		str	r2, [r0, #12]
 1126              		.loc 4 468 3 is_stmt 1 view .LVU343
 1127              		.loc 4 468 25 is_stmt 0 view .LVU344
 1128 0008 426A     		ldr	r2, [r0, #36]
 1129              		.loc 4 469 19 view .LVU345
 1130 000a C0E90422 		strd	r2, r2, [r0, #16]
 1131              		.loc 4 470 3 is_stmt 1 view .LVU346
 1132              		.loc 4 470 19 is_stmt 0 view .LVU347
 1133 000e 0022     		movs	r2, #0
 1134              		.loc 4 471 19 view .LVU348
 1135 0010 C0E90A22 		strd	r2, r2, [r0, #40]
 1136              		.loc 4 472 3 is_stmt 1 view .LVU349
 1137              	.LVL74:
 1138              	.LBB189:
 1139              	.LBI186:
 1140              		.loc 5 855 20 view .LVU350
ARM GAS  /tmp/ccpB36Aw.s 			page 21


 1141              	.LBB188:
 1142              		.loc 5 857 3 view .LVU351
 1143 0014 FFF7FEBF 		b	chThdDequeueAllI
 1144              	.LVL75:
 1145              		.loc 5 857 3 is_stmt 0 view .LVU352
 1146              	.LBE188:
 1147              	.LBE189:
 1148              		.cfi_endproc
 1149              	.LFE345:
 1150              		.size	obqResetI, .-obqResetI
 1151              		.section	.text.obqGetFullBufferI,"ax",%progbits
 1152              		.align	1
 1153              		.global	obqGetFullBufferI
 1154              		.syntax unified
 1155              		.thumb
 1156              		.thumb_func
 1157              		.fpu fpv4-sp-d16
 1158              		.type	obqGetFullBufferI, %function
 1159              	obqGetFullBufferI:
 1160              	.LVL76:
 1161              	.LFB346:
 1162              		.loc 4 487 43 is_stmt 1 view -0
 1163              		.cfi_startproc
 1164              		@ args = 0, pretend = 0, frame = 0
 1165              		@ frame_needed = 0, uses_anonymous_args = 0
 1166              		@ link register save eliminated.
 1167              		.loc 4 489 23 view .LVU354
 1168              		.loc 4 491 3 view .LVU355
 1169              		.loc 4 491 7 is_stmt 0 view .LVU356
 1170 0000 D0E90423 		ldrd	r2, r3, [r0, #16]
 1171 0004 9A42     		cmp	r2, r3
 1172 0006 01D1     		bne	.L43
 1173              		.loc 4 491 7 discriminator 1 view .LVU357
 1174 0008 C268     		ldr	r2, [r0, #12]
 1175 000a 22B9     		cbnz	r2, .L45
 1176              	.L43:
 1177              		.loc 4 496 3 is_stmt 1 view .LVU358
 1178              		.loc 4 496 12 is_stmt 0 view .LVU359
 1179 000c 1846     		mov	r0, r3
 1180              	.LVL77:
 1181              		.loc 4 496 12 view .LVU360
 1182 000e 50F8043B 		ldr	r3, [r0], #4
 1183              		.loc 4 496 10 view .LVU361
 1184 0012 0B60     		str	r3, [r1]
 1185              		.loc 4 498 3 is_stmt 1 view .LVU362
 1186              		.loc 4 498 23 is_stmt 0 view .LVU363
 1187 0014 7047     		bx	lr
 1188              	.LVL78:
 1189              	.L45:
 1190              		.loc 4 492 12 view .LVU364
 1191 0016 0020     		movs	r0, #0
 1192              	.LVL79:
 1193              		.loc 4 499 1 view .LVU365
 1194 0018 7047     		bx	lr
 1195              		.cfi_endproc
 1196              	.LFE346:
 1197              		.size	obqGetFullBufferI, .-obqGetFullBufferI
ARM GAS  /tmp/ccpB36Aw.s 			page 22


 1198              		.section	.text.obqReleaseEmptyBufferI,"ax",%progbits
 1199              		.align	1
 1200              		.global	obqReleaseEmptyBufferI
 1201              		.syntax unified
 1202              		.thumb
 1203              		.thumb_func
 1204              		.fpu fpv4-sp-d16
 1205              		.type	obqReleaseEmptyBufferI, %function
 1206              	obqReleaseEmptyBufferI:
 1207              	.LVL80:
 1208              	.LFB347:
 1209              		.loc 4 508 59 is_stmt 1 view -0
 1210              		.cfi_startproc
 1211              		@ args = 0, pretend = 0, frame = 0
 1212              		@ frame_needed = 0, uses_anonymous_args = 0
 1213              		@ link register save eliminated.
 1214              		.loc 4 510 23 view .LVU367
 1215              		.loc 4 511 3 view .LVU368
 1216              		.loc 4 511 3 view .LVU369
 1217              		.loc 4 511 3 view .LVU370
 1218              		.loc 4 514 3 view .LVU371
 1219              		.loc 4 514 7 is_stmt 0 view .LVU372
 1220 0000 C368     		ldr	r3, [r0, #12]
 1221              	.LBB190:
 1222              	.LBB191:
 1223              		.loc 5 844 3 view .LVU373
 1224 0002 0021     		movs	r1, #0
 1225              	.LBE191:
 1226              	.LBE190:
 1227              		.loc 4 515 16 view .LVU374
 1228 0004 C269     		ldr	r2, [r0, #28]
 1229              		.loc 4 514 17 view .LVU375
 1230 0006 0133     		adds	r3, r3, #1
 1231 0008 C360     		str	r3, [r0, #12]
 1232              		.loc 4 515 3 is_stmt 1 view .LVU376
 1233              		.loc 4 515 16 is_stmt 0 view .LVU377
 1234 000a 4369     		ldr	r3, [r0, #20]
 1235 000c 1344     		add	r3, r3, r2
 1236              		.loc 4 516 6 view .LVU378
 1237 000e 8269     		ldr	r2, [r0, #24]
 1238 0010 9342     		cmp	r3, r2
 1239              		.loc 4 515 16 view .LVU379
 1240 0012 4361     		str	r3, [r0, #20]
 1241              		.loc 4 516 3 is_stmt 1 view .LVU380
 1242              		.loc 4 517 5 view .LVU381
 1243              		.loc 4 517 18 is_stmt 0 view .LVU382
 1244 0014 24BF     		itt	cs
 1245 0016 436A     		ldrcs	r3, [r0, #36]
 1246 0018 4361     		strcs	r3, [r0, #20]
 1247              		.loc 4 521 3 is_stmt 1 view .LVU383
 1248              	.LVL81:
 1249              	.LBB193:
 1250              	.LBI190:
 1251              		.loc 5 842 20 view .LVU384
 1252              	.LBB192:
 1253              		.loc 5 844 3 view .LVU385
 1254 001a FFF7FEBF 		b	chThdDequeueNextI
ARM GAS  /tmp/ccpB36Aw.s 			page 23


 1255              	.LVL82:
 1256              		.loc 5 844 3 is_stmt 0 view .LVU386
 1257              	.LBE192:
 1258              	.LBE193:
 1259              		.cfi_endproc
 1260              	.LFE347:
 1261              		.size	obqReleaseEmptyBufferI, .-obqReleaseEmptyBufferI
 1262              		.section	.text.obqGetEmptyBufferTimeoutS,"ax",%progbits
 1263              		.align	1
 1264              		.global	obqGetEmptyBufferTimeoutS
 1265              		.syntax unified
 1266              		.thumb
 1267              		.thumb_func
 1268              		.fpu fpv4-sp-d16
 1269              		.type	obqGetEmptyBufferTimeoutS, %function
 1270              	obqGetEmptyBufferTimeoutS:
 1271              	.LVL83:
 1272              	.LFB349:
 1273              		.loc 4 578 56 is_stmt 1 view -0
 1274              		.cfi_startproc
 1275              		@ args = 0, pretend = 0, frame = 0
 1276              		@ frame_needed = 0, uses_anonymous_args = 0
 1277              		.loc 4 578 56 is_stmt 0 view .LVU388
 1278 0000 38B5     		push	{r3, r4, r5, lr}
 1279              		.cfi_def_cfa_offset 16
 1280              		.cfi_offset 3, -16
 1281              		.cfi_offset 4, -12
 1282              		.cfi_offset 5, -8
 1283              		.cfi_offset 14, -4
 1284 0002 0446     		mov	r4, r0
 1285 0004 0D46     		mov	r5, r1
 1286              		.loc 4 580 23 is_stmt 1 view .LVU389
 1287              		.loc 4 582 3 view .LVU390
 1288              	.LVL84:
 1289              	.L49:
 1290              		.loc 4 582 9 view .LVU391
 1291              		.loc 4 582 10 is_stmt 0 view .LVU392
 1292 0006 E368     		ldr	r3, [r4, #12]
 1293              		.loc 4 582 9 view .LVU393
 1294 0008 3BB1     		cbz	r3, .L51
 1295              	.LVL85:
 1296              	.LBB202:
 1297              	.LBI202:
 1298              		.loc 4 577 7 is_stmt 1 view .LVU394
 1299              	.LBB203:
 1300              		.loc 4 592 3 view .LVU395
 1301              		.loc 4 592 3 view .LVU396
 1302              		.loc 4 592 3 view .LVU397
 1303              		.loc 4 595 3 view .LVU398
 1304              		.loc 4 595 19 is_stmt 0 view .LVU399
 1305 000a 2369     		ldr	r3, [r4, #16]
 1306              		.loc 4 596 13 view .LVU400
 1307 000c 0020     		movs	r0, #0
 1308              		.loc 4 595 28 view .LVU401
 1309 000e 1A1D     		adds	r2, r3, #4
 1310              		.loc 4 595 13 view .LVU402
 1311 0010 A262     		str	r2, [r4, #40]
ARM GAS  /tmp/ccpB36Aw.s 			page 24


 1312              		.loc 4 596 3 is_stmt 1 view .LVU403
 1313              		.loc 4 596 28 is_stmt 0 view .LVU404
 1314 0012 E269     		ldr	r2, [r4, #28]
 1315 0014 1344     		add	r3, r3, r2
 1316              		.loc 4 596 13 view .LVU405
 1317 0016 E362     		str	r3, [r4, #44]
 1318              		.loc 4 598 3 is_stmt 1 view .LVU406
 1319              	.LVL86:
 1320              		.loc 4 598 3 is_stmt 0 view .LVU407
 1321 0018 07E0     		b	.L48
 1322              	.L51:
 1323              		.loc 4 598 3 view .LVU408
 1324              	.LBE203:
 1325              	.LBE202:
 1326              	.LBB204:
 1327              		.loc 4 583 5 is_stmt 1 view .LVU409
 1328              		.loc 4 583 8 is_stmt 0 view .LVU410
 1329 001a 237A     		ldrb	r3, [r4, #8]	@ zero_extendqisi2
 1330 001c 33B9     		cbnz	r3, .L52
 1331              		.loc 4 586 5 is_stmt 1 view .LVU411
 1332              	.LVL87:
 1333              	.LBB205:
 1334              	.LBI205:
 1335              		.loc 5 828 21 view .LVU412
 1336              	.LBB206:
 1337              		.loc 5 831 3 view .LVU413
 1338              		.loc 5 831 10 is_stmt 0 view .LVU414
 1339 001e 2946     		mov	r1, r5
 1340 0020 2046     		mov	r0, r4
 1341 0022 FFF7FEFF 		bl	chThdEnqueueTimeoutS
 1342              	.LVL88:
 1343              		.loc 5 831 10 view .LVU415
 1344              	.LBE206:
 1345              	.LBE205:
 1346              		.loc 4 587 5 is_stmt 1 view .LVU416
 1347              		.loc 4 587 8 is_stmt 0 view .LVU417
 1348 0026 0028     		cmp	r0, #0
 1349              		.loc 4 587 8 view .LVU418
 1350 0028 EDDA     		bge	.L49
 1351              	.LVL89:
 1352              	.L48:
 1353              		.loc 4 587 8 view .LVU419
 1354              	.LBE204:
 1355              		.loc 4 599 1 view .LVU420
 1356 002a 38BD     		pop	{r3, r4, r5, pc}
 1357              	.LVL90:
 1358              	.L52:
 1359              	.LBB207:
 1360              		.loc 4 584 14 view .LVU421
 1361 002c 6FF00100 		mvn	r0, #1
 1362 0030 FBE7     		b	.L48
 1363              	.LBE207:
 1364              		.cfi_endproc
 1365              	.LFE349:
 1366              		.size	obqGetEmptyBufferTimeoutS, .-obqGetEmptyBufferTimeoutS
 1367              		.section	.text.obqGetEmptyBufferTimeout,"ax",%progbits
 1368              		.align	1
ARM GAS  /tmp/ccpB36Aw.s 			page 25


 1369              		.global	obqGetEmptyBufferTimeout
 1370              		.syntax unified
 1371              		.thumb
 1372              		.thumb_func
 1373              		.fpu fpv4-sp-d16
 1374              		.type	obqGetEmptyBufferTimeout, %function
 1375              	obqGetEmptyBufferTimeout:
 1376              	.LVL91:
 1377              	.LFB348:
 1378              		.loc 4 546 55 is_stmt 1 view -0
 1379              		.cfi_startproc
 1380              		@ args = 0, pretend = 0, frame = 8
 1381              		@ frame_needed = 0, uses_anonymous_args = 0
 1382              		.loc 4 547 3 view .LVU423
 1383              		.loc 4 549 3 view .LVU424
 1384              	.LBB208:
 1385              	.LBI208:
 1386              		.loc 5 509 20 view .LVU425
 1387              	.LBB209:
 1388              		.loc 5 511 3 view .LVU426
 1389              	.LBE209:
 1390              	.LBE208:
 1391              		.loc 4 546 55 is_stmt 0 view .LVU427
 1392 0000 07B5     		push	{r0, r1, r2, lr}
 1393              		.cfi_def_cfa_offset 16
 1394              		.cfi_offset 14, -4
 1395              		.loc 4 546 55 view .LVU428
 1396 0002 CDE90010 		strd	r1, r0, [sp]
 1397              	.LBB211:
 1398              	.LBB210:
 1399              		.loc 5 511 3 view .LVU429
 1400 0006 FFF7FEFF 		bl	chSysLock
 1401              	.LVL92:
 1402              		.loc 5 511 3 view .LVU430
 1403              	.LBE210:
 1404              	.LBE211:
 1405              		.loc 4 550 3 is_stmt 1 view .LVU431
 1406              		.loc 4 550 9 is_stmt 0 view .LVU432
 1407 000a DDE90010 		ldrd	r1, r0, [sp]
 1408 000e FFF7FEFF 		bl	obqGetEmptyBufferTimeoutS
 1409              	.LVL93:
 1410 0012 0090     		str	r0, [sp]
 1411              	.LVL94:
 1412              		.loc 4 551 3 is_stmt 1 view .LVU433
 1413              	.LBB212:
 1414              	.LBI212:
 1415              		.loc 5 520 20 view .LVU434
 1416              	.LBB213:
 1417              		.loc 5 522 3 view .LVU435
 1418 0014 FFF7FEFF 		bl	chSysUnlock
 1419              	.LVL95:
 1420              		.loc 5 522 3 is_stmt 0 view .LVU436
 1421              	.LBE213:
 1422              	.LBE212:
 1423              		.loc 4 553 3 is_stmt 1 view .LVU437
 1424              		.loc 4 554 1 is_stmt 0 view .LVU438
 1425 0018 0098     		ldr	r0, [sp]
ARM GAS  /tmp/ccpB36Aw.s 			page 26


 1426 001a 03B0     		add	sp, sp, #12
 1427              		.cfi_def_cfa_offset 4
 1428              	.LVL96:
 1429              		.loc 4 554 1 view .LVU439
 1430              		@ sp needed
 1431 001c 5DF804FB 		ldr	pc, [sp], #4
 1432              		.loc 4 554 1 view .LVU440
 1433              		.cfi_endproc
 1434              	.LFE348:
 1435              		.size	obqGetEmptyBufferTimeout, .-obqGetEmptyBufferTimeout
 1436              		.section	.text.obqPostFullBufferS,"ax",%progbits
 1437              		.align	1
 1438              		.global	obqPostFullBufferS
 1439              		.syntax unified
 1440              		.thumb
 1441              		.thumb_func
 1442              		.fpu fpv4-sp-d16
 1443              		.type	obqPostFullBufferS, %function
 1444              	obqPostFullBufferS:
 1445              	.LVL97:
 1446              	.LFB351:
 1447              		.loc 4 626 68 is_stmt 1 view -0
 1448              		.cfi_startproc
 1449              		@ args = 0, pretend = 0, frame = 0
 1450              		@ frame_needed = 0, uses_anonymous_args = 0
 1451              		@ link register save eliminated.
 1452              		.loc 4 628 23 view .LVU442
 1453              		.loc 4 629 3 view .LVU443
 1454              		.loc 4 629 3 view .LVU444
 1455              		.loc 4 629 3 view .LVU445
 1456              		.loc 4 630 3 view .LVU446
 1457              		.loc 4 630 3 view .LVU447
 1458              		.loc 4 630 3 view .LVU448
 1459              		.loc 4 633 3 view .LVU449
 1460              		.loc 4 633 19 is_stmt 0 view .LVU450
 1461 0000 0369     		ldr	r3, [r0, #16]
 1462              		.loc 4 633 29 view .LVU451
 1463 0002 1960     		str	r1, [r3]
 1464              		.loc 4 636 3 is_stmt 1 view .LVU452
 1465              		.loc 4 636 7 is_stmt 0 view .LVU453
 1466 0004 C268     		ldr	r2, [r0, #12]
 1467              		.loc 4 636 17 view .LVU454
 1468 0006 013A     		subs	r2, r2, #1
 1469 0008 C260     		str	r2, [r0, #12]
 1470              		.loc 4 637 3 is_stmt 1 view .LVU455
 1471              		.loc 4 637 16 is_stmt 0 view .LVU456
 1472 000a C269     		ldr	r2, [r0, #28]
 1473 000c 1344     		add	r3, r3, r2
 1474              		.loc 4 638 6 view .LVU457
 1475 000e 8269     		ldr	r2, [r0, #24]
 1476 0010 9342     		cmp	r3, r2
 1477              		.loc 4 637 16 view .LVU458
 1478 0012 0361     		str	r3, [r0, #16]
 1479              		.loc 4 638 3 is_stmt 1 view .LVU459
 1480              		.loc 4 639 5 view .LVU460
 1481              		.loc 4 639 18 is_stmt 0 view .LVU461
 1482 0014 24BF     		itt	cs
ARM GAS  /tmp/ccpB36Aw.s 			page 27


 1483 0016 436A     		ldrcs	r3, [r0, #36]
 1484 0018 0361     		strcs	r3, [r0, #16]
 1485              		.loc 4 643 3 is_stmt 1 view .LVU462
 1486              		.loc 4 643 13 is_stmt 0 view .LVU463
 1487 001a 0023     		movs	r3, #0
 1488 001c 8362     		str	r3, [r0, #40]
 1489              		.loc 4 646 3 is_stmt 1 view .LVU464
 1490              		.loc 4 646 11 is_stmt 0 view .LVU465
 1491 001e 036B     		ldr	r3, [r0, #48]
 1492              		.loc 4 646 6 view .LVU466
 1493 0020 03B1     		cbz	r3, .L54
 1494              		.loc 4 647 5 is_stmt 1 view .LVU467
 1495 0022 1847     		bx	r3	@ indirect register sibling call
 1496              	.LVL98:
 1497              	.L54:
 1498              		.loc 4 649 1 is_stmt 0 view .LVU468
 1499 0024 7047     		bx	lr
 1500              		.cfi_endproc
 1501              	.LFE351:
 1502              		.size	obqPostFullBufferS, .-obqPostFullBufferS
 1503              		.section	.text.obqPostFullBuffer,"ax",%progbits
 1504              		.align	1
 1505              		.global	obqPostFullBuffer
 1506              		.syntax unified
 1507              		.thumb
 1508              		.thumb_func
 1509              		.fpu fpv4-sp-d16
 1510              		.type	obqPostFullBuffer, %function
 1511              	obqPostFullBuffer:
 1512              	.LVL99:
 1513              	.LFB350:
 1514              		.loc 4 610 67 is_stmt 1 view -0
 1515              		.cfi_startproc
 1516              		@ args = 0, pretend = 0, frame = 8
 1517              		@ frame_needed = 0, uses_anonymous_args = 0
 1518              		.loc 4 612 3 view .LVU470
 1519              	.LBB214:
 1520              	.LBI214:
 1521              		.loc 5 509 20 view .LVU471
 1522              	.LBB215:
 1523              		.loc 5 511 3 view .LVU472
 1524              	.LBE215:
 1525              	.LBE214:
 1526              		.loc 4 610 67 is_stmt 0 view .LVU473
 1527 0000 07B5     		push	{r0, r1, r2, lr}
 1528              		.cfi_def_cfa_offset 16
 1529              		.cfi_offset 14, -4
 1530              		.loc 4 610 67 view .LVU474
 1531 0002 CDE90010 		strd	r1, r0, [sp]
 1532              	.LBB217:
 1533              	.LBB216:
 1534              		.loc 5 511 3 view .LVU475
 1535 0006 FFF7FEFF 		bl	chSysLock
 1536              	.LVL100:
 1537              		.loc 5 511 3 view .LVU476
 1538              	.LBE216:
 1539              	.LBE217:
ARM GAS  /tmp/ccpB36Aw.s 			page 28


 1540              		.loc 4 613 3 is_stmt 1 view .LVU477
 1541 000a DDE90010 		ldrd	r1, r0, [sp]
 1542 000e FFF7FEFF 		bl	obqPostFullBufferS
 1543              	.LVL101:
 1544              		.loc 4 614 3 view .LVU478
 1545              	.LBB218:
 1546              	.LBI218:
 1547              		.loc 5 520 20 view .LVU479
 1548              	.LBB219:
 1549              		.loc 5 522 3 view .LVU480
 1550              	.LBE219:
 1551              	.LBE218:
 1552              		.loc 4 615 1 is_stmt 0 view .LVU481
 1553 0012 03B0     		add	sp, sp, #12
 1554              		.cfi_def_cfa_offset 4
 1555              	.LVL102:
 1556              		.loc 4 615 1 view .LVU482
 1557              		@ sp needed
 1558 0014 5DF804EB 		ldr	lr, [sp], #4
 1559              		.cfi_restore 14
 1560              		.cfi_def_cfa_offset 0
 1561              	.LVL103:
 1562              	.LBB221:
 1563              	.LBB220:
 1564              		.loc 5 522 3 view .LVU483
 1565 0018 FFF7FEBF 		b	chSysUnlock
 1566              	.LVL104:
 1567              	.LBE220:
 1568              	.LBE221:
 1569              		.cfi_endproc
 1570              	.LFE350:
 1571              		.size	obqPostFullBuffer, .-obqPostFullBuffer
 1572              		.section	.text.obqPutTimeout,"ax",%progbits
 1573              		.align	1
 1574              		.global	obqPutTimeout
 1575              		.syntax unified
 1576              		.thumb
 1577              		.thumb_func
 1578              		.fpu fpv4-sp-d16
 1579              		.type	obqPutTimeout, %function
 1580              	obqPutTimeout:
 1581              	.LVL105:
 1582              	.LFB352:
 1583              		.loc 4 672 44 is_stmt 1 view -0
 1584              		.cfi_startproc
 1585              		@ args = 0, pretend = 0, frame = 8
 1586              		@ frame_needed = 0, uses_anonymous_args = 0
 1587              		.loc 4 673 3 view .LVU485
 1588              		.loc 4 675 3 view .LVU486
 1589              	.LBB222:
 1590              	.LBI222:
 1591              		.loc 5 509 20 view .LVU487
 1592              	.LBB223:
 1593              		.loc 5 511 3 view .LVU488
 1594              	.LBE223:
 1595              	.LBE222:
 1596              		.loc 4 672 44 is_stmt 0 view .LVU489
ARM GAS  /tmp/ccpB36Aw.s 			page 29


 1597 0000 73B5     		push	{r0, r1, r4, r5, r6, lr}
 1598              		.cfi_def_cfa_offset 24
 1599              		.cfi_offset 4, -16
 1600              		.cfi_offset 5, -12
 1601              		.cfi_offset 6, -8
 1602              		.cfi_offset 14, -4
 1603              		.loc 4 672 44 view .LVU490
 1604 0002 0446     		mov	r4, r0
 1605 0004 0E46     		mov	r6, r1
 1606 0006 0192     		str	r2, [sp, #4]
 1607              	.LBB225:
 1608              	.LBB224:
 1609              		.loc 5 511 3 view .LVU491
 1610 0008 FFF7FEFF 		bl	chSysLock
 1611              	.LVL106:
 1612              		.loc 5 511 3 view .LVU492
 1613              	.LBE224:
 1614              	.LBE225:
 1615              		.loc 4 678 3 is_stmt 1 view .LVU493
 1616              		.loc 4 678 6 is_stmt 0 view .LVU494
 1617 000c A36A     		ldr	r3, [r4, #40]
 1618 000e 0199     		ldr	r1, [sp, #4]
 1619 0010 4BB9     		cbnz	r3, .L59
 1620              		.loc 4 679 5 is_stmt 1 view .LVU495
 1621              		.loc 4 679 11 is_stmt 0 view .LVU496
 1622 0012 2046     		mov	r0, r4
 1623 0014 FFF7FEFF 		bl	obqGetEmptyBufferTimeoutS
 1624              	.LVL107:
 1625              		.loc 4 680 5 is_stmt 1 view .LVU497
 1626              		.loc 4 680 8 is_stmt 0 view .LVU498
 1627 0018 0546     		mov	r5, r0
 1628 001a 20B1     		cbz	r0, .L59
 1629              		.loc 4 681 7 is_stmt 1 view .LVU499
 1630              	.LBB226:
 1631              	.LBI226:
 1632              		.loc 5 520 20 view .LVU500
 1633              	.LBB227:
 1634              		.loc 5 522 3 view .LVU501
 1635 001c FFF7FEFF 		bl	chSysUnlock
 1636              	.LVL108:
 1637              		.loc 5 522 3 is_stmt 0 view .LVU502
 1638              	.LBE227:
 1639              	.LBE226:
 1640              		.loc 4 682 7 is_stmt 1 view .LVU503
 1641              	.L58:
 1642              		.loc 4 698 1 is_stmt 0 view .LVU504
 1643 0020 2846     		mov	r0, r5
 1644 0022 02B0     		add	sp, sp, #8
 1645              		.cfi_remember_state
 1646              		.cfi_def_cfa_offset 16
 1647              		@ sp needed
 1648 0024 70BD     		pop	{r4, r5, r6, pc}
 1649              	.LVL109:
 1650              	.L59:
 1651              		.cfi_restore_state
 1652              		.loc 4 687 3 is_stmt 1 view .LVU505
 1653              		.loc 4 687 8 is_stmt 0 view .LVU506
ARM GAS  /tmp/ccpB36Aw.s 			page 30


 1654 0026 A36A     		ldr	r3, [r4, #40]
 1655              		.loc 4 687 14 view .LVU507
 1656 0028 1E70     		strb	r6, [r3]
 1657              		.loc 4 688 3 is_stmt 1 view .LVU508
 1658              		.loc 4 688 12 is_stmt 0 view .LVU509
 1659 002a A36A     		ldr	r3, [r4, #40]
 1660              		.loc 4 692 6 view .LVU510
 1661 002c E26A     		ldr	r2, [r4, #44]
 1662              		.loc 4 688 12 view .LVU511
 1663 002e 0133     		adds	r3, r3, #1
 1664              		.loc 4 692 6 view .LVU512
 1665 0030 9342     		cmp	r3, r2
 1666              		.loc 4 688 12 view .LVU513
 1667 0032 A362     		str	r3, [r4, #40]
 1668              		.loc 4 692 3 is_stmt 1 view .LVU514
 1669              		.loc 4 692 6 is_stmt 0 view .LVU515
 1670 0034 04D3     		bcc	.L61
 1671              		.loc 4 693 5 is_stmt 1 view .LVU516
 1672 0036 E169     		ldr	r1, [r4, #28]
 1673 0038 2046     		mov	r0, r4
 1674 003a 0439     		subs	r1, r1, #4
 1675 003c FFF7FEFF 		bl	obqPostFullBufferS
 1676              	.LVL110:
 1677              	.L61:
 1678              		.loc 4 696 3 view .LVU517
 1679              	.LBB228:
 1680              	.LBI228:
 1681              		.loc 5 520 20 view .LVU518
 1682              	.LBB229:
 1683              		.loc 5 522 3 view .LVU519
 1684              	.LBE229:
 1685              	.LBE228:
 1686              		.loc 4 697 10 is_stmt 0 view .LVU520
 1687 0040 0025     		movs	r5, #0
 1688              	.LBB231:
 1689              	.LBB230:
 1690              		.loc 5 522 3 view .LVU521
 1691 0042 FFF7FEFF 		bl	chSysUnlock
 1692              	.LVL111:
 1693              	.LBE230:
 1694              	.LBE231:
 1695              		.loc 4 697 3 is_stmt 1 view .LVU522
 1696              		.loc 4 697 10 is_stmt 0 view .LVU523
 1697 0046 EBE7     		b	.L58
 1698              		.cfi_endproc
 1699              	.LFE352:
 1700              		.size	obqPutTimeout, .-obqPutTimeout
 1701              		.section	.text.obqWriteTimeout,"ax",%progbits
 1702              		.align	1
 1703              		.global	obqWriteTimeout
 1704              		.syntax unified
 1705              		.thumb
 1706              		.thumb_func
 1707              		.fpu fpv4-sp-d16
 1708              		.type	obqWriteTimeout, %function
 1709              	obqWriteTimeout:
 1710              	.LVL112:
ARM GAS  /tmp/ccpB36Aw.s 			page 31


 1711              	.LFB353:
 1712              		.loc 4 722 57 is_stmt 1 view -0
 1713              		.cfi_startproc
 1714              		@ args = 0, pretend = 0, frame = 0
 1715              		@ frame_needed = 0, uses_anonymous_args = 0
 1716              		.loc 4 722 57 is_stmt 0 view .LVU525
 1717 0000 2DE9F843 		push	{r3, r4, r5, r6, r7, r8, r9, lr}
 1718              		.cfi_def_cfa_offset 32
 1719              		.cfi_offset 3, -32
 1720              		.cfi_offset 4, -28
 1721              		.cfi_offset 5, -24
 1722              		.cfi_offset 6, -20
 1723              		.cfi_offset 7, -16
 1724              		.cfi_offset 8, -12
 1725              		.cfi_offset 9, -8
 1726              		.cfi_offset 14, -4
 1727              		.loc 4 723 10 view .LVU526
 1728 0004 0026     		movs	r6, #0
 1729              		.loc 4 722 57 view .LVU527
 1730 0006 0446     		mov	r4, r0
 1731              		.loc 4 723 3 is_stmt 1 view .LVU528
 1732              	.LVL113:
 1733              		.loc 4 725 3 view .LVU529
 1734              		.loc 4 725 3 view .LVU530
 1735              		.loc 4 725 3 view .LVU531
 1736              		.loc 4 727 3 view .LVU532
 1737              	.LBB232:
 1738              	.LBI232:
 1739              		.loc 5 509 20 view .LVU533
 1740              	.LBB233:
 1741              		.loc 5 511 3 view .LVU534
 1742              	.LBE233:
 1743              	.LBE232:
 1744              		.loc 4 722 57 is_stmt 0 view .LVU535
 1745 0008 0D46     		mov	r5, r1
 1746 000a 9046     		mov	r8, r2
 1747 000c 9946     		mov	r9, r3
 1748              	.LBB235:
 1749              	.LBB234:
 1750              		.loc 5 511 3 view .LVU536
 1751 000e FFF7FEFF 		bl	chSysLock
 1752              	.LVL114:
 1753              	.L72:
 1754              		.loc 5 511 3 view .LVU537
 1755              	.LBE234:
 1756              	.LBE235:
 1757              		.loc 4 729 3 is_stmt 1 view .LVU538
 1758              	.LBB236:
 1759              		.loc 4 730 5 view .LVU539
 1760              		.loc 4 733 5 view .LVU540
 1761              		.loc 4 733 8 is_stmt 0 view .LVU541
 1762 0012 A36A     		ldr	r3, [r4, #40]
 1763 0014 4BB9     		cbnz	r3, .L66
 1764              	.LBB237:
 1765              		.loc 4 734 7 is_stmt 1 view .LVU542
 1766              		.loc 4 737 7 view .LVU543
 1767              		.loc 4 737 13 is_stmt 0 view .LVU544
ARM GAS  /tmp/ccpB36Aw.s 			page 32


 1768 0016 4946     		mov	r1, r9
 1769 0018 2046     		mov	r0, r4
 1770 001a FFF7FEFF 		bl	obqGetEmptyBufferTimeoutS
 1771              	.LVL115:
 1772              		.loc 4 740 7 is_stmt 1 view .LVU545
 1773              		.loc 4 740 10 is_stmt 0 view .LVU546
 1774 001e 20B1     		cbz	r0, .L66
 1775              		.loc 4 741 9 is_stmt 1 view .LVU547
 1776              	.LBB238:
 1777              	.LBI238:
 1778              		.loc 5 520 20 view .LVU548
 1779              	.LBB239:
 1780              		.loc 5 522 3 view .LVU549
 1781 0020 FFF7FEFF 		bl	chSysUnlock
 1782              	.LVL116:
 1783              		.loc 5 522 3 is_stmt 0 view .LVU550
 1784              	.LBE239:
 1785              	.LBE238:
 1786              		.loc 4 742 9 is_stmt 1 view .LVU551
 1787              	.L65:
 1788              		.loc 4 742 9 is_stmt 0 view .LVU552
 1789              	.LBE237:
 1790              	.LBE236:
 1791              		.loc 4 780 1 view .LVU553
 1792 0024 3046     		mov	r0, r6
 1793 0026 BDE8F883 		pop	{r3, r4, r5, r6, r7, r8, r9, pc}
 1794              	.LVL117:
 1795              	.L66:
 1796              	.LBB244:
 1797              		.loc 4 747 5 is_stmt 1 view .LVU554
 1798              		.loc 4 747 10 is_stmt 0 view .LVU555
 1799 002a D4E90A07 		ldrd	r0, r7, [r4, #40]
 1800 002e 3A1A     		subs	r2, r7, r0
 1801              	.LVL118:
 1802              		.loc 4 748 5 is_stmt 1 view .LVU556
 1803              		.loc 4 748 19 is_stmt 0 view .LVU557
 1804 0030 A8EB0607 		sub	r7, r8, r6
 1805 0034 9742     		cmp	r7, r2
 1806 0036 28BF     		it	cs
 1807 0038 1746     		movcs	r7, r2
 1808              	.LVL119:
 1809              		.loc 4 754 5 is_stmt 1 view .LVU558
 1810              		.loc 4 754 8 is_stmt 0 view .LVU559
 1811 003a 402F     		cmp	r7, #64
 1812 003c 1BD9     		bls	.L68
 1813              		.loc 4 756 7 is_stmt 1 view .LVU560
 1814 003e 05F14003 		add	r3, r5, #64
 1815              	.LVL120:
 1816              	.L69:
 1817              		.loc 4 756 7 is_stmt 0 view .LVU561
 1818 0042 55F8042B 		ldr	r2, [r5], #4	@ unaligned
 1819 0046 9D42     		cmp	r5, r3
 1820 0048 40F8042B 		str	r2, [r0], #4	@ unaligned
 1821 004c F9D1     		bne	.L69
 1822              		.loc 4 757 7 is_stmt 1 view .LVU562
 1823              	.LVL121:
 1824              		.loc 4 758 7 view .LVU563
ARM GAS  /tmp/ccpB36Aw.s 			page 33


 1825              		.loc 4 758 17 is_stmt 0 view .LVU564
 1826 004e A36A     		ldr	r3, [r4, #40]
 1827              		.loc 4 759 17 view .LVU565
 1828 0050 4036     		adds	r6, r6, #64
 1829              	.LVL122:
 1830              		.loc 4 758 17 view .LVU566
 1831 0052 4033     		adds	r3, r3, #64
 1832 0054 A362     		str	r3, [r4, #40]
 1833              		.loc 4 759 7 is_stmt 1 view .LVU567
 1834              	.LVL123:
 1835              	.L70:
 1836              		.loc 4 769 5 view .LVU568
 1837              		.loc 4 769 8 is_stmt 0 view .LVU569
 1838 0056 D4E90A23 		ldrd	r2, r3, [r4, #40]
 1839 005a 9A42     		cmp	r2, r3
 1840 005c 04D3     		bcc	.L71
 1841              		.loc 4 770 7 is_stmt 1 view .LVU570
 1842 005e E169     		ldr	r1, [r4, #28]
 1843 0060 2046     		mov	r0, r4
 1844 0062 0439     		subs	r1, r1, #4
 1845 0064 FFF7FEFF 		bl	obqPostFullBufferS
 1846              	.LVL124:
 1847              	.L71:
 1848              		.loc 4 774 5 view .LVU571
 1849              	.LBB240:
 1850              	.LBI240:
 1851              		.loc 5 520 20 view .LVU572
 1852              	.LBB241:
 1853              		.loc 5 522 3 view .LVU573
 1854 0068 FFF7FEFF 		bl	chSysUnlock
 1855              	.LVL125:
 1856              	.LBE241:
 1857              	.LBE240:
 1858              		.loc 4 775 5 view .LVU574
 1859              		.loc 4 775 8 is_stmt 0 view .LVU575
 1860 006c 4645     		cmp	r6, r8
 1861 006e D9D2     		bcs	.L65
 1862              		.loc 4 778 5 is_stmt 1 view .LVU576
 1863              	.LBB242:
 1864              	.LBI242:
 1865              		.loc 5 509 20 view .LVU577
 1866              	.LBB243:
 1867              		.loc 5 511 3 view .LVU578
 1868 0070 FFF7FEFF 		bl	chSysLock
 1869              	.LVL126:
 1870              		.loc 5 512 1 is_stmt 0 view .LVU579
 1871 0074 CDE7     		b	.L72
 1872              	.L68:
 1873              		.loc 5 512 1 view .LVU580
 1874              	.LBE243:
 1875              	.LBE242:
 1876              		.loc 4 762 7 is_stmt 1 view .LVU581
 1877 0076 2946     		mov	r1, r5
 1878 0078 3A46     		mov	r2, r7
 1879 007a FFF7FEFF 		bl	memcpy
 1880              	.LVL127:
 1881              		.loc 4 763 7 view .LVU582
ARM GAS  /tmp/ccpB36Aw.s 			page 34


 1882              		.loc 4 764 17 is_stmt 0 view .LVU583
 1883 007e A36A     		ldr	r3, [r4, #40]
 1884              		.loc 4 763 17 view .LVU584
 1885 0080 3D44     		add	r5, r5, r7
 1886              	.LVL128:
 1887              		.loc 4 764 7 is_stmt 1 view .LVU585
 1888              		.loc 4 765 17 is_stmt 0 view .LVU586
 1889 0082 3E44     		add	r6, r6, r7
 1890              	.LVL129:
 1891              		.loc 4 764 17 view .LVU587
 1892 0084 3B44     		add	r3, r3, r7
 1893 0086 A362     		str	r3, [r4, #40]
 1894              		.loc 4 765 7 is_stmt 1 view .LVU588
 1895              	.LVL130:
 1896              		.loc 4 765 7 is_stmt 0 view .LVU589
 1897 0088 E5E7     		b	.L70
 1898              	.LBE244:
 1899              		.cfi_endproc
 1900              	.LFE353:
 1901              		.size	obqWriteTimeout, .-obqWriteTimeout
 1902              		.section	.text.obqTryFlushI,"ax",%progbits
 1903              		.align	1
 1904              		.global	obqTryFlushI
 1905              		.syntax unified
 1906              		.thumb
 1907              		.thumb_func
 1908              		.fpu fpv4-sp-d16
 1909              		.type	obqTryFlushI, %function
 1910              	obqTryFlushI:
 1911              	.LVL131:
 1912              	.LFB354:
 1913              		.loc 4 795 49 is_stmt 1 view -0
 1914              		.cfi_startproc
 1915              		@ args = 0, pretend = 0, frame = 0
 1916              		@ frame_needed = 0, uses_anonymous_args = 0
 1917              		@ link register save eliminated.
 1918              		.loc 4 797 23 view .LVU591
 1919              		.loc 4 801 3 view .LVU592
 1920              		.loc 4 801 7 is_stmt 0 view .LVU593
 1921 0000 D0E90423 		ldrd	r2, r3, [r0, #16]
 1922 0004 9A42     		cmp	r2, r3
 1923 0006 17D1     		bne	.L80
 1924              		.loc 4 801 7 discriminator 1 view .LVU594
 1925 0008 C368     		ldr	r3, [r0, #12]
 1926 000a 9BB1     		cbz	r3, .L78
 1927              		.loc 4 801 33 view .LVU595
 1928 000c 836A     		ldr	r3, [r0, #40]
 1929              		.loc 4 801 25 view .LVU596
 1930 000e 8BB1     		cbz	r3, .L78
 1931              	.LBB245:
 1932              		.loc 4 802 5 is_stmt 1 view .LVU597
 1933              		.loc 4 802 12 is_stmt 0 view .LVU598
 1934 0010 043B     		subs	r3, r3, #4
 1935              	.LVL132:
 1936              		.loc 4 804 5 is_stmt 1 view .LVU599
 1937              		.loc 4 804 8 is_stmt 0 view .LVU600
 1938 0012 9B1A     		subs	r3, r3, r2
ARM GAS  /tmp/ccpB36Aw.s 			page 35


 1939              	.LVL133:
 1940              		.loc 4 804 8 view .LVU601
 1941 0014 0ED0     		beq	.L78
 1942              		.loc 4 807 7 is_stmt 1 view .LVU602
 1943              		.loc 4 807 33 is_stmt 0 view .LVU603
 1944 0016 1360     		str	r3, [r2]
 1945              		.loc 4 810 7 is_stmt 1 view .LVU604
 1946              		.loc 4 810 11 is_stmt 0 view .LVU605
 1947 0018 C368     		ldr	r3, [r0, #12]
 1948              	.LVL134:
 1949              		.loc 4 810 21 view .LVU606
 1950 001a 013B     		subs	r3, r3, #1
 1951 001c C360     		str	r3, [r0, #12]
 1952              	.LVL135:
 1953              		.loc 4 811 7 is_stmt 1 view .LVU607
 1954              		.loc 4 811 20 is_stmt 0 view .LVU608
 1955 001e C369     		ldr	r3, [r0, #28]
 1956 0020 1A44     		add	r2, r2, r3
 1957              	.LVL136:
 1958              		.loc 4 812 10 view .LVU609
 1959 0022 8369     		ldr	r3, [r0, #24]
 1960 0024 9A42     		cmp	r2, r3
 1961              		.loc 4 811 20 view .LVU610
 1962 0026 0261     		str	r2, [r0, #16]
 1963              	.LVL137:
 1964              		.loc 4 812 7 is_stmt 1 view .LVU611
 1965              		.loc 4 813 9 view .LVU612
 1966              		.loc 4 813 22 is_stmt 0 view .LVU613
 1967 0028 24BF     		itt	cs
 1968 002a 436A     		ldrcs	r3, [r0, #36]
 1969 002c 0361     		strcs	r3, [r0, #16]
 1970              		.loc 4 817 7 is_stmt 1 view .LVU614
 1971              		.loc 4 817 17 is_stmt 0 view .LVU615
 1972 002e 0023     		movs	r3, #0
 1973 0030 8362     		str	r3, [r0, #40]
 1974              		.loc 4 819 7 is_stmt 1 view .LVU616
 1975              		.loc 4 819 14 is_stmt 0 view .LVU617
 1976 0032 0123     		movs	r3, #1
 1977              	.L78:
 1978              		.loc 4 819 14 view .LVU618
 1979              	.LBE245:
 1980              		.loc 4 823 1 view .LVU619
 1981 0034 1846     		mov	r0, r3
 1982              	.LVL138:
 1983              		.loc 4 823 1 view .LVU620
 1984 0036 7047     		bx	lr
 1985              	.LVL139:
 1986              	.L80:
 1987              		.loc 4 822 10 view .LVU621
 1988 0038 0023     		movs	r3, #0
 1989 003a FBE7     		b	.L78
 1990              		.cfi_endproc
 1991              	.LFE354:
 1992              		.size	obqTryFlushI, .-obqTryFlushI
 1993              		.section	.text.obqFlush,"ax",%progbits
 1994              		.align	1
 1995              		.global	obqFlush
ARM GAS  /tmp/ccpB36Aw.s 			page 36


 1996              		.syntax unified
 1997              		.thumb
 1998              		.thumb_func
 1999              		.fpu fpv4-sp-d16
 2000              		.type	obqFlush, %function
 2001              	obqFlush:
 2002              	.LVL140:
 2003              	.LFB355:
 2004              		.loc 4 832 45 is_stmt 1 view -0
 2005              		.cfi_startproc
 2006              		@ args = 0, pretend = 0, frame = 0
 2007              		@ frame_needed = 0, uses_anonymous_args = 0
 2008              		.loc 4 834 3 view .LVU623
 2009              	.LBB246:
 2010              	.LBI246:
 2011              		.loc 5 509 20 view .LVU624
 2012              	.LBB247:
 2013              		.loc 5 511 3 view .LVU625
 2014              	.LBE247:
 2015              	.LBE246:
 2016              		.loc 4 832 45 is_stmt 0 view .LVU626
 2017 0000 10B5     		push	{r4, lr}
 2018              		.cfi_def_cfa_offset 8
 2019              		.cfi_offset 4, -8
 2020              		.cfi_offset 14, -4
 2021              		.loc 4 832 45 view .LVU627
 2022 0002 0446     		mov	r4, r0
 2023              	.LBB249:
 2024              	.LBB248:
 2025              		.loc 5 511 3 view .LVU628
 2026 0004 FFF7FEFF 		bl	chSysLock
 2027              	.LVL141:
 2028              		.loc 5 511 3 view .LVU629
 2029              	.LBE248:
 2030              	.LBE249:
 2031              		.loc 4 837 3 is_stmt 1 view .LVU630
 2032              		.loc 4 837 11 is_stmt 0 view .LVU631
 2033 0008 A16A     		ldr	r1, [r4, #40]
 2034              		.loc 4 837 6 view .LVU632
 2035 000a 31B1     		cbz	r1, .L85
 2036              	.LBB250:
 2037              		.loc 4 838 5 is_stmt 1 view .LVU633
 2038              		.loc 4 838 12 is_stmt 0 view .LVU634
 2039 000c 0439     		subs	r1, r1, #4
 2040 000e 2369     		ldr	r3, [r4, #16]
 2041              	.LVL142:
 2042              		.loc 4 840 5 is_stmt 1 view .LVU635
 2043              		.loc 4 840 8 is_stmt 0 view .LVU636
 2044 0010 C91A     		subs	r1, r1, r3
 2045              	.LVL143:
 2046              		.loc 4 840 8 view .LVU637
 2047 0012 02D0     		beq	.L85
 2048              		.loc 4 841 7 is_stmt 1 view .LVU638
 2049 0014 2046     		mov	r0, r4
 2050 0016 FFF7FEFF 		bl	obqPostFullBufferS
 2051              	.LVL144:
 2052              	.L85:
ARM GAS  /tmp/ccpB36Aw.s 			page 37


 2053              		.loc 4 841 7 is_stmt 0 view .LVU639
 2054              	.LBE250:
 2055              		.loc 4 845 3 is_stmt 1 view .LVU640
 2056              	.LBB251:
 2057              	.LBI251:
 2058              		.loc 5 520 20 view .LVU641
 2059              	.LBB252:
 2060              		.loc 5 522 3 view .LVU642
 2061              	.LBE252:
 2062              	.LBE251:
 2063              		.loc 4 846 1 is_stmt 0 view .LVU643
 2064 001a BDE81040 		pop	{r4, lr}
 2065              		.cfi_restore 14
 2066              		.cfi_restore 4
 2067              		.cfi_def_cfa_offset 0
 2068              	.LVL145:
 2069              	.LBB254:
 2070              	.LBB253:
 2071              		.loc 5 522 3 view .LVU644
 2072 001e FFF7FEBF 		b	chSysUnlock
 2073              	.LVL146:
 2074              	.LBE253:
 2075              	.LBE254:
 2076              		.cfi_endproc
 2077              	.LFE355:
 2078              		.size	obqFlush, .-obqFlush
 2079              		.text
 2080              	.Letext0:
 2081              		.file 8 "/opt/gcc-arm-none-eabi-10-2020-q4-major/lib/gcc/arm-none-eabi/10.2.1/include/stddef.h"
 2082              		.file 9 "/opt/gcc-arm-none-eabi-10-2020-q4-major/arm-none-eabi/include/machine/_default_types.h"
 2083              		.file 10 "/opt/gcc-arm-none-eabi-10-2020-q4-major/arm-none-eabi/include/sys/_stdint.h"
 2084              		.file 11 "../../modules/ChibiOS/os/common/ports/ARMCMx/compilers/GCC/chtypes.h"
 2085              		.file 12 "../../modules/ChibiOS/os/rt/include/chsystypes.h"
 2086              		.file 13 "../../modules/ChibiOS/os/rt/include/chtime.h"
 2087              		.file 14 "../../modules/ChibiOS/os/common/ports/ARMCMx/chcore.h"
 2088              		.file 15 "../../modules/ChibiOS/os/rt/include/chtm.h"
 2089              		.file 16 "../../modules/ChibiOS/os/rt/include/chsem.h"
 2090              		.file 17 "../../modules/ChibiOS/os/rt/include/chmtx.h"
 2091              		.file 18 "../../modules/ChibiOS/os/hal/include/hal_buffers.h"
 2092              		.file 19 "../../modules/ChibiOS/os/rt/include/chstats.h"
 2093              		.file 20 "<built-in>"