ARM GAS  /tmp/ccR0AlbD.s 			page 1


   1              		.cpu cortex-m7
   2              		.eabi_attribute 27, 1
   3              		.eabi_attribute 28, 1
   4              		.eabi_attribute 20, 1
   5              		.eabi_attribute 21, 1
   6              		.eabi_attribute 23, 3
   7              		.eabi_attribute 24, 1
   8              		.eabi_attribute 25, 1
   9              		.eabi_attribute 26, 1
  10              		.eabi_attribute 30, 4
  11              		.eabi_attribute 34, 1
  12              		.eabi_attribute 18, 4
  13              		.file	"hal_st.c"
  14              		.text
  15              	.Ltext0:
  16              		.cfi_sections	.debug_frame
  17              		.section	.text.stInit,"ax",%progbits
  18              		.align	1
  19              		.global	stInit
  20              		.arch armv7e-m
  21              		.syntax unified
  22              		.thumb
  23              		.thumb_func
  24              		.fpu fpv4-sp-d16
  25              		.type	stInit, %function
  26              	stInit:
  27              	.LFB334:
  28              		.file 1 "../../modules/ChibiOS/os/hal/src/hal_st.c"
  29              		.loc 1 60 19 view -0
  30              		.cfi_startproc
  31              		@ args = 0, pretend = 0, frame = 0
  32              		@ frame_needed = 0, uses_anonymous_args = 0
  33              		@ link register save eliminated.
  34              		.loc 1 62 3 view .LVU1
  35 0000 FFF7FEBF 		b	st_lld_init
  36              	.LVL0:
  37              		.cfi_endproc
  38              	.LFE334:
  39              		.size	stInit, .-stInit
  40              		.section	.text.stStartAlarm,"ax",%progbits
  41              		.align	1
  42              		.global	stStartAlarm
  43              		.syntax unified
  44              		.thumb
  45              		.thumb_func
  46              		.fpu fpv4-sp-d16
  47              		.type	stStartAlarm, %function
  48              	stStartAlarm:
  49              	.LVL1:
  50              	.LFB335:
  51              		.loc 1 77 38 view -0
  52              		.cfi_startproc
  53              		@ args = 0, pretend = 0, frame = 0
  54              		@ frame_needed = 0, uses_anonymous_args = 0
  55              		@ link register save eliminated.
  56              		.loc 1 79 3 view .LVU3
  57              		.loc 1 79 3 view .LVU4
ARM GAS  /tmp/ccR0AlbD.s 			page 2


  58              		.loc 1 79 3 view .LVU5
  59              		.loc 1 81 3 view .LVU6
  60              	.LBB10:
  61              	.LBI10:
  62              		.file 2 "../../modules/ChibiOS/os/hal/ports/STM32/LLD/TIMv1/hal_st_lld.h"
  63              		.loc 2 180 20 view .LVU7
  64              	.LBB11:
  65              		.loc 2 182 3 view .LVU8
  66              		.loc 2 182 24 is_stmt 0 view .LVU9
  67 0000 4FF08043 		mov	r3, #1073741824
  68              		.loc 2 183 24 view .LVU10
  69 0004 0022     		movs	r2, #0
  70              		.loc 2 182 24 view .LVU11
  71 0006 5863     		str	r0, [r3, #52]
  72              		.loc 2 183 3 is_stmt 1 view .LVU12
  73              		.loc 2 183 24 is_stmt 0 view .LVU13
  74 0008 1A61     		str	r2, [r3, #16]
  75              		.loc 2 184 3 is_stmt 1 view .LVU14
  76              		.loc 2 184 24 is_stmt 0 view .LVU15
  77 000a 0222     		movs	r2, #2
  78 000c DA60     		str	r2, [r3, #12]
  79              	.LVL2:
  80              		.loc 2 184 24 view .LVU16
  81              	.LBE11:
  82              	.LBE10:
  83              		.loc 1 82 1 view .LVU17
  84 000e 7047     		bx	lr
  85              		.cfi_endproc
  86              	.LFE335:
  87              		.size	stStartAlarm, .-stStartAlarm
  88              		.section	.text.stStopAlarm,"ax",%progbits
  89              		.align	1
  90              		.global	stStopAlarm
  91              		.syntax unified
  92              		.thumb
  93              		.thumb_func
  94              		.fpu fpv4-sp-d16
  95              		.type	stStopAlarm, %function
  96              	stStopAlarm:
  97              	.LFB336:
  98              		.loc 1 91 24 is_stmt 1 view -0
  99              		.cfi_startproc
 100              		@ args = 0, pretend = 0, frame = 0
 101              		@ frame_needed = 0, uses_anonymous_args = 0
 102              		@ link register save eliminated.
 103              		.loc 1 93 3 view .LVU19
 104              	.LBB12:
 105              	.LBI12:
 106              		.loc 2 192 20 view .LVU20
 107              	.LBB13:
 108              		.loc 2 194 3 view .LVU21
 109              		.loc 2 194 22 is_stmt 0 view .LVU22
 110 0000 4FF08043 		mov	r3, #1073741824
 111 0004 0022     		movs	r2, #0
 112 0006 DA60     		str	r2, [r3, #12]
 113              	.LBE13:
 114              	.LBE12:
ARM GAS  /tmp/ccR0AlbD.s 			page 3


 115              		.loc 1 94 1 view .LVU23
 116 0008 7047     		bx	lr
 117              		.cfi_endproc
 118              	.LFE336:
 119              		.size	stStopAlarm, .-stStopAlarm
 120              		.section	.text.stSetAlarm,"ax",%progbits
 121              		.align	1
 122              		.global	stSetAlarm
 123              		.syntax unified
 124              		.thumb
 125              		.thumb_func
 126              		.fpu fpv4-sp-d16
 127              		.type	stSetAlarm, %function
 128              	stSetAlarm:
 129              	.LVL3:
 130              	.LFB337:
 131              		.loc 1 105 36 is_stmt 1 view -0
 132              		.cfi_startproc
 133              		@ args = 0, pretend = 0, frame = 0
 134              		@ frame_needed = 0, uses_anonymous_args = 0
 135              		@ link register save eliminated.
 136              		.loc 1 107 3 view .LVU25
 137              		.loc 1 107 3 view .LVU26
 138              		.loc 1 107 3 view .LVU27
 139              		.loc 1 109 3 view .LVU28
 140              	.LBB14:
 141              	.LBI14:
 142              		.loc 2 204 20 view .LVU29
 143              	.LBB15:
 144              		.loc 2 206 3 view .LVU30
 145              		.loc 2 206 24 is_stmt 0 view .LVU31
 146 0000 4FF08043 		mov	r3, #1073741824
 147 0004 5863     		str	r0, [r3, #52]
 148              	.LVL4:
 149              		.loc 2 206 24 view .LVU32
 150              	.LBE15:
 151              	.LBE14:
 152              		.loc 1 110 1 view .LVU33
 153 0006 7047     		bx	lr
 154              		.cfi_endproc
 155              	.LFE337:
 156              		.size	stSetAlarm, .-stSetAlarm
 157              		.section	.text.stGetAlarm,"ax",%progbits
 158              		.align	1
 159              		.global	stGetAlarm
 160              		.syntax unified
 161              		.thumb
 162              		.thumb_func
 163              		.fpu fpv4-sp-d16
 164              		.type	stGetAlarm, %function
 165              	stGetAlarm:
 166              	.LFB338:
 167              		.loc 1 121 28 is_stmt 1 view -0
 168              		.cfi_startproc
 169              		@ args = 0, pretend = 0, frame = 0
 170              		@ frame_needed = 0, uses_anonymous_args = 0
 171              		@ link register save eliminated.
ARM GAS  /tmp/ccR0AlbD.s 			page 4


 172              		.loc 1 123 3 view .LVU35
 173              		.loc 1 123 3 view .LVU36
 174              		.loc 1 123 3 view .LVU37
 175              		.loc 1 125 3 view .LVU38
 176              	.LBB16:
 177              	.LBI16:
 178              		.loc 2 216 25 view .LVU39
 179              	.LBB17:
 180              		.loc 2 218 3 view .LVU40
 181              		.loc 2 218 10 is_stmt 0 view .LVU41
 182 0000 4FF08043 		mov	r3, #1073741824
 183 0004 586B     		ldr	r0, [r3, #52]
 184              	.LBE17:
 185              	.LBE16:
 186              		.loc 1 126 1 view .LVU42
 187 0006 7047     		bx	lr
 188              		.cfi_endproc
 189              	.LFE338:
 190              		.size	stGetAlarm, .-stGetAlarm
 191              		.text
 192              	.Letext0:
 193              		.file 3 "/opt/gcc-arm-none-eabi-10-2020-q4-major/arm-none-eabi/include/machine/_default_types.h"
 194              		.file 4 "/opt/gcc-arm-none-eabi-10-2020-q4-major/arm-none-eabi/include/sys/_stdint.h"
 195              		.file 5 "../../modules/ChibiOS/os/rt/include/chtime.h"
 196              		.file 6 "../../modules/ChibiOS/os/hal/ports/STM32/LLD/TIMv1/stm32_tim.h"