ARM GAS  /tmp/ccY0BO8u.s 			page 1


   1              		.cpu cortex-m7
   2              		.eabi_attribute 27, 1
   3              		.eabi_attribute 28, 1
   4              		.eabi_attribute 20, 1
   5              		.eabi_attribute 21, 1
   6              		.eabi_attribute 23, 3
   7              		.eabi_attribute 24, 1
   8              		.eabi_attribute 25, 1
   9              		.eabi_attribute 26, 1
  10              		.eabi_attribute 30, 4
  11              		.eabi_attribute 34, 1
  12              		.eabi_attribute 18, 4
  13              		.file	"hal_st_lld.c"
  14              		.text
  15              	.Ltext0:
  16              		.cfi_sections	.debug_frame
  17              		.section	.text.VectorB0,"ax",%progbits
  18              		.align	1
  19              		.global	VectorB0
  20              		.arch armv7e-m
  21              		.syntax unified
  22              		.thumb
  23              		.thumb_func
  24              		.fpu fpv4-sp-d16
  25              		.type	VectorB0, %function
  26              	VectorB0:
  27              	.LFB334:
  28              		.file 1 "../../modules/ChibiOS/os/hal/ports/STM32/LLD/TIMv1/hal_st_lld.c"
  29              		.loc 1 328 30 view -0
  30              		.cfi_startproc
  31              		@ args = 0, pretend = 0, frame = 0
  32              		@ frame_needed = 0, uses_anonymous_args = 0
  33              		.loc 1 330 3 view .LVU1
  34              		.loc 1 330 3 view .LVU2
  35              		.loc 1 330 3 view .LVU3
  36              		.loc 1 330 3 view .LVU4
  37              		.loc 1 328 30 is_stmt 0 view .LVU5
  38 0000 10B5     		push	{r4, lr}
  39              		.cfi_def_cfa_offset 8
  40              		.cfi_offset 4, -8
  41              		.cfi_offset 14, -4
  42              		.loc 1 330 3 view .LVU6
  43 0002 FFF7FEFF 		bl	_stats_increase_irq
  44              	.LVL0:
  45              		.loc 1 330 3 is_stmt 1 view .LVU7
  46              		.loc 1 330 22 view .LVU8
  47              		.loc 1 335 3 view .LVU9
  48              		.loc 1 335 20 is_stmt 0 view .LVU10
  49 0006 4FF08043 		mov	r3, #1073741824
  50 000a 1A69     		ldr	r2, [r3, #16]
  51              		.loc 1 335 6 view .LVU11
  52 000c 9207     		lsls	r2, r2, #30
  53 000e 0CD5     		bpl	.L2
  54              		.loc 1 336 5 is_stmt 1 view .LVU12
  55              		.loc 1 336 22 is_stmt 0 view .LVU13
  56 0010 0024     		movs	r4, #0
  57 0012 1C61     		str	r4, [r3, #16]
ARM GAS  /tmp/ccY0BO8u.s 			page 2


  58              		.loc 1 338 5 is_stmt 1 view .LVU14
  59              	.LBB48:
  60              	.LBI48:
  61              		.file 2 "../../modules/ChibiOS/os/hal/osal/rt/osal.h"
  62              		.loc 2 531 20 view .LVU15
  63              	.LBE48:
  64              		.loc 2 533 3 view .LVU16
  65              	.LBB62:
  66              	.LBB49:
  67              	.LBI49:
  68              		.file 3 "../../modules/ChibiOS/os/rt/include/chsys.h"
  69              		.loc 3 393 20 view .LVU17
  70              	.LBB50:
  71              		.loc 3 395 3 view .LVU18
  72              	.LBB51:
  73              	.LBI51:
  74              		.file 4 "../../modules/ChibiOS/os/common/ports/ARMCMx/chcore_v7m.h"
  75              		.loc 4 641 20 view .LVU19
  76              	.LBE51:
  77              	.LBE50:
  78              	.LBE49:
  79              	.LBE62:
  80              		.loc 4 643 3 view .LVU20
  81              	.LBB63:
  82              	.LBB60:
  83              	.LBB58:
  84              	.LBB56:
  85              	.LBB52:
  86              	.LBI52:
  87              		.loc 4 602 20 view .LVU21
  88              	.LBE52:
  89              	.LBE56:
  90              	.LBE58:
  91              	.LBE60:
  92              	.LBE63:
  93              		.loc 4 610 3 view .LVU22
  94              	.LVL1:
  95              	.LBB64:
  96              	.LBB61:
  97              	.LBB59:
  98              	.LBB57:
  99              	.LBB55:
 100              	.LBB53:
 101              	.LBI53:
 102              		.file 5 "../../modules/ChibiOS/os/common/ext/ARM/CMSIS/Core/Include/cmsis_gcc.h"
 103              		.loc 5 491 27 view .LVU23
 104              	.LBB54:
 105              		.loc 5 493 3 view .LVU24
 106 0014 2023     		movs	r3, #32
 107              		.syntax unified
 108              	@ 493 "../../modules/ChibiOS/os/common/ext/ARM/CMSIS/Core/Include/cmsis_gcc.h" 1
 109 0016 83F31188 		MSR basepri, r3
 110              	@ 0 "" 2
 111              	.LVL2:
 112              		.loc 5 493 3 is_stmt 0 view .LVU25
 113              		.thumb
 114              		.syntax unified
ARM GAS  /tmp/ccY0BO8u.s 			page 3


 115              	.LBE54:
 116              	.LBE53:
 117              	.LBE55:
 118              	.LBE57:
 119              		.loc 3 396 3 is_stmt 1 view .LVU26
 120 001a FFF7FEFF 		bl	_stats_start_measure_crit_isr
 121              	.LVL3:
 122              		.loc 3 397 29 view .LVU27
 123              	.LBE59:
 124              	.LBE61:
 125              	.LBE64:
 126              		.loc 1 339 5 view .LVU28
 127              	.LBB65:
 128              	.LBI65:
 129              		.loc 2 601 20 view .LVU29
 130              	.LBB66:
 131              		.loc 2 603 3 view .LVU30
 132 001e FFF7FEFF 		bl	chSysTimerHandlerI
 133              	.LVL4:
 134              	.LBE66:
 135              	.LBE65:
 136              		.loc 1 340 5 view .LVU31
 137              	.LBB67:
 138              	.LBI67:
 139              		.loc 2 542 20 view .LVU32
 140              	.LBE67:
 141              		.loc 2 544 3 view .LVU33
 142              	.LBB81:
 143              	.LBB68:
 144              	.LBI68:
 145              		.loc 3 413 20 view .LVU34
 146              	.LBB69:
 147              		.loc 3 415 31 view .LVU35
 148              		.loc 3 416 3 view .LVU36
 149 0022 FFF7FEFF 		bl	_stats_stop_measure_crit_isr
 150              	.LVL5:
 151              		.loc 3 417 3 view .LVU37
 152              	.LBB70:
 153              	.LBI70:
 154              		.loc 4 652 20 view .LVU38
 155              	.LBE70:
 156              	.LBE69:
 157              	.LBE68:
 158              	.LBE81:
 159              		.loc 4 654 3 view .LVU39
 160              	.LBB82:
 161              	.LBB79:
 162              	.LBB77:
 163              	.LBB75:
 164              	.LBB71:
 165              	.LBI71:
 166              		.loc 4 626 20 view .LVU40
 167              	.LBE71:
 168              	.LBE75:
 169              	.LBE77:
 170              	.LBE79:
 171              	.LBE82:
ARM GAS  /tmp/ccY0BO8u.s 			page 4


 172              		.loc 4 629 3 view .LVU41
 173              	.LBB83:
 174              	.LBB80:
 175              	.LBB78:
 176              	.LBB76:
 177              	.LBB74:
 178              	.LBB72:
 179              	.LBI72:
 180              		.loc 5 491 27 view .LVU42
 181              	.LBB73:
 182              		.loc 5 493 3 view .LVU43
 183              		.syntax unified
 184              	@ 493 "../../modules/ChibiOS/os/common/ext/ARM/CMSIS/Core/Include/cmsis_gcc.h" 1
 185 0026 84F31188 		MSR basepri, r4
 186              	@ 0 "" 2
 187              	.LVL6:
 188              		.thumb
 189              		.syntax unified
 190              	.L2:
 191              		.loc 5 493 3 is_stmt 0 view .LVU44
 192              	.LBE73:
 193              	.LBE72:
 194              	.LBE74:
 195              	.LBE76:
 196              	.LBE78:
 197              	.LBE80:
 198              	.LBE83:
 199              		.loc 1 343 3 is_stmt 1 view .LVU45
 200              		.loc 1 343 3 view .LVU46
 201              		.loc 1 343 3 view .LVU47
 202              		.loc 1 343 3 view .LVU48
 203              		.loc 1 343 3 view .LVU49
 204              		.loc 1 344 1 is_stmt 0 view .LVU50
 205 002a BDE81040 		pop	{r4, lr}
 206              		.cfi_restore 14
 207              		.cfi_restore 4
 208              		.cfi_def_cfa_offset 0
 209              		.loc 1 343 3 view .LVU51
 210 002e FFF7FEBF 		b	_port_irq_epilogue
 211              	.LVL7:
 212              		.cfi_endproc
 213              	.LFE334:
 214              		.size	VectorB0, .-VectorB0
 215              		.section	.text.st_lld_init,"ax",%progbits
 216              		.align	1
 217              		.global	st_lld_init
 218              		.syntax unified
 219              		.thumb
 220              		.thumb_func
 221              		.fpu fpv4-sp-d16
 222              		.type	st_lld_init, %function
 223              	st_lld_init:
 224              	.LFB335:
 225              		.loc 1 356 24 is_stmt 1 view -0
 226              		.cfi_startproc
 227              		@ args = 0, pretend = 0, frame = 0
 228              		@ frame_needed = 0, uses_anonymous_args = 0
ARM GAS  /tmp/ccY0BO8u.s 			page 5


 229              		@ link register save eliminated.
 230              		.loc 1 362 3 view .LVU53
 231 0000 104B     		ldr	r3, .L7
 232              		.loc 1 378 3 is_stmt 0 view .LVU54
 233 0002 0821     		movs	r1, #8
 234 0004 1C20     		movs	r0, #28
 235              		.loc 1 362 3 view .LVU55
 236 0006 1A6C     		ldr	r2, [r3, #64]
 237 0008 42F00102 		orr	r2, r2, #1
 238 000c 1A64     		str	r2, [r3, #64]
 239              		.loc 1 362 3 is_stmt 1 view .LVU56
 240              		.loc 1 362 3 view .LVU57
 241 000e 1A6E     		ldr	r2, [r3, #96]
 242 0010 42F00102 		orr	r2, r2, #1
 243 0014 1A66     		str	r2, [r3, #96]
 244              		.loc 1 362 3 view .LVU58
 245              		.loc 1 365 3 is_stmt 0 view .LVU59
 246 0016 0C4A     		ldr	r2, .L7+4
 247              		.loc 1 362 3 view .LVU60
 248 0018 1B6E     		ldr	r3, [r3, #96]
 249              		.loc 1 362 20 is_stmt 1 view .LVU61
 250              		.loc 1 365 3 view .LVU62
 251 001a 9368     		ldr	r3, [r2, #8]
 252 001c 43F00103 		orr	r3, r3, #1
 253 0020 9360     		str	r3, [r2, #8]
 254              		.loc 1 368 3 view .LVU63
 255              		.loc 1 368 24 is_stmt 0 view .LVU64
 256 0022 4FF08043 		mov	r3, #1073741824
 257 0026 6B22     		movs	r2, #107
 258 0028 9A62     		str	r2, [r3, #40]
 259              		.loc 1 369 3 is_stmt 1 view .LVU65
 260              		.loc 1 369 24 is_stmt 0 view .LVU66
 261 002a 4FF0FF32 		mov	r2, #-1
 262 002e DA62     		str	r2, [r3, #44]
 263              		.loc 1 370 3 is_stmt 1 view .LVU67
 264              		.loc 1 370 24 is_stmt 0 view .LVU68
 265 0030 0022     		movs	r2, #0
 266 0032 9A61     		str	r2, [r3, #24]
 267              		.loc 1 371 3 is_stmt 1 view .LVU69
 268              		.loc 1 371 24 is_stmt 0 view .LVU70
 269 0034 5A63     		str	r2, [r3, #52]
 270              		.loc 1 372 3 is_stmt 1 view .LVU71
 271              		.loc 1 372 24 is_stmt 0 view .LVU72
 272 0036 DA60     		str	r2, [r3, #12]
 273              		.loc 1 373 3 is_stmt 1 view .LVU73
 274              		.loc 1 373 24 is_stmt 0 view .LVU74
 275 0038 5A60     		str	r2, [r3, #4]
 276              		.loc 1 374 3 is_stmt 1 view .LVU75
 277              		.loc 1 374 24 is_stmt 0 view .LVU76
 278 003a 0122     		movs	r2, #1
 279 003c 5A61     		str	r2, [r3, #20]
 280              		.loc 1 375 3 is_stmt 1 view .LVU77
 281              		.loc 1 375 24 is_stmt 0 view .LVU78
 282 003e 1A60     		str	r2, [r3]
 283              		.loc 1 378 3 is_stmt 1 view .LVU79
 284 0040 FFF7FEBF 		b	nvicEnableVector
 285              	.LVL8:
ARM GAS  /tmp/ccY0BO8u.s 			page 6


 286              	.L8:
 287              		.align	2
 288              	.L7:
 289 0044 00380240 		.word	1073887232
 290 0048 002004E0 		.word	-536600576
 291              		.cfi_endproc
 292              	.LFE335:
 293              		.size	st_lld_init, .-st_lld_init
 294              		.text
 295              	.Letext0:
 296              		.file 6 "/opt/gcc-arm-none-eabi-10-2020-q4-major/arm-none-eabi/include/machine/_default_types.h"
 297              		.file 7 "/opt/gcc-arm-none-eabi-10-2020-q4-major/arm-none-eabi/include/sys/_stdint.h"
 298              		.file 8 "../../modules/ChibiOS/os/common/ext/ST/STM32F7xx/stm32f767xx.h"
 299              		.file 9 "../../modules/ChibiOS/os/hal/ports/STM32/LLD/TIMv1/stm32_tim.h"
 300              		.file 10 "../../modules/ChibiOS/os/hal/ports/common/ARMCMx/nvic.h"
 301              		.file 11 "../../modules/ChibiOS/os/rt/include/chstats.h"
 302              		.section	.debug_info,"",%progbits
 303              	.Ldebug_info0:
 304 0000 72060000 		.4byte	0x672
 305 0004 0400     		.2byte	0x4
 306 0006 00000000 		.4byte	.Ldebug_abbrev0
 307 000a 04       		.byte	0x4
 308 000b 01       		.uleb128 0x1
 309 000c 18000000 		.4byte	.LASF76
 310 0010 0C       		.byte	0xc
 311 0011 B4010000 		.4byte	.LASF77
 312 0015 2F020000 		.4byte	.LASF78
 313 0019 90000000 		.4byte	.Ldebug_ranges0+0x90
 314 001d 00000000 		.4byte	0
 315 0021 00000000 		.4byte	.Ldebug_line0
 316 0025 02       		.uleb128 0x2
 317 0026 04       		.byte	0x4
 318 0027 05       		.byte	0x5
 319 0028 696E7400 		.ascii	"int\000"
 320 002c 03       		.uleb128 0x3
 321 002d 04       		.byte	0x4
 322 002e 07       		.byte	0x7
 323 002f 33030000 		.4byte	.LASF0
 324 0033 03       		.uleb128 0x3
 325 0034 08       		.byte	0x8
 326 0035 05       		.byte	0x5
 327 0036 DF040000 		.4byte	.LASF1
 328 003a 03       		.uleb128 0x3
 329 003b 08       		.byte	0x8
 330 003c 04       		.byte	0x4
 331 003d A7020000 		.4byte	.LASF2
 332 0041 03       		.uleb128 0x3
 333 0042 01       		.byte	0x1
 334 0043 06       		.byte	0x6
 335 0044 07030000 		.4byte	.LASF3
 336 0048 03       		.uleb128 0x3
 337 0049 01       		.byte	0x1
 338 004a 08       		.byte	0x8
 339 004b E0020000 		.4byte	.LASF4
 340 004f 03       		.uleb128 0x3
 341 0050 02       		.byte	0x2
 342 0051 05       		.byte	0x5
ARM GAS  /tmp/ccY0BO8u.s 			page 7


 343 0052 9B010000 		.4byte	.LASF5
 344 0056 03       		.uleb128 0x3
 345 0057 02       		.byte	0x2
 346 0058 07       		.byte	0x7
 347 0059 7D030000 		.4byte	.LASF6
 348 005d 03       		.uleb128 0x3
 349 005e 04       		.byte	0x4
 350 005f 05       		.byte	0x5
 351 0060 68020000 		.4byte	.LASF7
 352 0064 04       		.uleb128 0x4
 353 0065 80010000 		.4byte	.LASF10
 354 0069 06       		.byte	0x6
 355 006a 4F       		.byte	0x4f
 356 006b 19       		.byte	0x19
 357 006c 70000000 		.4byte	0x70
 358 0070 03       		.uleb128 0x3
 359 0071 04       		.byte	0x4
 360 0072 07       		.byte	0x7
 361 0073 28040000 		.4byte	.LASF8
 362 0077 03       		.uleb128 0x3
 363 0078 08       		.byte	0x8
 364 0079 07       		.byte	0x7
 365 007a 13030000 		.4byte	.LASF9
 366 007e 04       		.uleb128 0x4
 367 007f 2A030000 		.4byte	.LASF11
 368 0083 07       		.byte	0x7
 369 0084 30       		.byte	0x30
 370 0085 14       		.byte	0x14
 371 0086 64000000 		.4byte	0x64
 372 008a 05       		.uleb128 0x5
 373 008b 7E000000 		.4byte	0x7e
 374 008f 06       		.uleb128 0x6
 375 0090 7E000000 		.4byte	0x7e
 376 0094 9F000000 		.4byte	0x9f
 377 0098 07       		.uleb128 0x7
 378 0099 2C000000 		.4byte	0x2c
 379 009d 01       		.byte	0x1
 380 009e 00       		.byte	0
 381 009f 08       		.uleb128 0x8
 382 00a0 10       		.byte	0x10
 383 00a1 08       		.byte	0x8
 384 00a2 9501     		.2byte	0x195
 385 00a4 09       		.byte	0x9
 386 00a5 E1000000 		.4byte	0xe1
 387 00a9 09       		.uleb128 0x9
 388 00aa 7D040000 		.4byte	.LASF12
 389 00ae 08       		.byte	0x8
 390 00af 9701     		.2byte	0x197
 391 00b1 11       		.byte	0x11
 392 00b2 8A000000 		.4byte	0x8a
 393 00b6 00       		.byte	0
 394 00b7 0A       		.uleb128 0xa
 395 00b8 435200   		.ascii	"CR\000"
 396 00bb 08       		.byte	0x8
 397 00bc 9801     		.2byte	0x198
 398 00be 11       		.byte	0x11
 399 00bf 8A000000 		.4byte	0x8a
ARM GAS  /tmp/ccY0BO8u.s 			page 8


 400 00c3 04       		.byte	0x4
 401 00c4 09       		.uleb128 0x9
 402 00c5 28020000 		.4byte	.LASF13
 403 00c9 08       		.byte	0x8
 404 00ca 9901     		.2byte	0x199
 405 00cc 11       		.byte	0x11
 406 00cd 8A000000 		.4byte	0x8a
 407 00d1 08       		.byte	0x8
 408 00d2 09       		.uleb128 0x9
 409 00d3 F4010000 		.4byte	.LASF14
 410 00d7 08       		.byte	0x8
 411 00d8 9A01     		.2byte	0x19a
 412 00da 11       		.byte	0x11
 413 00db 8A000000 		.4byte	0x8a
 414 00df 0C       		.byte	0xc
 415 00e0 00       		.byte	0
 416 00e1 0B       		.uleb128 0xb
 417 00e2 3A040000 		.4byte	.LASF15
 418 00e6 08       		.byte	0x8
 419 00e7 9B01     		.2byte	0x19b
 420 00e9 02       		.byte	0x2
 421 00ea 9F000000 		.4byte	0x9f
 422 00ee 06       		.uleb128 0x6
 423 00ef 8A000000 		.4byte	0x8a
 424 00f3 FE000000 		.4byte	0xfe
 425 00f7 07       		.uleb128 0x7
 426 00f8 2C000000 		.4byte	0x2c
 427 00fc 01       		.byte	0x1
 428 00fd 00       		.byte	0
 429 00fe 05       		.uleb128 0x5
 430 00ff EE000000 		.4byte	0xee
 431 0103 06       		.uleb128 0x6
 432 0104 8A000000 		.4byte	0x8a
 433 0108 13010000 		.4byte	0x113
 434 010c 07       		.uleb128 0x7
 435 010d 2C000000 		.4byte	0x2c
 436 0111 03       		.byte	0x3
 437 0112 00       		.byte	0
 438 0113 05       		.uleb128 0x5
 439 0114 03010000 		.4byte	0x103
 440 0118 08       		.uleb128 0x8
 441 0119 94       		.byte	0x94
 442 011a 08       		.byte	0x8
 443 011b FF02     		.2byte	0x2ff
 444 011d 09       		.byte	0x9
 445 011e F0020000 		.4byte	0x2f0
 446 0122 0A       		.uleb128 0xa
 447 0123 435200   		.ascii	"CR\000"
 448 0126 08       		.byte	0x8
 449 0127 0103     		.2byte	0x301
 450 0129 11       		.byte	0x11
 451 012a 8A000000 		.4byte	0x8a
 452 012e 00       		.byte	0
 453 012f 09       		.uleb128 0x9
 454 0130 75030000 		.4byte	.LASF16
 455 0134 08       		.byte	0x8
 456 0135 0203     		.2byte	0x302
ARM GAS  /tmp/ccY0BO8u.s 			page 9


 457 0137 11       		.byte	0x11
 458 0138 8A000000 		.4byte	0x8a
 459 013c 04       		.byte	0x4
 460 013d 09       		.uleb128 0x9
 461 013e AF010000 		.4byte	.LASF17
 462 0142 08       		.byte	0x8
 463 0143 0303     		.2byte	0x303
 464 0145 11       		.byte	0x11
 465 0146 8A000000 		.4byte	0x8a
 466 014a 08       		.byte	0x8
 467 014b 0A       		.uleb128 0xa
 468 014c 43495200 		.ascii	"CIR\000"
 469 0150 08       		.byte	0x8
 470 0151 0403     		.2byte	0x304
 471 0153 11       		.byte	0x11
 472 0154 8A000000 		.4byte	0x8a
 473 0158 0C       		.byte	0xc
 474 0159 09       		.uleb128 0x9
 475 015a B8040000 		.4byte	.LASF18
 476 015e 08       		.byte	0x8
 477 015f 0503     		.2byte	0x305
 478 0161 11       		.byte	0x11
 479 0162 8A000000 		.4byte	0x8a
 480 0166 10       		.byte	0x10
 481 0167 09       		.uleb128 0x9
 482 0168 40030000 		.4byte	.LASF19
 483 016c 08       		.byte	0x8
 484 016d 0603     		.2byte	0x306
 485 016f 11       		.byte	0x11
 486 0170 8A000000 		.4byte	0x8a
 487 0174 14       		.byte	0x14
 488 0175 09       		.uleb128 0x9
 489 0176 C1040000 		.4byte	.LASF20
 490 017a 08       		.byte	0x8
 491 017b 0703     		.2byte	0x307
 492 017d 11       		.byte	0x11
 493 017e 8A000000 		.4byte	0x8a
 494 0182 18       		.byte	0x18
 495 0183 09       		.uleb128 0x9
 496 0184 EC030000 		.4byte	.LASF21
 497 0188 08       		.byte	0x8
 498 0189 0803     		.2byte	0x308
 499 018b 11       		.byte	0x11
 500 018c 7E000000 		.4byte	0x7e
 501 0190 1C       		.byte	0x1c
 502 0191 09       		.uleb128 0x9
 503 0192 2E010000 		.4byte	.LASF22
 504 0196 08       		.byte	0x8
 505 0197 0903     		.2byte	0x309
 506 0199 11       		.byte	0x11
 507 019a 8A000000 		.4byte	0x8a
 508 019e 20       		.byte	0x20
 509 019f 09       		.uleb128 0x9
 510 01a0 8F020000 		.4byte	.LASF23
 511 01a4 08       		.byte	0x8
 512 01a5 0A03     		.2byte	0x30a
 513 01a7 11       		.byte	0x11
ARM GAS  /tmp/ccY0BO8u.s 			page 10


 514 01a8 8A000000 		.4byte	0x8a
 515 01ac 24       		.byte	0x24
 516 01ad 09       		.uleb128 0x9
 517 01ae F6030000 		.4byte	.LASF24
 518 01b2 08       		.byte	0x8
 519 01b3 0B03     		.2byte	0x30b
 520 01b5 11       		.byte	0x11
 521 01b6 8F000000 		.4byte	0x8f
 522 01ba 28       		.byte	0x28
 523 01bb 09       		.uleb128 0x9
 524 01bc 75040000 		.4byte	.LASF25
 525 01c0 08       		.byte	0x8
 526 01c1 0C03     		.2byte	0x30c
 527 01c3 11       		.byte	0x11
 528 01c4 8A000000 		.4byte	0x8a
 529 01c8 30       		.byte	0x30
 530 01c9 09       		.uleb128 0x9
 531 01ca 37010000 		.4byte	.LASF26
 532 01ce 08       		.byte	0x8
 533 01cf 0D03     		.2byte	0x30d
 534 01d1 11       		.byte	0x11
 535 01d2 8A000000 		.4byte	0x8a
 536 01d6 34       		.byte	0x34
 537 01d7 09       		.uleb128 0x9
 538 01d8 0D020000 		.4byte	.LASF27
 539 01dc 08       		.byte	0x8
 540 01dd 0E03     		.2byte	0x30e
 541 01df 11       		.byte	0x11
 542 01e0 8A000000 		.4byte	0x8a
 543 01e4 38       		.byte	0x38
 544 01e5 09       		.uleb128 0x9
 545 01e6 00040000 		.4byte	.LASF28
 546 01ea 08       		.byte	0x8
 547 01eb 0F03     		.2byte	0x30f
 548 01ed 11       		.byte	0x11
 549 01ee 7E000000 		.4byte	0x7e
 550 01f2 3C       		.byte	0x3c
 551 01f3 09       		.uleb128 0x9
 552 01f4 FB010000 		.4byte	.LASF29
 553 01f8 08       		.byte	0x8
 554 01f9 1003     		.2byte	0x310
 555 01fb 11       		.byte	0x11
 556 01fc 8A000000 		.4byte	0x8a
 557 0200 40       		.byte	0x40
 558 0201 09       		.uleb128 0x9
 559 0202 EE020000 		.4byte	.LASF30
 560 0206 08       		.byte	0x8
 561 0207 1103     		.2byte	0x311
 562 0209 11       		.byte	0x11
 563 020a 8A000000 		.4byte	0x8a
 564 020e 44       		.byte	0x44
 565 020f 09       		.uleb128 0x9
 566 0210 0A040000 		.4byte	.LASF31
 567 0214 08       		.byte	0x8
 568 0215 1203     		.2byte	0x312
 569 0217 11       		.byte	0x11
 570 0218 8F000000 		.4byte	0x8f
ARM GAS  /tmp/ccY0BO8u.s 			page 11


 571 021c 48       		.byte	0x48
 572 021d 09       		.uleb128 0x9
 573 021e 66030000 		.4byte	.LASF32
 574 0222 08       		.byte	0x8
 575 0223 1303     		.2byte	0x313
 576 0225 11       		.byte	0x11
 577 0226 8A000000 		.4byte	0x8a
 578 022a 50       		.byte	0x50
 579 022b 09       		.uleb128 0x9
 580 022c E2030000 		.4byte	.LASF33
 581 0230 08       		.byte	0x8
 582 0231 1403     		.2byte	0x314
 583 0233 11       		.byte	0x11
 584 0234 8A000000 		.4byte	0x8a
 585 0238 54       		.byte	0x54
 586 0239 09       		.uleb128 0x9
 587 023a A5010000 		.4byte	.LASF34
 588 023e 08       		.byte	0x8
 589 023f 1503     		.2byte	0x315
 590 0241 11       		.byte	0x11
 591 0242 8A000000 		.4byte	0x8a
 592 0246 58       		.byte	0x58
 593 0247 09       		.uleb128 0x9
 594 0248 14040000 		.4byte	.LASF35
 595 024c 08       		.byte	0x8
 596 024d 1603     		.2byte	0x316
 597 024f 11       		.byte	0x11
 598 0250 7E000000 		.4byte	0x7e
 599 0254 5C       		.byte	0x5c
 600 0255 09       		.uleb128 0x9
 601 0256 D5040000 		.4byte	.LASF36
 602 025a 08       		.byte	0x8
 603 025b 1703     		.2byte	0x317
 604 025d 11       		.byte	0x11
 605 025e 8A000000 		.4byte	0x8a
 606 0262 60       		.byte	0x60
 607 0263 09       		.uleb128 0x9
 608 0264 8B010000 		.4byte	.LASF37
 609 0268 08       		.byte	0x8
 610 0269 1803     		.2byte	0x318
 611 026b 11       		.byte	0x11
 612 026c 8A000000 		.4byte	0x8a
 613 0270 64       		.byte	0x64
 614 0271 09       		.uleb128 0x9
 615 0272 1E040000 		.4byte	.LASF38
 616 0276 08       		.byte	0x8
 617 0277 1903     		.2byte	0x319
 618 0279 11       		.byte	0x11
 619 027a 8F000000 		.4byte	0x8f
 620 027e 68       		.byte	0x68
 621 027f 09       		.uleb128 0x9
 622 0280 55010000 		.4byte	.LASF39
 623 0284 08       		.byte	0x8
 624 0285 1A03     		.2byte	0x31a
 625 0287 11       		.byte	0x11
 626 0288 8A000000 		.4byte	0x8a
 627 028c 70       		.byte	0x70
ARM GAS  /tmp/ccY0BO8u.s 			page 12


 628 028d 0A       		.uleb128 0xa
 629 028e 43535200 		.ascii	"CSR\000"
 630 0292 08       		.byte	0x8
 631 0293 1B03     		.2byte	0x31b
 632 0295 11       		.byte	0x11
 633 0296 8A000000 		.4byte	0x8a
 634 029a 74       		.byte	0x74
 635 029b 09       		.uleb128 0x9
 636 029c 03020000 		.4byte	.LASF40
 637 02a0 08       		.byte	0x8
 638 02a1 1C03     		.2byte	0x31c
 639 02a3 11       		.byte	0x11
 640 02a4 8F000000 		.4byte	0x8f
 641 02a8 78       		.byte	0x78
 642 02a9 09       		.uleb128 0x9
 643 02aa 95010000 		.4byte	.LASF41
 644 02ae 08       		.byte	0x8
 645 02af 1D03     		.2byte	0x31d
 646 02b1 11       		.byte	0x11
 647 02b2 8A000000 		.4byte	0x8a
 648 02b6 80       		.byte	0x80
 649 02b7 09       		.uleb128 0x9
 650 02b8 6B010000 		.4byte	.LASF42
 651 02bc 08       		.byte	0x8
 652 02bd 1E03     		.2byte	0x31e
 653 02bf 11       		.byte	0x11
 654 02c0 8A000000 		.4byte	0x8a
 655 02c4 84       		.byte	0x84
 656 02c5 09       		.uleb128 0x9
 657 02c6 CA040000 		.4byte	.LASF43
 658 02ca 08       		.byte	0x8
 659 02cb 1F03     		.2byte	0x31f
 660 02cd 11       		.byte	0x11
 661 02ce 8A000000 		.4byte	0x8a
 662 02d2 88       		.byte	0x88
 663 02d3 09       		.uleb128 0x9
 664 02d4 7D020000 		.4byte	.LASF44
 665 02d8 08       		.byte	0x8
 666 02d9 2003     		.2byte	0x320
 667 02db 11       		.byte	0x11
 668 02dc 8A000000 		.4byte	0x8a
 669 02e0 8C       		.byte	0x8c
 670 02e1 09       		.uleb128 0x9
 671 02e2 86020000 		.4byte	.LASF45
 672 02e6 08       		.byte	0x8
 673 02e7 2103     		.2byte	0x321
 674 02e9 11       		.byte	0x11
 675 02ea 8A000000 		.4byte	0x8a
 676 02ee 90       		.byte	0x90
 677 02ef 00       		.byte	0
 678 02f0 0B       		.uleb128 0xb
 679 02f1 71020000 		.4byte	.LASF46
 680 02f5 08       		.byte	0x8
 681 02f6 2303     		.2byte	0x323
 682 02f8 03       		.byte	0x3
 683 02f9 18010000 		.4byte	0x118
 684 02fd 08       		.uleb128 0x8
ARM GAS  /tmp/ccY0BO8u.s 			page 13


 685 02fe 60       		.byte	0x60
 686 02ff 09       		.byte	0x9
 687 0300 F501     		.2byte	0x1f5
 688 0302 09       		.byte	0x9
 689 0303 1E040000 		.4byte	0x41e
 690 0307 0A       		.uleb128 0xa
 691 0308 43523100 		.ascii	"CR1\000"
 692 030c 09       		.byte	0x9
 693 030d F601     		.2byte	0x1f6
 694 030f 19       		.byte	0x19
 695 0310 8A000000 		.4byte	0x8a
 696 0314 00       		.byte	0
 697 0315 0A       		.uleb128 0xa
 698 0316 43523200 		.ascii	"CR2\000"
 699 031a 09       		.byte	0x9
 700 031b F701     		.2byte	0x1f7
 701 031d 19       		.byte	0x19
 702 031e 8A000000 		.4byte	0x8a
 703 0322 04       		.byte	0x4
 704 0323 09       		.uleb128 0x9
 705 0324 C8020000 		.4byte	.LASF47
 706 0328 09       		.byte	0x9
 707 0329 F801     		.2byte	0x1f8
 708 032b 19       		.byte	0x19
 709 032c 8A000000 		.4byte	0x8a
 710 0330 08       		.byte	0x8
 711 0331 09       		.uleb128 0x9
 712 0332 70030000 		.4byte	.LASF48
 713 0336 09       		.byte	0x9
 714 0337 F901     		.2byte	0x1f9
 715 0339 19       		.byte	0x19
 716 033a 8A000000 		.4byte	0x8a
 717 033e 0C       		.byte	0xc
 718 033f 0A       		.uleb128 0xa
 719 0340 535200   		.ascii	"SR\000"
 720 0343 09       		.byte	0x9
 721 0344 FA01     		.2byte	0x1fa
 722 0346 19       		.byte	0x19
 723 0347 8A000000 		.4byte	0x8a
 724 034b 10       		.byte	0x10
 725 034c 0A       		.uleb128 0xa
 726 034d 45475200 		.ascii	"EGR\000"
 727 0351 09       		.byte	0x9
 728 0352 FB01     		.2byte	0x1fb
 729 0354 19       		.byte	0x19
 730 0355 8A000000 		.4byte	0x8a
 731 0359 14       		.byte	0x14
 732 035a 09       		.uleb128 0x9
 733 035b 44010000 		.4byte	.LASF49
 734 035f 09       		.byte	0x9
 735 0360 FC01     		.2byte	0x1fc
 736 0362 19       		.byte	0x19
 737 0363 8A000000 		.4byte	0x8a
 738 0367 18       		.byte	0x18
 739 0368 09       		.uleb128 0x9
 740 0369 4A010000 		.4byte	.LASF50
 741 036d 09       		.byte	0x9
ARM GAS  /tmp/ccY0BO8u.s 			page 14


 742 036e FD01     		.2byte	0x1fd
 743 0370 19       		.byte	0x19
 744 0371 8A000000 		.4byte	0x8a
 745 0375 1C       		.byte	0x1c
 746 0376 09       		.uleb128 0x9
 747 0377 13000000 		.4byte	.LASF51
 748 037b 09       		.byte	0x9
 749 037c FE01     		.2byte	0x1fe
 750 037e 19       		.byte	0x19
 751 037f 8A000000 		.4byte	0x8a
 752 0383 20       		.byte	0x20
 753 0384 0A       		.uleb128 0xa
 754 0385 434E5400 		.ascii	"CNT\000"
 755 0389 09       		.byte	0x9
 756 038a FF01     		.2byte	0x1ff
 757 038c 19       		.byte	0x19
 758 038d 8A000000 		.4byte	0x8a
 759 0391 24       		.byte	0x24
 760 0392 0A       		.uleb128 0xa
 761 0393 50534300 		.ascii	"PSC\000"
 762 0397 09       		.byte	0x9
 763 0398 0002     		.2byte	0x200
 764 039a 19       		.byte	0x19
 765 039b 8A000000 		.4byte	0x8a
 766 039f 28       		.byte	0x28
 767 03a0 0A       		.uleb128 0xa
 768 03a1 41525200 		.ascii	"ARR\000"
 769 03a5 09       		.byte	0x9
 770 03a6 0102     		.2byte	0x201
 771 03a8 19       		.byte	0x19
 772 03a9 8A000000 		.4byte	0x8a
 773 03ad 2C       		.byte	0x2c
 774 03ae 0A       		.uleb128 0xa
 775 03af 52435200 		.ascii	"RCR\000"
 776 03b3 09       		.byte	0x9
 777 03b4 0202     		.2byte	0x202
 778 03b6 19       		.byte	0x19
 779 03b7 8A000000 		.4byte	0x8a
 780 03bb 30       		.byte	0x30
 781 03bc 0A       		.uleb128 0xa
 782 03bd 43435200 		.ascii	"CCR\000"
 783 03c1 09       		.byte	0x9
 784 03c2 0302     		.2byte	0x203
 785 03c4 19       		.byte	0x19
 786 03c5 13010000 		.4byte	0x113
 787 03c9 34       		.byte	0x34
 788 03ca 09       		.uleb128 0x9
 789 03cb A4030000 		.4byte	.LASF52
 790 03cf 09       		.byte	0x9
 791 03d0 0402     		.2byte	0x204
 792 03d2 19       		.byte	0x19
 793 03d3 8A000000 		.4byte	0x8a
 794 03d7 44       		.byte	0x44
 795 03d8 0A       		.uleb128 0xa
 796 03d9 44435200 		.ascii	"DCR\000"
 797 03dd 09       		.byte	0x9
 798 03de 0502     		.2byte	0x205
ARM GAS  /tmp/ccY0BO8u.s 			page 15


 799 03e0 19       		.byte	0x19
 800 03e1 8A000000 		.4byte	0x8a
 801 03e5 48       		.byte	0x48
 802 03e6 09       		.uleb128 0x9
 803 03e7 3F010000 		.4byte	.LASF53
 804 03eb 09       		.byte	0x9
 805 03ec 0602     		.2byte	0x206
 806 03ee 19       		.byte	0x19
 807 03ef 8A000000 		.4byte	0x8a
 808 03f3 4C       		.byte	0x4c
 809 03f4 0A       		.uleb128 0xa
 810 03f5 4F5200   		.ascii	"OR\000"
 811 03f8 09       		.byte	0x9
 812 03f9 0702     		.2byte	0x207
 813 03fb 19       		.byte	0x19
 814 03fc 8A000000 		.4byte	0x8a
 815 0400 50       		.byte	0x50
 816 0401 09       		.uleb128 0x9
 817 0402 A1020000 		.4byte	.LASF54
 818 0406 09       		.byte	0x9
 819 0407 0802     		.2byte	0x208
 820 0409 19       		.byte	0x19
 821 040a 8A000000 		.4byte	0x8a
 822 040e 54       		.byte	0x54
 823 040f 09       		.uleb128 0x9
 824 0410 50010000 		.4byte	.LASF55
 825 0414 09       		.byte	0x9
 826 0415 0902     		.2byte	0x209
 827 0417 19       		.byte	0x19
 828 0418 FE000000 		.4byte	0xfe
 829 041c 58       		.byte	0x58
 830 041d 00       		.byte	0
 831 041e 0B       		.uleb128 0xb
 832 041f 98030000 		.4byte	.LASF56
 833 0423 09       		.byte	0x9
 834 0424 0A02     		.2byte	0x20a
 835 0426 03       		.byte	0x3
 836 0427 FD020000 		.4byte	0x2fd
 837 042b 03       		.uleb128 0x3
 838 042c 01       		.byte	0x1
 839 042d 08       		.byte	0x8
 840 042e 63020000 		.4byte	.LASF57
 841 0432 03       		.uleb128 0x3
 842 0433 01       		.byte	0x1
 843 0434 02       		.byte	0x2
 844 0435 BC030000 		.4byte	.LASF58
 845 0439 0C       		.uleb128 0xc
 846 043a AC040000 		.4byte	.LASF59
 847 043e 01       		.byte	0x1
 848 043f 6401     		.2byte	0x164
 849 0441 06       		.byte	0x6
 850 0442 00000000 		.4byte	.LFB335
 851 0446 4C000000 		.4byte	.LFE335-.LFB335
 852 044a 01       		.uleb128 0x1
 853 044b 9C       		.byte	0x9c
 854 044c 65040000 		.4byte	0x465
 855 0450 0D       		.uleb128 0xd
ARM GAS  /tmp/ccY0BO8u.s 			page 16


 856 0451 44000000 		.4byte	.LVL8
 857 0455 2B060000 		.4byte	0x62b
 858 0459 0E       		.uleb128 0xe
 859 045a 01       		.uleb128 0x1
 860 045b 50       		.byte	0x50
 861 045c 01       		.uleb128 0x1
 862 045d 4C       		.byte	0x4c
 863 045e 0E       		.uleb128 0xe
 864 045f 01       		.uleb128 0x1
 865 0460 51       		.byte	0x51
 866 0461 01       		.uleb128 0x1
 867 0462 38       		.byte	0x38
 868 0463 00       		.byte	0
 869 0464 00       		.byte	0
 870 0465 0C       		.uleb128 0xc
 871 0466 98020000 		.4byte	.LASF60
 872 046a 01       		.byte	0x1
 873 046b 4801     		.2byte	0x148
 874 046d 01       		.byte	0x1
 875 046e 00000000 		.4byte	.LFB334
 876 0472 32000000 		.4byte	.LFE334-.LFB334
 877 0476 01       		.uleb128 0x1
 878 0477 9C       		.byte	0x9c
 879 0478 B5050000 		.4byte	0x5b5
 880 047c 0F       		.uleb128 0xf
 881 047d C9050000 		.4byte	0x5c9
 882 0481 14000000 		.4byte	.LBI48
 883 0485 01       		.byte	.LVU15
 884 0486 00000000 		.4byte	.Ldebug_ranges0+0
 885 048a 01       		.byte	0x1
 886 048b 5201     		.2byte	0x152
 887 048d 05       		.byte	0x5
 888 048e FD040000 		.4byte	0x4fd
 889 0492 10       		.uleb128 0x10
 890 0493 DD050000 		.4byte	0x5dd
 891 0497 14000000 		.4byte	.LBI49
 892 049b 03       		.byte	.LVU17
 893 049c 08000000 		.4byte	.Ldebug_ranges0+0x8
 894 04a0 02       		.byte	0x2
 895 04a1 1502     		.2byte	0x215
 896 04a3 03       		.byte	0x3
 897 04a4 0F       		.uleb128 0xf
 898 04a5 F1050000 		.4byte	0x5f1
 899 04a9 14000000 		.4byte	.LBI51
 900 04ad 05       		.byte	.LVU19
 901 04ae 28000000 		.4byte	.Ldebug_ranges0+0x28
 902 04b2 03       		.byte	0x3
 903 04b3 8B01     		.2byte	0x18b
 904 04b5 03       		.byte	0x3
 905 04b6 F2040000 		.4byte	0x4f2
 906 04ba 10       		.uleb128 0x10
 907 04bb 05060000 		.4byte	0x605
 908 04bf 14000000 		.4byte	.LBI52
 909 04c3 07       		.byte	.LVU21
 910 04c4 30000000 		.4byte	.Ldebug_ranges0+0x30
 911 04c8 04       		.byte	0x4
 912 04c9 8302     		.2byte	0x283
ARM GAS  /tmp/ccY0BO8u.s 			page 17


 913 04cb 03       		.byte	0x3
 914 04cc 11       		.uleb128 0x11
 915 04cd 0F060000 		.4byte	0x60f
 916 04d1 14000000 		.4byte	.LBI53
 917 04d5 09       		.byte	.LVU23
 918 04d6 14000000 		.4byte	.LBB53
 919 04da 06000000 		.4byte	.LBE53-.LBB53
 920 04de 04       		.byte	0x4
 921 04df 6202     		.2byte	0x262
 922 04e1 03       		.byte	0x3
 923 04e2 12       		.uleb128 0x12
 924 04e3 1D060000 		.4byte	0x61d
 925 04e7 02000000 		.4byte	.LLST0
 926 04eb 00000000 		.4byte	.LVUS0
 927 04ef 00       		.byte	0
 928 04f0 00       		.byte	0
 929 04f1 00       		.byte	0
 930 04f2 13       		.uleb128 0x13
 931 04f3 1E000000 		.4byte	.LVL3
 932 04f7 37060000 		.4byte	0x637
 933 04fb 00       		.byte	0
 934 04fc 00       		.byte	0
 935 04fd 14       		.uleb128 0x14
 936 04fe B5050000 		.4byte	0x5b5
 937 0502 1E000000 		.4byte	.LBI65
 938 0506 02       		.byte	.LVU29
 939 0507 1E000000 		.4byte	.LBB65
 940 050b 04000000 		.4byte	.LBE65-.LBB65
 941 050f 01       		.byte	0x1
 942 0510 5301     		.2byte	0x153
 943 0512 05       		.byte	0x5
 944 0513 21050000 		.4byte	0x521
 945 0517 13       		.uleb128 0x13
 946 0518 22000000 		.4byte	.LVL4
 947 051c 43060000 		.4byte	0x643
 948 0520 00       		.byte	0
 949 0521 0F       		.uleb128 0xf
 950 0522 BF050000 		.4byte	0x5bf
 951 0526 22000000 		.4byte	.LBI67
 952 052a 01       		.byte	.LVU32
 953 052b 48000000 		.4byte	.Ldebug_ranges0+0x48
 954 052f 01       		.byte	0x1
 955 0530 5401     		.2byte	0x154
 956 0532 05       		.byte	0x5
 957 0533 A2050000 		.4byte	0x5a2
 958 0537 10       		.uleb128 0x10
 959 0538 D3050000 		.4byte	0x5d3
 960 053c 22000000 		.4byte	.LBI68
 961 0540 03       		.byte	.LVU34
 962 0541 50000000 		.4byte	.Ldebug_ranges0+0x50
 963 0545 02       		.byte	0x2
 964 0546 2002     		.2byte	0x220
 965 0548 03       		.byte	0x3
 966 0549 0F       		.uleb128 0xf
 967 054a E7050000 		.4byte	0x5e7
 968 054e 26000000 		.4byte	.LBI70
 969 0552 01       		.byte	.LVU38
ARM GAS  /tmp/ccY0BO8u.s 			page 18


 970 0553 70000000 		.4byte	.Ldebug_ranges0+0x70
 971 0557 03       		.byte	0x3
 972 0558 A101     		.2byte	0x1a1
 973 055a 03       		.byte	0x3
 974 055b 97050000 		.4byte	0x597
 975 055f 10       		.uleb128 0x10
 976 0560 FB050000 		.4byte	0x5fb
 977 0564 26000000 		.4byte	.LBI71
 978 0568 03       		.byte	.LVU40
 979 0569 78000000 		.4byte	.Ldebug_ranges0+0x78
 980 056d 04       		.byte	0x4
 981 056e 8E02     		.2byte	0x28e
 982 0570 03       		.byte	0x3
 983 0571 11       		.uleb128 0x11
 984 0572 0F060000 		.4byte	0x60f
 985 0576 26000000 		.4byte	.LBI72
 986 057a 05       		.byte	.LVU42
 987 057b 26000000 		.4byte	.LBB72
 988 057f 04000000 		.4byte	.LBE72-.LBB72
 989 0583 04       		.byte	0x4
 990 0584 7502     		.2byte	0x275
 991 0586 03       		.byte	0x3
 992 0587 12       		.uleb128 0x12
 993 0588 1D060000 		.4byte	0x61d
 994 058c 19000000 		.4byte	.LLST1
 995 0590 17000000 		.4byte	.LVUS1
 996 0594 00       		.byte	0
 997 0595 00       		.byte	0
 998 0596 00       		.byte	0
 999 0597 13       		.uleb128 0x13
 1000 0598 26000000 		.4byte	.LVL5
 1001 059c 50060000 		.4byte	0x650
 1002 05a0 00       		.byte	0
 1003 05a1 00       		.byte	0
 1004 05a2 13       		.uleb128 0x13
 1005 05a3 06000000 		.4byte	.LVL0
 1006 05a7 5C060000 		.4byte	0x65c
 1007 05ab 15       		.uleb128 0x15
 1008 05ac 32000000 		.4byte	.LVL7
 1009 05b0 68060000 		.4byte	0x668
 1010 05b4 00       		.byte	0
 1011 05b5 16       		.uleb128 0x16
 1012 05b6 1A010000 		.4byte	.LASF61
 1013 05ba 02       		.byte	0x2
 1014 05bb 5902     		.2byte	0x259
 1015 05bd 14       		.byte	0x14
 1016 05be 03       		.byte	0x3
 1017 05bf 16       		.uleb128 0x16
 1018 05c0 B3020000 		.4byte	.LASF62
 1019 05c4 02       		.byte	0x2
 1020 05c5 1E02     		.2byte	0x21e
 1021 05c7 14       		.byte	0x14
 1022 05c8 03       		.byte	0x3
 1023 05c9 16       		.uleb128 0x16
 1024 05ca A9030000 		.4byte	.LASF63
 1025 05ce 02       		.byte	0x2
 1026 05cf 1302     		.2byte	0x213
ARM GAS  /tmp/ccY0BO8u.s 			page 19


 1027 05d1 14       		.byte	0x14
 1028 05d2 03       		.byte	0x3
 1029 05d3 16       		.uleb128 0x16
 1030 05d4 15020000 		.4byte	.LASF64
 1031 05d8 03       		.byte	0x3
 1032 05d9 9D01     		.2byte	0x19d
 1033 05db 14       		.byte	0x14
 1034 05dc 03       		.byte	0x3
 1035 05dd 16       		.uleb128 0x16
 1036 05de 5A010000 		.4byte	.LASF65
 1037 05e2 03       		.byte	0x3
 1038 05e3 8901     		.2byte	0x189
 1039 05e5 14       		.byte	0x14
 1040 05e6 03       		.byte	0x3
 1041 05e7 16       		.uleb128 0x16
 1042 05e8 84040000 		.4byte	.LASF66
 1043 05ec 04       		.byte	0x4
 1044 05ed 8C02     		.2byte	0x28c
 1045 05ef 14       		.byte	0x14
 1046 05f0 03       		.byte	0x3
 1047 05f1 16       		.uleb128 0x16
 1048 05f2 00000000 		.4byte	.LASF67
 1049 05f6 04       		.byte	0x4
 1050 05f7 8102     		.2byte	0x281
 1051 05f9 14       		.byte	0x14
 1052 05fa 03       		.byte	0x3
 1053 05fb 16       		.uleb128 0x16
 1054 05fc C2030000 		.4byte	.LASF68
 1055 0600 04       		.byte	0x4
 1056 0601 7202     		.2byte	0x272
 1057 0603 14       		.byte	0x14
 1058 0604 03       		.byte	0x3
 1059 0605 16       		.uleb128 0x16
 1060 0606 76010000 		.4byte	.LASF69
 1061 060a 04       		.byte	0x4
 1062 060b 5A02     		.2byte	0x25a
 1063 060d 14       		.byte	0x14
 1064 060e 03       		.byte	0x3
 1065 060f 17       		.uleb128 0x17
 1066 0610 67040000 		.4byte	.LASF79
 1067 0614 05       		.byte	0x5
 1068 0615 EB01     		.2byte	0x1eb
 1069 0617 1B       		.byte	0x1b
 1070 0618 03       		.byte	0x3
 1071 0619 2B060000 		.4byte	0x62b
 1072 061d 18       		.uleb128 0x18
 1073 061e 90030000 		.4byte	.LASF80
 1074 0622 05       		.byte	0x5
 1075 0623 EB01     		.2byte	0x1eb
 1076 0625 32       		.byte	0x32
 1077 0626 7E000000 		.4byte	0x7e
 1078 062a 00       		.byte	0
 1079 062b 19       		.uleb128 0x19
 1080 062c F6020000 		.4byte	.LASF70
 1081 0630 F6020000 		.4byte	.LASF70
 1082 0634 0A       		.byte	0xa
 1083 0635 4E       		.byte	0x4e
ARM GAS  /tmp/ccY0BO8u.s 			page 20


 1084 0636 08       		.byte	0x8
 1085 0637 19       		.uleb128 0x19
 1086 0638 49040000 		.4byte	.LASF71
 1087 063c 49040000 		.4byte	.LASF71
 1088 0640 0B       		.byte	0xb
 1089 0641 51       		.byte	0x51
 1090 0642 08       		.byte	0x8
 1091 0643 1A       		.uleb128 0x1a
 1092 0644 99040000 		.4byte	.LASF72
 1093 0648 99040000 		.4byte	.LASF72
 1094 064c 03       		.byte	0x3
 1095 064d 1F01     		.2byte	0x11f
 1096 064f 08       		.byte	0x8
 1097 0650 19       		.uleb128 0x19
 1098 0651 49030000 		.4byte	.LASF73
 1099 0655 49030000 		.4byte	.LASF73
 1100 0659 0B       		.byte	0xb
 1101 065a 52       		.byte	0x52
 1102 065b 08       		.byte	0x8
 1103 065c 19       		.uleb128 0x19
 1104 065d CE030000 		.4byte	.LASF74
 1105 0661 CE030000 		.4byte	.LASF74
 1106 0665 0B       		.byte	0xb
 1107 0666 4D       		.byte	0x4d
 1108 0667 08       		.byte	0x8
 1109 0668 1A       		.uleb128 0x1a
 1110 0669 CD020000 		.4byte	.LASF75
 1111 066d CD020000 		.4byte	.LASF75
 1112 0671 04       		.byte	0x4
 1113 0672 F201     		.2byte	0x1f2
 1114 0674 08       		.byte	0x8
 1115 0675 00       		.byte	0
 1116              		.section	.debug_abbrev,"",%progbits
 1117              	.Ldebug_abbrev0:
 1118 0000 01       		.uleb128 0x1
 1119 0001 11       		.uleb128 0x11
 1120 0002 01       		.byte	0x1
 1121 0003 25       		.uleb128 0x25
 1122 0004 0E       		.uleb128 0xe
 1123 0005 13       		.uleb128 0x13
 1124 0006 0B       		.uleb128 0xb
 1125 0007 03       		.uleb128 0x3
 1126 0008 0E       		.uleb128 0xe
 1127 0009 1B       		.uleb128 0x1b
 1128 000a 0E       		.uleb128 0xe
 1129 000b 55       		.uleb128 0x55
 1130 000c 17       		.uleb128 0x17
 1131 000d 11       		.uleb128 0x11
 1132 000e 01       		.uleb128 0x1
 1133 000f 10       		.uleb128 0x10
 1134 0010 17       		.uleb128 0x17
 1135 0011 00       		.byte	0
 1136 0012 00       		.byte	0
 1137 0013 02       		.uleb128 0x2
 1138 0014 24       		.uleb128 0x24
 1139 0015 00       		.byte	0
 1140 0016 0B       		.uleb128 0xb
ARM GAS  /tmp/ccY0BO8u.s 			page 21


 1141 0017 0B       		.uleb128 0xb
 1142 0018 3E       		.uleb128 0x3e
 1143 0019 0B       		.uleb128 0xb
 1144 001a 03       		.uleb128 0x3
 1145 001b 08       		.uleb128 0x8
 1146 001c 00       		.byte	0
 1147 001d 00       		.byte	0
 1148 001e 03       		.uleb128 0x3
 1149 001f 24       		.uleb128 0x24
 1150 0020 00       		.byte	0
 1151 0021 0B       		.uleb128 0xb
 1152 0022 0B       		.uleb128 0xb
 1153 0023 3E       		.uleb128 0x3e
 1154 0024 0B       		.uleb128 0xb
 1155 0025 03       		.uleb128 0x3
 1156 0026 0E       		.uleb128 0xe
 1157 0027 00       		.byte	0
 1158 0028 00       		.byte	0
 1159 0029 04       		.uleb128 0x4
 1160 002a 16       		.uleb128 0x16
 1161 002b 00       		.byte	0
 1162 002c 03       		.uleb128 0x3
 1163 002d 0E       		.uleb128 0xe
 1164 002e 3A       		.uleb128 0x3a
 1165 002f 0B       		.uleb128 0xb
 1166 0030 3B       		.uleb128 0x3b
 1167 0031 0B       		.uleb128 0xb
 1168 0032 39       		.uleb128 0x39
 1169 0033 0B       		.uleb128 0xb
 1170 0034 49       		.uleb128 0x49
 1171 0035 13       		.uleb128 0x13
 1172 0036 00       		.byte	0
 1173 0037 00       		.byte	0
 1174 0038 05       		.uleb128 0x5
 1175 0039 35       		.uleb128 0x35
 1176 003a 00       		.byte	0
 1177 003b 49       		.uleb128 0x49
 1178 003c 13       		.uleb128 0x13
 1179 003d 00       		.byte	0
 1180 003e 00       		.byte	0
 1181 003f 06       		.uleb128 0x6
 1182 0040 01       		.uleb128 0x1
 1183 0041 01       		.byte	0x1
 1184 0042 49       		.uleb128 0x49
 1185 0043 13       		.uleb128 0x13
 1186 0044 01       		.uleb128 0x1
 1187 0045 13       		.uleb128 0x13
 1188 0046 00       		.byte	0
 1189 0047 00       		.byte	0
 1190 0048 07       		.uleb128 0x7
 1191 0049 21       		.uleb128 0x21
 1192 004a 00       		.byte	0
 1193 004b 49       		.uleb128 0x49
 1194 004c 13       		.uleb128 0x13
 1195 004d 2F       		.uleb128 0x2f
 1196 004e 0B       		.uleb128 0xb
 1197 004f 00       		.byte	0
ARM GAS  /tmp/ccY0BO8u.s 			page 22


 1198 0050 00       		.byte	0
 1199 0051 08       		.uleb128 0x8
 1200 0052 13       		.uleb128 0x13
 1201 0053 01       		.byte	0x1
 1202 0054 0B       		.uleb128 0xb
 1203 0055 0B       		.uleb128 0xb
 1204 0056 3A       		.uleb128 0x3a
 1205 0057 0B       		.uleb128 0xb
 1206 0058 3B       		.uleb128 0x3b
 1207 0059 05       		.uleb128 0x5
 1208 005a 39       		.uleb128 0x39
 1209 005b 0B       		.uleb128 0xb
 1210 005c 01       		.uleb128 0x1
 1211 005d 13       		.uleb128 0x13
 1212 005e 00       		.byte	0
 1213 005f 00       		.byte	0
 1214 0060 09       		.uleb128 0x9
 1215 0061 0D       		.uleb128 0xd
 1216 0062 00       		.byte	0
 1217 0063 03       		.uleb128 0x3
 1218 0064 0E       		.uleb128 0xe
 1219 0065 3A       		.uleb128 0x3a
 1220 0066 0B       		.uleb128 0xb
 1221 0067 3B       		.uleb128 0x3b
 1222 0068 05       		.uleb128 0x5
 1223 0069 39       		.uleb128 0x39
 1224 006a 0B       		.uleb128 0xb
 1225 006b 49       		.uleb128 0x49
 1226 006c 13       		.uleb128 0x13
 1227 006d 38       		.uleb128 0x38
 1228 006e 0B       		.uleb128 0xb
 1229 006f 00       		.byte	0
 1230 0070 00       		.byte	0
 1231 0071 0A       		.uleb128 0xa
 1232 0072 0D       		.uleb128 0xd
 1233 0073 00       		.byte	0
 1234 0074 03       		.uleb128 0x3
 1235 0075 08       		.uleb128 0x8
 1236 0076 3A       		.uleb128 0x3a
 1237 0077 0B       		.uleb128 0xb
 1238 0078 3B       		.uleb128 0x3b
 1239 0079 05       		.uleb128 0x5
 1240 007a 39       		.uleb128 0x39
 1241 007b 0B       		.uleb128 0xb
 1242 007c 49       		.uleb128 0x49
 1243 007d 13       		.uleb128 0x13
 1244 007e 38       		.uleb128 0x38
 1245 007f 0B       		.uleb128 0xb
 1246 0080 00       		.byte	0
 1247 0081 00       		.byte	0
 1248 0082 0B       		.uleb128 0xb
 1249 0083 16       		.uleb128 0x16
 1250 0084 00       		.byte	0
 1251 0085 03       		.uleb128 0x3
 1252 0086 0E       		.uleb128 0xe
 1253 0087 3A       		.uleb128 0x3a
 1254 0088 0B       		.uleb128 0xb
ARM GAS  /tmp/ccY0BO8u.s 			page 23


 1255 0089 3B       		.uleb128 0x3b
 1256 008a 05       		.uleb128 0x5
 1257 008b 39       		.uleb128 0x39
 1258 008c 0B       		.uleb128 0xb
 1259 008d 49       		.uleb128 0x49
 1260 008e 13       		.uleb128 0x13
 1261 008f 00       		.byte	0
 1262 0090 00       		.byte	0
 1263 0091 0C       		.uleb128 0xc
 1264 0092 2E       		.uleb128 0x2e
 1265 0093 01       		.byte	0x1
 1266 0094 3F       		.uleb128 0x3f
 1267 0095 19       		.uleb128 0x19
 1268 0096 03       		.uleb128 0x3
 1269 0097 0E       		.uleb128 0xe
 1270 0098 3A       		.uleb128 0x3a
 1271 0099 0B       		.uleb128 0xb
 1272 009a 3B       		.uleb128 0x3b
 1273 009b 05       		.uleb128 0x5
 1274 009c 39       		.uleb128 0x39
 1275 009d 0B       		.uleb128 0xb
 1276 009e 27       		.uleb128 0x27
 1277 009f 19       		.uleb128 0x19
 1278 00a0 11       		.uleb128 0x11
 1279 00a1 01       		.uleb128 0x1
 1280 00a2 12       		.uleb128 0x12
 1281 00a3 06       		.uleb128 0x6
 1282 00a4 40       		.uleb128 0x40
 1283 00a5 18       		.uleb128 0x18
 1284 00a6 9742     		.uleb128 0x2117
 1285 00a8 19       		.uleb128 0x19
 1286 00a9 01       		.uleb128 0x1
 1287 00aa 13       		.uleb128 0x13
 1288 00ab 00       		.byte	0
 1289 00ac 00       		.byte	0
 1290 00ad 0D       		.uleb128 0xd
 1291 00ae 898201   		.uleb128 0x4109
 1292 00b1 01       		.byte	0x1
 1293 00b2 11       		.uleb128 0x11
 1294 00b3 01       		.uleb128 0x1
 1295 00b4 9542     		.uleb128 0x2115
 1296 00b6 19       		.uleb128 0x19
 1297 00b7 31       		.uleb128 0x31
 1298 00b8 13       		.uleb128 0x13
 1299 00b9 00       		.byte	0
 1300 00ba 00       		.byte	0
 1301 00bb 0E       		.uleb128 0xe
 1302 00bc 8A8201   		.uleb128 0x410a
 1303 00bf 00       		.byte	0
 1304 00c0 02       		.uleb128 0x2
 1305 00c1 18       		.uleb128 0x18
 1306 00c2 9142     		.uleb128 0x2111
 1307 00c4 18       		.uleb128 0x18
 1308 00c5 00       		.byte	0
 1309 00c6 00       		.byte	0
 1310 00c7 0F       		.uleb128 0xf
 1311 00c8 1D       		.uleb128 0x1d
ARM GAS  /tmp/ccY0BO8u.s 			page 24


 1312 00c9 01       		.byte	0x1
 1313 00ca 31       		.uleb128 0x31
 1314 00cb 13       		.uleb128 0x13
 1315 00cc 52       		.uleb128 0x52
 1316 00cd 01       		.uleb128 0x1
 1317 00ce B842     		.uleb128 0x2138
 1318 00d0 0B       		.uleb128 0xb
 1319 00d1 55       		.uleb128 0x55
 1320 00d2 17       		.uleb128 0x17
 1321 00d3 58       		.uleb128 0x58
 1322 00d4 0B       		.uleb128 0xb
 1323 00d5 59       		.uleb128 0x59
 1324 00d6 05       		.uleb128 0x5
 1325 00d7 57       		.uleb128 0x57
 1326 00d8 0B       		.uleb128 0xb
 1327 00d9 01       		.uleb128 0x1
 1328 00da 13       		.uleb128 0x13
 1329 00db 00       		.byte	0
 1330 00dc 00       		.byte	0
 1331 00dd 10       		.uleb128 0x10
 1332 00de 1D       		.uleb128 0x1d
 1333 00df 01       		.byte	0x1
 1334 00e0 31       		.uleb128 0x31
 1335 00e1 13       		.uleb128 0x13
 1336 00e2 52       		.uleb128 0x52
 1337 00e3 01       		.uleb128 0x1
 1338 00e4 B842     		.uleb128 0x2138
 1339 00e6 0B       		.uleb128 0xb
 1340 00e7 55       		.uleb128 0x55
 1341 00e8 17       		.uleb128 0x17
 1342 00e9 58       		.uleb128 0x58
 1343 00ea 0B       		.uleb128 0xb
 1344 00eb 59       		.uleb128 0x59
 1345 00ec 05       		.uleb128 0x5
 1346 00ed 57       		.uleb128 0x57
 1347 00ee 0B       		.uleb128 0xb
 1348 00ef 00       		.byte	0
 1349 00f0 00       		.byte	0
 1350 00f1 11       		.uleb128 0x11
 1351 00f2 1D       		.uleb128 0x1d
 1352 00f3 01       		.byte	0x1
 1353 00f4 31       		.uleb128 0x31
 1354 00f5 13       		.uleb128 0x13
 1355 00f6 52       		.uleb128 0x52
 1356 00f7 01       		.uleb128 0x1
 1357 00f8 B842     		.uleb128 0x2138
 1358 00fa 0B       		.uleb128 0xb
 1359 00fb 11       		.uleb128 0x11
 1360 00fc 01       		.uleb128 0x1
 1361 00fd 12       		.uleb128 0x12
 1362 00fe 06       		.uleb128 0x6
 1363 00ff 58       		.uleb128 0x58
 1364 0100 0B       		.uleb128 0xb
 1365 0101 59       		.uleb128 0x59
 1366 0102 05       		.uleb128 0x5
 1367 0103 57       		.uleb128 0x57
 1368 0104 0B       		.uleb128 0xb
ARM GAS  /tmp/ccY0BO8u.s 			page 25


 1369 0105 00       		.byte	0
 1370 0106 00       		.byte	0
 1371 0107 12       		.uleb128 0x12
 1372 0108 05       		.uleb128 0x5
 1373 0109 00       		.byte	0
 1374 010a 31       		.uleb128 0x31
 1375 010b 13       		.uleb128 0x13
 1376 010c 02       		.uleb128 0x2
 1377 010d 17       		.uleb128 0x17
 1378 010e B742     		.uleb128 0x2137
 1379 0110 17       		.uleb128 0x17
 1380 0111 00       		.byte	0
 1381 0112 00       		.byte	0
 1382 0113 13       		.uleb128 0x13
 1383 0114 898201   		.uleb128 0x4109
 1384 0117 00       		.byte	0
 1385 0118 11       		.uleb128 0x11
 1386 0119 01       		.uleb128 0x1
 1387 011a 31       		.uleb128 0x31
 1388 011b 13       		.uleb128 0x13
 1389 011c 00       		.byte	0
 1390 011d 00       		.byte	0
 1391 011e 14       		.uleb128 0x14
 1392 011f 1D       		.uleb128 0x1d
 1393 0120 01       		.byte	0x1
 1394 0121 31       		.uleb128 0x31
 1395 0122 13       		.uleb128 0x13
 1396 0123 52       		.uleb128 0x52
 1397 0124 01       		.uleb128 0x1
 1398 0125 B842     		.uleb128 0x2138
 1399 0127 0B       		.uleb128 0xb
 1400 0128 11       		.uleb128 0x11
 1401 0129 01       		.uleb128 0x1
 1402 012a 12       		.uleb128 0x12
 1403 012b 06       		.uleb128 0x6
 1404 012c 58       		.uleb128 0x58
 1405 012d 0B       		.uleb128 0xb
 1406 012e 59       		.uleb128 0x59
 1407 012f 05       		.uleb128 0x5
 1408 0130 57       		.uleb128 0x57
 1409 0131 0B       		.uleb128 0xb
 1410 0132 01       		.uleb128 0x1
 1411 0133 13       		.uleb128 0x13
 1412 0134 00       		.byte	0
 1413 0135 00       		.byte	0
 1414 0136 15       		.uleb128 0x15
 1415 0137 898201   		.uleb128 0x4109
 1416 013a 00       		.byte	0
 1417 013b 11       		.uleb128 0x11
 1418 013c 01       		.uleb128 0x1
 1419 013d 9542     		.uleb128 0x2115
 1420 013f 19       		.uleb128 0x19
 1421 0140 31       		.uleb128 0x31
 1422 0141 13       		.uleb128 0x13
 1423 0142 00       		.byte	0
 1424 0143 00       		.byte	0
 1425 0144 16       		.uleb128 0x16
ARM GAS  /tmp/ccY0BO8u.s 			page 26


 1426 0145 2E       		.uleb128 0x2e
 1427 0146 00       		.byte	0
 1428 0147 03       		.uleb128 0x3
 1429 0148 0E       		.uleb128 0xe
 1430 0149 3A       		.uleb128 0x3a
 1431 014a 0B       		.uleb128 0xb
 1432 014b 3B       		.uleb128 0x3b
 1433 014c 05       		.uleb128 0x5
 1434 014d 39       		.uleb128 0x39
 1435 014e 0B       		.uleb128 0xb
 1436 014f 27       		.uleb128 0x27
 1437 0150 19       		.uleb128 0x19
 1438 0151 20       		.uleb128 0x20
 1439 0152 0B       		.uleb128 0xb
 1440 0153 00       		.byte	0
 1441 0154 00       		.byte	0
 1442 0155 17       		.uleb128 0x17
 1443 0156 2E       		.uleb128 0x2e
 1444 0157 01       		.byte	0x1
 1445 0158 03       		.uleb128 0x3
 1446 0159 0E       		.uleb128 0xe
 1447 015a 3A       		.uleb128 0x3a
 1448 015b 0B       		.uleb128 0xb
 1449 015c 3B       		.uleb128 0x3b
 1450 015d 05       		.uleb128 0x5
 1451 015e 39       		.uleb128 0x39
 1452 015f 0B       		.uleb128 0xb
 1453 0160 27       		.uleb128 0x27
 1454 0161 19       		.uleb128 0x19
 1455 0162 20       		.uleb128 0x20
 1456 0163 0B       		.uleb128 0xb
 1457 0164 01       		.uleb128 0x1
 1458 0165 13       		.uleb128 0x13
 1459 0166 00       		.byte	0
 1460 0167 00       		.byte	0
 1461 0168 18       		.uleb128 0x18
 1462 0169 05       		.uleb128 0x5
 1463 016a 00       		.byte	0
 1464 016b 03       		.uleb128 0x3
 1465 016c 0E       		.uleb128 0xe
 1466 016d 3A       		.uleb128 0x3a
 1467 016e 0B       		.uleb128 0xb
 1468 016f 3B       		.uleb128 0x3b
 1469 0170 05       		.uleb128 0x5
 1470 0171 39       		.uleb128 0x39
 1471 0172 0B       		.uleb128 0xb
 1472 0173 49       		.uleb128 0x49
 1473 0174 13       		.uleb128 0x13
 1474 0175 00       		.byte	0
 1475 0176 00       		.byte	0
 1476 0177 19       		.uleb128 0x19
 1477 0178 2E       		.uleb128 0x2e
 1478 0179 00       		.byte	0
 1479 017a 3F       		.uleb128 0x3f
 1480 017b 19       		.uleb128 0x19
 1481 017c 3C       		.uleb128 0x3c
 1482 017d 19       		.uleb128 0x19
ARM GAS  /tmp/ccY0BO8u.s 			page 27


 1483 017e 6E       		.uleb128 0x6e
 1484 017f 0E       		.uleb128 0xe
 1485 0180 03       		.uleb128 0x3
 1486 0181 0E       		.uleb128 0xe
 1487 0182 3A       		.uleb128 0x3a
 1488 0183 0B       		.uleb128 0xb
 1489 0184 3B       		.uleb128 0x3b
 1490 0185 0B       		.uleb128 0xb
 1491 0186 39       		.uleb128 0x39
 1492 0187 0B       		.uleb128 0xb
 1493 0188 00       		.byte	0
 1494 0189 00       		.byte	0
 1495 018a 1A       		.uleb128 0x1a
 1496 018b 2E       		.uleb128 0x2e
 1497 018c 00       		.byte	0
 1498 018d 3F       		.uleb128 0x3f
 1499 018e 19       		.uleb128 0x19
 1500 018f 3C       		.uleb128 0x3c
 1501 0190 19       		.uleb128 0x19
 1502 0191 6E       		.uleb128 0x6e
 1503 0192 0E       		.uleb128 0xe
 1504 0193 03       		.uleb128 0x3
 1505 0194 0E       		.uleb128 0xe
 1506 0195 3A       		.uleb128 0x3a
 1507 0196 0B       		.uleb128 0xb
 1508 0197 3B       		.uleb128 0x3b
 1509 0198 05       		.uleb128 0x5
 1510 0199 39       		.uleb128 0x39
 1511 019a 0B       		.uleb128 0xb
 1512 019b 00       		.byte	0
 1513 019c 00       		.byte	0
 1514 019d 00       		.byte	0
 1515              		.section	.debug_loc,"",%progbits
 1516              	.Ldebug_loc0:
 1517              	.LVUS0:
 1518 0000 09       		.uleb128 .LVU23
 1519 0001 00       		.uleb128 .LVU25
 1520              	.LLST0:
 1521 0002 14000000 		.4byte	.LVL1
 1522 0006 1A000000 		.4byte	.LVL2
 1523 000a 0300     		.2byte	0x3
 1524 000c 08       		.byte	0x8
 1525 000d 20       		.byte	0x20
 1526 000e 9F       		.byte	0x9f
 1527 000f 00000000 		.4byte	0
 1528 0013 00000000 		.4byte	0
 1529              	.LVUS1:
 1530 0017 05       		.uleb128 .LVU42
 1531 0018 00       		.uleb128 .LVU44
 1532              	.LLST1:
 1533 0019 26000000 		.4byte	.LVL5
 1534 001d 2A000000 		.4byte	.LVL6
 1535 0021 0200     		.2byte	0x2
 1536 0023 30       		.byte	0x30
 1537 0024 9F       		.byte	0x9f
 1538 0025 00000000 		.4byte	0
 1539 0029 00000000 		.4byte	0
ARM GAS  /tmp/ccY0BO8u.s 			page 28


 1540              		.section	.debug_aranges,"",%progbits
 1541 0000 24000000 		.4byte	0x24
 1542 0004 0200     		.2byte	0x2
 1543 0006 00000000 		.4byte	.Ldebug_info0
 1544 000a 04       		.byte	0x4
 1545 000b 00       		.byte	0
 1546 000c 0000     		.2byte	0
 1547 000e 0000     		.2byte	0
 1548 0010 00000000 		.4byte	.LFB334
 1549 0014 32000000 		.4byte	.LFE334-.LFB334
 1550 0018 00000000 		.4byte	.LFB335
 1551 001c 4C000000 		.4byte	.LFE335-.LFB335
 1552 0020 00000000 		.4byte	0
 1553 0024 00000000 		.4byte	0
 1554              		.section	.debug_ranges,"",%progbits
 1555              	.Ldebug_ranges0:
 1556 0000 14000000 		.4byte	.LBB48
 1557 0004 14000000 		.4byte	.LBE48
 1558 0008 14000000 		.4byte	.LBB62
 1559 000c 14000000 		.4byte	.LBE62
 1560 0010 14000000 		.4byte	.LBB63
 1561 0014 14000000 		.4byte	.LBE63
 1562 0018 14000000 		.4byte	.LBB64
 1563 001c 1E000000 		.4byte	.LBE64
 1564 0020 00000000 		.4byte	0
 1565 0024 00000000 		.4byte	0
 1566 0028 14000000 		.4byte	.LBB51
 1567 002c 14000000 		.4byte	.LBE51
 1568 0030 14000000 		.4byte	.LBB56
 1569 0034 14000000 		.4byte	.LBE56
 1570 0038 14000000 		.4byte	.LBB57
 1571 003c 1A000000 		.4byte	.LBE57
 1572 0040 00000000 		.4byte	0
 1573 0044 00000000 		.4byte	0
 1574 0048 22000000 		.4byte	.LBB67
 1575 004c 22000000 		.4byte	.LBE67
 1576 0050 22000000 		.4byte	.LBB81
 1577 0054 26000000 		.4byte	.LBE81
 1578 0058 26000000 		.4byte	.LBB82
 1579 005c 26000000 		.4byte	.LBE82
 1580 0060 26000000 		.4byte	.LBB83
 1581 0064 2A000000 		.4byte	.LBE83
 1582 0068 00000000 		.4byte	0
 1583 006c 00000000 		.4byte	0
 1584 0070 26000000 		.4byte	.LBB70
 1585 0074 26000000 		.4byte	.LBE70
 1586 0078 26000000 		.4byte	.LBB75
 1587 007c 26000000 		.4byte	.LBE75
 1588 0080 26000000 		.4byte	.LBB76
 1589 0084 2A000000 		.4byte	.LBE76
 1590 0088 00000000 		.4byte	0
 1591 008c 00000000 		.4byte	0
 1592 0090 00000000 		.4byte	.LFB334
 1593 0094 32000000 		.4byte	.LFE334
 1594 0098 00000000 		.4byte	.LFB335
 1595 009c 4C000000 		.4byte	.LFE335
 1596 00a0 00000000 		.4byte	0
ARM GAS  /tmp/ccY0BO8u.s 			page 29


 1597 00a4 00000000 		.4byte	0
 1598              		.section	.debug_line,"",%progbits
 1599              	.Ldebug_line0:
 1600 0000 CE030000 		.section	.debug_str,"MS",%progbits,1
 1600      03007D02 
 1600      00000201 
 1600      FB0E0D00 
 1600      01010101 
 1601              	.LASF67:
 1602 0000 706F7274 		.ascii	"port_lock_from_isr\000"
 1602      5F6C6F63 
 1602      6B5F6672 
 1602      6F6D5F69 
 1602      737200
 1603              	.LASF51:
 1604 0013 43434552 		.ascii	"CCER\000"
 1604      00
 1605              	.LASF76:
 1606 0018 474E5520 		.ascii	"GNU C17 10.2.1 20201103 (release) -mcpu=cortex-m7 -"
 1606      43313720 
 1606      31302E32 
 1606      2E312032 
 1606      30323031 
 1607 004b 6D666C6F 		.ascii	"mfloat-abi=hard -mfpu=fpv4-sp-d16 -mno-thumb-interw"
 1607      61742D61 
 1607      62693D68 
 1607      61726420 
 1607      2D6D6670 
 1608 007e 6F726B20 		.ascii	"ork -mthumb -march=armv7e-m+fp -g -Os -fomit-frame-"
 1608      2D6D7468 
 1608      756D6220 
 1608      2D6D6172 
 1608      63683D61 
 1609 00b1 706F696E 		.ascii	"pointer -falign-functions=16 -ffunction-sections -f"
 1609      74657220 
 1609      2D66616C 
 1609      69676E2D 
 1609      66756E63 
 1610 00e4 64617461 		.ascii	"data-sections -fno-common -fsingle-precision-consta"
 1610      2D736563 
 1610      74696F6E 
 1610      73202D66 
 1610      6E6F2D63 
 1611 0117 6E7400   		.ascii	"nt\000"
 1612              	.LASF61:
 1613 011a 6F73616C 		.ascii	"osalOsTimerHandlerI\000"
 1613      4F735469 
 1613      6D657248 
 1613      616E646C 
 1613      65724900 
 1614              	.LASF22:
 1615 012e 41504231 		.ascii	"APB1RSTR\000"
 1615      52535452 
 1615      00
 1616              	.LASF26:
 1617 0137 41484232 		.ascii	"AHB2ENR\000"
 1617      454E5200 
ARM GAS  /tmp/ccY0BO8u.s 			page 30


 1618              	.LASF53:
 1619 013f 444D4152 		.ascii	"DMAR\000"
 1619      00
 1620              	.LASF49:
 1621 0144 43434D52 		.ascii	"CCMR1\000"
 1621      3100
 1622              	.LASF50:
 1623 014a 43434D52 		.ascii	"CCMR2\000"
 1623      3200
 1624              	.LASF55:
 1625 0150 43435852 		.ascii	"CCXR\000"
 1625      00
 1626              	.LASF39:
 1627 0155 42444352 		.ascii	"BDCR\000"
 1627      00
 1628              	.LASF65:
 1629 015a 63685379 		.ascii	"chSysLockFromISR\000"
 1629      734C6F63 
 1629      6B46726F 
 1629      6D495352 
 1629      00
 1630              	.LASF42:
 1631 016b 504C4C49 		.ascii	"PLLI2SCFGR\000"
 1631      32534346 
 1631      475200
 1632              	.LASF69:
 1633 0176 706F7274 		.ascii	"port_lock\000"
 1633      5F6C6F63 
 1633      6B00
 1634              	.LASF10:
 1635 0180 5F5F7569 		.ascii	"__uint32_t\000"
 1635      6E743332 
 1635      5F7400
 1636              	.LASF37:
 1637 018b 41504232 		.ascii	"APB2LPENR\000"
 1637      4C50454E 
 1637      5200
 1638              	.LASF41:
 1639 0195 53534347 		.ascii	"SSCGR\000"
 1639      5200
 1640              	.LASF5:
 1641 019b 73686F72 		.ascii	"short int\000"
 1641      7420696E 
 1641      7400
 1642              	.LASF34:
 1643 01a5 41484233 		.ascii	"AHB3LPENR\000"
 1643      4C50454E 
 1643      5200
 1644              	.LASF17:
 1645 01af 43464752 		.ascii	"CFGR\000"
 1645      00
 1646              	.LASF77:
 1647 01b4 2E2E2F2E 		.ascii	"../../modules/ChibiOS/os/hal/ports/STM32/LLD/TIMv1/"
 1647      2E2F6D6F 
 1647      64756C65 
 1647      732F4368 
 1647      6962694F 
ARM GAS  /tmp/ccY0BO8u.s 			page 31


 1648 01e7 68616C5F 		.ascii	"hal_st_lld.c\000"
 1648      73745F6C 
 1648      6C642E63 
 1648      00
 1649              	.LASF14:
 1650 01f4 41504232 		.ascii	"APB2FZ\000"
 1650      465A00
 1651              	.LASF29:
 1652 01fb 41504231 		.ascii	"APB1ENR\000"
 1652      454E5200 
 1653              	.LASF40:
 1654 0203 52455345 		.ascii	"RESERVED6\000"
 1654      52564544 
 1654      3600
 1655              	.LASF27:
 1656 020d 41484233 		.ascii	"AHB3ENR\000"
 1656      454E5200 
 1657              	.LASF64:
 1658 0215 63685379 		.ascii	"chSysUnlockFromISR\000"
 1658      73556E6C 
 1658      6F636B46 
 1658      726F6D49 
 1658      535200
 1659              	.LASF13:
 1660 0228 41504231 		.ascii	"APB1FZ\000"
 1660      465A00
 1661              	.LASF78:
 1662 022f 2F686F6D 		.ascii	"/home/mahathi/mathur407_payload2/4.0.7/build/CUAVv5"
 1662      652F6D61 
 1662      68617468 
 1662      692F6D61 
 1662      74687572 
 1663 0262 00       		.ascii	"\000"
 1664              	.LASF57:
 1665 0263 63686172 		.ascii	"char\000"
 1665      00
 1666              	.LASF7:
 1667 0268 6C6F6E67 		.ascii	"long int\000"
 1667      20696E74 
 1667      00
 1668              	.LASF46:
 1669 0271 5243435F 		.ascii	"RCC_TypeDef\000"
 1669      54797065 
 1669      44656600 
 1670              	.LASF44:
 1671 027d 44434B43 		.ascii	"DCKCFGR1\000"
 1671      46475231 
 1671      00
 1672              	.LASF45:
 1673 0286 44434B43 		.ascii	"DCKCFGR2\000"
 1673      46475232 
 1673      00
 1674              	.LASF23:
 1675 028f 41504232 		.ascii	"APB2RSTR\000"
 1675      52535452 
 1675      00
 1676              	.LASF60:
ARM GAS  /tmp/ccY0BO8u.s 			page 32


 1677 0298 56656374 		.ascii	"VectorB0\000"
 1677      6F724230 
 1677      00
 1678              	.LASF54:
 1679 02a1 43434D52 		.ascii	"CCMR3\000"
 1679      3300
 1680              	.LASF2:
 1681 02a7 6C6F6E67 		.ascii	"long double\000"
 1681      20646F75 
 1681      626C6500 
 1682              	.LASF62:
 1683 02b3 6F73616C 		.ascii	"osalSysUnlockFromISR\000"
 1683      53797355 
 1683      6E6C6F63 
 1683      6B46726F 
 1683      6D495352 
 1684              	.LASF47:
 1685 02c8 534D4352 		.ascii	"SMCR\000"
 1685      00
 1686              	.LASF75:
 1687 02cd 5F706F72 		.ascii	"_port_irq_epilogue\000"
 1687      745F6972 
 1687      715F6570 
 1687      696C6F67 
 1687      756500
 1688              	.LASF4:
 1689 02e0 756E7369 		.ascii	"unsigned char\000"
 1689      676E6564 
 1689      20636861 
 1689      7200
 1690              	.LASF30:
 1691 02ee 41504232 		.ascii	"APB2ENR\000"
 1691      454E5200 
 1692              	.LASF70:
 1693 02f6 6E766963 		.ascii	"nvicEnableVector\000"
 1693      456E6162 
 1693      6C655665 
 1693      63746F72 
 1693      00
 1694              	.LASF3:
 1695 0307 7369676E 		.ascii	"signed char\000"
 1695      65642063 
 1695      68617200 
 1696              	.LASF9:
 1697 0313 6C6F6E67 		.ascii	"long long unsigned int\000"
 1697      206C6F6E 
 1697      6720756E 
 1697      7369676E 
 1697      65642069 
 1698              	.LASF11:
 1699 032a 75696E74 		.ascii	"uint32_t\000"
 1699      33325F74 
 1699      00
 1700              	.LASF0:
 1701 0333 756E7369 		.ascii	"unsigned int\000"
 1701      676E6564 
 1701      20696E74 
ARM GAS  /tmp/ccY0BO8u.s 			page 33


 1701      00
 1702              	.LASF19:
 1703 0340 41484232 		.ascii	"AHB2RSTR\000"
 1703      52535452 
 1703      00
 1704              	.LASF73:
 1705 0349 5F737461 		.ascii	"_stats_stop_measure_crit_isr\000"
 1705      74735F73 
 1705      746F705F 
 1705      6D656173 
 1705      7572655F 
 1706              	.LASF32:
 1707 0366 41484231 		.ascii	"AHB1LPENR\000"
 1707      4C50454E 
 1707      5200
 1708              	.LASF48:
 1709 0370 44494552 		.ascii	"DIER\000"
 1709      00
 1710              	.LASF16:
 1711 0375 504C4C43 		.ascii	"PLLCFGR\000"
 1711      46475200 
 1712              	.LASF6:
 1713 037d 73686F72 		.ascii	"short unsigned int\000"
 1713      7420756E 
 1713      7369676E 
 1713      65642069 
 1713      6E7400
 1714              	.LASF80:
 1715 0390 62617365 		.ascii	"basePri\000"
 1715      50726900 
 1716              	.LASF56:
 1717 0398 73746D33 		.ascii	"stm32_tim_t\000"
 1717      325F7469 
 1717      6D5F7400 
 1718              	.LASF52:
 1719 03a4 42445452 		.ascii	"BDTR\000"
 1719      00
 1720              	.LASF63:
 1721 03a9 6F73616C 		.ascii	"osalSysLockFromISR\000"
 1721      5379734C 
 1721      6F636B46 
 1721      726F6D49 
 1721      535200
 1722              	.LASF58:
 1723 03bc 5F426F6F 		.ascii	"_Bool\000"
 1723      6C00
 1724              	.LASF68:
 1725 03c2 706F7274 		.ascii	"port_unlock\000"
 1725      5F756E6C 
 1725      6F636B00 
 1726              	.LASF74:
 1727 03ce 5F737461 		.ascii	"_stats_increase_irq\000"
 1727      74735F69 
 1727      6E637265 
 1727      6173655F 
 1727      69727100 
 1728              	.LASF33:
ARM GAS  /tmp/ccY0BO8u.s 			page 34


 1729 03e2 41484232 		.ascii	"AHB2LPENR\000"
 1729      4C50454E 
 1729      5200
 1730              	.LASF21:
 1731 03ec 52455345 		.ascii	"RESERVED0\000"
 1731      52564544 
 1731      3000
 1732              	.LASF24:
 1733 03f6 52455345 		.ascii	"RESERVED1\000"
 1733      52564544 
 1733      3100
 1734              	.LASF28:
 1735 0400 52455345 		.ascii	"RESERVED2\000"
 1735      52564544 
 1735      3200
 1736              	.LASF31:
 1737 040a 52455345 		.ascii	"RESERVED3\000"
 1737      52564544 
 1737      3300
 1738              	.LASF35:
 1739 0414 52455345 		.ascii	"RESERVED4\000"
 1739      52564544 
 1739      3400
 1740              	.LASF38:
 1741 041e 52455345 		.ascii	"RESERVED5\000"
 1741      52564544 
 1741      3500
 1742              	.LASF8:
 1743 0428 6C6F6E67 		.ascii	"long unsigned int\000"
 1743      20756E73 
 1743      69676E65 
 1743      6420696E 
 1743      7400
 1744              	.LASF15:
 1745 043a 4442474D 		.ascii	"DBGMCU_TypeDef\000"
 1745      43555F54 
 1745      79706544 
 1745      656600
 1746              	.LASF71:
 1747 0449 5F737461 		.ascii	"_stats_start_measure_crit_isr\000"
 1747      74735F73 
 1747      74617274 
 1747      5F6D6561 
 1747      73757265 
 1748              	.LASF79:
 1749 0467 5F5F7365 		.ascii	"__set_BASEPRI\000"
 1749      745F4241 
 1749      53455052 
 1749      4900
 1750              	.LASF25:
 1751 0475 41484231 		.ascii	"AHB1ENR\000"
 1751      454E5200 
 1752              	.LASF12:
 1753 047d 4944434F 		.ascii	"IDCODE\000"
 1753      444500
 1754              	.LASF66:
 1755 0484 706F7274 		.ascii	"port_unlock_from_isr\000"
ARM GAS  /tmp/ccY0BO8u.s 			page 35


 1755      5F756E6C 
 1755      6F636B5F 
 1755      66726F6D 
 1755      5F697372 
 1756              	.LASF72:
 1757 0499 63685379 		.ascii	"chSysTimerHandlerI\000"
 1757      7354696D 
 1757      65724861 
 1757      6E646C65 
 1757      724900
 1758              	.LASF59:
 1759 04ac 73745F6C 		.ascii	"st_lld_init\000"
 1759      6C645F69 
 1759      6E697400 
 1760              	.LASF18:
 1761 04b8 41484231 		.ascii	"AHB1RSTR\000"
 1761      52535452 
 1761      00
 1762              	.LASF20:
 1763 04c1 41484233 		.ascii	"AHB3RSTR\000"
 1763      52535452 
 1763      00
 1764              	.LASF43:
 1765 04ca 504C4C53 		.ascii	"PLLSAICFGR\000"
 1765      41494346 
 1765      475200
 1766              	.LASF36:
 1767 04d5 41504231 		.ascii	"APB1LPENR\000"
 1767      4C50454E 
 1767      5200
 1768              	.LASF1:
 1769 04df 6C6F6E67 		.ascii	"long long int\000"
 1769      206C6F6E 
 1769      6720696E 
 1769      7400
 1770              		.ident	"GCC: (GNU Arm Embedded Toolchain 10-2020-q4-major) 10.2.1 20201103 (release)"
ARM GAS  /tmp/ccY0BO8u.s 			page 36


DEFINED SYMBOLS
                            *ABS*:0000000000000000 hal_st_lld.c
     /tmp/ccY0BO8u.s:18     .text.VectorB0:0000000000000000 $t
     /tmp/ccY0BO8u.s:26     .text.VectorB0:0000000000000000 VectorB0
     /tmp/ccY0BO8u.s:216    .text.st_lld_init:0000000000000000 $t
     /tmp/ccY0BO8u.s:223    .text.st_lld_init:0000000000000000 st_lld_init
     /tmp/ccY0BO8u.s:289    .text.st_lld_init:0000000000000044 $d

UNDEFINED SYMBOLS
_stats_increase_irq
_stats_start_measure_crit_isr
chSysTimerHandlerI
_stats_stop_measure_crit_isr
_port_irq_epilogue
nvicEnableVector
