ARM GAS  /tmp/cc4aQ5AS.s 			page 1


   1              		.cpu cortex-m7
   2              		.eabi_attribute 27, 1
   3              		.eabi_attribute 28, 1
   4              		.eabi_attribute 20, 1
   5              		.eabi_attribute 21, 1
   6              		.eabi_attribute 23, 3
   7              		.eabi_attribute 24, 1
   8              		.eabi_attribute 25, 1
   9              		.eabi_attribute 26, 1
  10              		.eabi_attribute 30, 4
  11              		.eabi_attribute 34, 1
  12              		.eabi_attribute 18, 4
  13              		.file	"hrt.c"
  14              		.text
  15              	.Ltext0:
  16              		.cfi_sections	.debug_frame
  17              		.section	.text.hrt_micros64,"ax",%progbits
  18              		.align	1
  19              		.p2align 4,,15
  20              		.global	hrt_micros64
  21              		.arch armv7e-m
  22              		.syntax unified
  23              		.thumb
  24              		.thumb_func
  25              		.fpu fpv4-sp-d16
  26              		.type	hrt_micros64, %function
  27              	hrt_micros64:
  28              	.LFB336:
  29              		.file 1 "../../libraries/AP_HAL_ChibiOS/hwdef/common/hrt.c"
  30              		.loc 1 93 1 view -0
  31              		.cfi_startproc
  32              		@ args = 0, pretend = 0, frame = 8
  33              		@ frame_needed = 0, uses_anonymous_args = 0
  34              		.loc 1 94 5 view .LVU1
  35              		.loc 1 93 1 is_stmt 0 view .LVU2
  36 0000 30B5     		push	{r4, r5, lr}
  37              		.cfi_def_cfa_offset 12
  38              		.cfi_offset 4, -12
  39              		.cfi_offset 5, -8
  40              		.cfi_offset 14, -4
  41 0002 83B0     		sub	sp, sp, #12
  42              		.cfi_def_cfa_offset 24
  43              	.LBB29:
  44              	.LBB30:
  45              		.loc 1 78 13 view .LVU3
  46 0004 0E4D     		ldr	r5, .L6
  47              	.LBE30:
  48              	.LBE29:
  49              		.loc 1 94 20 view .LVU4
  50 0006 FFF7FEFF 		bl	chSysGetStatusAndLockX
  51              	.LVL0:
  52              		.loc 1 95 5 is_stmt 1 view .LVU5
  53              	.LBB61:
  54              	.LBI29:
  55              		.loc 1 74 17 view .LVU6
  56              	.LBB55:
  57              		.loc 1 76 5 view .LVU7
ARM GAS  /tmp/cc4aQ5AS.s 			page 2


  58              		.loc 1 77 5 view .LVU8
  59              	.LBB31:
  60              	.LBI31:
  61              		.loc 1 59 17 view .LVU9
  62              	.LBB32:
  63              		.loc 1 61 5 view .LVU10
  64              	.LBB33:
  65              	.LBI33:
  66              		.file 2 "../../modules/ChibiOS/os/rt/include/chvt.h"
  67              		.loc 2 115 25 view .LVU11
  68              	.LBE33:
  69              	.LBE32:
  70              	.LBE31:
  71              	.LBE55:
  72              	.LBE61:
  73              		.loc 2 120 3 view .LVU12
  74              	.LBB62:
  75              	.LBB56:
  76              	.LBB47:
  77              	.LBB44:
  78              	.LBB41:
  79              	.LBB34:
  80              	.LBI34:
  81              		.file 3 "../../modules/ChibiOS/os/common/ports/ARMCMx/chcore_timer.h"
  82              		.loc 3 105 25 view .LVU13
  83              	.LBE34:
  84              	.LBE41:
  85              	.LBE44:
  86              	.LBE47:
  87              	.LBE56:
  88              	.LBE62:
  89              		.loc 3 107 3 view .LVU14
  90              	.LBB63:
  91              	.LBB57:
  92              	.LBB48:
  93              	.LBB45:
  94              	.LBB42:
  95              	.LBB39:
  96              	.LBB35:
  97              	.LBI35:
  98              		.file 4 "../../modules/ChibiOS/os/hal/ports/STM32/LLD/TIMv1/hal_st_lld.h"
  99              		.loc 4 166 25 view .LVU15
 100              	.LBB36:
 101              		.loc 4 168 3 view .LVU16
 102              		.loc 4 168 10 is_stmt 0 view .LVU17
 103 000a 4FF08043 		mov	r3, #1073741824
 104              	.LBE36:
 105              	.LBE35:
 106              	.LBE39:
 107              	.LBE42:
 108              	.LBE45:
 109              	.LBE48:
 110              		.loc 1 78 8 view .LVU18
 111 000e 2A68     		ldr	r2, [r5]
 112              	.LBB49:
 113              	.LBB46:
 114              	.LBB43:
ARM GAS  /tmp/cc4aQ5AS.s 			page 3


 115              	.LBB40:
 116              	.LBB38:
 117              	.LBB37:
 118              		.loc 4 168 10 view .LVU19
 119 0010 5B6A     		ldr	r3, [r3, #36]
 120              	.LVL1:
 121              		.loc 4 168 10 view .LVU20
 122              	.LBE37:
 123              	.LBE38:
 124              	.LBE40:
 125              	.LBE43:
 126              		.loc 1 65 5 is_stmt 1 view .LVU21
 127              		.loc 1 65 5 is_stmt 0 view .LVU22
 128              	.LBE46:
 129              	.LBE49:
 130              		.loc 1 78 5 is_stmt 1 view .LVU23
 131              	.LBB50:
 132              		.loc 1 79 9 view .LVU24
 133              		.loc 1 80 9 view .LVU25
 134              	.LBE50:
 135              		.loc 1 78 8 is_stmt 0 view .LVU26
 136 0012 9342     		cmp	r3, r2
 137              		.loc 1 82 15 view .LVU27
 138 0014 2B60     		str	r3, [r5]
 139              	.LBB51:
 140              		.loc 1 80 25 view .LVU28
 141 0016 37BF     		itett	cc
 142 0018 0A4A     		ldrcc	r2, .L6+4
 143              	.LBE51:
 144              	.LBE57:
 145              	.LBE63:
 146              		.loc 1 96 36 view .LVU29
 147 001a 0A49     		ldrcs	r1, .L6+4
 148              	.LBB64:
 149              	.LBB58:
 150              	.LBB52:
 151              		.loc 1 80 25 view .LVU30
 152 001c 5168     		ldrcc	r1, [r2, #4]
 153 001e 1468     		ldrcc	r4, [r2]
 154              	.LBE52:
 155              		.loc 1 82 5 is_stmt 1 view .LVU31
 156              	.LBB53:
 157              		.loc 1 80 25 is_stmt 0 view .LVU32
 158 0020 36BF     		itet	cc
 159 0022 0131     		addcc	r1, r1, #1
 160              	.LBE53:
 161              	.LBE58:
 162              	.LBE64:
 163              		.loc 1 96 36 view .LVU33
 164 0024 D1E90041 		ldrdcs	r4, r1, [r1]
 165              	.LBB65:
 166              	.LBB59:
 167              	.LBB54:
 168              		.loc 1 80 25 view .LVU34
 169 0028 5160     		strcc	r1, [r2, #4]
 170              	.LBE54:
 171              	.LBE59:
ARM GAS  /tmp/cc4aQ5AS.s 			page 4


 172              	.LBE65:
 173              		.loc 1 96 14 view .LVU35
 174 002a 1C19     		adds	r4, r3, r4
 175              	.LBB66:
 176              	.LBB60:
 177              		.loc 1 83 5 is_stmt 1 view .LVU36
 178              	.LVL2:
 179              		.loc 1 83 5 is_stmt 0 view .LVU37
 180              	.LBE60:
 181              	.LBE66:
 182              		.loc 1 96 5 is_stmt 1 view .LVU38
 183              		.loc 1 96 14 is_stmt 0 view .LVU39
 184 002c 41F10001 		adc	r1, r1, #0
 185 0030 0191     		str	r1, [sp, #4]
 186              	.LVL3:
 187              		.loc 1 97 5 is_stmt 1 view .LVU40
 188 0032 FFF7FEFF 		bl	chSysRestoreStatusX
 189              	.LVL4:
 190              		.loc 1 98 5 view .LVU41
 191              		.loc 1 99 1 is_stmt 0 view .LVU42
 192 0036 2046     		mov	r0, r4
 193 0038 0199     		ldr	r1, [sp, #4]
 194 003a 03B0     		add	sp, sp, #12
 195              		.cfi_def_cfa_offset 12
 196              		@ sp needed
 197 003c 30BD     		pop	{r4, r5, pc}
 198              	.LVL5:
 199              	.L7:
 200              		.loc 1 99 1 view .LVU43
 201 003e 00BF     		.align	2
 202              	.L6:
 203 0040 00000000 		.word	.LANCHOR0
 204 0044 00000000 		.word	.LANCHOR1
 205              		.cfi_endproc
 206              	.LFE336:
 207              		.size	hrt_micros64, .-hrt_micros64
 208              		.section	.text.hrt_micros32,"ax",%progbits
 209              		.align	1
 210              		.p2align 4,,15
 211              		.global	hrt_micros32
 212              		.syntax unified
 213              		.thumb
 214              		.thumb_func
 215              		.fpu fpv4-sp-d16
 216              		.type	hrt_micros32, %function
 217              	hrt_micros32:
 218              	.LFB337:
 219              		.loc 1 102 1 is_stmt 1 view -0
 220              		.cfi_startproc
 221              		@ args = 0, pretend = 0, frame = 0
 222              		@ frame_needed = 0, uses_anonymous_args = 0
 223              		.loc 1 103 5 view .LVU45
 224              		.loc 1 102 1 is_stmt 0 view .LVU46
 225 0000 10B5     		push	{r4, lr}
 226              		.cfi_def_cfa_offset 8
 227              		.cfi_offset 4, -8
 228              		.cfi_offset 14, -4
ARM GAS  /tmp/cc4aQ5AS.s 			page 5


 229              		.loc 1 103 20 view .LVU47
 230 0002 FFF7FEFF 		bl	chSysGetStatusAndLockX
 231              	.LVL6:
 232              	.LBB76:
 233              	.LBB77:
 234              		.loc 1 78 13 view .LVU48
 235 0006 084B     		ldr	r3, .L11
 236              	.LVL7:
 237              		.loc 1 78 13 view .LVU49
 238              	.LBE77:
 239              	.LBE76:
 240              		.loc 1 104 5 is_stmt 1 view .LVU50
 241              	.LBB95:
 242              	.LBI76:
 243              		.loc 1 74 17 view .LVU51
 244              	.LBB92:
 245              		.loc 1 76 5 view .LVU52
 246              		.loc 1 77 5 view .LVU53
 247              	.LBB78:
 248              	.LBI78:
 249              		.loc 1 59 17 view .LVU54
 250              	.LBB79:
 251              		.loc 1 61 5 view .LVU55
 252              	.LBB80:
 253              	.LBI80:
 254              		.loc 2 115 25 view .LVU56
 255              	.LBE80:
 256              	.LBE79:
 257              	.LBE78:
 258              	.LBE92:
 259              	.LBE95:
 260              		.loc 2 120 3 view .LVU57
 261              	.LBB96:
 262              	.LBB93:
 263              	.LBB89:
 264              	.LBB87:
 265              	.LBB85:
 266              	.LBB81:
 267              	.LBI81:
 268              		.loc 3 105 25 view .LVU58
 269              	.LBE81:
 270              	.LBE85:
 271              	.LBE87:
 272              	.LBE89:
 273              	.LBE93:
 274              	.LBE96:
 275              		.loc 3 107 3 view .LVU59
 276              	.LBB97:
 277              	.LBB94:
 278              	.LBB90:
 279              	.LBB88:
 280              	.LBB86:
 281              	.LBB84:
 282              	.LBB82:
 283              	.LBI82:
 284              		.loc 4 166 25 view .LVU60
 285              	.LBB83:
ARM GAS  /tmp/cc4aQ5AS.s 			page 6


 286              		.loc 4 168 3 view .LVU61
 287              		.loc 4 168 10 is_stmt 0 view .LVU62
 288 0008 4FF08042 		mov	r2, #1073741824
 289 000c 546A     		ldr	r4, [r2, #36]
 290              	.LVL8:
 291              		.loc 4 168 10 view .LVU63
 292              	.LBE83:
 293              	.LBE82:
 294              	.LBE84:
 295              	.LBE86:
 296              		.loc 1 65 5 is_stmt 1 view .LVU64
 297              		.loc 1 65 5 is_stmt 0 view .LVU65
 298              	.LBE88:
 299              	.LBE90:
 300              		.loc 1 78 5 is_stmt 1 view .LVU66
 301              		.loc 1 78 8 is_stmt 0 view .LVU67
 302 000e 1A68     		ldr	r2, [r3]
 303              		.loc 1 82 15 view .LVU68
 304 0010 1C60     		str	r4, [r3]
 305              		.loc 1 78 8 view .LVU69
 306 0012 9442     		cmp	r4, r2
 307              	.LBB91:
 308              		.loc 1 79 9 is_stmt 1 view .LVU70
 309              	.LVL9:
 310              		.loc 1 80 9 view .LVU71
 311              		.loc 1 80 25 is_stmt 0 view .LVU72
 312 0014 3FBF     		itttt	cc
 313 0016 0549     		ldrcc	r1, .L11+4
 314 0018 4A68     		ldrcc	r2, [r1, #4]
 315 001a 0132     		addcc	r2, r2, #1
 316 001c 4A60     		strcc	r2, [r1, #4]
 317              	.LBE91:
 318              		.loc 1 82 5 is_stmt 1 view .LVU73
 319              		.loc 1 83 5 view .LVU74
 320              	.LVL10:
 321              		.loc 1 83 5 is_stmt 0 view .LVU75
 322              	.LBE94:
 323              	.LBE97:
 324              		.loc 1 105 5 is_stmt 1 view .LVU76
 325 001e FFF7FEFF 		bl	chSysRestoreStatusX
 326              	.LVL11:
 327              		.loc 1 106 5 view .LVU77
 328              		.loc 1 107 1 is_stmt 0 view .LVU78
 329 0022 2046     		mov	r0, r4
 330 0024 10BD     		pop	{r4, pc}
 331              	.LVL12:
 332              	.L12:
 333              		.loc 1 107 1 view .LVU79
 334 0026 00BF     		.align	2
 335              	.L11:
 336 0028 00000000 		.word	.LANCHOR0
 337 002c 00000000 		.word	.LANCHOR1
 338              		.cfi_endproc
 339              	.LFE337:
 340              		.size	hrt_micros32, .-hrt_micros32
 341              		.global	__aeabi_uldivmod
 342              		.section	.text.hrt_millis32,"ax",%progbits
ARM GAS  /tmp/cc4aQ5AS.s 			page 7


 343              		.align	1
 344              		.p2align 4,,15
 345              		.global	hrt_millis32
 346              		.syntax unified
 347              		.thumb
 348              		.thumb_func
 349              		.fpu fpv4-sp-d16
 350              		.type	hrt_millis32, %function
 351              	hrt_millis32:
 352              	.LFB338:
 353              		.loc 1 110 1 is_stmt 1 view -0
 354              		.cfi_startproc
 355              		@ args = 0, pretend = 0, frame = 8
 356              		@ frame_needed = 0, uses_anonymous_args = 0
 357              		.loc 1 111 5 view .LVU81
 358              	.LBB109:
 359              	.LBI109:
 360              		.loc 1 92 10 view .LVU82
 361              	.LBB110:
 362              		.loc 1 94 5 view .LVU83
 363              	.LBE110:
 364              	.LBE109:
 365              		.loc 1 110 1 is_stmt 0 view .LVU84
 366 0000 30B5     		push	{r4, r5, lr}
 367              		.cfi_def_cfa_offset 12
 368              		.cfi_offset 4, -12
 369              		.cfi_offset 5, -8
 370              		.cfi_offset 14, -4
 371 0002 83B0     		sub	sp, sp, #12
 372              		.cfi_def_cfa_offset 24
 373              	.LBB152:
 374              	.LBB149:
 375              	.LBB111:
 376              	.LBB112:
 377              		.loc 1 78 13 view .LVU85
 378 0004 104D     		ldr	r5, .L17
 379              	.LBE112:
 380              	.LBE111:
 381              		.loc 1 94 20 view .LVU86
 382 0006 FFF7FEFF 		bl	chSysGetStatusAndLockX
 383              	.LVL13:
 384              		.loc 1 95 5 is_stmt 1 view .LVU87
 385              	.LBB143:
 386              	.LBI111:
 387              		.loc 1 74 17 view .LVU88
 388              	.LBB137:
 389              		.loc 1 76 5 view .LVU89
 390              		.loc 1 77 5 view .LVU90
 391              	.LBB113:
 392              	.LBI113:
 393              		.loc 1 59 17 view .LVU91
 394              	.LBB114:
 395              		.loc 1 61 5 view .LVU92
 396              	.LBB115:
 397              	.LBI115:
 398              		.loc 2 115 25 view .LVU93
 399              	.LBE115:
ARM GAS  /tmp/cc4aQ5AS.s 			page 8


 400              	.LBE114:
 401              	.LBE113:
 402              	.LBE137:
 403              	.LBE143:
 404              	.LBE149:
 405              	.LBE152:
 406              		.loc 2 120 3 view .LVU94
 407              	.LBB153:
 408              	.LBB150:
 409              	.LBB144:
 410              	.LBB138:
 411              	.LBB129:
 412              	.LBB126:
 413              	.LBB123:
 414              	.LBB116:
 415              	.LBI116:
 416              		.loc 3 105 25 view .LVU95
 417              	.LBE116:
 418              	.LBE123:
 419              	.LBE126:
 420              	.LBE129:
 421              	.LBE138:
 422              	.LBE144:
 423              	.LBE150:
 424              	.LBE153:
 425              		.loc 3 107 3 view .LVU96
 426              	.LBB154:
 427              	.LBB151:
 428              	.LBB145:
 429              	.LBB139:
 430              	.LBB130:
 431              	.LBB127:
 432              	.LBB124:
 433              	.LBB121:
 434              	.LBB117:
 435              	.LBI117:
 436              		.loc 4 166 25 view .LVU97
 437              	.LBB118:
 438              		.loc 4 168 3 view .LVU98
 439              		.loc 4 168 10 is_stmt 0 view .LVU99
 440 000a 4FF08043 		mov	r3, #1073741824
 441              	.LBE118:
 442              	.LBE117:
 443              	.LBE121:
 444              	.LBE124:
 445              	.LBE127:
 446              	.LBE130:
 447              		.loc 1 78 8 view .LVU100
 448 000e 2A68     		ldr	r2, [r5]
 449              	.LBB131:
 450              	.LBB128:
 451              	.LBB125:
 452              	.LBB122:
 453              	.LBB120:
 454              	.LBB119:
 455              		.loc 4 168 10 view .LVU101
 456 0010 5B6A     		ldr	r3, [r3, #36]
ARM GAS  /tmp/cc4aQ5AS.s 			page 9


 457              	.LVL14:
 458              		.loc 4 168 10 view .LVU102
 459              	.LBE119:
 460              	.LBE120:
 461              	.LBE122:
 462              	.LBE125:
 463              		.loc 1 65 5 is_stmt 1 view .LVU103
 464              		.loc 1 65 5 is_stmt 0 view .LVU104
 465              	.LBE128:
 466              	.LBE131:
 467              		.loc 1 78 5 is_stmt 1 view .LVU105
 468              	.LBB132:
 469              		.loc 1 79 9 view .LVU106
 470              		.loc 1 80 9 view .LVU107
 471              	.LBE132:
 472              		.loc 1 78 8 is_stmt 0 view .LVU108
 473 0012 9342     		cmp	r3, r2
 474              		.loc 1 82 15 view .LVU109
 475 0014 2B60     		str	r3, [r5]
 476              	.LBB133:
 477              		.loc 1 80 25 view .LVU110
 478 0016 37BF     		itett	cc
 479 0018 0C4A     		ldrcc	r2, .L17+4
 480              	.LBE133:
 481              	.LBE139:
 482              	.LBE145:
 483              		.loc 1 96 36 view .LVU111
 484 001a 0C49     		ldrcs	r1, .L17+4
 485              	.LBB146:
 486              	.LBB140:
 487              	.LBB134:
 488              		.loc 1 80 25 view .LVU112
 489 001c 5168     		ldrcc	r1, [r2, #4]
 490 001e 1468     		ldrcc	r4, [r2]
 491              	.LBE134:
 492              		.loc 1 82 5 is_stmt 1 view .LVU113
 493              	.LBB135:
 494              		.loc 1 80 25 is_stmt 0 view .LVU114
 495 0020 36BF     		itet	cc
 496 0022 0131     		addcc	r1, r1, #1
 497              	.LBE135:
 498              	.LBE140:
 499              	.LBE146:
 500              		.loc 1 96 36 view .LVU115
 501 0024 D1E90041 		ldrdcs	r4, r1, [r1]
 502              	.LBB147:
 503              	.LBB141:
 504              	.LBB136:
 505              		.loc 1 80 25 view .LVU116
 506 0028 5160     		strcc	r1, [r2, #4]
 507              	.LBE136:
 508              	.LBE141:
 509              	.LBE147:
 510              		.loc 1 96 14 view .LVU117
 511 002a 1C19     		adds	r4, r3, r4
 512              	.LBB148:
 513              	.LBB142:
ARM GAS  /tmp/cc4aQ5AS.s 			page 10


 514              		.loc 1 83 5 is_stmt 1 view .LVU118
 515              	.LVL15:
 516              		.loc 1 83 5 is_stmt 0 view .LVU119
 517              	.LBE142:
 518              	.LBE148:
 519              		.loc 1 96 5 is_stmt 1 view .LVU120
 520              		.loc 1 96 14 is_stmt 0 view .LVU121
 521 002c 41F10001 		adc	r1, r1, #0
 522 0030 0191     		str	r1, [sp, #4]
 523              	.LVL16:
 524              		.loc 1 97 5 is_stmt 1 view .LVU122
 525 0032 FFF7FEFF 		bl	chSysRestoreStatusX
 526              	.LVL17:
 527              		.loc 1 98 5 view .LVU123
 528              		.loc 1 98 5 is_stmt 0 view .LVU124
 529              	.LBE151:
 530              	.LBE154:
 531              		.loc 1 111 38 view .LVU125
 532 0036 4FF47A72 		mov	r2, #1000
 533 003a 0023     		movs	r3, #0
 534 003c 2046     		mov	r0, r4
 535 003e 0199     		ldr	r1, [sp, #4]
 536 0040 FFF7FEFF 		bl	__aeabi_uldivmod
 537              	.LVL18:
 538              		.loc 1 112 1 view .LVU126
 539 0044 03B0     		add	sp, sp, #12
 540              		.cfi_def_cfa_offset 12
 541              		@ sp needed
 542 0046 30BD     		pop	{r4, r5, pc}
 543              	.L18:
 544              		.align	2
 545              	.L17:
 546 0048 00000000 		.word	.LANCHOR0
 547 004c 00000000 		.word	.LANCHOR1
 548              		.cfi_endproc
 549              	.LFE338:
 550              		.size	hrt_millis32, .-hrt_millis32
 551              		.section	.bss.last_us32.0,"aw",%nobits
 552              		.align	2
 553              		.set	.LANCHOR0,. + 0
 554              		.type	last_us32.0, %object
 555              		.size	last_us32.0, 4
 556              	last_us32.0:
 557 0000 00000000 		.space	4
 558              		.section	.bss.timer_base_us64,"aw",%nobits
 559              		.align	3
 560              		.set	.LANCHOR1,. + 0
 561              		.type	timer_base_us64, %object
 562              		.size	timer_base_us64, 8
 563              	timer_base_us64:
 564 0000 00000000 		.space	8
 564      00000000 
 565              		.text
 566              	.Letext0:
 567              		.file 5 "/opt/gcc-arm-none-eabi-10-2020-q4-major/lib/gcc/arm-none-eabi/10.2.1/include/stddef.h"
 568              		.file 6 "/opt/gcc-arm-none-eabi-10-2020-q4-major/arm-none-eabi/include/machine/_default_types.h"
 569              		.file 7 "/opt/gcc-arm-none-eabi-10-2020-q4-major/arm-none-eabi/include/sys/_stdint.h"
ARM GAS  /tmp/cc4aQ5AS.s 			page 11


 570              		.file 8 "../../modules/ChibiOS/os/common/ports/ARMCMx/compilers/GCC/chtypes.h"
 571              		.file 9 "../../modules/ChibiOS/os/rt/include/chtime.h"
 572              		.file 10 "../../modules/ChibiOS/os/hal/ports/STM32/LLD/TIMv1/stm32_tim.h"
 573              		.file 11 "../../modules/ChibiOS/os/rt/include/chsys.h"
 574              		.section	.debug_info,"",%progbits
 575              	.Ldebug_info0:
 576 0000 1E060000 		.4byte	0x61e
 577 0004 0400     		.2byte	0x4
 578 0006 00000000 		.4byte	.Ldebug_abbrev0
 579 000a 04       		.byte	0x4
 580 000b 01       		.uleb128 0x1
 581 000c BF010000 		.4byte	.LASF41
 582 0010 0C       		.byte	0xc
 583 0011 C7020000 		.4byte	.LASF42
 584 0015 46010000 		.4byte	.LASF43
 585 0019 A0010000 		.4byte	.Ldebug_ranges0+0x1a0
 586 001d 00000000 		.4byte	0
 587 0021 00000000 		.4byte	.Ldebug_line0
 588 0025 02       		.uleb128 0x2
 589 0026 04       		.byte	0x4
 590 0027 05       		.byte	0x5
 591 0028 696E7400 		.ascii	"int\000"
 592 002c 03       		.uleb128 0x3
 593 002d 19000000 		.4byte	.LASF8
 594 0031 05       		.byte	0x5
 595 0032 D1       		.byte	0xd1
 596 0033 17       		.byte	0x17
 597 0034 38000000 		.4byte	0x38
 598 0038 04       		.uleb128 0x4
 599 0039 04       		.byte	0x4
 600 003a 07       		.byte	0x7
 601 003b FF000000 		.4byte	.LASF0
 602 003f 04       		.uleb128 0x4
 603 0040 08       		.byte	0x8
 604 0041 05       		.byte	0x5
 605 0042 A2010000 		.4byte	.LASF1
 606 0046 04       		.uleb128 0x4
 607 0047 08       		.byte	0x8
 608 0048 04       		.byte	0x4
 609 0049 C6000000 		.4byte	.LASF2
 610 004d 04       		.uleb128 0x4
 611 004e 01       		.byte	0x1
 612 004f 06       		.byte	0x6
 613 0050 2E030000 		.4byte	.LASF3
 614 0054 04       		.uleb128 0x4
 615 0055 01       		.byte	0x1
 616 0056 08       		.byte	0x8
 617 0057 5F000000 		.4byte	.LASF4
 618 005b 04       		.uleb128 0x4
 619 005c 02       		.byte	0x2
 620 005d 05       		.byte	0x5
 621 005e 47000000 		.4byte	.LASF5
 622 0062 04       		.uleb128 0x4
 623 0063 02       		.byte	0x2
 624 0064 07       		.byte	0x7
 625 0065 2A000000 		.4byte	.LASF6
 626 0069 04       		.uleb128 0x4
ARM GAS  /tmp/cc4aQ5AS.s 			page 12


 627 006a 04       		.byte	0x4
 628 006b 05       		.byte	0x5
 629 006c 1F030000 		.4byte	.LASF7
 630 0070 03       		.uleb128 0x3
 631 0071 9B000000 		.4byte	.LASF9
 632 0075 06       		.byte	0x6
 633 0076 4F       		.byte	0x4f
 634 0077 19       		.byte	0x19
 635 0078 7C000000 		.4byte	0x7c
 636 007c 04       		.uleb128 0x4
 637 007d 04       		.byte	0x4
 638 007e 07       		.byte	0x7
 639 007f 7C000000 		.4byte	.LASF10
 640 0083 03       		.uleb128 0x3
 641 0084 FF020000 		.4byte	.LASF11
 642 0088 06       		.byte	0x6
 643 0089 69       		.byte	0x69
 644 008a 19       		.byte	0x19
 645 008b 8F000000 		.4byte	0x8f
 646 008f 04       		.uleb128 0x4
 647 0090 08       		.byte	0x8
 648 0091 07       		.byte	0x7
 649 0092 8B010000 		.4byte	.LASF12
 650 0096 03       		.uleb128 0x3
 651 0097 16030000 		.4byte	.LASF13
 652 009b 07       		.byte	0x7
 653 009c 30       		.byte	0x30
 654 009d 14       		.byte	0x14
 655 009e 70000000 		.4byte	0x70
 656 00a2 05       		.uleb128 0x5
 657 00a3 96000000 		.4byte	0x96
 658 00a7 03       		.uleb128 0x3
 659 00a8 51000000 		.4byte	.LASF14
 660 00ac 07       		.byte	0x7
 661 00ad 3C       		.byte	0x3c
 662 00ae 14       		.byte	0x14
 663 00af 83000000 		.4byte	0x83
 664 00b3 06       		.uleb128 0x6
 665 00b4 A7000000 		.4byte	0xa7
 666 00b8 03       		.uleb128 0x3
 667 00b9 73000000 		.4byte	.LASF15
 668 00bd 08       		.byte	0x8
 669 00be 29       		.byte	0x29
 670 00bf 1D       		.byte	0x1d
 671 00c0 96000000 		.4byte	0x96
 672 00c4 03       		.uleb128 0x3
 673 00c5 20000000 		.4byte	.LASF16
 674 00c9 09       		.byte	0x9
 675 00ca 6D       		.byte	0x6d
 676 00cb 12       		.byte	0x12
 677 00cc 96000000 		.4byte	0x96
 678 00d0 07       		.uleb128 0x7
 679 00d1 A2000000 		.4byte	0xa2
 680 00d5 E0000000 		.4byte	0xe0
 681 00d9 08       		.uleb128 0x8
 682 00da 38000000 		.4byte	0x38
 683 00de 01       		.byte	0x1
ARM GAS  /tmp/cc4aQ5AS.s 			page 13


 684 00df 00       		.byte	0
 685 00e0 05       		.uleb128 0x5
 686 00e1 D0000000 		.4byte	0xd0
 687 00e5 07       		.uleb128 0x7
 688 00e6 A2000000 		.4byte	0xa2
 689 00ea F5000000 		.4byte	0xf5
 690 00ee 08       		.uleb128 0x8
 691 00ef 38000000 		.4byte	0x38
 692 00f3 03       		.byte	0x3
 693 00f4 00       		.byte	0
 694 00f5 05       		.uleb128 0x5
 695 00f6 E5000000 		.4byte	0xe5
 696 00fa 09       		.uleb128 0x9
 697 00fb 60       		.byte	0x60
 698 00fc 0A       		.byte	0xa
 699 00fd F501     		.2byte	0x1f5
 700 00ff 09       		.byte	0x9
 701 0100 1B020000 		.4byte	0x21b
 702 0104 0A       		.uleb128 0xa
 703 0105 43523100 		.ascii	"CR1\000"
 704 0109 0A       		.byte	0xa
 705 010a F601     		.2byte	0x1f6
 706 010c 19       		.byte	0x19
 707 010d A2000000 		.4byte	0xa2
 708 0111 00       		.byte	0
 709 0112 0A       		.uleb128 0xa
 710 0113 43523200 		.ascii	"CR2\000"
 711 0117 0A       		.byte	0xa
 712 0118 F701     		.2byte	0x1f7
 713 011a 19       		.byte	0x19
 714 011b A2000000 		.4byte	0xa2
 715 011f 04       		.byte	0x4
 716 0120 0B       		.uleb128 0xb
 717 0121 BA010000 		.4byte	.LASF17
 718 0125 0A       		.byte	0xa
 719 0126 F801     		.2byte	0x1f8
 720 0128 19       		.byte	0x19
 721 0129 A2000000 		.4byte	0xa2
 722 012d 08       		.byte	0x8
 723 012e 0B       		.uleb128 0xb
 724 012f 5A000000 		.4byte	.LASF18
 725 0133 0A       		.byte	0xa
 726 0134 F901     		.2byte	0x1f9
 727 0136 19       		.byte	0x19
 728 0137 A2000000 		.4byte	0xa2
 729 013b 0C       		.byte	0xc
 730 013c 0A       		.uleb128 0xa
 731 013d 535200   		.ascii	"SR\000"
 732 0140 0A       		.byte	0xa
 733 0141 FA01     		.2byte	0x1fa
 734 0143 19       		.byte	0x19
 735 0144 A2000000 		.4byte	0xa2
 736 0148 10       		.byte	0x10
 737 0149 0A       		.uleb128 0xa
 738 014a 45475200 		.ascii	"EGR\000"
 739 014e 0A       		.byte	0xa
 740 014f FB01     		.2byte	0x1fb
ARM GAS  /tmp/cc4aQ5AS.s 			page 14


 741 0151 19       		.byte	0x19
 742 0152 A2000000 		.4byte	0xa2
 743 0156 14       		.byte	0x14
 744 0157 0B       		.uleb128 0xb
 745 0158 C1020000 		.4byte	.LASF19
 746 015c 0A       		.byte	0xa
 747 015d FC01     		.2byte	0x1fc
 748 015f 19       		.byte	0x19
 749 0160 A2000000 		.4byte	0xa2
 750 0164 18       		.byte	0x18
 751 0165 0B       		.uleb128 0xb
 752 0166 28030000 		.4byte	.LASF20
 753 016a 0A       		.byte	0xa
 754 016b FD01     		.2byte	0x1fd
 755 016d 19       		.byte	0x19
 756 016e A2000000 		.4byte	0xa2
 757 0172 1C       		.byte	0x1c
 758 0173 0B       		.uleb128 0xb
 759 0174 B5010000 		.4byte	.LASF21
 760 0178 0A       		.byte	0xa
 761 0179 FE01     		.2byte	0x1fe
 762 017b 19       		.byte	0x19
 763 017c A2000000 		.4byte	0xa2
 764 0180 20       		.byte	0x20
 765 0181 0A       		.uleb128 0xa
 766 0182 434E5400 		.ascii	"CNT\000"
 767 0186 0A       		.byte	0xa
 768 0187 FF01     		.2byte	0x1ff
 769 0189 19       		.byte	0x19
 770 018a A2000000 		.4byte	0xa2
 771 018e 24       		.byte	0x24
 772 018f 0A       		.uleb128 0xa
 773 0190 50534300 		.ascii	"PSC\000"
 774 0194 0A       		.byte	0xa
 775 0195 0002     		.2byte	0x200
 776 0197 19       		.byte	0x19
 777 0198 A2000000 		.4byte	0xa2
 778 019c 28       		.byte	0x28
 779 019d 0A       		.uleb128 0xa
 780 019e 41525200 		.ascii	"ARR\000"
 781 01a2 0A       		.byte	0xa
 782 01a3 0102     		.2byte	0x201
 783 01a5 19       		.byte	0x19
 784 01a6 A2000000 		.4byte	0xa2
 785 01aa 2C       		.byte	0x2c
 786 01ab 0A       		.uleb128 0xa
 787 01ac 52435200 		.ascii	"RCR\000"
 788 01b0 0A       		.byte	0xa
 789 01b1 0202     		.2byte	0x202
 790 01b3 19       		.byte	0x19
 791 01b4 A2000000 		.4byte	0xa2
 792 01b8 30       		.byte	0x30
 793 01b9 0A       		.uleb128 0xa
 794 01ba 43435200 		.ascii	"CCR\000"
 795 01be 0A       		.byte	0xa
 796 01bf 0302     		.2byte	0x203
 797 01c1 19       		.byte	0x19
ARM GAS  /tmp/cc4aQ5AS.s 			page 15


 798 01c2 F5000000 		.4byte	0xf5
 799 01c6 34       		.byte	0x34
 800 01c7 0B       		.uleb128 0xb
 801 01c8 00000000 		.4byte	.LASF22
 802 01cc 0A       		.byte	0xa
 803 01cd 0402     		.2byte	0x204
 804 01cf 19       		.byte	0x19
 805 01d0 A2000000 		.4byte	0xa2
 806 01d4 44       		.byte	0x44
 807 01d5 0A       		.uleb128 0xa
 808 01d6 44435200 		.ascii	"DCR\000"
 809 01da 0A       		.byte	0xa
 810 01db 0502     		.2byte	0x205
 811 01dd 19       		.byte	0x19
 812 01de A2000000 		.4byte	0xa2
 813 01e2 48       		.byte	0x48
 814 01e3 0B       		.uleb128 0xb
 815 01e4 E3000000 		.4byte	.LASF23
 816 01e8 0A       		.byte	0xa
 817 01e9 0602     		.2byte	0x206
 818 01eb 19       		.byte	0x19
 819 01ec A2000000 		.4byte	0xa2
 820 01f0 4C       		.byte	0x4c
 821 01f1 0A       		.uleb128 0xa
 822 01f2 4F5200   		.ascii	"OR\000"
 823 01f5 0A       		.byte	0xa
 824 01f6 0702     		.2byte	0x207
 825 01f8 19       		.byte	0x19
 826 01f9 A2000000 		.4byte	0xa2
 827 01fd 50       		.byte	0x50
 828 01fe 0B       		.uleb128 0xb
 829 01ff F9020000 		.4byte	.LASF24
 830 0203 0A       		.byte	0xa
 831 0204 0802     		.2byte	0x208
 832 0206 19       		.byte	0x19
 833 0207 A2000000 		.4byte	0xa2
 834 020b 54       		.byte	0x54
 835 020c 0B       		.uleb128 0xb
 836 020d 4D030000 		.4byte	.LASF25
 837 0211 0A       		.byte	0xa
 838 0212 0902     		.2byte	0x209
 839 0214 19       		.byte	0x19
 840 0215 E0000000 		.4byte	0xe0
 841 0219 58       		.byte	0x58
 842 021a 00       		.byte	0
 843 021b 0C       		.uleb128 0xc
 844 021c 0A030000 		.4byte	.LASF26
 845 0220 0A       		.byte	0xa
 846 0221 0A02     		.2byte	0x20a
 847 0223 03       		.byte	0x3
 848 0224 FA000000 		.4byte	0xfa
 849 0228 04       		.uleb128 0x4
 850 0229 01       		.byte	0x1
 851 022a 08       		.byte	0x8
 852 022b B0010000 		.4byte	.LASF27
 853 022f 04       		.uleb128 0x4
 854 0230 01       		.byte	0x1
ARM GAS  /tmp/cc4aQ5AS.s 			page 16


 855 0231 02       		.byte	0x2
 856 0232 3A030000 		.4byte	.LASF28
 857 0236 0D       		.uleb128 0xd
 858 0237 52030000 		.4byte	.LASF31
 859 023b 01       		.byte	0x1
 860 023c 48       		.byte	0x48
 861 023d 11       		.byte	0x11
 862 023e A7000000 		.4byte	0xa7
 863 0242 05       		.uleb128 0x5
 864 0243 03       		.byte	0x3
 865 0244 00000000 		.4byte	timer_base_us64
 866 0248 0E       		.uleb128 0xe
 867 0249 A6000000 		.4byte	.LASF29
 868 024d 01       		.byte	0x1
 869 024e 6D       		.byte	0x6d
 870 024f 0A       		.byte	0xa
 871 0250 96000000 		.4byte	0x96
 872 0254 00000000 		.4byte	.LFB338
 873 0258 50000000 		.4byte	.LFE338-.LFB338
 874 025c 01       		.uleb128 0x1
 875 025d 9C       		.byte	0x9c
 876 025e 5F030000 		.4byte	0x35f
 877 0262 0F       		.uleb128 0xf
 878 0263 5A040000 		.4byte	0x45a
 879 0267 00000000 		.4byte	.LBI109
 880 026b 02       		.byte	.LVU82
 881 026c E0000000 		.4byte	.Ldebug_ranges0+0xe0
 882 0270 01       		.byte	0x1
 883 0271 6F       		.byte	0x6f
 884 0272 17       		.byte	0x17
 885 0273 55030000 		.4byte	0x355
 886 0277 10       		.uleb128 0x10
 887 0278 E0000000 		.4byte	.Ldebug_ranges0+0xe0
 888 027c 11       		.uleb128 0x11
 889 027d 6B040000 		.4byte	0x46b
 890 0281 02000000 		.4byte	.LLST9
 891 0285 00000000 		.4byte	.LVUS9
 892 0289 11       		.uleb128 0x11
 893 028a 77040000 		.4byte	0x477
 894 028e 17000000 		.4byte	.LLST10
 895 0292 15000000 		.4byte	.LVUS10
 896 0296 11       		.uleb128 0x11
 897 0297 83040000 		.4byte	0x483
 898 029b 2E000000 		.4byte	.LLST11
 899 029f 2A000000 		.4byte	.LVUS11
 900 02a3 0F       		.uleb128 0xf
 901 02a4 90040000 		.4byte	0x490
 902 02a8 0A000000 		.4byte	.LBI111
 903 02ac 01       		.byte	.LVU88
 904 02ad 08010000 		.4byte	.Ldebug_ranges0+0x108
 905 02b1 01       		.byte	0x1
 906 02b2 5F       		.byte	0x5f
 907 02b3 14       		.byte	0x14
 908 02b4 41030000 		.4byte	0x341
 909 02b8 10       		.uleb128 0x10
 910 02b9 08010000 		.4byte	.Ldebug_ranges0+0x108
 911 02bd 11       		.uleb128 0x11
ARM GAS  /tmp/cc4aQ5AS.s 			page 17


 912 02be B3040000 		.4byte	0x4b3
 913 02c2 59000000 		.4byte	.LLST12
 914 02c6 57000000 		.4byte	.LVUS12
 915 02ca 0F       		.uleb128 0xf
 916 02cb CE040000 		.4byte	0x4ce
 917 02cf 0A000000 		.4byte	.LBI113
 918 02d3 04       		.byte	.LVU91
 919 02d4 48010000 		.4byte	.Ldebug_ranges0+0x148
 920 02d8 01       		.byte	0x1
 921 02d9 4D       		.byte	0x4d
 922 02da 14       		.byte	0x14
 923 02db 28030000 		.4byte	0x328
 924 02df 10       		.uleb128 0x10
 925 02e0 48010000 		.4byte	.Ldebug_ranges0+0x148
 926 02e4 11       		.uleb128 0x11
 927 02e5 DF040000 		.4byte	0x4df
 928 02e9 6E000000 		.4byte	.LLST13
 929 02ed 6C000000 		.4byte	.LVUS13
 930 02f1 12       		.uleb128 0x12
 931 02f2 EC040000 		.4byte	0x4ec
 932 02f6 0A000000 		.4byte	.LBI115
 933 02fa 06       		.byte	.LVU93
 934 02fb 48010000 		.4byte	.Ldebug_ranges0+0x148
 935 02ff 01       		.byte	0x1
 936 0300 3D       		.byte	0x3d
 937 0301 15       		.byte	0x15
 938 0302 12       		.uleb128 0x12
 939 0303 F9040000 		.4byte	0x4f9
 940 0307 0A000000 		.4byte	.LBI116
 941 030b 08       		.byte	.LVU95
 942 030c 50010000 		.4byte	.Ldebug_ranges0+0x150
 943 0310 02       		.byte	0x2
 944 0311 78       		.byte	0x78
 945 0312 0A       		.byte	0xa
 946 0313 13       		.uleb128 0x13
 947 0314 06050000 		.4byte	0x506
 948 0318 0A000000 		.4byte	.LBI117
 949 031c 0A       		.byte	.LVU97
 950 031d 58010000 		.4byte	.Ldebug_ranges0+0x158
 951 0321 03       		.byte	0x3
 952 0322 6B       		.byte	0x6b
 953 0323 0A       		.byte	0xa
 954 0324 00       		.byte	0
 955 0325 00       		.byte	0
 956 0326 00       		.byte	0
 957 0327 00       		.byte	0
 958 0328 14       		.uleb128 0x14
 959 0329 BF040000 		.4byte	0x4bf
 960 032d 70010000 		.4byte	.Ldebug_ranges0+0x170
 961 0331 15       		.uleb128 0x15
 962 0332 C0040000 		.4byte	0x4c0
 963 0336 00000000 		.8byte	0x100000000
 963      01000000 
 964 033e 00       		.byte	0
 965 033f 00       		.byte	0
 966 0340 00       		.byte	0
 967 0341 16       		.uleb128 0x16
ARM GAS  /tmp/cc4aQ5AS.s 			page 18


 968 0342 0A000000 		.4byte	.LVL13
 969 0346 FE050000 		.4byte	0x5fe
 970 034a 16       		.uleb128 0x16
 971 034b 36000000 		.4byte	.LVL17
 972 034f 0B060000 		.4byte	0x60b
 973 0353 00       		.byte	0
 974 0354 00       		.byte	0
 975 0355 16       		.uleb128 0x16
 976 0356 44000000 		.4byte	.LVL18
 977 035a 18060000 		.4byte	0x618
 978 035e 00       		.byte	0
 979 035f 0E       		.uleb128 0xe
 980 0360 8E000000 		.4byte	.LASF30
 981 0364 01       		.byte	0x1
 982 0365 65       		.byte	0x65
 983 0366 0A       		.byte	0xa
 984 0367 96000000 		.4byte	0x96
 985 036b 00000000 		.4byte	.LFB337
 986 036f 30000000 		.4byte	.LFE337-.LFB337
 987 0373 01       		.uleb128 0x1
 988 0374 9C       		.byte	0x9c
 989 0375 5A040000 		.4byte	0x45a
 990 0379 17       		.uleb128 0x17
 991 037a 73747300 		.ascii	"sts\000"
 992 037e 01       		.byte	0x1
 993 037f 67       		.byte	0x67
 994 0380 0E       		.byte	0xe
 995 0381 B8000000 		.4byte	0xb8
 996 0385 83000000 		.4byte	.LLST5
 997 0389 81000000 		.4byte	.LVUS5
 998 038d 17       		.uleb128 0x17
 999 038e 72657400 		.ascii	"ret\000"
 1000 0392 01       		.byte	0x1
 1001 0393 68       		.byte	0x68
 1002 0394 0E       		.byte	0xe
 1003 0395 96000000 		.4byte	0x96
 1004 0399 9A000000 		.4byte	.LLST6
 1005 039d 96000000 		.4byte	.LVUS6
 1006 03a1 0F       		.uleb128 0xf
 1007 03a2 90040000 		.4byte	0x490
 1008 03a6 08000000 		.4byte	.LBI76
 1009 03aa 02       		.byte	.LVU51
 1010 03ab 98000000 		.4byte	.Ldebug_ranges0+0x98
 1011 03af 01       		.byte	0x1
 1012 03b0 68       		.byte	0x68
 1013 03b1 14       		.byte	0x14
 1014 03b2 47040000 		.4byte	0x447
 1015 03b6 10       		.uleb128 0x10
 1016 03b7 98000000 		.4byte	.Ldebug_ranges0+0x98
 1017 03bb 11       		.uleb128 0x11
 1018 03bc B3040000 		.4byte	0x4b3
 1019 03c0 BC000000 		.4byte	.LLST7
 1020 03c4 B8000000 		.4byte	.LVUS7
 1021 03c8 0F       		.uleb128 0xf
 1022 03c9 CE040000 		.4byte	0x4ce
 1023 03cd 08000000 		.4byte	.LBI78
 1024 03d1 05       		.byte	.LVU54
ARM GAS  /tmp/cc4aQ5AS.s 			page 19


 1025 03d2 C0000000 		.4byte	.Ldebug_ranges0+0xc0
 1026 03d6 01       		.byte	0x1
 1027 03d7 4D       		.byte	0x4d
 1028 03d8 14       		.byte	0x14
 1029 03d9 2A040000 		.4byte	0x42a
 1030 03dd 10       		.uleb128 0x10
 1031 03de C0000000 		.4byte	.Ldebug_ranges0+0xc0
 1032 03e2 11       		.uleb128 0x11
 1033 03e3 DF040000 		.4byte	0x4df
 1034 03e7 DE000000 		.4byte	.LLST8
 1035 03eb DA000000 		.4byte	.LVUS8
 1036 03ef 12       		.uleb128 0x12
 1037 03f0 EC040000 		.4byte	0x4ec
 1038 03f4 08000000 		.4byte	.LBI80
 1039 03f8 07       		.byte	.LVU56
 1040 03f9 C0000000 		.4byte	.Ldebug_ranges0+0xc0
 1041 03fd 01       		.byte	0x1
 1042 03fe 3D       		.byte	0x3d
 1043 03ff 15       		.byte	0x15
 1044 0400 12       		.uleb128 0x12
 1045 0401 F9040000 		.4byte	0x4f9
 1046 0405 08000000 		.4byte	.LBI81
 1047 0409 09       		.byte	.LVU58
 1048 040a C8000000 		.4byte	.Ldebug_ranges0+0xc8
 1049 040e 02       		.byte	0x2
 1050 040f 78       		.byte	0x78
 1051 0410 0A       		.byte	0xa
 1052 0411 18       		.uleb128 0x18
 1053 0412 06050000 		.4byte	0x506
 1054 0416 08000000 		.4byte	.LBI82
 1055 041a 0B       		.byte	.LVU60
 1056 041b 08000000 		.4byte	.LBB82
 1057 041f 06000000 		.4byte	.LBE82-.LBB82
 1058 0423 03       		.byte	0x3
 1059 0424 6B       		.byte	0x6b
 1060 0425 0A       		.byte	0xa
 1061 0426 00       		.byte	0
 1062 0427 00       		.byte	0
 1063 0428 00       		.byte	0
 1064 0429 00       		.byte	0
 1065 042a 19       		.uleb128 0x19
 1066 042b BF040000 		.4byte	0x4bf
 1067 042f 14000000 		.4byte	.LBB91
 1068 0433 0A000000 		.4byte	.LBE91-.LBB91
 1069 0437 15       		.uleb128 0x15
 1070 0438 C0040000 		.4byte	0x4c0
 1071 043c 00000000 		.8byte	0x100000000
 1071      01000000 
 1072 0444 00       		.byte	0
 1073 0445 00       		.byte	0
 1074 0446 00       		.byte	0
 1075 0447 16       		.uleb128 0x16
 1076 0448 06000000 		.4byte	.LVL6
 1077 044c FE050000 		.4byte	0x5fe
 1078 0450 16       		.uleb128 0x16
 1079 0451 22000000 		.4byte	.LVL11
 1080 0455 0B060000 		.4byte	0x60b
ARM GAS  /tmp/cc4aQ5AS.s 			page 20


 1081 0459 00       		.byte	0
 1082 045a 1A       		.uleb128 0x1a
 1083 045b 40030000 		.4byte	.LASF44
 1084 045f 01       		.byte	0x1
 1085 0460 5C       		.byte	0x5c
 1086 0461 0A       		.byte	0xa
 1087 0462 A7000000 		.4byte	0xa7
 1088 0466 01       		.byte	0x1
 1089 0467 90040000 		.4byte	0x490
 1090 046b 1B       		.uleb128 0x1b
 1091 046c 73747300 		.ascii	"sts\000"
 1092 0470 01       		.byte	0x1
 1093 0471 5E       		.byte	0x5e
 1094 0472 0E       		.byte	0xe
 1095 0473 B8000000 		.4byte	0xb8
 1096 0477 1B       		.uleb128 0x1b
 1097 0478 6E6F7700 		.ascii	"now\000"
 1098 047c 01       		.byte	0x1
 1099 047d 5F       		.byte	0x5f
 1100 047e 0E       		.byte	0xe
 1101 047f 96000000 		.4byte	0x96
 1102 0483 1B       		.uleb128 0x1b
 1103 0484 72657400 		.ascii	"ret\000"
 1104 0488 01       		.byte	0x1
 1105 0489 60       		.byte	0x60
 1106 048a 0E       		.byte	0xe
 1107 048b A7000000 		.4byte	0xa7
 1108 048f 00       		.byte	0
 1109 0490 1C       		.uleb128 0x1c
 1110 0491 7A010000 		.4byte	.LASF34
 1111 0495 01       		.byte	0x1
 1112 0496 4A       		.byte	0x4a
 1113 0497 11       		.byte	0x11
 1114 0498 96000000 		.4byte	0x96
 1115 049c 01       		.byte	0x1
 1116 049d CE040000 		.4byte	0x4ce
 1117 04a1 0D       		.uleb128 0xd
 1118 04a2 3D000000 		.4byte	.LASF32
 1119 04a6 01       		.byte	0x1
 1120 04a7 4C       		.byte	0x4c
 1121 04a8 15       		.byte	0x15
 1122 04a9 96000000 		.4byte	0x96
 1123 04ad 05       		.uleb128 0x5
 1124 04ae 03       		.byte	0x3
 1125 04af 00000000 		.4byte	last_us32.0
 1126 04b3 1B       		.uleb128 0x1b
 1127 04b4 6E6F7700 		.ascii	"now\000"
 1128 04b8 01       		.byte	0x1
 1129 04b9 4D       		.byte	0x4d
 1130 04ba 0E       		.byte	0xe
 1131 04bb 96000000 		.4byte	0x96
 1132 04bf 1D       		.uleb128 0x1d
 1133 04c0 1E       		.uleb128 0x1e
 1134 04c1 6D000000 		.4byte	.LASF33
 1135 04c5 01       		.byte	0x1
 1136 04c6 4F       		.byte	0x4f
 1137 04c7 18       		.byte	0x18
ARM GAS  /tmp/cc4aQ5AS.s 			page 21


 1138 04c8 B3000000 		.4byte	0xb3
 1139 04cc 00       		.byte	0
 1140 04cd 00       		.byte	0
 1141 04ce 1C       		.uleb128 0x1c
 1142 04cf B3000000 		.4byte	.LASF35
 1143 04d3 01       		.byte	0x1
 1144 04d4 3B       		.byte	0x3b
 1145 04d5 11       		.byte	0x11
 1146 04d6 96000000 		.4byte	0x96
 1147 04da 01       		.byte	0x1
 1148 04db EC040000 		.4byte	0x4ec
 1149 04df 1B       		.uleb128 0x1b
 1150 04e0 6E6F7700 		.ascii	"now\000"
 1151 04e4 01       		.byte	0x1
 1152 04e5 3D       		.byte	0x3d
 1153 04e6 0F       		.byte	0xf
 1154 04e7 C4000000 		.4byte	0xc4
 1155 04eb 00       		.byte	0
 1156 04ec 1F       		.uleb128 0x1f
 1157 04ed 33010000 		.4byte	.LASF36
 1158 04f1 02       		.byte	0x2
 1159 04f2 73       		.byte	0x73
 1160 04f3 19       		.byte	0x19
 1161 04f4 C4000000 		.4byte	0xc4
 1162 04f8 03       		.byte	0x3
 1163 04f9 1F       		.uleb128 0x1f
 1164 04fa 0C010000 		.4byte	.LASF37
 1165 04fe 03       		.byte	0x3
 1166 04ff 69       		.byte	0x69
 1167 0500 19       		.byte	0x19
 1168 0501 C4000000 		.4byte	0xc4
 1169 0505 03       		.byte	0x3
 1170 0506 1F       		.uleb128 0x1f
 1171 0507 20010000 		.4byte	.LASF38
 1172 050b 04       		.byte	0x4
 1173 050c A6       		.byte	0xa6
 1174 050d 19       		.byte	0x19
 1175 050e C4000000 		.4byte	0xc4
 1176 0512 03       		.byte	0x3
 1177 0513 20       		.uleb128 0x20
 1178 0514 5A040000 		.4byte	0x45a
 1179 0518 00000000 		.4byte	.LFB336
 1180 051c 48000000 		.4byte	.LFE336-.LFB336
 1181 0520 01       		.uleb128 0x1
 1182 0521 9C       		.byte	0x9c
 1183 0522 FE050000 		.4byte	0x5fe
 1184 0526 11       		.uleb128 0x11
 1185 0527 6B040000 		.4byte	0x46b
 1186 052b FE000000 		.4byte	.LLST0
 1187 052f FC000000 		.4byte	.LVUS0
 1188 0533 11       		.uleb128 0x11
 1189 0534 77040000 		.4byte	0x477
 1190 0538 13010000 		.4byte	.LLST1
 1191 053c 11010000 		.4byte	.LVUS1
 1192 0540 11       		.uleb128 0x11
 1193 0541 83040000 		.4byte	0x483
 1194 0545 2C010000 		.4byte	.LLST2
ARM GAS  /tmp/cc4aQ5AS.s 			page 22


 1195 0549 26010000 		.4byte	.LVUS2
 1196 054d 0F       		.uleb128 0xf
 1197 054e 90040000 		.4byte	0x490
 1198 0552 0A000000 		.4byte	.LBI29
 1199 0556 01       		.byte	.LVU6
 1200 0557 00000000 		.4byte	.Ldebug_ranges0+0
 1201 055b 01       		.byte	0x1
 1202 055c 5F       		.byte	0x5f
 1203 055d 14       		.byte	0x14
 1204 055e EB050000 		.4byte	0x5eb
 1205 0562 10       		.uleb128 0x10
 1206 0563 00000000 		.4byte	.Ldebug_ranges0+0
 1207 0567 11       		.uleb128 0x11
 1208 0568 B3040000 		.4byte	0x4b3
 1209 056c 68010000 		.4byte	.LLST3
 1210 0570 66010000 		.4byte	.LVUS3
 1211 0574 0F       		.uleb128 0xf
 1212 0575 CE040000 		.4byte	0x4ce
 1213 0579 0A000000 		.4byte	.LBI31
 1214 057d 04       		.byte	.LVU9
 1215 057e 40000000 		.4byte	.Ldebug_ranges0+0x40
 1216 0582 01       		.byte	0x1
 1217 0583 4D       		.byte	0x4d
 1218 0584 14       		.byte	0x14
 1219 0585 D2050000 		.4byte	0x5d2
 1220 0589 10       		.uleb128 0x10
 1221 058a 40000000 		.4byte	.Ldebug_ranges0+0x40
 1222 058e 11       		.uleb128 0x11
 1223 058f DF040000 		.4byte	0x4df
 1224 0593 7D010000 		.4byte	.LLST4
 1225 0597 7B010000 		.4byte	.LVUS4
 1226 059b 12       		.uleb128 0x12
 1227 059c EC040000 		.4byte	0x4ec
 1228 05a0 0A000000 		.4byte	.LBI33
 1229 05a4 06       		.byte	.LVU11
 1230 05a5 40000000 		.4byte	.Ldebug_ranges0+0x40
 1231 05a9 01       		.byte	0x1
 1232 05aa 3D       		.byte	0x3d
 1233 05ab 15       		.byte	0x15
 1234 05ac 12       		.uleb128 0x12
 1235 05ad F9040000 		.4byte	0x4f9
 1236 05b1 0A000000 		.4byte	.LBI34
 1237 05b5 08       		.byte	.LVU13
 1238 05b6 48000000 		.4byte	.Ldebug_ranges0+0x48
 1239 05ba 02       		.byte	0x2
 1240 05bb 78       		.byte	0x78
 1241 05bc 0A       		.byte	0xa
 1242 05bd 13       		.uleb128 0x13
 1243 05be 06050000 		.4byte	0x506
 1244 05c2 0A000000 		.4byte	.LBI35
 1245 05c6 0A       		.byte	.LVU15
 1246 05c7 50000000 		.4byte	.Ldebug_ranges0+0x50
 1247 05cb 03       		.byte	0x3
 1248 05cc 6B       		.byte	0x6b
 1249 05cd 0A       		.byte	0xa
 1250 05ce 00       		.byte	0
 1251 05cf 00       		.byte	0
ARM GAS  /tmp/cc4aQ5AS.s 			page 23


 1252 05d0 00       		.byte	0
 1253 05d1 00       		.byte	0
 1254 05d2 14       		.uleb128 0x14
 1255 05d3 BF040000 		.4byte	0x4bf
 1256 05d7 68000000 		.4byte	.Ldebug_ranges0+0x68
 1257 05db 15       		.uleb128 0x15
 1258 05dc C0040000 		.4byte	0x4c0
 1259 05e0 00000000 		.8byte	0x100000000
 1259      01000000 
 1260 05e8 00       		.byte	0
 1261 05e9 00       		.byte	0
 1262 05ea 00       		.byte	0
 1263 05eb 16       		.uleb128 0x16
 1264 05ec 0A000000 		.4byte	.LVL0
 1265 05f0 FE050000 		.4byte	0x5fe
 1266 05f4 16       		.uleb128 0x16
 1267 05f5 36000000 		.4byte	.LVL4
 1268 05f9 0B060000 		.4byte	0x60b
 1269 05fd 00       		.byte	0
 1270 05fe 21       		.uleb128 0x21
 1271 05ff E8000000 		.4byte	.LASF39
 1272 0603 E8000000 		.4byte	.LASF39
 1273 0607 0B       		.byte	0xb
 1274 0608 2001     		.2byte	0x120
 1275 060a 0C       		.byte	0xc
 1276 060b 21       		.uleb128 0x21
 1277 060c 05000000 		.4byte	.LASF40
 1278 0610 05000000 		.4byte	.LASF40
 1279 0614 0B       		.byte	0xb
 1280 0615 2101     		.2byte	0x121
 1281 0617 08       		.byte	0x8
 1282 0618 22       		.uleb128 0x22
 1283 0619 D2000000 		.4byte	.LASF45
 1284 061d D2000000 		.4byte	.LASF45
 1285 0621 00       		.byte	0
 1286              		.section	.debug_abbrev,"",%progbits
 1287              	.Ldebug_abbrev0:
 1288 0000 01       		.uleb128 0x1
 1289 0001 11       		.uleb128 0x11
 1290 0002 01       		.byte	0x1
 1291 0003 25       		.uleb128 0x25
 1292 0004 0E       		.uleb128 0xe
 1293 0005 13       		.uleb128 0x13
 1294 0006 0B       		.uleb128 0xb
 1295 0007 03       		.uleb128 0x3
 1296 0008 0E       		.uleb128 0xe
 1297 0009 1B       		.uleb128 0x1b
 1298 000a 0E       		.uleb128 0xe
 1299 000b 55       		.uleb128 0x55
 1300 000c 17       		.uleb128 0x17
 1301 000d 11       		.uleb128 0x11
 1302 000e 01       		.uleb128 0x1
 1303 000f 10       		.uleb128 0x10
 1304 0010 17       		.uleb128 0x17
 1305 0011 00       		.byte	0
 1306 0012 00       		.byte	0
 1307 0013 02       		.uleb128 0x2
ARM GAS  /tmp/cc4aQ5AS.s 			page 24


 1308 0014 24       		.uleb128 0x24
 1309 0015 00       		.byte	0
 1310 0016 0B       		.uleb128 0xb
 1311 0017 0B       		.uleb128 0xb
 1312 0018 3E       		.uleb128 0x3e
 1313 0019 0B       		.uleb128 0xb
 1314 001a 03       		.uleb128 0x3
 1315 001b 08       		.uleb128 0x8
 1316 001c 00       		.byte	0
 1317 001d 00       		.byte	0
 1318 001e 03       		.uleb128 0x3
 1319 001f 16       		.uleb128 0x16
 1320 0020 00       		.byte	0
 1321 0021 03       		.uleb128 0x3
 1322 0022 0E       		.uleb128 0xe
 1323 0023 3A       		.uleb128 0x3a
 1324 0024 0B       		.uleb128 0xb
 1325 0025 3B       		.uleb128 0x3b
 1326 0026 0B       		.uleb128 0xb
 1327 0027 39       		.uleb128 0x39
 1328 0028 0B       		.uleb128 0xb
 1329 0029 49       		.uleb128 0x49
 1330 002a 13       		.uleb128 0x13
 1331 002b 00       		.byte	0
 1332 002c 00       		.byte	0
 1333 002d 04       		.uleb128 0x4
 1334 002e 24       		.uleb128 0x24
 1335 002f 00       		.byte	0
 1336 0030 0B       		.uleb128 0xb
 1337 0031 0B       		.uleb128 0xb
 1338 0032 3E       		.uleb128 0x3e
 1339 0033 0B       		.uleb128 0xb
 1340 0034 03       		.uleb128 0x3
 1341 0035 0E       		.uleb128 0xe
 1342 0036 00       		.byte	0
 1343 0037 00       		.byte	0
 1344 0038 05       		.uleb128 0x5
 1345 0039 35       		.uleb128 0x35
 1346 003a 00       		.byte	0
 1347 003b 49       		.uleb128 0x49
 1348 003c 13       		.uleb128 0x13
 1349 003d 00       		.byte	0
 1350 003e 00       		.byte	0
 1351 003f 06       		.uleb128 0x6
 1352 0040 26       		.uleb128 0x26
 1353 0041 00       		.byte	0
 1354 0042 49       		.uleb128 0x49
 1355 0043 13       		.uleb128 0x13
 1356 0044 00       		.byte	0
 1357 0045 00       		.byte	0
 1358 0046 07       		.uleb128 0x7
 1359 0047 01       		.uleb128 0x1
 1360 0048 01       		.byte	0x1
 1361 0049 49       		.uleb128 0x49
 1362 004a 13       		.uleb128 0x13
 1363 004b 01       		.uleb128 0x1
 1364 004c 13       		.uleb128 0x13
ARM GAS  /tmp/cc4aQ5AS.s 			page 25


 1365 004d 00       		.byte	0
 1366 004e 00       		.byte	0
 1367 004f 08       		.uleb128 0x8
 1368 0050 21       		.uleb128 0x21
 1369 0051 00       		.byte	0
 1370 0052 49       		.uleb128 0x49
 1371 0053 13       		.uleb128 0x13
 1372 0054 2F       		.uleb128 0x2f
 1373 0055 0B       		.uleb128 0xb
 1374 0056 00       		.byte	0
 1375 0057 00       		.byte	0
 1376 0058 09       		.uleb128 0x9
 1377 0059 13       		.uleb128 0x13
 1378 005a 01       		.byte	0x1
 1379 005b 0B       		.uleb128 0xb
 1380 005c 0B       		.uleb128 0xb
 1381 005d 3A       		.uleb128 0x3a
 1382 005e 0B       		.uleb128 0xb
 1383 005f 3B       		.uleb128 0x3b
 1384 0060 05       		.uleb128 0x5
 1385 0061 39       		.uleb128 0x39
 1386 0062 0B       		.uleb128 0xb
 1387 0063 01       		.uleb128 0x1
 1388 0064 13       		.uleb128 0x13
 1389 0065 00       		.byte	0
 1390 0066 00       		.byte	0
 1391 0067 0A       		.uleb128 0xa
 1392 0068 0D       		.uleb128 0xd
 1393 0069 00       		.byte	0
 1394 006a 03       		.uleb128 0x3
 1395 006b 08       		.uleb128 0x8
 1396 006c 3A       		.uleb128 0x3a
 1397 006d 0B       		.uleb128 0xb
 1398 006e 3B       		.uleb128 0x3b
 1399 006f 05       		.uleb128 0x5
 1400 0070 39       		.uleb128 0x39
 1401 0071 0B       		.uleb128 0xb
 1402 0072 49       		.uleb128 0x49
 1403 0073 13       		.uleb128 0x13
 1404 0074 38       		.uleb128 0x38
 1405 0075 0B       		.uleb128 0xb
 1406 0076 00       		.byte	0
 1407 0077 00       		.byte	0
 1408 0078 0B       		.uleb128 0xb
 1409 0079 0D       		.uleb128 0xd
 1410 007a 00       		.byte	0
 1411 007b 03       		.uleb128 0x3
 1412 007c 0E       		.uleb128 0xe
 1413 007d 3A       		.uleb128 0x3a
 1414 007e 0B       		.uleb128 0xb
 1415 007f 3B       		.uleb128 0x3b
 1416 0080 05       		.uleb128 0x5
 1417 0081 39       		.uleb128 0x39
 1418 0082 0B       		.uleb128 0xb
 1419 0083 49       		.uleb128 0x49
 1420 0084 13       		.uleb128 0x13
 1421 0085 38       		.uleb128 0x38
ARM GAS  /tmp/cc4aQ5AS.s 			page 26


 1422 0086 0B       		.uleb128 0xb
 1423 0087 00       		.byte	0
 1424 0088 00       		.byte	0
 1425 0089 0C       		.uleb128 0xc
 1426 008a 16       		.uleb128 0x16
 1427 008b 00       		.byte	0
 1428 008c 03       		.uleb128 0x3
 1429 008d 0E       		.uleb128 0xe
 1430 008e 3A       		.uleb128 0x3a
 1431 008f 0B       		.uleb128 0xb
 1432 0090 3B       		.uleb128 0x3b
 1433 0091 05       		.uleb128 0x5
 1434 0092 39       		.uleb128 0x39
 1435 0093 0B       		.uleb128 0xb
 1436 0094 49       		.uleb128 0x49
 1437 0095 13       		.uleb128 0x13
 1438 0096 00       		.byte	0
 1439 0097 00       		.byte	0
 1440 0098 0D       		.uleb128 0xd
 1441 0099 34       		.uleb128 0x34
 1442 009a 00       		.byte	0
 1443 009b 03       		.uleb128 0x3
 1444 009c 0E       		.uleb128 0xe
 1445 009d 3A       		.uleb128 0x3a
 1446 009e 0B       		.uleb128 0xb
 1447 009f 3B       		.uleb128 0x3b
 1448 00a0 0B       		.uleb128 0xb
 1449 00a1 39       		.uleb128 0x39
 1450 00a2 0B       		.uleb128 0xb
 1451 00a3 49       		.uleb128 0x49
 1452 00a4 13       		.uleb128 0x13
 1453 00a5 02       		.uleb128 0x2
 1454 00a6 18       		.uleb128 0x18
 1455 00a7 00       		.byte	0
 1456 00a8 00       		.byte	0
 1457 00a9 0E       		.uleb128 0xe
 1458 00aa 2E       		.uleb128 0x2e
 1459 00ab 01       		.byte	0x1
 1460 00ac 3F       		.uleb128 0x3f
 1461 00ad 19       		.uleb128 0x19
 1462 00ae 03       		.uleb128 0x3
 1463 00af 0E       		.uleb128 0xe
 1464 00b0 3A       		.uleb128 0x3a
 1465 00b1 0B       		.uleb128 0xb
 1466 00b2 3B       		.uleb128 0x3b
 1467 00b3 0B       		.uleb128 0xb
 1468 00b4 39       		.uleb128 0x39
 1469 00b5 0B       		.uleb128 0xb
 1470 00b6 27       		.uleb128 0x27
 1471 00b7 19       		.uleb128 0x19
 1472 00b8 49       		.uleb128 0x49
 1473 00b9 13       		.uleb128 0x13
 1474 00ba 11       		.uleb128 0x11
 1475 00bb 01       		.uleb128 0x1
 1476 00bc 12       		.uleb128 0x12
 1477 00bd 06       		.uleb128 0x6
 1478 00be 40       		.uleb128 0x40
ARM GAS  /tmp/cc4aQ5AS.s 			page 27


 1479 00bf 18       		.uleb128 0x18
 1480 00c0 9742     		.uleb128 0x2117
 1481 00c2 19       		.uleb128 0x19
 1482 00c3 01       		.uleb128 0x1
 1483 00c4 13       		.uleb128 0x13
 1484 00c5 00       		.byte	0
 1485 00c6 00       		.byte	0
 1486 00c7 0F       		.uleb128 0xf
 1487 00c8 1D       		.uleb128 0x1d
 1488 00c9 01       		.byte	0x1
 1489 00ca 31       		.uleb128 0x31
 1490 00cb 13       		.uleb128 0x13
 1491 00cc 52       		.uleb128 0x52
 1492 00cd 01       		.uleb128 0x1
 1493 00ce B842     		.uleb128 0x2138
 1494 00d0 0B       		.uleb128 0xb
 1495 00d1 55       		.uleb128 0x55
 1496 00d2 17       		.uleb128 0x17
 1497 00d3 58       		.uleb128 0x58
 1498 00d4 0B       		.uleb128 0xb
 1499 00d5 59       		.uleb128 0x59
 1500 00d6 0B       		.uleb128 0xb
 1501 00d7 57       		.uleb128 0x57
 1502 00d8 0B       		.uleb128 0xb
 1503 00d9 01       		.uleb128 0x1
 1504 00da 13       		.uleb128 0x13
 1505 00db 00       		.byte	0
 1506 00dc 00       		.byte	0
 1507 00dd 10       		.uleb128 0x10
 1508 00de 0B       		.uleb128 0xb
 1509 00df 01       		.byte	0x1
 1510 00e0 55       		.uleb128 0x55
 1511 00e1 17       		.uleb128 0x17
 1512 00e2 00       		.byte	0
 1513 00e3 00       		.byte	0
 1514 00e4 11       		.uleb128 0x11
 1515 00e5 34       		.uleb128 0x34
 1516 00e6 00       		.byte	0
 1517 00e7 31       		.uleb128 0x31
 1518 00e8 13       		.uleb128 0x13
 1519 00e9 02       		.uleb128 0x2
 1520 00ea 17       		.uleb128 0x17
 1521 00eb B742     		.uleb128 0x2137
 1522 00ed 17       		.uleb128 0x17
 1523 00ee 00       		.byte	0
 1524 00ef 00       		.byte	0
 1525 00f0 12       		.uleb128 0x12
 1526 00f1 1D       		.uleb128 0x1d
 1527 00f2 01       		.byte	0x1
 1528 00f3 31       		.uleb128 0x31
 1529 00f4 13       		.uleb128 0x13
 1530 00f5 52       		.uleb128 0x52
 1531 00f6 01       		.uleb128 0x1
 1532 00f7 B842     		.uleb128 0x2138
 1533 00f9 0B       		.uleb128 0xb
 1534 00fa 55       		.uleb128 0x55
 1535 00fb 17       		.uleb128 0x17
ARM GAS  /tmp/cc4aQ5AS.s 			page 28


 1536 00fc 58       		.uleb128 0x58
 1537 00fd 0B       		.uleb128 0xb
 1538 00fe 59       		.uleb128 0x59
 1539 00ff 0B       		.uleb128 0xb
 1540 0100 57       		.uleb128 0x57
 1541 0101 0B       		.uleb128 0xb
 1542 0102 00       		.byte	0
 1543 0103 00       		.byte	0
 1544 0104 13       		.uleb128 0x13
 1545 0105 1D       		.uleb128 0x1d
 1546 0106 00       		.byte	0
 1547 0107 31       		.uleb128 0x31
 1548 0108 13       		.uleb128 0x13
 1549 0109 52       		.uleb128 0x52
 1550 010a 01       		.uleb128 0x1
 1551 010b B842     		.uleb128 0x2138
 1552 010d 0B       		.uleb128 0xb
 1553 010e 55       		.uleb128 0x55
 1554 010f 17       		.uleb128 0x17
 1555 0110 58       		.uleb128 0x58
 1556 0111 0B       		.uleb128 0xb
 1557 0112 59       		.uleb128 0x59
 1558 0113 0B       		.uleb128 0xb
 1559 0114 57       		.uleb128 0x57
 1560 0115 0B       		.uleb128 0xb
 1561 0116 00       		.byte	0
 1562 0117 00       		.byte	0
 1563 0118 14       		.uleb128 0x14
 1564 0119 0B       		.uleb128 0xb
 1565 011a 01       		.byte	0x1
 1566 011b 31       		.uleb128 0x31
 1567 011c 13       		.uleb128 0x13
 1568 011d 55       		.uleb128 0x55
 1569 011e 17       		.uleb128 0x17
 1570 011f 00       		.byte	0
 1571 0120 00       		.byte	0
 1572 0121 15       		.uleb128 0x15
 1573 0122 34       		.uleb128 0x34
 1574 0123 00       		.byte	0
 1575 0124 31       		.uleb128 0x31
 1576 0125 13       		.uleb128 0x13
 1577 0126 1C       		.uleb128 0x1c
 1578 0127 07       		.uleb128 0x7
 1579 0128 00       		.byte	0
 1580 0129 00       		.byte	0
 1581 012a 16       		.uleb128 0x16
 1582 012b 898201   		.uleb128 0x4109
 1583 012e 00       		.byte	0
 1584 012f 11       		.uleb128 0x11
 1585 0130 01       		.uleb128 0x1
 1586 0131 31       		.uleb128 0x31
 1587 0132 13       		.uleb128 0x13
 1588 0133 00       		.byte	0
 1589 0134 00       		.byte	0
 1590 0135 17       		.uleb128 0x17
 1591 0136 34       		.uleb128 0x34
 1592 0137 00       		.byte	0
ARM GAS  /tmp/cc4aQ5AS.s 			page 29


 1593 0138 03       		.uleb128 0x3
 1594 0139 08       		.uleb128 0x8
 1595 013a 3A       		.uleb128 0x3a
 1596 013b 0B       		.uleb128 0xb
 1597 013c 3B       		.uleb128 0x3b
 1598 013d 0B       		.uleb128 0xb
 1599 013e 39       		.uleb128 0x39
 1600 013f 0B       		.uleb128 0xb
 1601 0140 49       		.uleb128 0x49
 1602 0141 13       		.uleb128 0x13
 1603 0142 02       		.uleb128 0x2
 1604 0143 17       		.uleb128 0x17
 1605 0144 B742     		.uleb128 0x2137
 1606 0146 17       		.uleb128 0x17
 1607 0147 00       		.byte	0
 1608 0148 00       		.byte	0
 1609 0149 18       		.uleb128 0x18
 1610 014a 1D       		.uleb128 0x1d
 1611 014b 00       		.byte	0
 1612 014c 31       		.uleb128 0x31
 1613 014d 13       		.uleb128 0x13
 1614 014e 52       		.uleb128 0x52
 1615 014f 01       		.uleb128 0x1
 1616 0150 B842     		.uleb128 0x2138
 1617 0152 0B       		.uleb128 0xb
 1618 0153 11       		.uleb128 0x11
 1619 0154 01       		.uleb128 0x1
 1620 0155 12       		.uleb128 0x12
 1621 0156 06       		.uleb128 0x6
 1622 0157 58       		.uleb128 0x58
 1623 0158 0B       		.uleb128 0xb
 1624 0159 59       		.uleb128 0x59
 1625 015a 0B       		.uleb128 0xb
 1626 015b 57       		.uleb128 0x57
 1627 015c 0B       		.uleb128 0xb
 1628 015d 00       		.byte	0
 1629 015e 00       		.byte	0
 1630 015f 19       		.uleb128 0x19
 1631 0160 0B       		.uleb128 0xb
 1632 0161 01       		.byte	0x1
 1633 0162 31       		.uleb128 0x31
 1634 0163 13       		.uleb128 0x13
 1635 0164 11       		.uleb128 0x11
 1636 0165 01       		.uleb128 0x1
 1637 0166 12       		.uleb128 0x12
 1638 0167 06       		.uleb128 0x6
 1639 0168 00       		.byte	0
 1640 0169 00       		.byte	0
 1641 016a 1A       		.uleb128 0x1a
 1642 016b 2E       		.uleb128 0x2e
 1643 016c 01       		.byte	0x1
 1644 016d 3F       		.uleb128 0x3f
 1645 016e 19       		.uleb128 0x19
 1646 016f 03       		.uleb128 0x3
 1647 0170 0E       		.uleb128 0xe
 1648 0171 3A       		.uleb128 0x3a
 1649 0172 0B       		.uleb128 0xb
ARM GAS  /tmp/cc4aQ5AS.s 			page 30


 1650 0173 3B       		.uleb128 0x3b
 1651 0174 0B       		.uleb128 0xb
 1652 0175 39       		.uleb128 0x39
 1653 0176 0B       		.uleb128 0xb
 1654 0177 27       		.uleb128 0x27
 1655 0178 19       		.uleb128 0x19
 1656 0179 49       		.uleb128 0x49
 1657 017a 13       		.uleb128 0x13
 1658 017b 20       		.uleb128 0x20
 1659 017c 0B       		.uleb128 0xb
 1660 017d 01       		.uleb128 0x1
 1661 017e 13       		.uleb128 0x13
 1662 017f 00       		.byte	0
 1663 0180 00       		.byte	0
 1664 0181 1B       		.uleb128 0x1b
 1665 0182 34       		.uleb128 0x34
 1666 0183 00       		.byte	0
 1667 0184 03       		.uleb128 0x3
 1668 0185 08       		.uleb128 0x8
 1669 0186 3A       		.uleb128 0x3a
 1670 0187 0B       		.uleb128 0xb
 1671 0188 3B       		.uleb128 0x3b
 1672 0189 0B       		.uleb128 0xb
 1673 018a 39       		.uleb128 0x39
 1674 018b 0B       		.uleb128 0xb
 1675 018c 49       		.uleb128 0x49
 1676 018d 13       		.uleb128 0x13
 1677 018e 00       		.byte	0
 1678 018f 00       		.byte	0
 1679 0190 1C       		.uleb128 0x1c
 1680 0191 2E       		.uleb128 0x2e
 1681 0192 01       		.byte	0x1
 1682 0193 03       		.uleb128 0x3
 1683 0194 0E       		.uleb128 0xe
 1684 0195 3A       		.uleb128 0x3a
 1685 0196 0B       		.uleb128 0xb
 1686 0197 3B       		.uleb128 0x3b
 1687 0198 0B       		.uleb128 0xb
 1688 0199 39       		.uleb128 0x39
 1689 019a 0B       		.uleb128 0xb
 1690 019b 27       		.uleb128 0x27
 1691 019c 19       		.uleb128 0x19
 1692 019d 49       		.uleb128 0x49
 1693 019e 13       		.uleb128 0x13
 1694 019f 20       		.uleb128 0x20
 1695 01a0 0B       		.uleb128 0xb
 1696 01a1 01       		.uleb128 0x1
 1697 01a2 13       		.uleb128 0x13
 1698 01a3 00       		.byte	0
 1699 01a4 00       		.byte	0
 1700 01a5 1D       		.uleb128 0x1d
 1701 01a6 0B       		.uleb128 0xb
 1702 01a7 01       		.byte	0x1
 1703 01a8 00       		.byte	0
 1704 01a9 00       		.byte	0
 1705 01aa 1E       		.uleb128 0x1e
 1706 01ab 34       		.uleb128 0x34
ARM GAS  /tmp/cc4aQ5AS.s 			page 31


 1707 01ac 00       		.byte	0
 1708 01ad 03       		.uleb128 0x3
 1709 01ae 0E       		.uleb128 0xe
 1710 01af 3A       		.uleb128 0x3a
 1711 01b0 0B       		.uleb128 0xb
 1712 01b1 3B       		.uleb128 0x3b
 1713 01b2 0B       		.uleb128 0xb
 1714 01b3 39       		.uleb128 0x39
 1715 01b4 0B       		.uleb128 0xb
 1716 01b5 49       		.uleb128 0x49
 1717 01b6 13       		.uleb128 0x13
 1718 01b7 00       		.byte	0
 1719 01b8 00       		.byte	0
 1720 01b9 1F       		.uleb128 0x1f
 1721 01ba 2E       		.uleb128 0x2e
 1722 01bb 00       		.byte	0
 1723 01bc 03       		.uleb128 0x3
 1724 01bd 0E       		.uleb128 0xe
 1725 01be 3A       		.uleb128 0x3a
 1726 01bf 0B       		.uleb128 0xb
 1727 01c0 3B       		.uleb128 0x3b
 1728 01c1 0B       		.uleb128 0xb
 1729 01c2 39       		.uleb128 0x39
 1730 01c3 0B       		.uleb128 0xb
 1731 01c4 27       		.uleb128 0x27
 1732 01c5 19       		.uleb128 0x19
 1733 01c6 49       		.uleb128 0x49
 1734 01c7 13       		.uleb128 0x13
 1735 01c8 20       		.uleb128 0x20
 1736 01c9 0B       		.uleb128 0xb
 1737 01ca 00       		.byte	0
 1738 01cb 00       		.byte	0
 1739 01cc 20       		.uleb128 0x20
 1740 01cd 2E       		.uleb128 0x2e
 1741 01ce 01       		.byte	0x1
 1742 01cf 31       		.uleb128 0x31
 1743 01d0 13       		.uleb128 0x13
 1744 01d1 11       		.uleb128 0x11
 1745 01d2 01       		.uleb128 0x1
 1746 01d3 12       		.uleb128 0x12
 1747 01d4 06       		.uleb128 0x6
 1748 01d5 40       		.uleb128 0x40
 1749 01d6 18       		.uleb128 0x18
 1750 01d7 9742     		.uleb128 0x2117
 1751 01d9 19       		.uleb128 0x19
 1752 01da 01       		.uleb128 0x1
 1753 01db 13       		.uleb128 0x13
 1754 01dc 00       		.byte	0
 1755 01dd 00       		.byte	0
 1756 01de 21       		.uleb128 0x21
 1757 01df 2E       		.uleb128 0x2e
 1758 01e0 00       		.byte	0
 1759 01e1 3F       		.uleb128 0x3f
 1760 01e2 19       		.uleb128 0x19
 1761 01e3 3C       		.uleb128 0x3c
 1762 01e4 19       		.uleb128 0x19
 1763 01e5 6E       		.uleb128 0x6e
ARM GAS  /tmp/cc4aQ5AS.s 			page 32


 1764 01e6 0E       		.uleb128 0xe
 1765 01e7 03       		.uleb128 0x3
 1766 01e8 0E       		.uleb128 0xe
 1767 01e9 3A       		.uleb128 0x3a
 1768 01ea 0B       		.uleb128 0xb
 1769 01eb 3B       		.uleb128 0x3b
 1770 01ec 05       		.uleb128 0x5
 1771 01ed 39       		.uleb128 0x39
 1772 01ee 0B       		.uleb128 0xb
 1773 01ef 00       		.byte	0
 1774 01f0 00       		.byte	0
 1775 01f1 22       		.uleb128 0x22
 1776 01f2 2E       		.uleb128 0x2e
 1777 01f3 00       		.byte	0
 1778 01f4 3F       		.uleb128 0x3f
 1779 01f5 19       		.uleb128 0x19
 1780 01f6 3C       		.uleb128 0x3c
 1781 01f7 19       		.uleb128 0x19
 1782 01f8 6E       		.uleb128 0x6e
 1783 01f9 0E       		.uleb128 0xe
 1784 01fa 03       		.uleb128 0x3
 1785 01fb 0E       		.uleb128 0xe
 1786 01fc 00       		.byte	0
 1787 01fd 00       		.byte	0
 1788 01fe 00       		.byte	0
 1789              		.section	.debug_loc,"",%progbits
 1790              	.Ldebug_loc0:
 1791              	.LVUS9:
 1792 0000 00       		.uleb128 .LVU87
 1793 0001 00       		.uleb128 .LVU123
 1794              	.LLST9:
 1795 0002 0A000000 		.4byte	.LVL13
 1796 0006 35000000 		.4byte	.LVL17-1
 1797 000a 0100     		.2byte	0x1
 1798 000c 50       		.byte	0x50
 1799 000d 00000000 		.4byte	0
 1800 0011 00000000 		.4byte	0
 1801              	.LVUS10:
 1802 0015 01       		.uleb128 .LVU119
 1803 0016 00       		.uleb128 .LVU123
 1804              	.LLST10:
 1805 0017 2C000000 		.4byte	.LVL15
 1806 001b 35000000 		.4byte	.LVL17-1
 1807 001f 0100     		.2byte	0x1
 1808 0021 53       		.byte	0x53
 1809 0022 00000000 		.4byte	0
 1810 0026 00000000 		.4byte	0
 1811              	.LVUS11:
 1812 002a 00       		.uleb128 .LVU122
 1813 002b 00       		.uleb128 .LVU123
 1814 002c 00       		.uleb128 .LVU123
 1815 002d 01       		.uleb128 .LVU124
 1816              	.LLST11:
 1817 002e 32000000 		.4byte	.LVL16
 1818 0032 35000000 		.4byte	.LVL17-1
 1819 0036 0600     		.2byte	0x6
 1820 0038 54       		.byte	0x54
ARM GAS  /tmp/cc4aQ5AS.s 			page 33


 1821 0039 93       		.byte	0x93
 1822 003a 04       		.uleb128 0x4
 1823 003b 51       		.byte	0x51
 1824 003c 93       		.byte	0x93
 1825 003d 04       		.uleb128 0x4
 1826 003e 35000000 		.4byte	.LVL17-1
 1827 0042 36000000 		.4byte	.LVL17
 1828 0046 0700     		.2byte	0x7
 1829 0048 54       		.byte	0x54
 1830 0049 93       		.byte	0x93
 1831 004a 04       		.uleb128 0x4
 1832 004b 91       		.byte	0x91
 1833 004c 6C       		.sleb128 -20
 1834 004d 93       		.byte	0x93
 1835 004e 04       		.uleb128 0x4
 1836 004f 00000000 		.4byte	0
 1837 0053 00000000 		.4byte	0
 1838              	.LVUS12:
 1839 0057 02       		.uleb128 .LVU104
 1840 0058 00       		.uleb128 .LVU123
 1841              	.LLST12:
 1842 0059 12000000 		.4byte	.LVL14
 1843 005d 35000000 		.4byte	.LVL17-1
 1844 0061 0100     		.2byte	0x1
 1845 0063 53       		.byte	0x53
 1846 0064 00000000 		.4byte	0
 1847 0068 00000000 		.4byte	0
 1848              	.LVUS13:
 1849 006c 00       		.uleb128 .LVU102
 1850 006d 00       		.uleb128 .LVU123
 1851              	.LLST13:
 1852 006e 12000000 		.4byte	.LVL14
 1853 0072 35000000 		.4byte	.LVL17-1
 1854 0076 0100     		.2byte	0x1
 1855 0078 53       		.byte	0x53
 1856 0079 00000000 		.4byte	0
 1857 007d 00000000 		.4byte	0
 1858              	.LVUS5:
 1859 0081 00       		.uleb128 .LVU49
 1860 0082 00       		.uleb128 .LVU77
 1861              	.LLST5:
 1862 0083 08000000 		.4byte	.LVL7
 1863 0087 21000000 		.4byte	.LVL11-1
 1864 008b 0100     		.2byte	0x1
 1865 008d 50       		.byte	0x50
 1866 008e 00000000 		.4byte	0
 1867 0092 00000000 		.4byte	0
 1868              	.LVUS6:
 1869 0096 02       		.uleb128 .LVU75
 1870 0097 00       		.uleb128 .LVU79
 1871 0098 00       		.uleb128 .LVU79
 1872 0099 00       		.uleb128 0
 1873              	.LLST6:
 1874 009a 1E000000 		.4byte	.LVL10
 1875 009e 26000000 		.4byte	.LVL12
 1876 00a2 0100     		.2byte	0x1
 1877 00a4 54       		.byte	0x54
ARM GAS  /tmp/cc4aQ5AS.s 			page 34


 1878 00a5 26000000 		.4byte	.LVL12
 1879 00a9 30000000 		.4byte	.LFE337
 1880 00ad 0100     		.2byte	0x1
 1881 00af 50       		.byte	0x50
 1882 00b0 00000000 		.4byte	0
 1883 00b4 00000000 		.4byte	0
 1884              	.LVUS7:
 1885 00b8 02       		.uleb128 .LVU65
 1886 00b9 00       		.uleb128 .LVU79
 1887 00ba 00       		.uleb128 .LVU79
 1888 00bb 00       		.uleb128 0
 1889              	.LLST7:
 1890 00bc 0E000000 		.4byte	.LVL8
 1891 00c0 26000000 		.4byte	.LVL12
 1892 00c4 0100     		.2byte	0x1
 1893 00c6 54       		.byte	0x54
 1894 00c7 26000000 		.4byte	.LVL12
 1895 00cb 30000000 		.4byte	.LFE337
 1896 00cf 0100     		.2byte	0x1
 1897 00d1 50       		.byte	0x50
 1898 00d2 00000000 		.4byte	0
 1899 00d6 00000000 		.4byte	0
 1900              	.LVUS8:
 1901 00da 00       		.uleb128 .LVU63
 1902 00db 00       		.uleb128 .LVU79
 1903 00dc 00       		.uleb128 .LVU79
 1904 00dd 00       		.uleb128 0
 1905              	.LLST8:
 1906 00de 0E000000 		.4byte	.LVL8
 1907 00e2 26000000 		.4byte	.LVL12
 1908 00e6 0100     		.2byte	0x1
 1909 00e8 54       		.byte	0x54
 1910 00e9 26000000 		.4byte	.LVL12
 1911 00ed 30000000 		.4byte	.LFE337
 1912 00f1 0100     		.2byte	0x1
 1913 00f3 50       		.byte	0x50
 1914 00f4 00000000 		.4byte	0
 1915 00f8 00000000 		.4byte	0
 1916              	.LVUS0:
 1917 00fc 00       		.uleb128 .LVU5
 1918 00fd 00       		.uleb128 .LVU41
 1919              	.LLST0:
 1920 00fe 0A000000 		.4byte	.LVL0
 1921 0102 35000000 		.4byte	.LVL4-1
 1922 0106 0100     		.2byte	0x1
 1923 0108 50       		.byte	0x50
 1924 0109 00000000 		.4byte	0
 1925 010d 00000000 		.4byte	0
 1926              	.LVUS1:
 1927 0111 01       		.uleb128 .LVU37
 1928 0112 00       		.uleb128 .LVU41
 1929              	.LLST1:
 1930 0113 2C000000 		.4byte	.LVL2
 1931 0117 35000000 		.4byte	.LVL4-1
 1932 011b 0100     		.2byte	0x1
 1933 011d 53       		.byte	0x53
 1934 011e 00000000 		.4byte	0
ARM GAS  /tmp/cc4aQ5AS.s 			page 35


 1935 0122 00000000 		.4byte	0
 1936              	.LVUS2:
 1937 0126 00       		.uleb128 .LVU40
 1938 0127 00       		.uleb128 .LVU41
 1939 0128 00       		.uleb128 .LVU41
 1940 0129 00       		.uleb128 .LVU43
 1941 012a 00       		.uleb128 .LVU43
 1942 012b 00       		.uleb128 0
 1943              	.LLST2:
 1944 012c 32000000 		.4byte	.LVL3
 1945 0130 35000000 		.4byte	.LVL4-1
 1946 0134 0600     		.2byte	0x6
 1947 0136 54       		.byte	0x54
 1948 0137 93       		.byte	0x93
 1949 0138 04       		.uleb128 0x4
 1950 0139 51       		.byte	0x51
 1951 013a 93       		.byte	0x93
 1952 013b 04       		.uleb128 0x4
 1953 013c 35000000 		.4byte	.LVL4-1
 1954 0140 3E000000 		.4byte	.LVL5
 1955 0144 0700     		.2byte	0x7
 1956 0146 54       		.byte	0x54
 1957 0147 93       		.byte	0x93
 1958 0148 04       		.uleb128 0x4
 1959 0149 91       		.byte	0x91
 1960 014a 6C       		.sleb128 -20
 1961 014b 93       		.byte	0x93
 1962 014c 04       		.uleb128 0x4
 1963 014d 3E000000 		.4byte	.LVL5
 1964 0151 48000000 		.4byte	.LFE336
 1965 0155 0700     		.2byte	0x7
 1966 0157 50       		.byte	0x50
 1967 0158 93       		.byte	0x93
 1968 0159 04       		.uleb128 0x4
 1969 015a 7D       		.byte	0x7d
 1970 015b 6C       		.sleb128 -20
 1971 015c 93       		.byte	0x93
 1972 015d 04       		.uleb128 0x4
 1973 015e 00000000 		.4byte	0
 1974 0162 00000000 		.4byte	0
 1975              	.LVUS3:
 1976 0166 02       		.uleb128 .LVU22
 1977 0167 00       		.uleb128 .LVU41
 1978              	.LLST3:
 1979 0168 12000000 		.4byte	.LVL1
 1980 016c 35000000 		.4byte	.LVL4-1
 1981 0170 0100     		.2byte	0x1
 1982 0172 53       		.byte	0x53
 1983 0173 00000000 		.4byte	0
 1984 0177 00000000 		.4byte	0
 1985              	.LVUS4:
 1986 017b 00       		.uleb128 .LVU20
 1987 017c 00       		.uleb128 .LVU41
 1988              	.LLST4:
 1989 017d 12000000 		.4byte	.LVL1
 1990 0181 35000000 		.4byte	.LVL4-1
 1991 0185 0100     		.2byte	0x1
ARM GAS  /tmp/cc4aQ5AS.s 			page 36


 1992 0187 53       		.byte	0x53
 1993 0188 00000000 		.4byte	0
 1994 018c 00000000 		.4byte	0
 1995              		.section	.debug_aranges,"",%progbits
 1996 0000 2C000000 		.4byte	0x2c
 1997 0004 0200     		.2byte	0x2
 1998 0006 00000000 		.4byte	.Ldebug_info0
 1999 000a 04       		.byte	0x4
 2000 000b 00       		.byte	0
 2001 000c 0000     		.2byte	0
 2002 000e 0000     		.2byte	0
 2003 0010 00000000 		.4byte	.LFB336
 2004 0014 48000000 		.4byte	.LFE336-.LFB336
 2005 0018 00000000 		.4byte	.LFB337
 2006 001c 30000000 		.4byte	.LFE337-.LFB337
 2007 0020 00000000 		.4byte	.LFB338
 2008 0024 50000000 		.4byte	.LFE338-.LFB338
 2009 0028 00000000 		.4byte	0
 2010 002c 00000000 		.4byte	0
 2011              		.section	.debug_ranges,"",%progbits
 2012              	.Ldebug_ranges0:
 2013 0000 04000000 		.4byte	.LBB29
 2014 0004 06000000 		.4byte	.LBE29
 2015 0008 0A000000 		.4byte	.LBB61
 2016 000c 0A000000 		.4byte	.LBE61
 2017 0010 0A000000 		.4byte	.LBB62
 2018 0014 0A000000 		.4byte	.LBE62
 2019 0018 0A000000 		.4byte	.LBB63
 2020 001c 1A000000 		.4byte	.LBE63
 2021 0020 1C000000 		.4byte	.LBB64
 2022 0024 24000000 		.4byte	.LBE64
 2023 0028 28000000 		.4byte	.LBB65
 2024 002c 2A000000 		.4byte	.LBE65
 2025 0030 2C000000 		.4byte	.LBB66
 2026 0034 2C000000 		.4byte	.LBE66
 2027 0038 00000000 		.4byte	0
 2028 003c 00000000 		.4byte	0
 2029 0040 0A000000 		.4byte	.LBB31
 2030 0044 0A000000 		.4byte	.LBE31
 2031 0048 0A000000 		.4byte	.LBB47
 2032 004c 0A000000 		.4byte	.LBE47
 2033 0050 0A000000 		.4byte	.LBB48
 2034 0054 0E000000 		.4byte	.LBE48
 2035 0058 10000000 		.4byte	.LBB49
 2036 005c 12000000 		.4byte	.LBE49
 2037 0060 00000000 		.4byte	0
 2038 0064 00000000 		.4byte	0
 2039 0068 12000000 		.4byte	.LBB50
 2040 006c 12000000 		.4byte	.LBE50
 2041 0070 16000000 		.4byte	.LBB51
 2042 0074 1A000000 		.4byte	.LBE51
 2043 0078 1C000000 		.4byte	.LBB52
 2044 007c 20000000 		.4byte	.LBE52
 2045 0080 20000000 		.4byte	.LBB53
 2046 0084 24000000 		.4byte	.LBE53
 2047 0088 28000000 		.4byte	.LBB54
 2048 008c 2A000000 		.4byte	.LBE54
ARM GAS  /tmp/cc4aQ5AS.s 			page 37


 2049 0090 00000000 		.4byte	0
 2050 0094 00000000 		.4byte	0
 2051 0098 06000000 		.4byte	.LBB76
 2052 009c 08000000 		.4byte	.LBE76
 2053 00a0 08000000 		.4byte	.LBB95
 2054 00a4 08000000 		.4byte	.LBE95
 2055 00a8 08000000 		.4byte	.LBB96
 2056 00ac 08000000 		.4byte	.LBE96
 2057 00b0 08000000 		.4byte	.LBB97
 2058 00b4 1E000000 		.4byte	.LBE97
 2059 00b8 00000000 		.4byte	0
 2060 00bc 00000000 		.4byte	0
 2061 00c0 08000000 		.4byte	.LBB78
 2062 00c4 08000000 		.4byte	.LBE78
 2063 00c8 08000000 		.4byte	.LBB89
 2064 00cc 08000000 		.4byte	.LBE89
 2065 00d0 08000000 		.4byte	.LBB90
 2066 00d4 0E000000 		.4byte	.LBE90
 2067 00d8 00000000 		.4byte	0
 2068 00dc 00000000 		.4byte	0
 2069 00e0 00000000 		.4byte	.LBB109
 2070 00e4 00000000 		.4byte	.LBE109
 2071 00e8 04000000 		.4byte	.LBB152
 2072 00ec 0A000000 		.4byte	.LBE152
 2073 00f0 0A000000 		.4byte	.LBB153
 2074 00f4 0A000000 		.4byte	.LBE153
 2075 00f8 0A000000 		.4byte	.LBB154
 2076 00fc 36000000 		.4byte	.LBE154
 2077 0100 00000000 		.4byte	0
 2078 0104 00000000 		.4byte	0
 2079 0108 04000000 		.4byte	.LBB111
 2080 010c 06000000 		.4byte	.LBE111
 2081 0110 0A000000 		.4byte	.LBB143
 2082 0114 0A000000 		.4byte	.LBE143
 2083 0118 0A000000 		.4byte	.LBB144
 2084 011c 0A000000 		.4byte	.LBE144
 2085 0120 0A000000 		.4byte	.LBB145
 2086 0124 1A000000 		.4byte	.LBE145
 2087 0128 1C000000 		.4byte	.LBB146
 2088 012c 24000000 		.4byte	.LBE146
 2089 0130 28000000 		.4byte	.LBB147
 2090 0134 2A000000 		.4byte	.LBE147
 2091 0138 2C000000 		.4byte	.LBB148
 2092 013c 2C000000 		.4byte	.LBE148
 2093 0140 00000000 		.4byte	0
 2094 0144 00000000 		.4byte	0
 2095 0148 0A000000 		.4byte	.LBB113
 2096 014c 0A000000 		.4byte	.LBE113
 2097 0150 0A000000 		.4byte	.LBB129
 2098 0154 0A000000 		.4byte	.LBE129
 2099 0158 0A000000 		.4byte	.LBB130
 2100 015c 0E000000 		.4byte	.LBE130
 2101 0160 10000000 		.4byte	.LBB131
 2102 0164 12000000 		.4byte	.LBE131
 2103 0168 00000000 		.4byte	0
 2104 016c 00000000 		.4byte	0
 2105 0170 12000000 		.4byte	.LBB132
ARM GAS  /tmp/cc4aQ5AS.s 			page 38


 2106 0174 12000000 		.4byte	.LBE132
 2107 0178 16000000 		.4byte	.LBB133
 2108 017c 1A000000 		.4byte	.LBE133
 2109 0180 1C000000 		.4byte	.LBB134
 2110 0184 20000000 		.4byte	.LBE134
 2111 0188 20000000 		.4byte	.LBB135
 2112 018c 24000000 		.4byte	.LBE135
 2113 0190 28000000 		.4byte	.LBB136
 2114 0194 2A000000 		.4byte	.LBE136
 2115 0198 00000000 		.4byte	0
 2116 019c 00000000 		.4byte	0
 2117 01a0 00000000 		.4byte	.LFB336
 2118 01a4 48000000 		.4byte	.LFE336
 2119 01a8 00000000 		.4byte	.LFB337
 2120 01ac 30000000 		.4byte	.LFE337
 2121 01b0 00000000 		.4byte	.LFB338
 2122 01b4 50000000 		.4byte	.LFE338
 2123 01b8 00000000 		.4byte	0
 2124 01bc 00000000 		.4byte	0
 2125              		.section	.debug_line,"",%progbits
 2126              	.Ldebug_line0:
 2127 0000 92040000 		.section	.debug_str,"MS",%progbits,1
 2127      03006802 
 2127      00000201 
 2127      FB0E0D00 
 2127      01010101 
 2128              	.LASF22:
 2129 0000 42445452 		.ascii	"BDTR\000"
 2129      00
 2130              	.LASF40:
 2131 0005 63685379 		.ascii	"chSysRestoreStatusX\000"
 2131      73526573 
 2131      746F7265 
 2131      53746174 
 2131      75735800 
 2132              	.LASF8:
 2133 0019 73697A65 		.ascii	"size_t\000"
 2133      5F7400
 2134              	.LASF16:
 2135 0020 73797374 		.ascii	"systime_t\000"
 2135      696D655F 
 2135      7400
 2136              	.LASF6:
 2137 002a 73686F72 		.ascii	"short unsigned int\000"
 2137      7420756E 
 2137      7369676E 
 2137      65642069 
 2137      6E7400
 2138              	.LASF32:
 2139 003d 6C617374 		.ascii	"last_us32\000"
 2139      5F757333 
 2139      3200
 2140              	.LASF5:
 2141 0047 73686F72 		.ascii	"short int\000"
 2141      7420696E 
 2141      7400
 2142              	.LASF14:
ARM GAS  /tmp/cc4aQ5AS.s 			page 39


 2143 0051 75696E74 		.ascii	"uint64_t\000"
 2143      36345F74 
 2143      00
 2144              	.LASF18:
 2145 005a 44494552 		.ascii	"DIER\000"
 2145      00
 2146              	.LASF4:
 2147 005f 756E7369 		.ascii	"unsigned char\000"
 2147      676E6564 
 2147      20636861 
 2147      7200
 2148              	.LASF33:
 2149 006d 64745F75 		.ascii	"dt_us\000"
 2149      7300
 2150              	.LASF15:
 2151 0073 73797373 		.ascii	"syssts_t\000"
 2151      74735F74 
 2151      00
 2152              	.LASF10:
 2153 007c 6C6F6E67 		.ascii	"long unsigned int\000"
 2153      20756E73 
 2153      69676E65 
 2153      6420696E 
 2153      7400
 2154              	.LASF30:
 2155 008e 6872745F 		.ascii	"hrt_micros32\000"
 2155      6D696372 
 2155      6F733332 
 2155      00
 2156              	.LASF9:
 2157 009b 5F5F7569 		.ascii	"__uint32_t\000"
 2157      6E743332 
 2157      5F7400
 2158              	.LASF29:
 2159 00a6 6872745F 		.ascii	"hrt_millis32\000"
 2159      6D696C6C 
 2159      69733332 
 2159      00
 2160              	.LASF35:
 2161 00b3 73797374 		.ascii	"system_time_u32_us\000"
 2161      656D5F74 
 2161      696D655F 
 2161      7533325F 
 2161      757300
 2162              	.LASF2:
 2163 00c6 6C6F6E67 		.ascii	"long double\000"
 2163      20646F75 
 2163      626C6500 
 2164              	.LASF45:
 2165 00d2 5F5F6165 		.ascii	"__aeabi_uldivmod\000"
 2165      6162695F 
 2165      756C6469 
 2165      766D6F64 
 2165      00
 2166              	.LASF23:
 2167 00e3 444D4152 		.ascii	"DMAR\000"
 2167      00
ARM GAS  /tmp/cc4aQ5AS.s 			page 40


 2168              	.LASF39:
 2169 00e8 63685379 		.ascii	"chSysGetStatusAndLockX\000"
 2169      73476574 
 2169      53746174 
 2169      7573416E 
 2169      644C6F63 
 2170              	.LASF0:
 2171 00ff 756E7369 		.ascii	"unsigned int\000"
 2171      676E6564 
 2171      20696E74 
 2171      00
 2172              	.LASF37:
 2173 010c 706F7274 		.ascii	"port_timer_get_time\000"
 2173      5F74696D 
 2173      65725F67 
 2173      65745F74 
 2173      696D6500 
 2174              	.LASF38:
 2175 0120 73745F6C 		.ascii	"st_lld_get_counter\000"
 2175      6C645F67 
 2175      65745F63 
 2175      6F756E74 
 2175      657200
 2176              	.LASF36:
 2177 0133 63685654 		.ascii	"chVTGetSystemTimeX\000"
 2177      47657453 
 2177      79737465 
 2177      6D54696D 
 2177      655800
 2178              	.LASF43:
 2179 0146 2F686F6D 		.ascii	"/home/mahathi/mathur407_payload2/4.0.7/build/CUAVv5"
 2179      652F6D61 
 2179      68617468 
 2179      692F6D61 
 2179      74687572 
 2180 0179 00       		.ascii	"\000"
 2181              	.LASF34:
 2182 017a 6765745F 		.ascii	"get_systime_us32\000"
 2182      73797374 
 2182      696D655F 
 2182      75733332 
 2182      00
 2183              	.LASF12:
 2184 018b 6C6F6E67 		.ascii	"long long unsigned int\000"
 2184      206C6F6E 
 2184      6720756E 
 2184      7369676E 
 2184      65642069 
 2185              	.LASF1:
 2186 01a2 6C6F6E67 		.ascii	"long long int\000"
 2186      206C6F6E 
 2186      6720696E 
 2186      7400
 2187              	.LASF27:
 2188 01b0 63686172 		.ascii	"char\000"
 2188      00
 2189              	.LASF21:
ARM GAS  /tmp/cc4aQ5AS.s 			page 41


 2190 01b5 43434552 		.ascii	"CCER\000"
 2190      00
 2191              	.LASF17:
 2192 01ba 534D4352 		.ascii	"SMCR\000"
 2192      00
 2193              	.LASF41:
 2194 01bf 474E5520 		.ascii	"GNU C17 10.2.1 20201103 (release) -mcpu=cortex-m7 -"
 2194      43313720 
 2194      31302E32 
 2194      2E312032 
 2194      30323031 
 2195 01f2 6D666C6F 		.ascii	"mfloat-abi=hard -mfpu=fpv4-sp-d16 -mno-thumb-interw"
 2195      61742D61 
 2195      62693D68 
 2195      61726420 
 2195      2D6D6670 
 2196 0225 6F726B20 		.ascii	"ork -mthumb -march=armv7e-m+fp -g -Os -fomit-frame-"
 2196      2D6D7468 
 2196      756D6220 
 2196      2D6D6172 
 2196      63683D61 
 2197 0258 706F696E 		.ascii	"pointer -falign-functions=16 -ffunction-sections -f"
 2197      74657220 
 2197      2D66616C 
 2197      69676E2D 
 2197      66756E63 
 2198 028b 64617461 		.ascii	"data-sections -fno-common -fsingle-precision-consta"
 2198      2D736563 
 2198      74696F6E 
 2198      73202D66 
 2198      6E6F2D63 
 2199 02be 6E7400   		.ascii	"nt\000"
 2200              	.LASF19:
 2201 02c1 43434D52 		.ascii	"CCMR1\000"
 2201      3100
 2202              	.LASF42:
 2203 02c7 2E2E2F2E 		.ascii	"../../libraries/AP_HAL_ChibiOS/hwdef/common/hrt.c\000"
 2203      2E2F6C69 
 2203      62726172 
 2203      6965732F 
 2203      41505F48 
 2204              	.LASF24:
 2205 02f9 43434D52 		.ascii	"CCMR3\000"
 2205      3300
 2206              	.LASF11:
 2207 02ff 5F5F7569 		.ascii	"__uint64_t\000"
 2207      6E743634 
 2207      5F7400
 2208              	.LASF26:
 2209 030a 73746D33 		.ascii	"stm32_tim_t\000"
 2209      325F7469 
 2209      6D5F7400 
 2210              	.LASF13:
 2211 0316 75696E74 		.ascii	"uint32_t\000"
 2211      33325F74 
 2211      00
 2212              	.LASF7:
ARM GAS  /tmp/cc4aQ5AS.s 			page 42


 2213 031f 6C6F6E67 		.ascii	"long int\000"
 2213      20696E74 
 2213      00
 2214              	.LASF20:
 2215 0328 43434D52 		.ascii	"CCMR2\000"
 2215      3200
 2216              	.LASF3:
 2217 032e 7369676E 		.ascii	"signed char\000"
 2217      65642063 
 2217      68617200 
 2218              	.LASF28:
 2219 033a 5F426F6F 		.ascii	"_Bool\000"
 2219      6C00
 2220              	.LASF44:
 2221 0340 6872745F 		.ascii	"hrt_micros64\000"
 2221      6D696372 
 2221      6F733634 
 2221      00
 2222              	.LASF25:
 2223 034d 43435852 		.ascii	"CCXR\000"
 2223      00
 2224              	.LASF31:
 2225 0352 74696D65 		.ascii	"timer_base_us64\000"
 2225      725F6261 
 2225      73655F75 
 2225      73363400 
 2226              		.ident	"GCC: (GNU Arm Embedded Toolchain 10-2020-q4-major) 10.2.1 20201103 (release)"
ARM GAS  /tmp/cc4aQ5AS.s 			page 43


DEFINED SYMBOLS
                            *ABS*:0000000000000000 hrt.c
     /tmp/cc4aQ5AS.s:18     .text.hrt_micros64:0000000000000000 $t
     /tmp/cc4aQ5AS.s:27     .text.hrt_micros64:0000000000000000 hrt_micros64
     /tmp/cc4aQ5AS.s:203    .text.hrt_micros64:0000000000000040 $d
     /tmp/cc4aQ5AS.s:209    .text.hrt_micros32:0000000000000000 $t
     /tmp/cc4aQ5AS.s:217    .text.hrt_micros32:0000000000000000 hrt_micros32
     /tmp/cc4aQ5AS.s:336    .text.hrt_micros32:0000000000000028 $d
     /tmp/cc4aQ5AS.s:343    .text.hrt_millis32:0000000000000000 $t
     /tmp/cc4aQ5AS.s:351    .text.hrt_millis32:0000000000000000 hrt_millis32
     /tmp/cc4aQ5AS.s:546    .text.hrt_millis32:0000000000000048 $d
     /tmp/cc4aQ5AS.s:552    .bss.last_us32.0:0000000000000000 $d
     /tmp/cc4aQ5AS.s:556    .bss.last_us32.0:0000000000000000 last_us32.0
     /tmp/cc4aQ5AS.s:559    .bss.timer_base_us64:0000000000000000 $d
     /tmp/cc4aQ5AS.s:563    .bss.timer_base_us64:0000000000000000 timer_base_us64

UNDEFINED SYMBOLS
chSysGetStatusAndLockX
chSysRestoreStatusX
__aeabi_uldivmod
