ARM GAS  /tmp/cc4aQ5AS.s 			page 1


   1              		.cpu cortex-m7
   2              		.eabi_attribute 27, 1
   3              		.eabi_attribute 28, 1
   4              		.eabi_attribute 20, 1
   5              		.eabi_attribute 21, 1
   6              		.eabi_attribute 23, 3
   7              		.eabi_attribute 24, 1
   8              		.eabi_attribute 25, 1
   9              		.eabi_attribute 26, 1
  10              		.eabi_attribute 30, 4
  11              		.eabi_attribute 34, 1
  12              		.eabi_attribute 18, 4
  13              		.file	"hrt.c"
  14              		.text
  15              	.Ltext0:
  16              		.cfi_sections	.debug_frame
  17              		.section	.text.hrt_micros64,"ax",%progbits
  18              		.align	1
  19              		.p2align 4,,15
  20              		.global	hrt_micros64
  21              		.arch armv7e-m
  22              		.syntax unified
  23              		.thumb
  24              		.thumb_func
  25              		.fpu fpv4-sp-d16
  26              		.type	hrt_micros64, %function
  27              	hrt_micros64:
  28              	.LFB336:
  29              		.file 1 "../../libraries/AP_HAL_ChibiOS/hwdef/common/hrt.c"
  30              		.loc 1 93 1 view -0
  31              		.cfi_startproc
  32              		@ args = 0, pretend = 0, frame = 8
  33              		@ frame_needed = 0, uses_anonymous_args = 0
  34              		.loc 1 94 5 view .LVU1
  35              		.loc 1 93 1 is_stmt 0 view .LVU2
  36 0000 30B5     		push	{r4, r5, lr}
  37              		.cfi_def_cfa_offset 12
  38              		.cfi_offset 4, -12
  39              		.cfi_offset 5, -8
  40              		.cfi_offset 14, -4
  41 0002 83B0     		sub	sp, sp, #12
  42              		.cfi_def_cfa_offset 24
  43              	.LBB29:
  44              	.LBB30:
  45              		.loc 1 78 13 view .LVU3
  46 0004 0E4D     		ldr	r5, .L6
  47              	.LBE30:
  48              	.LBE29:
  49              		.loc 1 94 20 view .LVU4
  50 0006 FFF7FEFF 		bl	chSysGetStatusAndLockX
  51              	.LVL0:
  52              		.loc 1 95 5 is_stmt 1 view .LVU5
  53              	.LBB61:
  54              	.LBI29:
  55              		.loc 1 74 17 view .LVU6
  56              	.LBB55:
  57              		.loc 1 76 5 view .LVU7
ARM GAS  /tmp/cc4aQ5AS.s 			page 2


  58              		.loc 1 77 5 view .LVU8
  59              	.LBB31:
  60              	.LBI31:
  61              		.loc 1 59 17 view .LVU9
  62              	.LBB32:
  63              		.loc 1 61 5 view .LVU10
  64              	.LBB33:
  65              	.LBI33:
  66              		.file 2 "../../modules/ChibiOS/os/rt/include/chvt.h"
  67              		.loc 2 115 25 view .LVU11
  68              	.LBE33:
  69              	.LBE32:
  70              	.LBE31:
  71              	.LBE55:
  72              	.LBE61:
  73              		.loc 2 120 3 view .LVU12
  74              	.LBB62:
  75              	.LBB56:
  76              	.LBB47:
  77              	.LBB44:
  78              	.LBB41:
  79              	.LBB34:
  80              	.LBI34:
  81              		.file 3 "../../modules/ChibiOS/os/common/ports/ARMCMx/chcore_timer.h"
  82              		.loc 3 105 25 view .LVU13
  83              	.LBE34:
  84              	.LBE41:
  85              	.LBE44:
  86              	.LBE47:
  87              	.LBE56:
  88              	.LBE62:
  89              		.loc 3 107 3 view .LVU14
  90              	.LBB63:
  91              	.LBB57:
  92              	.LBB48:
  93              	.LBB45:
  94              	.LBB42:
  95              	.LBB39:
  96              	.LBB35:
  97              	.LBI35:
  98              		.file 4 "../../modules/ChibiOS/os/hal/ports/STM32/LLD/TIMv1/hal_st_lld.h"
  99              		.loc 4 166 25 view .LVU15
 100              	.LBB36:
 101              		.loc 4 168 3 view .LVU16
 102              		.loc 4 168 10 is_stmt 0 view .LVU17
 103 000a 4FF08043 		mov	r3, #1073741824
 104              	.LBE36:
 105              	.LBE35:
 106              	.LBE39:
 107              	.LBE42:
 108              	.LBE45:
 109              	.LBE48:
 110              		.loc 1 78 8 view .LVU18
 111 000e 2A68     		ldr	r2, [r5]
 112              	.LBB49:
 113              	.LBB46:
 114              	.LBB43:
ARM GAS  /tmp/cc4aQ5AS.s 			page 3


 115              	.LBB40:
 116              	.LBB38:
 117              	.LBB37:
 118              		.loc 4 168 10 view .LVU19
 119 0010 5B6A     		ldr	r3, [r3, #36]
 120              	.LVL1:
 121              		.loc 4 168 10 view .LVU20
 122              	.LBE37:
 123              	.LBE38:
 124              	.LBE40:
 125              	.LBE43:
 126              		.loc 1 65 5 is_stmt 1 view .LVU21
 127              		.loc 1 65 5 is_stmt 0 view .LVU22
 128              	.LBE46:
 129              	.LBE49:
 130              		.loc 1 78 5 is_stmt 1 view .LVU23
 131              	.LBB50:
 132              		.loc 1 79 9 view .LVU24
 133              		.loc 1 80 9 view .LVU25
 134              	.LBE50:
 135              		.loc 1 78 8 is_stmt 0 view .LVU26
 136 0012 9342     		cmp	r3, r2
 137              		.loc 1 82 15 view .LVU27
 138 0014 2B60     		str	r3, [r5]
 139              	.LBB51:
 140              		.loc 1 80 25 view .LVU28
 141 0016 37BF     		itett	cc
 142 0018 0A4A     		ldrcc	r2, .L6+4
 143              	.LBE51:
 144              	.LBE57:
 145              	.LBE63:
 146              		.loc 1 96 36 view .LVU29
 147 001a 0A49     		ldrcs	r1, .L6+4
 148              	.LBB64:
 149              	.LBB58:
 150              	.LBB52:
 151              		.loc 1 80 25 view .LVU30
 152 001c 5168     		ldrcc	r1, [r2, #4]
 153 001e 1468     		ldrcc	r4, [r2]
 154              	.LBE52:
 155              		.loc 1 82 5 is_stmt 1 view .LVU31
 156              	.LBB53:
 157              		.loc 1 80 25 is_stmt 0 view .LVU32
 158 0020 36BF     		itet	cc
 159 0022 0131     		addcc	r1, r1, #1
 160              	.LBE53:
 161              	.LBE58:
 162              	.LBE64:
 163              		.loc 1 96 36 view .LVU33
 164 0024 D1E90041 		ldrdcs	r4, r1, [r1]
 165              	.LBB65:
 166              	.LBB59:
 167              	.LBB54:
 168              		.loc 1 80 25 view .LVU34
 169 0028 5160     		strcc	r1, [r2, #4]
 170              	.LBE54:
 171              	.LBE59:
ARM GAS  /tmp/cc4aQ5AS.s 			page 4


 172              	.LBE65:
 173              		.loc 1 96 14 view .LVU35
 174 002a 1C19     		adds	r4, r3, r4
 175              	.LBB66:
 176              	.LBB60:
 177              		.loc 1 83 5 is_stmt 1 view .LVU36
 178              	.LVL2:
 179              		.loc 1 83 5 is_stmt 0 view .LVU37
 180              	.LBE60:
 181              	.LBE66:
 182              		.loc 1 96 5 is_stmt 1 view .LVU38
 183              		.loc 1 96 14 is_stmt 0 view .LVU39
 184 002c 41F10001 		adc	r1, r1, #0
 185 0030 0191     		str	r1, [sp, #4]
 186              	.LVL3:
 187              		.loc 1 97 5 is_stmt 1 view .LVU40
 188 0032 FFF7FEFF 		bl	chSysRestoreStatusX
 189              	.LVL4:
 190              		.loc 1 98 5 view .LVU41
 191              		.loc 1 99 1 is_stmt 0 view .LVU42
 192 0036 2046     		mov	r0, r4
 193 0038 0199     		ldr	r1, [sp, #4]
 194 003a 03B0     		add	sp, sp, #12
 195              		.cfi_def_cfa_offset 12
 196              		@ sp needed
 197 003c 30BD     		pop	{r4, r5, pc}
 198              	.LVL5:
 199              	.L7:
 200              		.loc 1 99 1 view .LVU43
 201 003e 00BF     		.align	2
 202              	.L6:
 203 0040 00000000 		.word	.LANCHOR0
 204 0044 00000000 		.word	.LANCHOR1
 205              		.cfi_endproc
 206              	.LFE336:
 207              		.size	hrt_micros64, .-hrt_micros64
 208              		.section	.text.hrt_micros32,"ax",%progbits
 209              		.align	1
 210              		.p2align 4,,15
 211              		.global	hrt_micros32
 212              		.syntax unified
 213              		.thumb
 214              		.thumb_func
 215              		.fpu fpv4-sp-d16
 216              		.type	hrt_micros32, %function
 217              	hrt_micros32:
 218              	.LFB337:
 219              		.loc 1 102 1 is_stmt 1 view -0
 220              		.cfi_startproc
 221              		@ args = 0, pretend = 0, frame = 0
 222              		@ frame_needed = 0, uses_anonymous_args = 0
 223              		.loc 1 103 5 view .LVU45
 224              		.loc 1 102 1 is_stmt 0 view .LVU46
 225 0000 10B5     		push	{r4, lr}
 226              		.cfi_def_cfa_offset 8
 227              		.cfi_offset 4, -8
 228              		.cfi_offset 14, -4
ARM GAS  /tmp/cc4aQ5AS.s 			page 5


 229              		.loc 1 103 20 view .LVU47
 230 0002 FFF7FEFF 		bl	chSysGetStatusAndLockX
 231              	.LVL6:
 232              	.LBB76:
 233              	.LBB77:
 234              		.loc 1 78 13 view .LVU48
 235 0006 084B     		ldr	r3, .L11
 236              	.LVL7:
 237              		.loc 1 78 13 view .LVU49
 238              	.LBE77:
 239              	.LBE76:
 240              		.loc 1 104 5 is_stmt 1 view .LVU50
 241              	.LBB95:
 242              	.LBI76:
 243              		.loc 1 74 17 view .LVU51
 244              	.LBB92:
 245              		.loc 1 76 5 view .LVU52
 246              		.loc 1 77 5 view .LVU53
 247              	.LBB78:
 248              	.LBI78:
 249              		.loc 1 59 17 view .LVU54
 250              	.LBB79:
 251              		.loc 1 61 5 view .LVU55
 252              	.LBB80:
 253              	.LBI80:
 254              		.loc 2 115 25 view .LVU56
 255              	.LBE80:
 256              	.LBE79:
 257              	.LBE78:
 258              	.LBE92:
 259              	.LBE95:
 260              		.loc 2 120 3 view .LVU57
 261              	.LBB96:
 262              	.LBB93:
 263              	.LBB89:
 264              	.LBB87:
 265              	.LBB85:
 266              	.LBB81:
 267              	.LBI81:
 268              		.loc 3 105 25 view .LVU58
 269              	.LBE81:
 270              	.LBE85:
 271              	.LBE87:
 272              	.LBE89:
 273              	.LBE93:
 274              	.LBE96:
 275              		.loc 3 107 3 view .LVU59
 276              	.LBB97:
 277              	.LBB94:
 278              	.LBB90:
 279              	.LBB88:
 280              	.LBB86:
 281              	.LBB84:
 282              	.LBB82:
 283              	.LBI82:
 284              		.loc 4 166 25 view .LVU60
 285              	.LBB83:
ARM GAS  /tmp/cc4aQ5AS.s 			page 6


 286              		.loc 4 168 3 view .LVU61
 287              		.loc 4 168 10 is_stmt 0 view .LVU62
 288 0008 4FF08042 		mov	r2, #1073741824
 289 000c 546A     		ldr	r4, [r2, #36]
 290              	.LVL8:
 291              		.loc 4 168 10 view .LVU63
 292              	.LBE83:
 293              	.LBE82:
 294              	.LBE84:
 295              	.LBE86:
 296              		.loc 1 65 5 is_stmt 1 view .LVU64
 297              		.loc 1 65 5 is_stmt 0 view .LVU65
 298              	.LBE88:
 299              	.LBE90:
 300              		.loc 1 78 5 is_stmt 1 view .LVU66
 301              		.loc 1 78 8 is_stmt 0 view .LVU67
 302 000e 1A68     		ldr	r2, [r3]
 303              		.loc 1 82 15 view .LVU68
 304 0010 1C60     		str	r4, [r3]
 305              		.loc 1 78 8 view .LVU69
 306 0012 9442     		cmp	r4, r2
 307              	.LBB91:
 308              		.loc 1 79 9 is_stmt 1 view .LVU70
 309              	.LVL9:
 310              		.loc 1 80 9 view .LVU71
 311              		.loc 1 80 25 is_stmt 0 view .LVU72
 312 0014 3FBF     		itttt	cc
 313 0016 0549     		ldrcc	r1, .L11+4
 314 0018 4A68     		ldrcc	r2, [r1, #4]
 315 001a 0132     		addcc	r2, r2, #1
 316 001c 4A60     		strcc	r2, [r1, #4]
 317              	.LBE91:
 318              		.loc 1 82 5 is_stmt 1 view .LVU73
 319              		.loc 1 83 5 view .LVU74
 320              	.LVL10:
 321              		.loc 1 83 5 is_stmt 0 view .LVU75
 322              	.LBE94:
 323              	.LBE97:
 324              		.loc 1 105 5 is_stmt 1 view .LVU76
 325 001e FFF7FEFF 		bl	chSysRestoreStatusX
 326              	.LVL11:
 327              		.loc 1 106 5 view .LVU77
 328              		.loc 1 107 1 is_stmt 0 view .LVU78
 329 0022 2046     		mov	r0, r4
 330 0024 10BD     		pop	{r4, pc}
 331              	.LVL12:
 332              	.L12:
 333              		.loc 1 107 1 view .LVU79
 334 0026 00BF     		.align	2
 335              	.L11:
 336 0028 00000000 		.word	.LANCHOR0
 337 002c 00000000 		.word	.LANCHOR1
 338              		.cfi_endproc
 339              	.LFE337:
 340              		.size	hrt_micros32, .-hrt_micros32
 341              		.global	__aeabi_uldivmod
 342              		.section	.text.hrt_millis32,"ax",%progbits
ARM GAS  /tmp/cc4aQ5AS.s 			page 7


 343              		.align	1
 344              		.p2align 4,,15
 345              		.global	hrt_millis32
 346              		.syntax unified
 347              		.thumb
 348              		.thumb_func
 349              		.fpu fpv4-sp-d16
 350              		.type	hrt_millis32, %function
 351              	hrt_millis32:
 352              	.LFB338:
 353              		.loc 1 110 1 is_stmt 1 view -0
 354              		.cfi_startproc
 355              		@ args = 0, pretend = 0, frame = 8
 356              		@ frame_needed = 0, uses_anonymous_args = 0
 357              		.loc 1 111 5 view .LVU81
 358              	.LBB109:
 359              	.LBI109:
 360              		.loc 1 92 10 view .LVU82
 361              	.LBB110:
 362              		.loc 1 94 5 view .LVU83
 363              	.LBE110:
 364              	.LBE109:
 365              		.loc 1 110 1 is_stmt 0 view .LVU84
 366 0000 30B5     		push	{r4, r5, lr}
 367              		.cfi_def_cfa_offset 12
 368              		.cfi_offset 4, -12
 369              		.cfi_offset 5, -8
 370              		.cfi_offset 14, -4
 371 0002 83B0     		sub	sp, sp, #12
 372              		.cfi_def_cfa_offset 24
 373              	.LBB152:
 374              	.LBB149:
 375              	.LBB111:
 376              	.LBB112:
 377              		.loc 1 78 13 view .LVU85
 378 0004 104D     		ldr	r5, .L17
 379              	.LBE112:
 380              	.LBE111:
 381              		.loc 1 94 20 view .LVU86
 382 0006 FFF7FEFF 		bl	chSysGetStatusAndLockX
 383              	.LVL13:
 384              		.loc 1 95 5 is_stmt 1 view .LVU87
 385              	.LBB143:
 386              	.LBI111:
 387              		.loc 1 74 17 view .LVU88
 388              	.LBB137:
 389              		.loc 1 76 5 view .LVU89
 390              		.loc 1 77 5 view .LVU90
 391              	.LBB113:
 392              	.LBI113:
 393              		.loc 1 59 17 view .LVU91
 394              	.LBB114:
 395              		.loc 1 61 5 view .LVU92
 396              	.LBB115:
 397              	.LBI115:
 398              		.loc 2 115 25 view .LVU93
 399              	.LBE115:
ARM GAS  /tmp/cc4aQ5AS.s 			page 8


 400              	.LBE114:
 401              	.LBE113:
 402              	.LBE137:
 403              	.LBE143:
 404              	.LBE149:
 405              	.LBE152:
 406              		.loc 2 120 3 view .LVU94
 407              	.LBB153:
 408              	.LBB150:
 409              	.LBB144:
 410              	.LBB138:
 411              	.LBB129:
 412              	.LBB126:
 413              	.LBB123:
 414              	.LBB116:
 415              	.LBI116:
 416              		.loc 3 105 25 view .LVU95
 417              	.LBE116:
 418              	.LBE123:
 419              	.LBE126:
 420              	.LBE129:
 421              	.LBE138:
 422              	.LBE144:
 423              	.LBE150:
 424              	.LBE153:
 425              		.loc 3 107 3 view .LVU96
 426              	.LBB154:
 427              	.LBB151:
 428              	.LBB145:
 429              	.LBB139:
 430              	.LBB130:
 431              	.LBB127:
 432              	.LBB124:
 433              	.LBB121:
 434              	.LBB117:
 435              	.LBI117:
 436              		.loc 4 166 25 view .LVU97
 437              	.LBB118:
 438              		.loc 4 168 3 view .LVU98
 439              		.loc 4 168 10 is_stmt 0 view .LVU99
 440 000a 4FF08043 		mov	r3, #1073741824
 441              	.LBE118:
 442              	.LBE117:
 443              	.LBE121:
 444              	.LBE124:
 445              	.LBE127:
 446              	.LBE130:
 447              		.loc 1 78 8 view .LVU100
 448 000e 2A68     		ldr	r2, [r5]
 449              	.LBB131:
 450              	.LBB128:
 451              	.LBB125:
 452              	.LBB122:
 453              	.LBB120:
 454              	.LBB119:
 455              		.loc 4 168 10 view .LVU101
 456 0010 5B6A     		ldr	r3, [r3, #36]
ARM GAS  /tmp/cc4aQ5AS.s 			page 9


 457              	.LVL14:
 458              		.loc 4 168 10 view .LVU102
 459              	.LBE119:
 460              	.LBE120:
 461              	.LBE122:
 462              	.LBE125:
 463              		.loc 1 65 5 is_stmt 1 view .LVU103
 464              		.loc 1 65 5 is_stmt 0 view .LVU104
 465              	.LBE128:
 466              	.LBE131:
 467              		.loc 1 78 5 is_stmt 1 view .LVU105
 468              	.LBB132:
 469              		.loc 1 79 9 view .LVU106
 470              		.loc 1 80 9 view .LVU107
 471              	.LBE132:
 472              		.loc 1 78 8 is_stmt 0 view .LVU108
 473 0012 9342     		cmp	r3, r2
 474              		.loc 1 82 15 view .LVU109
 475 0014 2B60     		str	r3, [r5]
 476              	.LBB133:
 477              		.loc 1 80 25 view .LVU110
 478 0016 37BF     		itett	cc
 479 0018 0C4A     		ldrcc	r2, .L17+4
 480              	.LBE133:
 481              	.LBE139:
 482              	.LBE145:
 483              		.loc 1 96 36 view .LVU111
 484 001a 0C49     		ldrcs	r1, .L17+4
 485              	.LBB146:
 486              	.LBB140:
 487              	.LBB134:
 488              		.loc 1 80 25 view .LVU112
 489 001c 5168     		ldrcc	r1, [r2, #4]
 490 001e 1468     		ldrcc	r4, [r2]
 491              	.LBE134:
 492              		.loc 1 82 5 is_stmt 1 view .LVU113
 493              	.LBB135:
 494              		.loc 1 80 25 is_stmt 0 view .LVU114
 495 0020 36BF     		itet	cc
 496 0022 0131     		addcc	r1, r1, #1
 497              	.LBE135:
 498              	.LBE140:
 499              	.LBE146:
 500              		.loc 1 96 36 view .LVU115
 501 0024 D1E90041 		ldrdcs	r4, r1, [r1]
 502              	.LBB147:
 503              	.LBB141:
 504              	.LBB136:
 505              		.loc 1 80 25 view .LVU116
 506 0028 5160     		strcc	r1, [r2, #4]
 507              	.LBE136:
 508              	.LBE141:
 509              	.LBE147:
 510              		.loc 1 96 14 view .LVU117
 511 002a 1C19     		adds	r4, r3, r4
 512              	.LBB148:
 513              	.LBB142:
ARM GAS  /tmp/cc4aQ5AS.s 			page 10


 514              		.loc 1 83 5 is_stmt 1 view .LVU118
 515              	.LVL15:
 516              		.loc 1 83 5 is_stmt 0 view .LVU119
 517              	.LBE142:
 518              	.LBE148:
 519              		.loc 1 96 5 is_stmt 1 view .LVU120
 520              		.loc 1 96 14 is_stmt 0 view .LVU121
 521 002c 41F10001 		adc	r1, r1, #0
 522 0030 0191     		str	r1, [sp, #4]
 523              	.LVL16:
 524              		.loc 1 97 5 is_stmt 1 view .LVU122
 525 0032 FFF7FEFF 		bl	chSysRestoreStatusX
 526              	.LVL17:
 527              		.loc 1 98 5 view .LVU123
 528              		.loc 1 98 5 is_stmt 0 view .LVU124
 529              	.LBE151:
 530              	.LBE154:
 531              		.loc 1 111 38 view .LVU125
 532 0036 4FF47A72 		mov	r2, #1000
 533 003a 0023     		movs	r3, #0
 534 003c 2046     		mov	r0, r4
 535 003e 0199     		ldr	r1, [sp, #4]
 536 0040 FFF7FEFF 		bl	__aeabi_uldivmod
 537              	.LVL18:
 538              		.loc 1 112 1 view .LVU126
 539 0044 03B0     		add	sp, sp, #12
 540              		.cfi_def_cfa_offset 12
 541              		@ sp needed
 542 0046 30BD     		pop	{r4, r5, pc}
 543              	.L18:
 544              		.align	2
 545              	.L17:
 546 0048 00000000 		.word	.LANCHOR0
 547 004c 00000000 		.word	.LANCHOR1
 548              		.cfi_endproc
 549              	.LFE338:
 550              		.size	hrt_millis32, .-hrt_millis32
 551              		.section	.bss.last_us32.0,"aw",%nobits
 552              		.align	2
 553              		.set	.LANCHOR0,. + 0
 554              		.type	last_us32.0, %object
 555              		.size	last_us32.0, 4
 556              	last_us32.0:
 557 0000 00000000 		.space	4
 558              		.section	.bss.timer_base_us64,"aw",%nobits
 559              		.align	3
 560              		.set	.LANCHOR1,. + 0
 561              		.type	timer_base_us64, %object
 562              		.size	timer_base_us64, 8
 563              	timer_base_us64:
 564 0000 00000000 		.space	8
 564      00000000 
 565              		.text
 566              	.Letext0:
 567              		.file 5 "/opt/gcc-arm-none-eabi-10-2020-q4-major/lib/gcc/arm-none-eabi/10.2.1/include/stddef.h"
 568              		.file 6 "/opt/gcc-arm-none-eabi-10-2020-q4-major/arm-none-eabi/include/machine/_default_types.h"
 569              		.file 7 "/opt/gcc-arm-none-eabi-10-2020-q4-major/arm-none-eabi/include/sys/_stdint.h"
ARM GAS  /tmp/cc4aQ5AS.s 			page 11


 570              		.file 8 "../../modules/ChibiOS/os/common/ports/ARMCMx/compilers/GCC/chtypes.h"
 571              		.file 9 "../../modules/ChibiOS/os/rt/include/chtime.h"
 572              		.file 10 "../../modules/ChibiOS/os/hal/ports/STM32/LLD/TIMv1/stm32_tim.h"
 573              		.file 11 "../../modules/ChibiOS/os/rt/include/chsys.h"