ARM GAS  /tmp/cclniMco.s 			page 1


   1              		.cpu cortex-m7
   2              		.eabi_attribute 27, 1
   3              		.eabi_attribute 28, 1
   4              		.eabi_attribute 20, 1
   5              		.eabi_attribute 21, 1
   6              		.eabi_attribute 23, 3
   7              		.eabi_attribute 24, 1
   8              		.eabi_attribute 25, 1
   9              		.eabi_attribute 26, 1
  10              		.eabi_attribute 30, 4
  11              		.eabi_attribute 34, 1
  12              		.eabi_attribute 18, 4
  13              		.file	"memstreams.c"
  14              		.text
  15              	.Ltext0:
  16              		.cfi_sections	.debug_frame
  17              		.section	.text._put,"ax",%progbits
  18              		.align	1
  19              		.arch armv7e-m
  20              		.syntax unified
  21              		.thumb
  22              		.thumb_func
  23              		.fpu fpv4-sp-d16
  24              		.type	_put, %function
  25              	_put:
  26              	.LVL0:
  27              	.LFB336:
  28              		.file 1 "../../modules/ChibiOS/os/hal/lib/streams/memstreams.c"
  29              		.loc 1 67 40 view -0
  30              		.cfi_startproc
  31              		@ args = 0, pretend = 0, frame = 0
  32              		@ frame_needed = 0, uses_anonymous_args = 0
  33              		@ link register save eliminated.
  34              		.loc 1 68 3 view .LVU1
  35              		.loc 1 70 3 view .LVU2
  36              		.loc 1 70 6 is_stmt 0 view .LVU3
  37 0000 D0E90223 		ldrd	r2, r3, [r0, #8]
  38 0004 9A42     		cmp	r2, r3
  39              		.loc 1 72 3 is_stmt 1 view .LVU4
  40              		.loc 1 72 29 is_stmt 0 view .LVU5
  41 0006 1FBF     		itttt	ne
  42 0008 4268     		ldrne	r2, [r0, #4]
  43 000a D154     		strbne	r1, [r2, r3]
  44              		.loc 1 73 3 is_stmt 1 view .LVU6
  45              		.loc 1 73 12 is_stmt 0 view .LVU7
  46 000c C368     		ldrne	r3, [r0, #12]
  47 000e 0133     		addne	r3, r3, #1
  48 0010 1ABF     		itte	ne
  49 0012 C360     		strne	r3, [r0, #12]
  50              		.loc 1 74 3 is_stmt 1 view .LVU8
  51              		.loc 1 74 10 is_stmt 0 view .LVU9
  52 0014 0020     		movne	r0, #0
  53              	.LVL1:
  54              		.loc 1 71 12 view .LVU10
  55 0016 6FF00100 		mvneq	r0, #1
  56              		.loc 1 75 1 view .LVU11
  57 001a 7047     		bx	lr
ARM GAS  /tmp/cclniMco.s 			page 2


  58              		.cfi_endproc
  59              	.LFE336:
  60              		.size	_put, .-_put
  61              		.section	.text._get,"ax",%progbits
  62              		.align	1
  63              		.syntax unified
  64              		.thumb
  65              		.thumb_func
  66              		.fpu fpv4-sp-d16
  67              		.type	_get, %function
  68              	_get:
  69              	.LVL2:
  70              	.LFB337:
  71              		.loc 1 77 29 is_stmt 1 view -0
  72              		.cfi_startproc
  73              		@ args = 0, pretend = 0, frame = 0
  74              		@ frame_needed = 0, uses_anonymous_args = 0
  75              		@ link register save eliminated.
  76              		.loc 1 78 3 view .LVU13
  77              		.loc 1 79 3 view .LVU14
  78              		.loc 1 81 3 view .LVU15
  79              		.loc 1 81 6 is_stmt 0 view .LVU16
  80 0000 D0E90323 		ldrd	r2, r3, [r0, #12]
  81 0004 9A42     		cmp	r2, r3
  82              		.loc 1 83 3 is_stmt 1 view .LVU17
  83              		.loc 1 83 5 is_stmt 0 view .LVU18
  84 0006 1FBF     		itttt	ne
  85 0008 4268     		ldrne	r2, [r0, #4]
  86 000a D25C     		ldrbne	r2, [r2, r3]	@ zero_extendqisi2
  87              	.LVL3:
  88              		.loc 1 84 3 is_stmt 1 view .LVU19
  89              		.loc 1 84 15 is_stmt 0 view .LVU20
  90 000c 0133     		addne	r3, r3, #1
  91 000e 0361     		strne	r3, [r0, #16]
  92              		.loc 1 85 3 is_stmt 1 view .LVU21
  93              		.loc 1 85 10 is_stmt 0 view .LVU22
  94 0010 14BF     		ite	ne
  95 0012 1046     		movne	r0, r2
  96              	.LVL4:
  97              		.loc 1 82 12 view .LVU23
  98 0014 6FF00100 		mvneq	r0, #1
  99              		.loc 1 86 1 view .LVU24
 100 0018 7047     		bx	lr
 101              		.cfi_endproc
 102              	.LFE337:
 103              		.size	_get, .-_get
 104              		.section	.text._reads,"ax",%progbits
 105              		.align	1
 106              		.syntax unified
 107              		.thumb
 108              		.thumb_func
 109              		.fpu fpv4-sp-d16
 110              		.type	_reads, %function
 111              	_reads:
 112              	.LVL5:
 113              	.LFB335:
 114              		.loc 1 57 55 is_stmt 1 view -0
ARM GAS  /tmp/cclniMco.s 			page 3


 115              		.cfi_startproc
 116              		@ args = 0, pretend = 0, frame = 0
 117              		@ frame_needed = 0, uses_anonymous_args = 0
 118              		.loc 1 58 3 view .LVU26
 119              		.loc 1 57 55 is_stmt 0 view .LVU27
 120 0000 38B5     		push	{r3, r4, r5, lr}
 121              		.cfi_def_cfa_offset 16
 122              		.cfi_offset 3, -16
 123              		.cfi_offset 4, -12
 124              		.cfi_offset 5, -8
 125              		.cfi_offset 14, -4
 126              		.loc 1 57 55 view .LVU28
 127 0002 0446     		mov	r4, r0
 128              	.LVL6:
 129              		.loc 1 60 3 is_stmt 1 view .LVU29
 130              		.loc 1 57 55 is_stmt 0 view .LVU30
 131 0004 0846     		mov	r0, r1
 132              	.LVL7:
 133              		.loc 1 60 16 view .LVU31
 134 0006 D4E90331 		ldrd	r3, r1, [r4, #12]
 135              	.LVL8:
 136              		.loc 1 60 16 view .LVU32
 137 000a 5B1A     		subs	r3, r3, r1
 138 000c 9342     		cmp	r3, r2
 139 000e 28BF     		it	cs
 140 0010 1346     		movcs	r3, r2
 141 0012 1D46     		mov	r5, r3
 142              	.LVL9:
 143              		.loc 1 62 3 is_stmt 1 view .LVU33
 144              		.loc 1 62 26 is_stmt 0 view .LVU34
 145 0014 6368     		ldr	r3, [r4, #4]
 146              	.LVL10:
 147              		.loc 1 62 3 view .LVU35
 148 0016 2A46     		mov	r2, r5
 149 0018 1944     		add	r1, r1, r3
 150 001a FFF7FEFF 		bl	memcpy
 151              	.LVL11:
 152              		.loc 1 63 3 is_stmt 1 view .LVU36
 153              		.loc 1 63 15 is_stmt 0 view .LVU37
 154 001e 2369     		ldr	r3, [r4, #16]
 155              		.loc 1 65 1 view .LVU38
 156 0020 2846     		mov	r0, r5
 157              		.loc 1 63 15 view .LVU39
 158 0022 2B44     		add	r3, r3, r5
 159 0024 2361     		str	r3, [r4, #16]
 160              		.loc 1 64 3 is_stmt 1 view .LVU40
 161              		.loc 1 65 1 is_stmt 0 view .LVU41
 162 0026 38BD     		pop	{r3, r4, r5, pc}
 163              		.loc 1 65 1 view .LVU42
 164              		.cfi_endproc
 165              	.LFE335:
 166              		.size	_reads, .-_reads
 167              		.section	.text._writes,"ax",%progbits
 168              		.align	1
 169              		.syntax unified
 170              		.thumb
 171              		.thumb_func
ARM GAS  /tmp/cclniMco.s 			page 4


 172              		.fpu fpv4-sp-d16
 173              		.type	_writes, %function
 174              	_writes:
 175              	.LVL12:
 176              	.LFB334:
 177              		.loc 1 47 62 is_stmt 1 view -0
 178              		.cfi_startproc
 179              		@ args = 0, pretend = 0, frame = 0
 180              		@ frame_needed = 0, uses_anonymous_args = 0
 181              		.loc 1 48 3 view .LVU44
 182              		.loc 1 50 3 view .LVU45
 183              		.loc 1 47 62 is_stmt 0 view .LVU46
 184 0000 38B5     		push	{r3, r4, r5, lr}
 185              		.cfi_def_cfa_offset 16
 186              		.cfi_offset 3, -16
 187              		.cfi_offset 4, -12
 188              		.cfi_offset 5, -8
 189              		.cfi_offset 14, -4
 190              		.loc 1 47 62 view .LVU47
 191 0002 0446     		mov	r4, r0
 192              		.loc 1 50 17 view .LVU48
 193 0004 D0E90230 		ldrd	r3, r0, [r0, #8]
 194              	.LVL13:
 195              		.loc 1 50 17 view .LVU49
 196 0008 1B1A     		subs	r3, r3, r0
 197 000a 9342     		cmp	r3, r2
 198 000c 28BF     		it	cs
 199 000e 1346     		movcs	r3, r2
 200 0010 1D46     		mov	r5, r3
 201              	.LVL14:
 202              		.loc 1 52 3 is_stmt 1 view .LVU50
 203              		.loc 1 52 22 is_stmt 0 view .LVU51
 204 0012 6368     		ldr	r3, [r4, #4]
 205              	.LVL15:
 206              		.loc 1 52 3 view .LVU52
 207 0014 2A46     		mov	r2, r5
 208 0016 1844     		add	r0, r0, r3
 209 0018 FFF7FEFF 		bl	memcpy
 210              	.LVL16:
 211              		.loc 1 53 3 is_stmt 1 view .LVU53
 212              		.loc 1 53 12 is_stmt 0 view .LVU54
 213 001c E368     		ldr	r3, [r4, #12]
 214              		.loc 1 55 1 view .LVU55
 215 001e 2846     		mov	r0, r5
 216              		.loc 1 53 12 view .LVU56
 217 0020 2B44     		add	r3, r3, r5
 218 0022 E360     		str	r3, [r4, #12]
 219              		.loc 1 54 3 is_stmt 1 view .LVU57
 220              		.loc 1 55 1 is_stmt 0 view .LVU58
 221 0024 38BD     		pop	{r3, r4, r5, pc}
 222              		.loc 1 55 1 view .LVU59
 223              		.cfi_endproc
 224              	.LFE334:
 225              		.size	_writes, .-_writes
 226              		.section	.text.msObjectInit,"ax",%progbits
 227              		.align	1
 228              		.global	msObjectInit
ARM GAS  /tmp/cclniMco.s 			page 5


 229              		.syntax unified
 230              		.thumb
 231              		.thumb_func
 232              		.fpu fpv4-sp-d16
 233              		.type	msObjectInit, %function
 234              	msObjectInit:
 235              	.LVL17:
 236              	.LFB338:
 237              		.loc 1 105 44 is_stmt 1 view -0
 238              		.cfi_startproc
 239              		@ args = 0, pretend = 0, frame = 0
 240              		@ frame_needed = 0, uses_anonymous_args = 0
 241              		.loc 1 107 3 view .LVU61
 242              		.loc 1 105 44 is_stmt 0 view .LVU62
 243 0000 10B5     		push	{r4, lr}
 244              		.cfi_def_cfa_offset 8
 245              		.cfi_offset 4, -8
 246              		.cfi_offset 14, -4
 247              		.loc 1 110 15 view .LVU63
 248 0002 C0E90223 		strd	r2, r3, [r0, #8]
 249              		.loc 1 107 15 view .LVU64
 250 0006 034C     		ldr	r4, .L10
 251              		.loc 1 111 15 view .LVU65
 252 0008 0023     		movs	r3, #0
 253              	.LVL18:
 254              		.loc 1 108 15 view .LVU66
 255 000a C0E90041 		strd	r4, r1, [r0]
 256              		.loc 1 109 3 is_stmt 1 view .LVU67
 257              		.loc 1 111 3 view .LVU68
 258              		.loc 1 111 15 is_stmt 0 view .LVU69
 259 000e 0361     		str	r3, [r0, #16]
 260              		.loc 1 112 1 view .LVU70
 261 0010 10BD     		pop	{r4, pc}
 262              	.L11:
 263 0012 00BF     		.align	2
 264              	.L10:
 265 0014 00000000 		.word	.LANCHOR0
 266              		.cfi_endproc
 267              	.LFE338:
 268              		.size	msObjectInit, .-msObjectInit
 269              		.section	.rodata.vmt,"a"
 270              		.align	2
 271              		.set	.LANCHOR0,. + 0
 272              		.type	vmt, %object
 273              		.size	vmt, 20
 274              	vmt:
 275 0000 00000000 		.word	0
 276 0004 00000000 		.word	_writes
 277 0008 00000000 		.word	_reads
 278 000c 00000000 		.word	_put
 279 0010 00000000 		.word	_get
 280              		.text
 281              	.Letext0:
 282              		.file 2 "/opt/gcc-arm-none-eabi-10-2020-q4-major/lib/gcc/arm-none-eabi/10.2.1/include/stddef.h"
 283              		.file 3 "/opt/gcc-arm-none-eabi-10-2020-q4-major/arm-none-eabi/include/machine/_default_types.h"
 284              		.file 4 "/opt/gcc-arm-none-eabi-10-2020-q4-major/arm-none-eabi/include/sys/_stdint.h"
 285              		.file 5 "../../modules/ChibiOS/os/common/ports/ARMCMx/compilers/GCC/chtypes.h"
ARM GAS  /tmp/cclniMco.s 			page 6


 286              		.file 6 "../../modules/ChibiOS/os/hal/lib/streams/memstreams.h"
 287              		.file 7 "<built-in>"