ARM GAS  /tmp/ccSfaPbk.s 			page 1


   1              		.cpu cortex-m7
   2              		.eabi_attribute 27, 1
   3              		.eabi_attribute 28, 1
   4              		.eabi_attribute 20, 1
   5              		.eabi_attribute 21, 1
   6              		.eabi_attribute 23, 3
   7              		.eabi_attribute 24, 1
   8              		.eabi_attribute 25, 1
   9              		.eabi_attribute 26, 1
  10              		.eabi_attribute 30, 4
  11              		.eabi_attribute 34, 1
  12              		.eabi_attribute 18, 4
  13              		.file	"nullstreams.c"
  14              		.text
  15              	.Ltext0:
  16              		.cfi_sections	.debug_frame
  17              		.section	.text.writes,"ax",%progbits
  18              		.align	1
  19              		.arch armv7e-m
  20              		.syntax unified
  21              		.thumb
  22              		.thumb_func
  23              		.fpu fpv4-sp-d16
  24              		.type	writes, %function
  25              	writes:
  26              	.LVL0:
  27              	.LFB334:
  28              		.file 1 "../../modules/ChibiOS/os/hal/lib/streams/nullstreams.c"
  29              		.loc 1 45 61 view -0
  30              		.cfi_startproc
  31              		@ args = 0, pretend = 0, frame = 0
  32              		@ frame_needed = 0, uses_anonymous_args = 0
  33              		@ link register save eliminated.
  34              		.loc 1 47 3 view .LVU1
  35              		.loc 1 48 3 view .LVU2
  36              		.loc 1 50 3 view .LVU3
  37              		.loc 1 51 1 is_stmt 0 view .LVU4
  38 0000 1046     		mov	r0, r2
  39              	.LVL1:
  40              		.loc 1 51 1 view .LVU5
  41 0002 7047     		bx	lr
  42              		.cfi_endproc
  43              	.LFE334:
  44              		.size	writes, .-writes
  45              		.section	.text.reads,"ax",%progbits
  46              		.align	1
  47              		.syntax unified
  48              		.thumb
  49              		.thumb_func
  50              		.fpu fpv4-sp-d16
  51              		.type	reads, %function
  52              	reads:
  53              	.LVL2:
  54              	.LFB335:
  55              		.loc 1 53 54 is_stmt 1 view -0
  56              		.cfi_startproc
  57              		@ args = 0, pretend = 0, frame = 0
ARM GAS  /tmp/ccSfaPbk.s 			page 2


  58              		@ frame_needed = 0, uses_anonymous_args = 0
  59              		@ link register save eliminated.
  60              		.loc 1 55 3 view .LVU7
  61              		.loc 1 56 3 view .LVU8
  62              		.loc 1 57 3 view .LVU9
  63              		.loc 1 59 3 view .LVU10
  64              		.loc 1 60 1 is_stmt 0 view .LVU11
  65 0000 0020     		movs	r0, #0
  66              	.LVL3:
  67              		.loc 1 60 1 view .LVU12
  68 0002 7047     		bx	lr
  69              		.cfi_endproc
  70              	.LFE335:
  71              		.size	reads, .-reads
  72              		.section	.text.put,"ax",%progbits
  73              		.align	1
  74              		.syntax unified
  75              		.thumb
  76              		.thumb_func
  77              		.fpu fpv4-sp-d16
  78              		.type	put, %function
  79              	put:
  80              	.LVL4:
  81              	.LFB336:
  82              		.loc 1 62 39 is_stmt 1 view -0
  83              		.cfi_startproc
  84              		@ args = 0, pretend = 0, frame = 0
  85              		@ frame_needed = 0, uses_anonymous_args = 0
  86              		@ link register save eliminated.
  87              		.loc 1 64 3 view .LVU14
  88              		.loc 1 65 3 view .LVU15
  89              		.loc 1 67 3 view .LVU16
  90              		.loc 1 68 1 is_stmt 0 view .LVU17
  91 0000 0020     		movs	r0, #0
  92              	.LVL5:
  93              		.loc 1 68 1 view .LVU18
  94 0002 7047     		bx	lr
  95              		.cfi_endproc
  96              	.LFE336:
  97              		.size	put, .-put
  98              		.section	.text.get,"ax",%progbits
  99              		.align	1
 100              		.syntax unified
 101              		.thumb
 102              		.thumb_func
 103              		.fpu fpv4-sp-d16
 104              		.type	get, %function
 105              	get:
 106              	.LVL6:
 107              	.LFB337:
 108              		.loc 1 70 28 is_stmt 1 view -0
 109              		.cfi_startproc
 110              		@ args = 0, pretend = 0, frame = 0
 111              		@ frame_needed = 0, uses_anonymous_args = 0
 112              		@ link register save eliminated.
 113              		.loc 1 72 3 view .LVU20
 114              		.loc 1 74 3 view .LVU21
ARM GAS  /tmp/ccSfaPbk.s 			page 3


 115              		.loc 1 75 1 is_stmt 0 view .LVU22
 116 0000 0420     		movs	r0, #4
 117              	.LVL7:
 118              		.loc 1 75 1 view .LVU23
 119 0002 7047     		bx	lr
 120              		.cfi_endproc
 121              	.LFE337:
 122              		.size	get, .-get
 123              		.section	.text.nullObjectInit,"ax",%progbits
 124              		.align	1
 125              		.global	nullObjectInit
 126              		.syntax unified
 127              		.thumb
 128              		.thumb_func
 129              		.fpu fpv4-sp-d16
 130              		.type	nullObjectInit, %function
 131              	nullObjectInit:
 132              	.LVL8:
 133              	.LFB338:
 134              		.loc 1 88 38 is_stmt 1 view -0
 135              		.cfi_startproc
 136              		@ args = 0, pretend = 0, frame = 0
 137              		@ frame_needed = 0, uses_anonymous_args = 0
 138              		@ link register save eliminated.
 139              		.loc 1 90 3 view .LVU25
 140              		.loc 1 90 12 is_stmt 0 view .LVU26
 141 0000 014B     		ldr	r3, .L6
 142 0002 0360     		str	r3, [r0]
 143              		.loc 1 91 1 view .LVU27
 144 0004 7047     		bx	lr
 145              	.L7:
 146 0006 00BF     		.align	2
 147              	.L6:
 148 0008 00000000 		.word	.LANCHOR0
 149              		.cfi_endproc
 150              	.LFE338:
 151              		.size	nullObjectInit, .-nullObjectInit
 152              		.section	.rodata.vmt,"a"
 153              		.align	2
 154              		.set	.LANCHOR0,. + 0
 155              		.type	vmt, %object
 156              		.size	vmt, 20
 157              	vmt:
 158 0000 00000000 		.word	0
 159 0004 00000000 		.word	writes
 160 0008 00000000 		.word	reads
 161 000c 00000000 		.word	put
 162 0010 00000000 		.word	get
 163              		.text
 164              	.Letext0:
 165              		.file 2 "/opt/gcc-arm-none-eabi-10-2020-q4-major/lib/gcc/arm-none-eabi/10.2.1/include/stddef.h"
 166              		.file 3 "/opt/gcc-arm-none-eabi-10-2020-q4-major/arm-none-eabi/include/machine/_default_types.h"
 167              		.file 4 "/opt/gcc-arm-none-eabi-10-2020-q4-major/arm-none-eabi/include/sys/_stdint.h"
 168              		.file 5 "../../modules/ChibiOS/os/common/ports/ARMCMx/compilers/GCC/chtypes.h"
 169              		.file 6 "../../modules/ChibiOS/os/hal/lib/streams/nullstreams.h"