ARM GAS  /tmp/ccSfaPbk.s 			page 1


   1              		.cpu cortex-m7
   2              		.eabi_attribute 27, 1
   3              		.eabi_attribute 28, 1
   4              		.eabi_attribute 20, 1
   5              		.eabi_attribute 21, 1
   6              		.eabi_attribute 23, 3
   7              		.eabi_attribute 24, 1
   8              		.eabi_attribute 25, 1
   9              		.eabi_attribute 26, 1
  10              		.eabi_attribute 30, 4
  11              		.eabi_attribute 34, 1
  12              		.eabi_attribute 18, 4
  13              		.file	"nullstreams.c"
  14              		.text
  15              	.Ltext0:
  16              		.cfi_sections	.debug_frame
  17              		.section	.text.writes,"ax",%progbits
  18              		.align	1
  19              		.arch armv7e-m
  20              		.syntax unified
  21              		.thumb
  22              		.thumb_func
  23              		.fpu fpv4-sp-d16
  24              		.type	writes, %function
  25              	writes:
  26              	.LVL0:
  27              	.LFB334:
  28              		.file 1 "../../modules/ChibiOS/os/hal/lib/streams/nullstreams.c"
  29              		.loc 1 45 61 view -0
  30              		.cfi_startproc
  31              		@ args = 0, pretend = 0, frame = 0
  32              		@ frame_needed = 0, uses_anonymous_args = 0
  33              		@ link register save eliminated.
  34              		.loc 1 47 3 view .LVU1
  35              		.loc 1 48 3 view .LVU2
  36              		.loc 1 50 3 view .LVU3
  37              		.loc 1 51 1 is_stmt 0 view .LVU4
  38 0000 1046     		mov	r0, r2
  39              	.LVL1:
  40              		.loc 1 51 1 view .LVU5
  41 0002 7047     		bx	lr
  42              		.cfi_endproc
  43              	.LFE334:
  44              		.size	writes, .-writes
  45              		.section	.text.reads,"ax",%progbits
  46              		.align	1
  47              		.syntax unified
  48              		.thumb
  49              		.thumb_func
  50              		.fpu fpv4-sp-d16
  51              		.type	reads, %function
  52              	reads:
  53              	.LVL2:
  54              	.LFB335:
  55              		.loc 1 53 54 is_stmt 1 view -0
  56              		.cfi_startproc
  57              		@ args = 0, pretend = 0, frame = 0
ARM GAS  /tmp/ccSfaPbk.s 			page 2


  58              		@ frame_needed = 0, uses_anonymous_args = 0
  59              		@ link register save eliminated.
  60              		.loc 1 55 3 view .LVU7
  61              		.loc 1 56 3 view .LVU8
  62              		.loc 1 57 3 view .LVU9
  63              		.loc 1 59 3 view .LVU10
  64              		.loc 1 60 1 is_stmt 0 view .LVU11
  65 0000 0020     		movs	r0, #0
  66              	.LVL3:
  67              		.loc 1 60 1 view .LVU12
  68 0002 7047     		bx	lr
  69              		.cfi_endproc
  70              	.LFE335:
  71              		.size	reads, .-reads
  72              		.section	.text.put,"ax",%progbits
  73              		.align	1
  74              		.syntax unified
  75              		.thumb
  76              		.thumb_func
  77              		.fpu fpv4-sp-d16
  78              		.type	put, %function
  79              	put:
  80              	.LVL4:
  81              	.LFB336:
  82              		.loc 1 62 39 is_stmt 1 view -0
  83              		.cfi_startproc
  84              		@ args = 0, pretend = 0, frame = 0
  85              		@ frame_needed = 0, uses_anonymous_args = 0
  86              		@ link register save eliminated.
  87              		.loc 1 64 3 view .LVU14
  88              		.loc 1 65 3 view .LVU15
  89              		.loc 1 67 3 view .LVU16
  90              		.loc 1 68 1 is_stmt 0 view .LVU17
  91 0000 0020     		movs	r0, #0
  92              	.LVL5:
  93              		.loc 1 68 1 view .LVU18
  94 0002 7047     		bx	lr
  95              		.cfi_endproc
  96              	.LFE336:
  97              		.size	put, .-put
  98              		.section	.text.get,"ax",%progbits
  99              		.align	1
 100              		.syntax unified
 101              		.thumb
 102              		.thumb_func
 103              		.fpu fpv4-sp-d16
 104              		.type	get, %function
 105              	get:
 106              	.LVL6:
 107              	.LFB337:
 108              		.loc 1 70 28 is_stmt 1 view -0
 109              		.cfi_startproc
 110              		@ args = 0, pretend = 0, frame = 0
 111              		@ frame_needed = 0, uses_anonymous_args = 0
 112              		@ link register save eliminated.
 113              		.loc 1 72 3 view .LVU20
 114              		.loc 1 74 3 view .LVU21
ARM GAS  /tmp/ccSfaPbk.s 			page 3


 115              		.loc 1 75 1 is_stmt 0 view .LVU22
 116 0000 0420     		movs	r0, #4
 117              	.LVL7:
 118              		.loc 1 75 1 view .LVU23
 119 0002 7047     		bx	lr
 120              		.cfi_endproc
 121              	.LFE337:
 122              		.size	get, .-get
 123              		.section	.text.nullObjectInit,"ax",%progbits
 124              		.align	1
 125              		.global	nullObjectInit
 126              		.syntax unified
 127              		.thumb
 128              		.thumb_func
 129              		.fpu fpv4-sp-d16
 130              		.type	nullObjectInit, %function
 131              	nullObjectInit:
 132              	.LVL8:
 133              	.LFB338:
 134              		.loc 1 88 38 is_stmt 1 view -0
 135              		.cfi_startproc
 136              		@ args = 0, pretend = 0, frame = 0
 137              		@ frame_needed = 0, uses_anonymous_args = 0
 138              		@ link register save eliminated.
 139              		.loc 1 90 3 view .LVU25
 140              		.loc 1 90 12 is_stmt 0 view .LVU26
 141 0000 014B     		ldr	r3, .L6
 142 0002 0360     		str	r3, [r0]
 143              		.loc 1 91 1 view .LVU27
 144 0004 7047     		bx	lr
 145              	.L7:
 146 0006 00BF     		.align	2
 147              	.L6:
 148 0008 00000000 		.word	.LANCHOR0
 149              		.cfi_endproc
 150              	.LFE338:
 151              		.size	nullObjectInit, .-nullObjectInit
 152              		.section	.rodata.vmt,"a"
 153              		.align	2
 154              		.set	.LANCHOR0,. + 0
 155              		.type	vmt, %object
 156              		.size	vmt, 20
 157              	vmt:
 158 0000 00000000 		.word	0
 159 0004 00000000 		.word	writes
 160 0008 00000000 		.word	reads
 161 000c 00000000 		.word	put
 162 0010 00000000 		.word	get
 163              		.text
 164              	.Letext0:
 165              		.file 2 "/opt/gcc-arm-none-eabi-10-2020-q4-major/lib/gcc/arm-none-eabi/10.2.1/include/stddef.h"
 166              		.file 3 "/opt/gcc-arm-none-eabi-10-2020-q4-major/arm-none-eabi/include/machine/_default_types.h"
 167              		.file 4 "/opt/gcc-arm-none-eabi-10-2020-q4-major/arm-none-eabi/include/sys/_stdint.h"
 168              		.file 5 "../../modules/ChibiOS/os/common/ports/ARMCMx/compilers/GCC/chtypes.h"
 169              		.file 6 "../../modules/ChibiOS/os/hal/lib/streams/nullstreams.h"
 170              		.section	.debug_info,"",%progbits
 171              	.Ldebug_info0:
ARM GAS  /tmp/ccSfaPbk.s 			page 4


 172 0000 F1020000 		.4byte	0x2f1
 173 0004 0400     		.2byte	0x4
 174 0006 00000000 		.4byte	.Ldebug_abbrev0
 175 000a 04       		.byte	0x4
 176 000b 01       		.uleb128 0x1
 177 000c 15010000 		.4byte	.LASF23
 178 0010 0C       		.byte	0xc
 179 0011 52020000 		.4byte	.LASF24
 180 0015 CB000000 		.4byte	.LASF25
 181 0019 00000000 		.4byte	.Ldebug_ranges0+0
 182 001d 00000000 		.4byte	0
 183 0021 00000000 		.4byte	.Ldebug_line0
 184 0025 02       		.uleb128 0x2
 185 0026 04       		.byte	0x4
 186 0027 05       		.byte	0x5
 187 0028 696E7400 		.ascii	"int\000"
 188 002c 03       		.uleb128 0x3
 189 002d 0A000000 		.4byte	.LASF4
 190 0031 02       		.byte	0x2
 191 0032 D1       		.byte	0xd1
 192 0033 17       		.byte	0x17
 193 0034 38000000 		.4byte	0x38
 194 0038 04       		.uleb128 0x4
 195 0039 04       		.byte	0x4
 196 003a 07       		.byte	0x7
 197 003b AB000000 		.4byte	.LASF0
 198 003f 04       		.uleb128 0x4
 199 0040 08       		.byte	0x8
 200 0041 05       		.byte	0x5
 201 0042 07010000 		.4byte	.LASF1
 202 0046 04       		.uleb128 0x4
 203 0047 08       		.byte	0x8
 204 0048 04       		.byte	0x4
 205 0049 29000000 		.4byte	.LASF2
 206 004d 04       		.uleb128 0x4
 207 004e 01       		.byte	0x1
 208 004f 06       		.byte	0x6
 209 0050 4B000000 		.4byte	.LASF3
 210 0054 03       		.uleb128 0x3
 211 0055 00000000 		.4byte	.LASF5
 212 0059 03       		.byte	0x3
 213 005a 2B       		.byte	0x2b
 214 005b 18       		.byte	0x18
 215 005c 60000000 		.4byte	0x60
 216 0060 04       		.uleb128 0x4
 217 0061 01       		.byte	0x1
 218 0062 08       		.byte	0x8
 219 0063 57000000 		.4byte	.LASF6
 220 0067 04       		.uleb128 0x4
 221 0068 02       		.byte	0x2
 222 0069 05       		.byte	0x5
 223 006a 17020000 		.4byte	.LASF7
 224 006e 04       		.uleb128 0x4
 225 006f 02       		.byte	0x2
 226 0070 07       		.byte	0x7
 227 0071 65000000 		.4byte	.LASF8
 228 0075 03       		.uleb128 0x3
ARM GAS  /tmp/ccSfaPbk.s 			page 5


 229 0076 1F000000 		.4byte	.LASF9
 230 007a 03       		.byte	0x3
 231 007b 4D       		.byte	0x4d
 232 007c 18       		.byte	0x18
 233 007d 81000000 		.4byte	0x81
 234 0081 04       		.uleb128 0x4
 235 0082 04       		.byte	0x4
 236 0083 05       		.byte	0x5
 237 0084 2C020000 		.4byte	.LASF10
 238 0088 04       		.uleb128 0x4
 239 0089 04       		.byte	0x4
 240 008a 07       		.byte	0x7
 241 008b 7E000000 		.4byte	.LASF11
 242 008f 04       		.uleb128 0x4
 243 0090 08       		.byte	0x8
 244 0091 07       		.byte	0x7
 245 0092 3B020000 		.4byte	.LASF12
 246 0096 03       		.uleb128 0x3
 247 0097 BD000000 		.4byte	.LASF13
 248 009b 04       		.byte	0x4
 249 009c 18       		.byte	0x18
 250 009d 13       		.byte	0x13
 251 009e 54000000 		.4byte	0x54
 252 00a2 05       		.uleb128 0x5
 253 00a3 96000000 		.4byte	0x96
 254 00a7 03       		.uleb128 0x3
 255 00a8 FF000000 		.4byte	.LASF14
 256 00ac 04       		.byte	0x4
 257 00ad 2C       		.byte	0x2c
 258 00ae 13       		.byte	0x13
 259 00af 75000000 		.4byte	0x75
 260 00b3 03       		.uleb128 0x3
 261 00b4 C5000000 		.4byte	.LASF15
 262 00b8 05       		.byte	0x5
 263 00b9 2F       		.byte	0x2f
 264 00ba 1D       		.byte	0x1d
 265 00bb A7000000 		.4byte	0xa7
 266 00bf 06       		.uleb128 0x6
 267 00c0 04       		.byte	0x4
 268 00c1 04       		.uleb128 0x4
 269 00c2 01       		.byte	0x1
 270 00c3 08       		.byte	0x8
 271 00c4 B8000000 		.4byte	.LASF16
 272 00c8 04       		.uleb128 0x4
 273 00c9 01       		.byte	0x1
 274 00ca 02       		.byte	0x2
 275 00cb 35020000 		.4byte	.LASF17
 276 00cf 07       		.uleb128 0x7
 277 00d0 04       		.byte	0x4
 278 00d1 96000000 		.4byte	0x96
 279 00d5 08       		.uleb128 0x8
 280 00d6 2C000000 		.4byte	0x2c
 281 00da EE000000 		.4byte	0xee
 282 00de 09       		.uleb128 0x9
 283 00df BF000000 		.4byte	0xbf
 284 00e3 09       		.uleb128 0x9
 285 00e4 EE000000 		.4byte	0xee
ARM GAS  /tmp/ccSfaPbk.s 			page 6


 286 00e8 09       		.uleb128 0x9
 287 00e9 2C000000 		.4byte	0x2c
 288 00ed 00       		.byte	0
 289 00ee 07       		.uleb128 0x7
 290 00ef 04       		.byte	0x4
 291 00f0 A2000000 		.4byte	0xa2
 292 00f4 07       		.uleb128 0x7
 293 00f5 04       		.byte	0x4
 294 00f6 D5000000 		.4byte	0xd5
 295 00fa 08       		.uleb128 0x8
 296 00fb 2C000000 		.4byte	0x2c
 297 00ff 13010000 		.4byte	0x113
 298 0103 09       		.uleb128 0x9
 299 0104 BF000000 		.4byte	0xbf
 300 0108 09       		.uleb128 0x9
 301 0109 CF000000 		.4byte	0xcf
 302 010d 09       		.uleb128 0x9
 303 010e 2C000000 		.4byte	0x2c
 304 0112 00       		.byte	0
 305 0113 07       		.uleb128 0x7
 306 0114 04       		.byte	0x4
 307 0115 FA000000 		.4byte	0xfa
 308 0119 08       		.uleb128 0x8
 309 011a B3000000 		.4byte	0xb3
 310 011e 2D010000 		.4byte	0x12d
 311 0122 09       		.uleb128 0x9
 312 0123 BF000000 		.4byte	0xbf
 313 0127 09       		.uleb128 0x9
 314 0128 96000000 		.4byte	0x96
 315 012c 00       		.byte	0
 316 012d 07       		.uleb128 0x7
 317 012e 04       		.byte	0x4
 318 012f 19010000 		.4byte	0x119
 319 0133 08       		.uleb128 0x8
 320 0134 B3000000 		.4byte	0xb3
 321 0138 42010000 		.4byte	0x142
 322 013c 09       		.uleb128 0x9
 323 013d BF000000 		.4byte	0xbf
 324 0141 00       		.byte	0
 325 0142 07       		.uleb128 0x7
 326 0143 04       		.byte	0x4
 327 0144 33010000 		.4byte	0x133
 328 0148 0A       		.uleb128 0xa
 329 0149 11000000 		.4byte	.LASF26
 330 014d 14       		.byte	0x14
 331 014e 06       		.byte	0x6
 332 014f 35       		.byte	0x35
 333 0150 08       		.byte	0x8
 334 0151 97010000 		.4byte	0x197
 335 0155 0B       		.uleb128 0xb
 336 0156 90000000 		.4byte	.LASF18
 337 015a 06       		.byte	0x6
 338 015b 36       		.byte	0x36
 339 015c 03       		.byte	0x3
 340 015d 2C000000 		.4byte	0x2c
 341 0161 00       		.byte	0
 342 0162 0B       		.uleb128 0xb
ARM GAS  /tmp/ccSfaPbk.s 			page 7


 343 0163 78000000 		.4byte	.LASF19
 344 0167 06       		.byte	0x6
 345 0168 36       		.byte	0x36
 346 0169 03       		.byte	0x3
 347 016a F4000000 		.4byte	0xf4
 348 016e 04       		.byte	0x4
 349 016f 0B       		.uleb128 0xb
 350 0170 A6000000 		.4byte	.LASF20
 351 0174 06       		.byte	0x6
 352 0175 36       		.byte	0x36
 353 0176 03       		.byte	0x3
 354 0177 13010000 		.4byte	0x113
 355 017b 08       		.byte	0x8
 356 017c 0C       		.uleb128 0xc
 357 017d 70757400 		.ascii	"put\000"
 358 0181 06       		.byte	0x6
 359 0182 36       		.byte	0x36
 360 0183 03       		.byte	0x3
 361 0184 2D010000 		.4byte	0x12d
 362 0188 0C       		.byte	0xc
 363 0189 0C       		.uleb128 0xc
 364 018a 67657400 		.ascii	"get\000"
 365 018e 06       		.byte	0x6
 366 018f 36       		.byte	0x36
 367 0190 03       		.byte	0x3
 368 0191 42010000 		.4byte	0x142
 369 0195 10       		.byte	0x10
 370 0196 00       		.byte	0
 371 0197 05       		.uleb128 0x5
 372 0198 48010000 		.4byte	0x148
 373 019c 0D       		.uleb128 0xd
 374 019d 04       		.byte	0x4
 375 019e 06       		.byte	0x6
 376 019f 3E       		.byte	0x3e
 377 01a0 09       		.byte	0x9
 378 01a1 B3010000 		.4byte	0x1b3
 379 01a5 0C       		.uleb128 0xc
 380 01a6 766D7400 		.ascii	"vmt\000"
 381 01aa 06       		.byte	0x6
 382 01ab 40       		.byte	0x40
 383 01ac 1F       		.byte	0x1f
 384 01ad B3010000 		.4byte	0x1b3
 385 01b1 00       		.byte	0
 386 01b2 00       		.byte	0
 387 01b3 07       		.uleb128 0x7
 388 01b4 04       		.byte	0x4
 389 01b5 97010000 		.4byte	0x197
 390 01b9 03       		.uleb128 0x3
 391 01ba 21020000 		.4byte	.LASF21
 392 01be 06       		.byte	0x6
 393 01bf 42       		.byte	0x42
 394 01c0 03       		.byte	0x3
 395 01c1 9C010000 		.4byte	0x19c
 396 01c5 0E       		.uleb128 0xe
 397 01c6 766D7400 		.ascii	"vmt\000"
 398 01ca 01       		.byte	0x1
 399 01cb 4D       		.byte	0x4d
ARM GAS  /tmp/ccSfaPbk.s 			page 8


 400 01cc 23       		.byte	0x23
 401 01cd 97010000 		.4byte	0x197
 402 01d1 05       		.uleb128 0x5
 403 01d2 03       		.byte	0x3
 404 01d3 00000000 		.4byte	vmt
 405 01d7 0F       		.uleb128 0xf
 406 01d8 3C000000 		.4byte	.LASF27
 407 01dc 01       		.byte	0x1
 408 01dd 58       		.byte	0x58
 409 01de 06       		.byte	0x6
 410 01df 00000000 		.4byte	.LFB338
 411 01e3 0C000000 		.4byte	.LFE338-.LFB338
 412 01e7 01       		.uleb128 0x1
 413 01e8 9C       		.byte	0x9c
 414 01e9 FC010000 		.4byte	0x1fc
 415 01ed 10       		.uleb128 0x10
 416 01ee 6E737000 		.ascii	"nsp\000"
 417 01f2 01       		.byte	0x1
 418 01f3 58       		.byte	0x58
 419 01f4 21       		.byte	0x21
 420 01f5 FC010000 		.4byte	0x1fc
 421 01f9 01       		.uleb128 0x1
 422 01fa 50       		.byte	0x50
 423 01fb 00       		.byte	0
 424 01fc 07       		.uleb128 0x7
 425 01fd 04       		.byte	0x4
 426 01fe B9010000 		.4byte	0x1b9
 427 0202 11       		.uleb128 0x11
 428 0203 67657400 		.ascii	"get\000"
 429 0207 01       		.byte	0x1
 430 0208 46       		.byte	0x46
 431 0209 0E       		.byte	0xe
 432 020a B3000000 		.4byte	0xb3
 433 020e 00000000 		.4byte	.LFB337
 434 0212 04000000 		.4byte	.LFE337-.LFB337
 435 0216 01       		.uleb128 0x1
 436 0217 9C       		.byte	0x9c
 437 0218 30020000 		.4byte	0x230
 438 021c 12       		.uleb128 0x12
 439 021d 697000   		.ascii	"ip\000"
 440 0220 01       		.byte	0x1
 441 0221 46       		.byte	0x46
 442 0222 18       		.byte	0x18
 443 0223 BF000000 		.4byte	0xbf
 444 0227 04000000 		.4byte	.LLST3
 445 022b 00000000 		.4byte	.LVUS3
 446 022f 00       		.byte	0
 447 0230 11       		.uleb128 0x11
 448 0231 70757400 		.ascii	"put\000"
 449 0235 01       		.byte	0x1
 450 0236 3E       		.byte	0x3e
 451 0237 0E       		.byte	0xe
 452 0238 B3000000 		.4byte	0xb3
 453 023c 00000000 		.4byte	.LFB336
 454 0240 04000000 		.4byte	.LFE336-.LFB336
 455 0244 01       		.uleb128 0x1
 456 0245 9C       		.byte	0x9c
ARM GAS  /tmp/ccSfaPbk.s 			page 9


 457 0246 6A020000 		.4byte	0x26a
 458 024a 12       		.uleb128 0x12
 459 024b 697000   		.ascii	"ip\000"
 460 024e 01       		.byte	0x1
 461 024f 3E       		.byte	0x3e
 462 0250 18       		.byte	0x18
 463 0251 BF000000 		.4byte	0xbf
 464 0255 29000000 		.4byte	.LLST2
 465 0259 25000000 		.4byte	.LVUS2
 466 025d 10       		.uleb128 0x10
 467 025e 6200     		.ascii	"b\000"
 468 0260 01       		.byte	0x1
 469 0261 3E       		.byte	0x3e
 470 0262 24       		.byte	0x24
 471 0263 96000000 		.4byte	0x96
 472 0267 01       		.uleb128 0x1
 473 0268 51       		.byte	0x51
 474 0269 00       		.byte	0
 475 026a 13       		.uleb128 0x13
 476 026b A0000000 		.4byte	.LASF22
 477 026f 01       		.byte	0x1
 478 0270 35       		.byte	0x35
 479 0271 0F       		.byte	0xf
 480 0272 2C000000 		.4byte	0x2c
 481 0276 00000000 		.4byte	.LFB335
 482 027a 04000000 		.4byte	.LFE335-.LFB335
 483 027e 01       		.uleb128 0x1
 484 027f 9C       		.byte	0x9c
 485 0280 B1020000 		.4byte	0x2b1
 486 0284 12       		.uleb128 0x12
 487 0285 697000   		.ascii	"ip\000"
 488 0288 01       		.byte	0x1
 489 0289 35       		.byte	0x35
 490 028a 1B       		.byte	0x1b
 491 028b BF000000 		.4byte	0xbf
 492 028f 4E000000 		.4byte	.LLST1
 493 0293 4A000000 		.4byte	.LVUS1
 494 0297 10       		.uleb128 0x10
 495 0298 627000   		.ascii	"bp\000"
 496 029b 01       		.byte	0x1
 497 029c 35       		.byte	0x35
 498 029d 28       		.byte	0x28
 499 029e CF000000 		.4byte	0xcf
 500 02a2 01       		.uleb128 0x1
 501 02a3 51       		.byte	0x51
 502 02a4 10       		.uleb128 0x10
 503 02a5 6E00     		.ascii	"n\000"
 504 02a7 01       		.byte	0x1
 505 02a8 35       		.byte	0x35
 506 02a9 33       		.byte	0x33
 507 02aa 2C000000 		.4byte	0x2c
 508 02ae 01       		.uleb128 0x1
 509 02af 52       		.byte	0x52
 510 02b0 00       		.byte	0
 511 02b1 14       		.uleb128 0x14
 512 02b2 35000000 		.4byte	.LASF28
 513 02b6 01       		.byte	0x1
ARM GAS  /tmp/ccSfaPbk.s 			page 10


 514 02b7 2D       		.byte	0x2d
 515 02b8 0F       		.byte	0xf
 516 02b9 2C000000 		.4byte	0x2c
 517 02bd 00000000 		.4byte	.LFB334
 518 02c1 04000000 		.4byte	.LFE334-.LFB334
 519 02c5 01       		.uleb128 0x1
 520 02c6 9C       		.byte	0x9c
 521 02c7 12       		.uleb128 0x12
 522 02c8 697000   		.ascii	"ip\000"
 523 02cb 01       		.byte	0x1
 524 02cc 2D       		.byte	0x2d
 525 02cd 1C       		.byte	0x1c
 526 02ce BF000000 		.4byte	0xbf
 527 02d2 73000000 		.4byte	.LLST0
 528 02d6 6F000000 		.4byte	.LVUS0
 529 02da 10       		.uleb128 0x10
 530 02db 627000   		.ascii	"bp\000"
 531 02de 01       		.byte	0x1
 532 02df 2D       		.byte	0x2d
 533 02e0 2F       		.byte	0x2f
 534 02e1 EE000000 		.4byte	0xee
 535 02e5 01       		.uleb128 0x1
 536 02e6 51       		.byte	0x51
 537 02e7 10       		.uleb128 0x10
 538 02e8 6E00     		.ascii	"n\000"
 539 02ea 01       		.byte	0x1
 540 02eb 2D       		.byte	0x2d
 541 02ec 3A       		.byte	0x3a
 542 02ed 2C000000 		.4byte	0x2c
 543 02f1 01       		.uleb128 0x1
 544 02f2 52       		.byte	0x52
 545 02f3 00       		.byte	0
 546 02f4 00       		.byte	0
 547              		.section	.debug_abbrev,"",%progbits
 548              	.Ldebug_abbrev0:
 549 0000 01       		.uleb128 0x1
 550 0001 11       		.uleb128 0x11
 551 0002 01       		.byte	0x1
 552 0003 25       		.uleb128 0x25
 553 0004 0E       		.uleb128 0xe
 554 0005 13       		.uleb128 0x13
 555 0006 0B       		.uleb128 0xb
 556 0007 03       		.uleb128 0x3
 557 0008 0E       		.uleb128 0xe
 558 0009 1B       		.uleb128 0x1b
 559 000a 0E       		.uleb128 0xe
 560 000b 55       		.uleb128 0x55
 561 000c 17       		.uleb128 0x17
 562 000d 11       		.uleb128 0x11
 563 000e 01       		.uleb128 0x1
 564 000f 10       		.uleb128 0x10
 565 0010 17       		.uleb128 0x17
 566 0011 00       		.byte	0
 567 0012 00       		.byte	0
 568 0013 02       		.uleb128 0x2
 569 0014 24       		.uleb128 0x24
 570 0015 00       		.byte	0
ARM GAS  /tmp/ccSfaPbk.s 			page 11


 571 0016 0B       		.uleb128 0xb
 572 0017 0B       		.uleb128 0xb
 573 0018 3E       		.uleb128 0x3e
 574 0019 0B       		.uleb128 0xb
 575 001a 03       		.uleb128 0x3
 576 001b 08       		.uleb128 0x8
 577 001c 00       		.byte	0
 578 001d 00       		.byte	0
 579 001e 03       		.uleb128 0x3
 580 001f 16       		.uleb128 0x16
 581 0020 00       		.byte	0
 582 0021 03       		.uleb128 0x3
 583 0022 0E       		.uleb128 0xe
 584 0023 3A       		.uleb128 0x3a
 585 0024 0B       		.uleb128 0xb
 586 0025 3B       		.uleb128 0x3b
 587 0026 0B       		.uleb128 0xb
 588 0027 39       		.uleb128 0x39
 589 0028 0B       		.uleb128 0xb
 590 0029 49       		.uleb128 0x49
 591 002a 13       		.uleb128 0x13
 592 002b 00       		.byte	0
 593 002c 00       		.byte	0
 594 002d 04       		.uleb128 0x4
 595 002e 24       		.uleb128 0x24
 596 002f 00       		.byte	0
 597 0030 0B       		.uleb128 0xb
 598 0031 0B       		.uleb128 0xb
 599 0032 3E       		.uleb128 0x3e
 600 0033 0B       		.uleb128 0xb
 601 0034 03       		.uleb128 0x3
 602 0035 0E       		.uleb128 0xe
 603 0036 00       		.byte	0
 604 0037 00       		.byte	0
 605 0038 05       		.uleb128 0x5
 606 0039 26       		.uleb128 0x26
 607 003a 00       		.byte	0
 608 003b 49       		.uleb128 0x49
 609 003c 13       		.uleb128 0x13
 610 003d 00       		.byte	0
 611 003e 00       		.byte	0
 612 003f 06       		.uleb128 0x6
 613 0040 0F       		.uleb128 0xf
 614 0041 00       		.byte	0
 615 0042 0B       		.uleb128 0xb
 616 0043 0B       		.uleb128 0xb
 617 0044 00       		.byte	0
 618 0045 00       		.byte	0
 619 0046 07       		.uleb128 0x7
 620 0047 0F       		.uleb128 0xf
 621 0048 00       		.byte	0
 622 0049 0B       		.uleb128 0xb
 623 004a 0B       		.uleb128 0xb
 624 004b 49       		.uleb128 0x49
 625 004c 13       		.uleb128 0x13
 626 004d 00       		.byte	0
 627 004e 00       		.byte	0
ARM GAS  /tmp/ccSfaPbk.s 			page 12


 628 004f 08       		.uleb128 0x8
 629 0050 15       		.uleb128 0x15
 630 0051 01       		.byte	0x1
 631 0052 27       		.uleb128 0x27
 632 0053 19       		.uleb128 0x19
 633 0054 49       		.uleb128 0x49
 634 0055 13       		.uleb128 0x13
 635 0056 01       		.uleb128 0x1
 636 0057 13       		.uleb128 0x13
 637 0058 00       		.byte	0
 638 0059 00       		.byte	0
 639 005a 09       		.uleb128 0x9
 640 005b 05       		.uleb128 0x5
 641 005c 00       		.byte	0
 642 005d 49       		.uleb128 0x49
 643 005e 13       		.uleb128 0x13
 644 005f 00       		.byte	0
 645 0060 00       		.byte	0
 646 0061 0A       		.uleb128 0xa
 647 0062 13       		.uleb128 0x13
 648 0063 01       		.byte	0x1
 649 0064 03       		.uleb128 0x3
 650 0065 0E       		.uleb128 0xe
 651 0066 0B       		.uleb128 0xb
 652 0067 0B       		.uleb128 0xb
 653 0068 3A       		.uleb128 0x3a
 654 0069 0B       		.uleb128 0xb
 655 006a 3B       		.uleb128 0x3b
 656 006b 0B       		.uleb128 0xb
 657 006c 39       		.uleb128 0x39
 658 006d 0B       		.uleb128 0xb
 659 006e 01       		.uleb128 0x1
 660 006f 13       		.uleb128 0x13
 661 0070 00       		.byte	0
 662 0071 00       		.byte	0
 663 0072 0B       		.uleb128 0xb
 664 0073 0D       		.uleb128 0xd
 665 0074 00       		.byte	0
 666 0075 03       		.uleb128 0x3
 667 0076 0E       		.uleb128 0xe
 668 0077 3A       		.uleb128 0x3a
 669 0078 0B       		.uleb128 0xb
 670 0079 3B       		.uleb128 0x3b
 671 007a 0B       		.uleb128 0xb
 672 007b 39       		.uleb128 0x39
 673 007c 0B       		.uleb128 0xb
 674 007d 49       		.uleb128 0x49
 675 007e 13       		.uleb128 0x13
 676 007f 38       		.uleb128 0x38
 677 0080 0B       		.uleb128 0xb
 678 0081 00       		.byte	0
 679 0082 00       		.byte	0
 680 0083 0C       		.uleb128 0xc
 681 0084 0D       		.uleb128 0xd
 682 0085 00       		.byte	0
 683 0086 03       		.uleb128 0x3
 684 0087 08       		.uleb128 0x8
ARM GAS  /tmp/ccSfaPbk.s 			page 13


 685 0088 3A       		.uleb128 0x3a
 686 0089 0B       		.uleb128 0xb
 687 008a 3B       		.uleb128 0x3b
 688 008b 0B       		.uleb128 0xb
 689 008c 39       		.uleb128 0x39
 690 008d 0B       		.uleb128 0xb
 691 008e 49       		.uleb128 0x49
 692 008f 13       		.uleb128 0x13
 693 0090 38       		.uleb128 0x38
 694 0091 0B       		.uleb128 0xb
 695 0092 00       		.byte	0
 696 0093 00       		.byte	0
 697 0094 0D       		.uleb128 0xd
 698 0095 13       		.uleb128 0x13
 699 0096 01       		.byte	0x1
 700 0097 0B       		.uleb128 0xb
 701 0098 0B       		.uleb128 0xb
 702 0099 3A       		.uleb128 0x3a
 703 009a 0B       		.uleb128 0xb
 704 009b 3B       		.uleb128 0x3b
 705 009c 0B       		.uleb128 0xb
 706 009d 39       		.uleb128 0x39
 707 009e 0B       		.uleb128 0xb
 708 009f 01       		.uleb128 0x1
 709 00a0 13       		.uleb128 0x13
 710 00a1 00       		.byte	0
 711 00a2 00       		.byte	0
 712 00a3 0E       		.uleb128 0xe
 713 00a4 34       		.uleb128 0x34
 714 00a5 00       		.byte	0
 715 00a6 03       		.uleb128 0x3
 716 00a7 08       		.uleb128 0x8
 717 00a8 3A       		.uleb128 0x3a
 718 00a9 0B       		.uleb128 0xb
 719 00aa 3B       		.uleb128 0x3b
 720 00ab 0B       		.uleb128 0xb
 721 00ac 39       		.uleb128 0x39
 722 00ad 0B       		.uleb128 0xb
 723 00ae 49       		.uleb128 0x49
 724 00af 13       		.uleb128 0x13
 725 00b0 02       		.uleb128 0x2
 726 00b1 18       		.uleb128 0x18
 727 00b2 00       		.byte	0
 728 00b3 00       		.byte	0
 729 00b4 0F       		.uleb128 0xf
 730 00b5 2E       		.uleb128 0x2e
 731 00b6 01       		.byte	0x1
 732 00b7 3F       		.uleb128 0x3f
 733 00b8 19       		.uleb128 0x19
 734 00b9 03       		.uleb128 0x3
 735 00ba 0E       		.uleb128 0xe
 736 00bb 3A       		.uleb128 0x3a
 737 00bc 0B       		.uleb128 0xb
 738 00bd 3B       		.uleb128 0x3b
 739 00be 0B       		.uleb128 0xb
 740 00bf 39       		.uleb128 0x39
 741 00c0 0B       		.uleb128 0xb
ARM GAS  /tmp/ccSfaPbk.s 			page 14


 742 00c1 27       		.uleb128 0x27
 743 00c2 19       		.uleb128 0x19
 744 00c3 11       		.uleb128 0x11
 745 00c4 01       		.uleb128 0x1
 746 00c5 12       		.uleb128 0x12
 747 00c6 06       		.uleb128 0x6
 748 00c7 40       		.uleb128 0x40
 749 00c8 18       		.uleb128 0x18
 750 00c9 9742     		.uleb128 0x2117
 751 00cb 19       		.uleb128 0x19
 752 00cc 01       		.uleb128 0x1
 753 00cd 13       		.uleb128 0x13
 754 00ce 00       		.byte	0
 755 00cf 00       		.byte	0
 756 00d0 10       		.uleb128 0x10
 757 00d1 05       		.uleb128 0x5
 758 00d2 00       		.byte	0
 759 00d3 03       		.uleb128 0x3
 760 00d4 08       		.uleb128 0x8
 761 00d5 3A       		.uleb128 0x3a
 762 00d6 0B       		.uleb128 0xb
 763 00d7 3B       		.uleb128 0x3b
 764 00d8 0B       		.uleb128 0xb
 765 00d9 39       		.uleb128 0x39
 766 00da 0B       		.uleb128 0xb
 767 00db 49       		.uleb128 0x49
 768 00dc 13       		.uleb128 0x13
 769 00dd 02       		.uleb128 0x2
 770 00de 18       		.uleb128 0x18
 771 00df 00       		.byte	0
 772 00e0 00       		.byte	0
 773 00e1 11       		.uleb128 0x11
 774 00e2 2E       		.uleb128 0x2e
 775 00e3 01       		.byte	0x1
 776 00e4 03       		.uleb128 0x3
 777 00e5 08       		.uleb128 0x8
 778 00e6 3A       		.uleb128 0x3a
 779 00e7 0B       		.uleb128 0xb
 780 00e8 3B       		.uleb128 0x3b
 781 00e9 0B       		.uleb128 0xb
 782 00ea 39       		.uleb128 0x39
 783 00eb 0B       		.uleb128 0xb
 784 00ec 27       		.uleb128 0x27
 785 00ed 19       		.uleb128 0x19
 786 00ee 49       		.uleb128 0x49
 787 00ef 13       		.uleb128 0x13
 788 00f0 11       		.uleb128 0x11
 789 00f1 01       		.uleb128 0x1
 790 00f2 12       		.uleb128 0x12
 791 00f3 06       		.uleb128 0x6
 792 00f4 40       		.uleb128 0x40
 793 00f5 18       		.uleb128 0x18
 794 00f6 9742     		.uleb128 0x2117
 795 00f8 19       		.uleb128 0x19
 796 00f9 01       		.uleb128 0x1
 797 00fa 13       		.uleb128 0x13
 798 00fb 00       		.byte	0
ARM GAS  /tmp/ccSfaPbk.s 			page 15


 799 00fc 00       		.byte	0
 800 00fd 12       		.uleb128 0x12
 801 00fe 05       		.uleb128 0x5
 802 00ff 00       		.byte	0
 803 0100 03       		.uleb128 0x3
 804 0101 08       		.uleb128 0x8
 805 0102 3A       		.uleb128 0x3a
 806 0103 0B       		.uleb128 0xb
 807 0104 3B       		.uleb128 0x3b
 808 0105 0B       		.uleb128 0xb
 809 0106 39       		.uleb128 0x39
 810 0107 0B       		.uleb128 0xb
 811 0108 49       		.uleb128 0x49
 812 0109 13       		.uleb128 0x13
 813 010a 02       		.uleb128 0x2
 814 010b 17       		.uleb128 0x17
 815 010c B742     		.uleb128 0x2137
 816 010e 17       		.uleb128 0x17
 817 010f 00       		.byte	0
 818 0110 00       		.byte	0
 819 0111 13       		.uleb128 0x13
 820 0112 2E       		.uleb128 0x2e
 821 0113 01       		.byte	0x1
 822 0114 03       		.uleb128 0x3
 823 0115 0E       		.uleb128 0xe
 824 0116 3A       		.uleb128 0x3a
 825 0117 0B       		.uleb128 0xb
 826 0118 3B       		.uleb128 0x3b
 827 0119 0B       		.uleb128 0xb
 828 011a 39       		.uleb128 0x39
 829 011b 0B       		.uleb128 0xb
 830 011c 27       		.uleb128 0x27
 831 011d 19       		.uleb128 0x19
 832 011e 49       		.uleb128 0x49
 833 011f 13       		.uleb128 0x13
 834 0120 11       		.uleb128 0x11
 835 0121 01       		.uleb128 0x1
 836 0122 12       		.uleb128 0x12
 837 0123 06       		.uleb128 0x6
 838 0124 40       		.uleb128 0x40
 839 0125 18       		.uleb128 0x18
 840 0126 9742     		.uleb128 0x2117
 841 0128 19       		.uleb128 0x19
 842 0129 01       		.uleb128 0x1
 843 012a 13       		.uleb128 0x13
 844 012b 00       		.byte	0
 845 012c 00       		.byte	0
 846 012d 14       		.uleb128 0x14
 847 012e 2E       		.uleb128 0x2e
 848 012f 01       		.byte	0x1
 849 0130 03       		.uleb128 0x3
 850 0131 0E       		.uleb128 0xe
 851 0132 3A       		.uleb128 0x3a
 852 0133 0B       		.uleb128 0xb
 853 0134 3B       		.uleb128 0x3b
 854 0135 0B       		.uleb128 0xb
 855 0136 39       		.uleb128 0x39
ARM GAS  /tmp/ccSfaPbk.s 			page 16


 856 0137 0B       		.uleb128 0xb
 857 0138 27       		.uleb128 0x27
 858 0139 19       		.uleb128 0x19
 859 013a 49       		.uleb128 0x49
 860 013b 13       		.uleb128 0x13
 861 013c 11       		.uleb128 0x11
 862 013d 01       		.uleb128 0x1
 863 013e 12       		.uleb128 0x12
 864 013f 06       		.uleb128 0x6
 865 0140 40       		.uleb128 0x40
 866 0141 18       		.uleb128 0x18
 867 0142 9742     		.uleb128 0x2117
 868 0144 19       		.uleb128 0x19
 869 0145 00       		.byte	0
 870 0146 00       		.byte	0
 871 0147 00       		.byte	0
 872              		.section	.debug_loc,"",%progbits
 873              	.Ldebug_loc0:
 874              	.LVUS3:
 875 0000 00       		.uleb128 0
 876 0001 00       		.uleb128 .LVU23
 877 0002 00       		.uleb128 .LVU23
 878 0003 00       		.uleb128 0
 879              	.LLST3:
 880 0004 00000000 		.4byte	.LVL6
 881 0008 02000000 		.4byte	.LVL7
 882 000c 0100     		.2byte	0x1
 883 000e 50       		.byte	0x50
 884 000f 02000000 		.4byte	.LVL7
 885 0013 04000000 		.4byte	.LFE337
 886 0017 0400     		.2byte	0x4
 887 0019 F3       		.byte	0xf3
 888 001a 01       		.uleb128 0x1
 889 001b 50       		.byte	0x50
 890 001c 9F       		.byte	0x9f
 891 001d 00000000 		.4byte	0
 892 0021 00000000 		.4byte	0
 893              	.LVUS2:
 894 0025 00       		.uleb128 0
 895 0026 00       		.uleb128 .LVU18
 896 0027 00       		.uleb128 .LVU18
 897 0028 00       		.uleb128 0
 898              	.LLST2:
 899 0029 00000000 		.4byte	.LVL4
 900 002d 02000000 		.4byte	.LVL5
 901 0031 0100     		.2byte	0x1
 902 0033 50       		.byte	0x50
 903 0034 02000000 		.4byte	.LVL5
 904 0038 04000000 		.4byte	.LFE336
 905 003c 0400     		.2byte	0x4
 906 003e F3       		.byte	0xf3
 907 003f 01       		.uleb128 0x1
 908 0040 50       		.byte	0x50
 909 0041 9F       		.byte	0x9f
 910 0042 00000000 		.4byte	0
 911 0046 00000000 		.4byte	0
 912              	.LVUS1:
ARM GAS  /tmp/ccSfaPbk.s 			page 17


 913 004a 00       		.uleb128 0
 914 004b 00       		.uleb128 .LVU12
 915 004c 00       		.uleb128 .LVU12
 916 004d 00       		.uleb128 0
 917              	.LLST1:
 918 004e 00000000 		.4byte	.LVL2
 919 0052 02000000 		.4byte	.LVL3
 920 0056 0100     		.2byte	0x1
 921 0058 50       		.byte	0x50
 922 0059 02000000 		.4byte	.LVL3
 923 005d 04000000 		.4byte	.LFE335
 924 0061 0400     		.2byte	0x4
 925 0063 F3       		.byte	0xf3
 926 0064 01       		.uleb128 0x1
 927 0065 50       		.byte	0x50
 928 0066 9F       		.byte	0x9f
 929 0067 00000000 		.4byte	0
 930 006b 00000000 		.4byte	0
 931              	.LVUS0:
 932 006f 00       		.uleb128 0
 933 0070 00       		.uleb128 .LVU5
 934 0071 00       		.uleb128 .LVU5
 935 0072 00       		.uleb128 0
 936              	.LLST0:
 937 0073 00000000 		.4byte	.LVL0
 938 0077 02000000 		.4byte	.LVL1
 939 007b 0100     		.2byte	0x1
 940 007d 50       		.byte	0x50
 941 007e 02000000 		.4byte	.LVL1
 942 0082 04000000 		.4byte	.LFE334
 943 0086 0400     		.2byte	0x4
 944 0088 F3       		.byte	0xf3
 945 0089 01       		.uleb128 0x1
 946 008a 50       		.byte	0x50
 947 008b 9F       		.byte	0x9f
 948 008c 00000000 		.4byte	0
 949 0090 00000000 		.4byte	0
 950              		.section	.debug_aranges,"",%progbits
 951 0000 3C000000 		.4byte	0x3c
 952 0004 0200     		.2byte	0x2
 953 0006 00000000 		.4byte	.Ldebug_info0
 954 000a 04       		.byte	0x4
 955 000b 00       		.byte	0
 956 000c 0000     		.2byte	0
 957 000e 0000     		.2byte	0
 958 0010 00000000 		.4byte	.LFB334
 959 0014 04000000 		.4byte	.LFE334-.LFB334
 960 0018 00000000 		.4byte	.LFB335
 961 001c 04000000 		.4byte	.LFE335-.LFB335
 962 0020 00000000 		.4byte	.LFB336
 963 0024 04000000 		.4byte	.LFE336-.LFB336
 964 0028 00000000 		.4byte	.LFB337
 965 002c 04000000 		.4byte	.LFE337-.LFB337
 966 0030 00000000 		.4byte	.LFB338
 967 0034 0C000000 		.4byte	.LFE338-.LFB338
 968 0038 00000000 		.4byte	0
 969 003c 00000000 		.4byte	0
ARM GAS  /tmp/ccSfaPbk.s 			page 18


 970              		.section	.debug_ranges,"",%progbits
 971              	.Ldebug_ranges0:
 972 0000 00000000 		.4byte	.LFB334
 973 0004 04000000 		.4byte	.LFE334
 974 0008 00000000 		.4byte	.LFB335
 975 000c 04000000 		.4byte	.LFE335
 976 0010 00000000 		.4byte	.LFB336
 977 0014 04000000 		.4byte	.LFE336
 978 0018 00000000 		.4byte	.LFB337
 979 001c 04000000 		.4byte	.LFE337
 980 0020 00000000 		.4byte	.LFB338
 981 0024 0C000000 		.4byte	.LFE338
 982 0028 00000000 		.4byte	0
 983 002c 00000000 		.4byte	0
 984              		.section	.debug_line,"",%progbits
 985              	.Ldebug_line0:
 986 0000 37020000 		.section	.debug_str,"MS",%progbits,1
 986      0300A801 
 986      00000201 
 986      FB0E0D00 
 986      01010101 
 987              	.LASF5:
 988 0000 5F5F7569 		.ascii	"__uint8_t\000"
 988      6E74385F 
 988      7400
 989              	.LASF4:
 990 000a 73697A65 		.ascii	"size_t\000"
 990      5F7400
 991              	.LASF26:
 992 0011 4E756C6C 		.ascii	"NullStreamVMT\000"
 992      53747265 
 992      616D564D 
 992      5400
 993              	.LASF9:
 994 001f 5F5F696E 		.ascii	"__int32_t\000"
 994      7433325F 
 994      7400
 995              	.LASF2:
 996 0029 6C6F6E67 		.ascii	"long double\000"
 996      20646F75 
 996      626C6500 
 997              	.LASF28:
 998 0035 77726974 		.ascii	"writes\000"
 998      657300
 999              	.LASF27:
 1000 003c 6E756C6C 		.ascii	"nullObjectInit\000"
 1000      4F626A65 
 1000      6374496E 
 1000      697400
 1001              	.LASF3:
 1002 004b 7369676E 		.ascii	"signed char\000"
 1002      65642063 
 1002      68617200 
 1003              	.LASF6:
 1004 0057 756E7369 		.ascii	"unsigned char\000"
 1004      676E6564 
 1004      20636861 
ARM GAS  /tmp/ccSfaPbk.s 			page 19


 1004      7200
 1005              	.LASF8:
 1006 0065 73686F72 		.ascii	"short unsigned int\000"
 1006      7420756E 
 1006      7369676E 
 1006      65642069 
 1006      6E7400
 1007              	.LASF19:
 1008 0078 77726974 		.ascii	"write\000"
 1008      6500
 1009              	.LASF11:
 1010 007e 6C6F6E67 		.ascii	"long unsigned int\000"
 1010      20756E73 
 1010      69676E65 
 1010      6420696E 
 1010      7400
 1011              	.LASF18:
 1012 0090 696E7374 		.ascii	"instance_offset\000"
 1012      616E6365 
 1012      5F6F6666 
 1012      73657400 
 1013              	.LASF22:
 1014 00a0 72656164 		.ascii	"reads\000"
 1014      7300
 1015              	.LASF20:
 1016 00a6 72656164 		.ascii	"read\000"
 1016      00
 1017              	.LASF0:
 1018 00ab 756E7369 		.ascii	"unsigned int\000"
 1018      676E6564 
 1018      20696E74 
 1018      00
 1019              	.LASF16:
 1020 00b8 63686172 		.ascii	"char\000"
 1020      00
 1021              	.LASF13:
 1022 00bd 75696E74 		.ascii	"uint8_t\000"
 1022      385F7400 
 1023              	.LASF15:
 1024 00c5 6D73675F 		.ascii	"msg_t\000"
 1024      7400
 1025              	.LASF25:
 1026 00cb 2F686F6D 		.ascii	"/home/mahathi/mathur407_payload2/4.0.7/build/CUAVv5"
 1026      652F6D61 
 1026      68617468 
 1026      692F6D61 
 1026      74687572 
 1027 00fe 00       		.ascii	"\000"
 1028              	.LASF14:
 1029 00ff 696E7433 		.ascii	"int32_t\000"
 1029      325F7400 
 1030              	.LASF1:
 1031 0107 6C6F6E67 		.ascii	"long long int\000"
 1031      206C6F6E 
 1031      6720696E 
 1031      7400
 1032              	.LASF23:
ARM GAS  /tmp/ccSfaPbk.s 			page 20


 1033 0115 474E5520 		.ascii	"GNU C17 10.2.1 20201103 (release) -mcpu=cortex-m7 -"
 1033      43313720 
 1033      31302E32 
 1033      2E312032 
 1033      30323031 
 1034 0148 6D666C6F 		.ascii	"mfloat-abi=hard -mfpu=fpv4-sp-d16 -mno-thumb-interw"
 1034      61742D61 
 1034      62693D68 
 1034      61726420 
 1034      2D6D6670 
 1035 017b 6F726B20 		.ascii	"ork -mthumb -march=armv7e-m+fp -g -Os -fomit-frame-"
 1035      2D6D7468 
 1035      756D6220 
 1035      2D6D6172 
 1035      63683D61 
 1036 01ae 706F696E 		.ascii	"pointer -falign-functions=16 -ffunction-sections -f"
 1036      74657220 
 1036      2D66616C 
 1036      69676E2D 
 1036      66756E63 
 1037 01e1 64617461 		.ascii	"data-sections -fno-common -fsingle-precision-consta"
 1037      2D736563 
 1037      74696F6E 
 1037      73202D66 
 1037      6E6F2D63 
 1038 0214 6E7400   		.ascii	"nt\000"
 1039              	.LASF7:
 1040 0217 73686F72 		.ascii	"short int\000"
 1040      7420696E 
 1040      7400
 1041              	.LASF21:
 1042 0221 4E756C6C 		.ascii	"NullStream\000"
 1042      53747265 
 1042      616D00
 1043              	.LASF10:
 1044 022c 6C6F6E67 		.ascii	"long int\000"
 1044      20696E74 
 1044      00
 1045              	.LASF17:
 1046 0235 5F426F6F 		.ascii	"_Bool\000"
 1046      6C00
 1047              	.LASF12:
 1048 023b 6C6F6E67 		.ascii	"long long unsigned int\000"
 1048      206C6F6E 
 1048      6720756E 
 1048      7369676E 
 1048      65642069 
 1049              	.LASF24:
 1050 0252 2E2E2F2E 		.ascii	"../../modules/ChibiOS/os/hal/lib/streams/nullstream"
 1050      2E2F6D6F 
 1050      64756C65 
 1050      732F4368 
 1050      6962694F 
 1051 0285 732E6300 		.ascii	"s.c\000"
 1052              		.ident	"GCC: (GNU Arm Embedded Toolchain 10-2020-q4-major) 10.2.1 20201103 (release)"
ARM GAS  /tmp/ccSfaPbk.s 			page 21


DEFINED SYMBOLS
                            *ABS*:0000000000000000 nullstreams.c
     /tmp/ccSfaPbk.s:18     .text.writes:0000000000000000 $t
     /tmp/ccSfaPbk.s:25     .text.writes:0000000000000000 writes
     /tmp/ccSfaPbk.s:46     .text.reads:0000000000000000 $t
     /tmp/ccSfaPbk.s:52     .text.reads:0000000000000000 reads
     /tmp/ccSfaPbk.s:73     .text.put:0000000000000000 $t
     /tmp/ccSfaPbk.s:79     .text.put:0000000000000000 put
     /tmp/ccSfaPbk.s:99     .text.get:0000000000000000 $t
     /tmp/ccSfaPbk.s:105    .text.get:0000000000000000 get
     /tmp/ccSfaPbk.s:124    .text.nullObjectInit:0000000000000000 $t
     /tmp/ccSfaPbk.s:131    .text.nullObjectInit:0000000000000000 nullObjectInit
     /tmp/ccSfaPbk.s:148    .text.nullObjectInit:0000000000000008 $d
     /tmp/ccSfaPbk.s:153    .rodata.vmt:0000000000000000 $d
     /tmp/ccSfaPbk.s:157    .rodata.vmt:0000000000000000 vmt

NO UNDEFINED SYMBOLS
