ARM GAS  /tmp/ccmqySKt.s 			page 1


   1              		.cpu cortex-m7
   2              		.eabi_attribute 27, 1
   3              		.eabi_attribute 28, 1
   4              		.eabi_attribute 20, 1
   5              		.eabi_attribute 21, 1
   6              		.eabi_attribute 23, 3
   7              		.eabi_attribute 24, 1
   8              		.eabi_attribute 25, 1
   9              		.eabi_attribute 26, 1
  10              		.eabi_attribute 30, 4
  11              		.eabi_attribute 34, 1
  12              		.eabi_attribute 18, 4
  13              		.file	"stm32_isr.c"
  14              		.text
  15              	.Ltext0:
  16              		.cfi_sections	.debug_frame
  17              		.section	.text.Vector58,"ax",%progbits
  18              		.align	1
  19              		.global	Vector58
  20              		.arch armv7e-m
  21              		.syntax unified
  22              		.thumb
  23              		.thumb_func
  24              		.fpu fpv4-sp-d16
  25              		.type	Vector58, %function
  26              	Vector58:
  27              	.LFB334:
  28              		.file 1 "../../modules/ChibiOS/os/hal/ports/STM32/STM32F7xx/stm32_isr.c"
  29              		.loc 1 61 28 view -0
  30              		.cfi_startproc
  31              		@ args = 0, pretend = 0, frame = 0
  32              		@ frame_needed = 0, uses_anonymous_args = 0
  33              		.loc 1 62 3 view .LVU1
  34              		.loc 1 64 3 view .LVU2
  35              		.loc 1 64 3 view .LVU3
  36              		.loc 1 64 3 view .LVU4
  37              		.loc 1 64 3 view .LVU5
  38              		.loc 1 61 28 is_stmt 0 view .LVU6
  39 0000 08B5     		push	{r3, lr}
  40              		.cfi_def_cfa_offset 8
  41              		.cfi_offset 3, -8
  42              		.cfi_offset 14, -4
  43              		.loc 1 64 3 view .LVU7
  44 0002 FFF7FEFF 		bl	_stats_increase_irq
  45              	.LVL0:
  46              		.loc 1 64 3 is_stmt 1 view .LVU8
  47              		.loc 1 64 22 view .LVU9
  48              		.loc 1 66 3 view .LVU10
  49              		.loc 1 66 6 is_stmt 0 view .LVU11
  50 0006 084A     		ldr	r2, .L9
  51 0008 5169     		ldr	r1, [r2, #20]
  52              	.LVL1:
  53              		.loc 1 67 3 is_stmt 1 view .LVU12
  54              		.loc 1 67 13 is_stmt 0 view .LVU13
  55 000a 1368     		ldr	r3, [r2]
  56 000c 0B40     		ands	r3, r3, r1
  57              		.loc 1 67 6 view .LVU14
ARM GAS  /tmp/ccmqySKt.s 			page 2


  58 000e 03F00103 		and	r3, r3, #1
  59              	.LVL2:
  60              		.loc 1 68 3 is_stmt 1 view .LVU15
  61              		.loc 1 68 12 is_stmt 0 view .LVU16
  62 0012 5361     		str	r3, [r2, #20]
  63              		.loc 1 70 3 is_stmt 1 view .LVU17
  64 0014 23B1     		cbz	r3, .L2
  65              		.loc 1 70 3 discriminator 1 view .LVU18
  66              		.loc 1 70 3 discriminator 1 view .LVU19
  67 0016 054A     		ldr	r2, .L9+4
  68 0018 1368     		ldr	r3, [r2]
  69              	.LVL3:
  70              		.loc 1 70 3 is_stmt 0 discriminator 1 view .LVU20
  71 001a 0BB1     		cbz	r3, .L2
  72              		.loc 1 70 3 is_stmt 1 discriminator 3 view .LVU21
  73 001c 5068     		ldr	r0, [r2, #4]
  74 001e 9847     		blx	r3
  75              	.LVL4:
  76              	.L2:
  77              		.loc 1 70 3 discriminator 5 view .LVU22
  78              		.loc 1 70 24 discriminator 5 view .LVU23
  79              		.loc 1 72 3 discriminator 5 view .LVU24
  80              		.loc 1 72 3 discriminator 5 view .LVU25
  81              		.loc 1 72 3 discriminator 5 view .LVU26
  82              		.loc 1 72 3 discriminator 5 view .LVU27
  83              		.loc 1 72 3 discriminator 5 view .LVU28
  84              		.loc 1 73 1 is_stmt 0 discriminator 5 view .LVU29
  85 0020 BDE80840 		pop	{r3, lr}
  86              		.cfi_restore 14
  87              		.cfi_restore 3
  88              		.cfi_def_cfa_offset 0
  89              		.loc 1 72 3 discriminator 5 view .LVU30
  90 0024 FFF7FEBF 		b	_port_irq_epilogue
  91              	.LVL5:
  92              	.L10:
  93              		.align	2
  94              	.L9:
  95 0028 003C0140 		.word	1073822720
  96 002c 00000000 		.word	_pal_events
  97              		.cfi_endproc
  98              	.LFE334:
  99              		.size	Vector58, .-Vector58
 100              		.section	.text.Vector5C,"ax",%progbits
 101              		.align	1
 102              		.global	Vector5C
 103              		.syntax unified
 104              		.thumb
 105              		.thumb_func
 106              		.fpu fpv4-sp-d16
 107              		.type	Vector5C, %function
 108              	Vector5C:
 109              	.LFB335:
 110              		.loc 1 82 28 is_stmt 1 view -0
 111              		.cfi_startproc
 112              		@ args = 0, pretend = 0, frame = 0
 113              		@ frame_needed = 0, uses_anonymous_args = 0
 114              		.loc 1 83 3 view .LVU32
ARM GAS  /tmp/ccmqySKt.s 			page 3


 115              		.loc 1 85 3 view .LVU33
 116              		.loc 1 85 3 view .LVU34
 117              		.loc 1 85 3 view .LVU35
 118              		.loc 1 85 3 view .LVU36
 119              		.loc 1 82 28 is_stmt 0 view .LVU37
 120 0000 08B5     		push	{r3, lr}
 121              		.cfi_def_cfa_offset 8
 122              		.cfi_offset 3, -8
 123              		.cfi_offset 14, -4
 124              		.loc 1 85 3 view .LVU38
 125 0002 FFF7FEFF 		bl	_stats_increase_irq
 126              	.LVL6:
 127              		.loc 1 85 3 is_stmt 1 view .LVU39
 128              		.loc 1 85 22 view .LVU40
 129              		.loc 1 87 3 view .LVU41
 130              		.loc 1 87 6 is_stmt 0 view .LVU42
 131 0006 084A     		ldr	r2, .L19
 132 0008 5169     		ldr	r1, [r2, #20]
 133              	.LVL7:
 134              		.loc 1 88 3 is_stmt 1 view .LVU43
 135              		.loc 1 88 13 is_stmt 0 view .LVU44
 136 000a 1368     		ldr	r3, [r2]
 137 000c 0B40     		ands	r3, r3, r1
 138              		.loc 1 88 6 view .LVU45
 139 000e 03F00203 		and	r3, r3, #2
 140              	.LVL8:
 141              		.loc 1 89 3 is_stmt 1 view .LVU46
 142              		.loc 1 89 12 is_stmt 0 view .LVU47
 143 0012 5361     		str	r3, [r2, #20]
 144              		.loc 1 91 3 is_stmt 1 view .LVU48
 145 0014 23B1     		cbz	r3, .L12
 146              		.loc 1 91 3 discriminator 1 view .LVU49
 147              		.loc 1 91 3 discriminator 1 view .LVU50
 148 0016 054A     		ldr	r2, .L19+4
 149 0018 9368     		ldr	r3, [r2, #8]
 150              	.LVL9:
 151              		.loc 1 91 3 is_stmt 0 discriminator 1 view .LVU51
 152 001a 0BB1     		cbz	r3, .L12
 153              		.loc 1 91 3 is_stmt 1 discriminator 3 view .LVU52
 154 001c D068     		ldr	r0, [r2, #12]
 155 001e 9847     		blx	r3
 156              	.LVL10:
 157              	.L12:
 158              		.loc 1 91 3 discriminator 5 view .LVU53
 159              		.loc 1 91 24 discriminator 5 view .LVU54
 160              		.loc 1 93 3 discriminator 5 view .LVU55
 161              		.loc 1 93 3 discriminator 5 view .LVU56
 162              		.loc 1 93 3 discriminator 5 view .LVU57
 163              		.loc 1 93 3 discriminator 5 view .LVU58
 164              		.loc 1 93 3 discriminator 5 view .LVU59
 165              		.loc 1 94 1 is_stmt 0 discriminator 5 view .LVU60
 166 0020 BDE80840 		pop	{r3, lr}
 167              		.cfi_restore 14
 168              		.cfi_restore 3
 169              		.cfi_def_cfa_offset 0
 170              		.loc 1 93 3 discriminator 5 view .LVU61
 171 0024 FFF7FEBF 		b	_port_irq_epilogue
ARM GAS  /tmp/ccmqySKt.s 			page 4


 172              	.LVL11:
 173              	.L20:
 174              		.align	2
 175              	.L19:
 176 0028 003C0140 		.word	1073822720
 177 002c 00000000 		.word	_pal_events
 178              		.cfi_endproc
 179              	.LFE335:
 180              		.size	Vector5C, .-Vector5C
 181              		.section	.text.Vector60,"ax",%progbits
 182              		.align	1
 183              		.global	Vector60
 184              		.syntax unified
 185              		.thumb
 186              		.thumb_func
 187              		.fpu fpv4-sp-d16
 188              		.type	Vector60, %function
 189              	Vector60:
 190              	.LFB336:
 191              		.loc 1 103 28 is_stmt 1 view -0
 192              		.cfi_startproc
 193              		@ args = 0, pretend = 0, frame = 0
 194              		@ frame_needed = 0, uses_anonymous_args = 0
 195              		.loc 1 104 3 view .LVU63
 196              		.loc 1 106 3 view .LVU64
 197              		.loc 1 106 3 view .LVU65
 198              		.loc 1 106 3 view .LVU66
 199              		.loc 1 106 3 view .LVU67
 200              		.loc 1 103 28 is_stmt 0 view .LVU68
 201 0000 08B5     		push	{r3, lr}
 202              		.cfi_def_cfa_offset 8
 203              		.cfi_offset 3, -8
 204              		.cfi_offset 14, -4
 205              		.loc 1 106 3 view .LVU69
 206 0002 FFF7FEFF 		bl	_stats_increase_irq
 207              	.LVL12:
 208              		.loc 1 106 3 is_stmt 1 view .LVU70
 209              		.loc 1 106 22 view .LVU71
 210              		.loc 1 108 3 view .LVU72
 211              		.loc 1 108 6 is_stmt 0 view .LVU73
 212 0006 084A     		ldr	r2, .L29
 213 0008 5169     		ldr	r1, [r2, #20]
 214              	.LVL13:
 215              		.loc 1 109 3 is_stmt 1 view .LVU74
 216              		.loc 1 109 13 is_stmt 0 view .LVU75
 217 000a 1368     		ldr	r3, [r2]
 218 000c 0B40     		ands	r3, r3, r1
 219              		.loc 1 109 6 view .LVU76
 220 000e 03F00403 		and	r3, r3, #4
 221              	.LVL14:
 222              		.loc 1 110 3 is_stmt 1 view .LVU77
 223              		.loc 1 110 12 is_stmt 0 view .LVU78
 224 0012 5361     		str	r3, [r2, #20]
 225              		.loc 1 112 3 is_stmt 1 view .LVU79
 226 0014 23B1     		cbz	r3, .L22
 227              		.loc 1 112 3 discriminator 1 view .LVU80
 228              		.loc 1 112 3 discriminator 1 view .LVU81
ARM GAS  /tmp/ccmqySKt.s 			page 5


 229 0016 054A     		ldr	r2, .L29+4
 230 0018 1369     		ldr	r3, [r2, #16]
 231              	.LVL15:
 232              		.loc 1 112 3 is_stmt 0 discriminator 1 view .LVU82
 233 001a 0BB1     		cbz	r3, .L22
 234              		.loc 1 112 3 is_stmt 1 discriminator 3 view .LVU83
 235 001c 5069     		ldr	r0, [r2, #20]
 236 001e 9847     		blx	r3
 237              	.LVL16:
 238              	.L22:
 239              		.loc 1 112 3 discriminator 5 view .LVU84
 240              		.loc 1 112 24 discriminator 5 view .LVU85
 241              		.loc 1 114 3 discriminator 5 view .LVU86
 242              		.loc 1 114 3 discriminator 5 view .LVU87
 243              		.loc 1 114 3 discriminator 5 view .LVU88
 244              		.loc 1 114 3 discriminator 5 view .LVU89
 245              		.loc 1 114 3 discriminator 5 view .LVU90
 246              		.loc 1 115 1 is_stmt 0 discriminator 5 view .LVU91
 247 0020 BDE80840 		pop	{r3, lr}
 248              		.cfi_restore 14
 249              		.cfi_restore 3
 250              		.cfi_def_cfa_offset 0
 251              		.loc 1 114 3 discriminator 5 view .LVU92
 252 0024 FFF7FEBF 		b	_port_irq_epilogue
 253              	.LVL17:
 254              	.L30:
 255              		.align	2
 256              	.L29:
 257 0028 003C0140 		.word	1073822720
 258 002c 00000000 		.word	_pal_events
 259              		.cfi_endproc
 260              	.LFE336:
 261              		.size	Vector60, .-Vector60
 262              		.section	.text.Vector64,"ax",%progbits
 263              		.align	1
 264              		.global	Vector64
 265              		.syntax unified
 266              		.thumb
 267              		.thumb_func
 268              		.fpu fpv4-sp-d16
 269              		.type	Vector64, %function
 270              	Vector64:
 271              	.LFB337:
 272              		.loc 1 124 28 is_stmt 1 view -0
 273              		.cfi_startproc
 274              		@ args = 0, pretend = 0, frame = 0
 275              		@ frame_needed = 0, uses_anonymous_args = 0
 276              		.loc 1 125 3 view .LVU94
 277              		.loc 1 127 3 view .LVU95
 278              		.loc 1 127 3 view .LVU96
 279              		.loc 1 127 3 view .LVU97
 280              		.loc 1 127 3 view .LVU98
 281              		.loc 1 124 28 is_stmt 0 view .LVU99
 282 0000 08B5     		push	{r3, lr}
 283              		.cfi_def_cfa_offset 8
 284              		.cfi_offset 3, -8
 285              		.cfi_offset 14, -4
ARM GAS  /tmp/ccmqySKt.s 			page 6


 286              		.loc 1 127 3 view .LVU100
 287 0002 FFF7FEFF 		bl	_stats_increase_irq
 288              	.LVL18:
 289              		.loc 1 127 3 is_stmt 1 view .LVU101
 290              		.loc 1 127 22 view .LVU102
 291              		.loc 1 129 3 view .LVU103
 292              		.loc 1 129 6 is_stmt 0 view .LVU104
 293 0006 084A     		ldr	r2, .L39
 294 0008 5169     		ldr	r1, [r2, #20]
 295              	.LVL19:
 296              		.loc 1 130 3 is_stmt 1 view .LVU105
 297              		.loc 1 130 13 is_stmt 0 view .LVU106
 298 000a 1368     		ldr	r3, [r2]
 299 000c 0B40     		ands	r3, r3, r1
 300              		.loc 1 130 6 view .LVU107
 301 000e 03F00803 		and	r3, r3, #8
 302              	.LVL20:
 303              		.loc 1 131 3 is_stmt 1 view .LVU108
 304              		.loc 1 131 12 is_stmt 0 view .LVU109
 305 0012 5361     		str	r3, [r2, #20]
 306              		.loc 1 133 3 is_stmt 1 view .LVU110
 307 0014 23B1     		cbz	r3, .L32
 308              		.loc 1 133 3 discriminator 1 view .LVU111
 309              		.loc 1 133 3 discriminator 1 view .LVU112
 310 0016 054A     		ldr	r2, .L39+4
 311 0018 9369     		ldr	r3, [r2, #24]
 312              	.LVL21:
 313              		.loc 1 133 3 is_stmt 0 discriminator 1 view .LVU113
 314 001a 0BB1     		cbz	r3, .L32
 315              		.loc 1 133 3 is_stmt 1 discriminator 3 view .LVU114
 316 001c D069     		ldr	r0, [r2, #28]
 317 001e 9847     		blx	r3
 318              	.LVL22:
 319              	.L32:
 320              		.loc 1 133 3 discriminator 5 view .LVU115
 321              		.loc 1 133 24 discriminator 5 view .LVU116
 322              		.loc 1 135 3 discriminator 5 view .LVU117
 323              		.loc 1 135 3 discriminator 5 view .LVU118
 324              		.loc 1 135 3 discriminator 5 view .LVU119
 325              		.loc 1 135 3 discriminator 5 view .LVU120
 326              		.loc 1 135 3 discriminator 5 view .LVU121
 327              		.loc 1 136 1 is_stmt 0 discriminator 5 view .LVU122
 328 0020 BDE80840 		pop	{r3, lr}
 329              		.cfi_restore 14
 330              		.cfi_restore 3
 331              		.cfi_def_cfa_offset 0
 332              		.loc 1 135 3 discriminator 5 view .LVU123
 333 0024 FFF7FEBF 		b	_port_irq_epilogue
 334              	.LVL23:
 335              	.L40:
 336              		.align	2
 337              	.L39:
 338 0028 003C0140 		.word	1073822720
 339 002c 00000000 		.word	_pal_events
 340              		.cfi_endproc
 341              	.LFE337:
 342              		.size	Vector64, .-Vector64
ARM GAS  /tmp/ccmqySKt.s 			page 7


 343              		.section	.text.Vector68,"ax",%progbits
 344              		.align	1
 345              		.global	Vector68
 346              		.syntax unified
 347              		.thumb
 348              		.thumb_func
 349              		.fpu fpv4-sp-d16
 350              		.type	Vector68, %function
 351              	Vector68:
 352              	.LFB338:
 353              		.loc 1 145 28 is_stmt 1 view -0
 354              		.cfi_startproc
 355              		@ args = 0, pretend = 0, frame = 0
 356              		@ frame_needed = 0, uses_anonymous_args = 0
 357              		.loc 1 146 3 view .LVU125
 358              		.loc 1 148 3 view .LVU126
 359              		.loc 1 148 3 view .LVU127
 360              		.loc 1 148 3 view .LVU128
 361              		.loc 1 148 3 view .LVU129
 362              		.loc 1 145 28 is_stmt 0 view .LVU130
 363 0000 08B5     		push	{r3, lr}
 364              		.cfi_def_cfa_offset 8
 365              		.cfi_offset 3, -8
 366              		.cfi_offset 14, -4
 367              		.loc 1 148 3 view .LVU131
 368 0002 FFF7FEFF 		bl	_stats_increase_irq
 369              	.LVL24:
 370              		.loc 1 148 3 is_stmt 1 view .LVU132
 371              		.loc 1 148 22 view .LVU133
 372              		.loc 1 150 3 view .LVU134
 373              		.loc 1 150 6 is_stmt 0 view .LVU135
 374 0006 084A     		ldr	r2, .L49
 375 0008 5169     		ldr	r1, [r2, #20]
 376              	.LVL25:
 377              		.loc 1 151 3 is_stmt 1 view .LVU136
 378              		.loc 1 151 13 is_stmt 0 view .LVU137
 379 000a 1368     		ldr	r3, [r2]
 380 000c 0B40     		ands	r3, r3, r1
 381              		.loc 1 151 6 view .LVU138
 382 000e 03F01003 		and	r3, r3, #16
 383              	.LVL26:
 384              		.loc 1 152 3 is_stmt 1 view .LVU139
 385              		.loc 1 152 12 is_stmt 0 view .LVU140
 386 0012 5361     		str	r3, [r2, #20]
 387              		.loc 1 154 3 is_stmt 1 view .LVU141
 388 0014 23B1     		cbz	r3, .L42
 389              		.loc 1 154 3 discriminator 1 view .LVU142
 390              		.loc 1 154 3 discriminator 1 view .LVU143
 391 0016 054A     		ldr	r2, .L49+4
 392 0018 136A     		ldr	r3, [r2, #32]
 393              	.LVL27:
 394              		.loc 1 154 3 is_stmt 0 discriminator 1 view .LVU144
 395 001a 0BB1     		cbz	r3, .L42
 396              		.loc 1 154 3 is_stmt 1 discriminator 3 view .LVU145
 397 001c 506A     		ldr	r0, [r2, #36]
 398 001e 9847     		blx	r3
 399              	.LVL28:
ARM GAS  /tmp/ccmqySKt.s 			page 8


 400              	.L42:
 401              		.loc 1 154 3 discriminator 5 view .LVU146
 402              		.loc 1 154 24 discriminator 5 view .LVU147
 403              		.loc 1 156 3 discriminator 5 view .LVU148
 404              		.loc 1 156 3 discriminator 5 view .LVU149
 405              		.loc 1 156 3 discriminator 5 view .LVU150
 406              		.loc 1 156 3 discriminator 5 view .LVU151
 407              		.loc 1 156 3 discriminator 5 view .LVU152
 408              		.loc 1 157 1 is_stmt 0 discriminator 5 view .LVU153
 409 0020 BDE80840 		pop	{r3, lr}
 410              		.cfi_restore 14
 411              		.cfi_restore 3
 412              		.cfi_def_cfa_offset 0
 413              		.loc 1 156 3 discriminator 5 view .LVU154
 414 0024 FFF7FEBF 		b	_port_irq_epilogue
 415              	.LVL29:
 416              	.L50:
 417              		.align	2
 418              	.L49:
 419 0028 003C0140 		.word	1073822720
 420 002c 00000000 		.word	_pal_events
 421              		.cfi_endproc
 422              	.LFE338:
 423              		.size	Vector68, .-Vector68
 424              		.section	.text.Vector9C,"ax",%progbits
 425              		.align	1
 426              		.global	Vector9C
 427              		.syntax unified
 428              		.thumb
 429              		.thumb_func
 430              		.fpu fpv4-sp-d16
 431              		.type	Vector9C, %function
 432              	Vector9C:
 433              	.LFB339:
 434              		.loc 1 166 28 is_stmt 1 view -0
 435              		.cfi_startproc
 436              		@ args = 0, pretend = 0, frame = 0
 437              		@ frame_needed = 0, uses_anonymous_args = 0
 438              		.loc 1 167 3 view .LVU156
 439              		.loc 1 169 3 view .LVU157
 440              		.loc 1 169 3 view .LVU158
 441              		.loc 1 169 3 view .LVU159
 442              		.loc 1 169 3 view .LVU160
 443              		.loc 1 166 28 is_stmt 0 view .LVU161
 444 0000 10B5     		push	{r4, lr}
 445              		.cfi_def_cfa_offset 8
 446              		.cfi_offset 4, -8
 447              		.cfi_offset 14, -4
 448              		.loc 1 169 3 view .LVU162
 449 0002 FFF7FEFF 		bl	_stats_increase_irq
 450              	.LVL30:
 451              		.loc 1 169 3 is_stmt 1 view .LVU163
 452              		.loc 1 169 22 view .LVU164
 453              		.loc 1 171 3 view .LVU165
 454              		.loc 1 171 6 is_stmt 0 view .LVU166
 455 0006 174B     		ldr	r3, .L87
 456 0008 5A69     		ldr	r2, [r3, #20]
ARM GAS  /tmp/ccmqySKt.s 			page 9


 457              	.LVL31:
 458              		.loc 1 172 3 is_stmt 1 view .LVU167
 459              		.loc 1 172 13 is_stmt 0 view .LVU168
 460 000a 1C68     		ldr	r4, [r3]
 461 000c 1440     		ands	r4, r4, r2
 462              		.loc 1 172 6 view .LVU169
 463 000e 04F47872 		and	r2, r4, #992
 464              	.LVL32:
 465              		.loc 1 174 3 is_stmt 1 view .LVU170
 466              		.loc 1 174 12 is_stmt 0 view .LVU171
 467 0012 5A61     		str	r2, [r3, #20]
 468              		.loc 1 176 3 is_stmt 1 view .LVU172
 469 0014 A306     		lsls	r3, r4, #26
 470 0016 04D5     		bpl	.L52
 471              		.loc 1 176 3 discriminator 1 view .LVU173
 472              		.loc 1 176 3 discriminator 1 view .LVU174
 473 0018 134A     		ldr	r2, .L87+4
 474              	.LVL33:
 475              		.loc 1 176 3 is_stmt 0 discriminator 1 view .LVU175
 476 001a 936A     		ldr	r3, [r2, #40]
 477 001c 0BB1     		cbz	r3, .L52
 478              		.loc 1 176 3 is_stmt 1 discriminator 3 view .LVU176
 479 001e D06A     		ldr	r0, [r2, #44]
 480 0020 9847     		blx	r3
 481              	.LVL34:
 482              	.L52:
 483              		.loc 1 176 3 discriminator 5 view .LVU177
 484              		.loc 1 176 24 discriminator 5 view .LVU178
 485              		.loc 1 177 3 discriminator 5 view .LVU179
 486 0022 6006     		lsls	r0, r4, #25
 487 0024 04D5     		bpl	.L53
 488              		.loc 1 177 3 discriminator 1 view .LVU180
 489              		.loc 1 177 3 discriminator 1 view .LVU181
 490 0026 104A     		ldr	r2, .L87+4
 491 0028 136B     		ldr	r3, [r2, #48]
 492 002a 0BB1     		cbz	r3, .L53
 493              		.loc 1 177 3 discriminator 3 view .LVU182
 494 002c 506B     		ldr	r0, [r2, #52]
 495 002e 9847     		blx	r3
 496              	.LVL35:
 497              	.L53:
 498              		.loc 1 177 3 discriminator 5 view .LVU183
 499              		.loc 1 177 24 discriminator 5 view .LVU184
 500              		.loc 1 178 3 discriminator 5 view .LVU185
 501 0030 2106     		lsls	r1, r4, #24
 502 0032 04D5     		bpl	.L54
 503              		.loc 1 178 3 discriminator 1 view .LVU186
 504              		.loc 1 178 3 discriminator 1 view .LVU187
 505 0034 0C4A     		ldr	r2, .L87+4
 506 0036 936B     		ldr	r3, [r2, #56]
 507 0038 0BB1     		cbz	r3, .L54
 508              		.loc 1 178 3 discriminator 3 view .LVU188
 509 003a D06B     		ldr	r0, [r2, #60]
 510 003c 9847     		blx	r3
 511              	.LVL36:
 512              	.L54:
 513              		.loc 1 178 3 discriminator 5 view .LVU189
ARM GAS  /tmp/ccmqySKt.s 			page 10


 514              		.loc 1 178 24 discriminator 5 view .LVU190
 515              		.loc 1 179 3 discriminator 5 view .LVU191
 516 003e E205     		lsls	r2, r4, #23
 517 0040 04D5     		bpl	.L55
 518              		.loc 1 179 3 discriminator 1 view .LVU192
 519              		.loc 1 179 3 discriminator 1 view .LVU193
 520 0042 094A     		ldr	r2, .L87+4
 521 0044 136C     		ldr	r3, [r2, #64]
 522 0046 0BB1     		cbz	r3, .L55
 523              		.loc 1 179 3 discriminator 3 view .LVU194
 524 0048 506C     		ldr	r0, [r2, #68]
 525 004a 9847     		blx	r3
 526              	.LVL37:
 527              	.L55:
 528              		.loc 1 179 3 discriminator 5 view .LVU195
 529              		.loc 1 179 24 discriminator 5 view .LVU196
 530              		.loc 1 180 3 discriminator 5 view .LVU197
 531 004c A305     		lsls	r3, r4, #22
 532 004e 04D5     		bpl	.L56
 533              		.loc 1 180 3 discriminator 1 view .LVU198
 534              		.loc 1 180 3 discriminator 1 view .LVU199
 535 0050 054A     		ldr	r2, .L87+4
 536 0052 936C     		ldr	r3, [r2, #72]
 537 0054 0BB1     		cbz	r3, .L56
 538              		.loc 1 180 3 discriminator 3 view .LVU200
 539 0056 D06C     		ldr	r0, [r2, #76]
 540 0058 9847     		blx	r3
 541              	.LVL38:
 542              	.L56:
 543              		.loc 1 180 3 discriminator 5 view .LVU201
 544              		.loc 1 180 24 discriminator 5 view .LVU202
 545              		.loc 1 182 3 discriminator 5 view .LVU203
 546              		.loc 1 182 3 discriminator 5 view .LVU204
 547              		.loc 1 182 3 discriminator 5 view .LVU205
 548              		.loc 1 182 3 discriminator 5 view .LVU206
 549              		.loc 1 182 3 discriminator 5 view .LVU207
 550              		.loc 1 183 1 is_stmt 0 discriminator 5 view .LVU208
 551 005a BDE81040 		pop	{r4, lr}
 552              		.cfi_restore 14
 553              		.cfi_restore 4
 554              		.cfi_def_cfa_offset 0
 555              	.LVL39:
 556              		.loc 1 182 3 discriminator 5 view .LVU209
 557 005e FFF7FEBF 		b	_port_irq_epilogue
 558              	.LVL40:
 559              	.L88:
 560 0062 00BF     		.align	2
 561              	.L87:
 562 0064 003C0140 		.word	1073822720
 563 0068 00000000 		.word	_pal_events
 564              		.cfi_endproc
 565              	.LFE339:
 566              		.size	Vector9C, .-Vector9C
 567              		.section	.text.VectorE0,"ax",%progbits
 568              		.align	1
 569              		.global	VectorE0
 570              		.syntax unified
ARM GAS  /tmp/ccmqySKt.s 			page 11


 571              		.thumb
 572              		.thumb_func
 573              		.fpu fpv4-sp-d16
 574              		.type	VectorE0, %function
 575              	VectorE0:
 576              	.LFB340:
 577              		.loc 1 192 28 is_stmt 1 view -0
 578              		.cfi_startproc
 579              		@ args = 0, pretend = 0, frame = 0
 580              		@ frame_needed = 0, uses_anonymous_args = 0
 581              		.loc 1 193 3 view .LVU211
 582              		.loc 1 195 3 view .LVU212
 583              		.loc 1 195 3 view .LVU213
 584              		.loc 1 195 3 view .LVU214
 585              		.loc 1 195 3 view .LVU215
 586              		.loc 1 192 28 is_stmt 0 view .LVU216
 587 0000 10B5     		push	{r4, lr}
 588              		.cfi_def_cfa_offset 8
 589              		.cfi_offset 4, -8
 590              		.cfi_offset 14, -4
 591              		.loc 1 195 3 view .LVU217
 592 0002 FFF7FEFF 		bl	_stats_increase_irq
 593              	.LVL41:
 594              		.loc 1 195 3 is_stmt 1 view .LVU218
 595              		.loc 1 195 22 view .LVU219
 596              		.loc 1 197 3 view .LVU220
 597              		.loc 1 197 6 is_stmt 0 view .LVU221
 598 0006 1A4B     		ldr	r3, .L132
 599 0008 5A69     		ldr	r2, [r3, #20]
 600              	.LVL42:
 601              		.loc 1 198 3 is_stmt 1 view .LVU222
 602              		.loc 1 198 13 is_stmt 0 view .LVU223
 603 000a 1C68     		ldr	r4, [r3]
 604 000c 1440     		ands	r4, r4, r2
 605              		.loc 1 198 6 view .LVU224
 606 000e 04F47C42 		and	r2, r4, #64512
 607              	.LVL43:
 608              		.loc 1 200 3 is_stmt 1 view .LVU225
 609              		.loc 1 200 12 is_stmt 0 view .LVU226
 610 0012 5A61     		str	r2, [r3, #20]
 611              		.loc 1 202 3 is_stmt 1 view .LVU227
 612 0014 6205     		lsls	r2, r4, #21
 613              	.LVL44:
 614              		.loc 1 202 3 is_stmt 0 view .LVU228
 615 0016 04D5     		bpl	.L90
 616              		.loc 1 202 3 is_stmt 1 discriminator 1 view .LVU229
 617              		.loc 1 202 3 discriminator 1 view .LVU230
 618 0018 164A     		ldr	r2, .L132+4
 619 001a 136D     		ldr	r3, [r2, #80]
 620              	.LVL45:
 621              		.loc 1 202 3 is_stmt 0 discriminator 1 view .LVU231
 622 001c 0BB1     		cbz	r3, .L90
 623              		.loc 1 202 3 is_stmt 1 discriminator 3 view .LVU232
 624 001e 506D     		ldr	r0, [r2, #84]
 625 0020 9847     		blx	r3
 626              	.LVL46:
 627              	.L90:
ARM GAS  /tmp/ccmqySKt.s 			page 12


 628              		.loc 1 202 3 discriminator 5 view .LVU233
 629              		.loc 1 202 25 discriminator 5 view .LVU234
 630              		.loc 1 203 3 discriminator 5 view .LVU235
 631 0022 2305     		lsls	r3, r4, #20
 632 0024 04D5     		bpl	.L91
 633              		.loc 1 203 3 discriminator 1 view .LVU236
 634              		.loc 1 203 3 discriminator 1 view .LVU237
 635 0026 134A     		ldr	r2, .L132+4
 636 0028 936D     		ldr	r3, [r2, #88]
 637 002a 0BB1     		cbz	r3, .L91
 638              		.loc 1 203 3 discriminator 3 view .LVU238
 639 002c D06D     		ldr	r0, [r2, #92]
 640 002e 9847     		blx	r3
 641              	.LVL47:
 642              	.L91:
 643              		.loc 1 203 3 discriminator 5 view .LVU239
 644              		.loc 1 203 25 discriminator 5 view .LVU240
 645              		.loc 1 204 3 discriminator 5 view .LVU241
 646 0030 E004     		lsls	r0, r4, #19
 647 0032 04D5     		bpl	.L92
 648              		.loc 1 204 3 discriminator 1 view .LVU242
 649              		.loc 1 204 3 discriminator 1 view .LVU243
 650 0034 0F4A     		ldr	r2, .L132+4
 651 0036 136E     		ldr	r3, [r2, #96]
 652 0038 0BB1     		cbz	r3, .L92
 653              		.loc 1 204 3 discriminator 3 view .LVU244
 654 003a 506E     		ldr	r0, [r2, #100]
 655 003c 9847     		blx	r3
 656              	.LVL48:
 657              	.L92:
 658              		.loc 1 204 3 discriminator 5 view .LVU245
 659              		.loc 1 204 25 discriminator 5 view .LVU246
 660              		.loc 1 205 3 discriminator 5 view .LVU247
 661 003e A104     		lsls	r1, r4, #18
 662 0040 04D5     		bpl	.L93
 663              		.loc 1 205 3 discriminator 1 view .LVU248
 664              		.loc 1 205 3 discriminator 1 view .LVU249
 665 0042 0C4A     		ldr	r2, .L132+4
 666 0044 936E     		ldr	r3, [r2, #104]
 667 0046 0BB1     		cbz	r3, .L93
 668              		.loc 1 205 3 discriminator 3 view .LVU250
 669 0048 D06E     		ldr	r0, [r2, #108]
 670 004a 9847     		blx	r3
 671              	.LVL49:
 672              	.L93:
 673              		.loc 1 205 3 discriminator 5 view .LVU251
 674              		.loc 1 205 25 discriminator 5 view .LVU252
 675              		.loc 1 206 3 discriminator 5 view .LVU253
 676 004c 6204     		lsls	r2, r4, #17
 677 004e 04D5     		bpl	.L94
 678              		.loc 1 206 3 discriminator 1 view .LVU254
 679              		.loc 1 206 3 discriminator 1 view .LVU255
 680 0050 084A     		ldr	r2, .L132+4
 681 0052 136F     		ldr	r3, [r2, #112]
 682 0054 0BB1     		cbz	r3, .L94
 683              		.loc 1 206 3 discriminator 3 view .LVU256
 684 0056 506F     		ldr	r0, [r2, #116]
ARM GAS  /tmp/ccmqySKt.s 			page 13


 685 0058 9847     		blx	r3
 686              	.LVL50:
 687              	.L94:
 688              		.loc 1 206 3 discriminator 5 view .LVU257
 689              		.loc 1 206 25 discriminator 5 view .LVU258
 690              		.loc 1 207 3 discriminator 5 view .LVU259
 691 005a 2304     		lsls	r3, r4, #16
 692 005c 04D5     		bpl	.L95
 693              		.loc 1 207 3 discriminator 1 view .LVU260
 694              		.loc 1 207 3 discriminator 1 view .LVU261
 695 005e 054A     		ldr	r2, .L132+4
 696 0060 936F     		ldr	r3, [r2, #120]
 697 0062 0BB1     		cbz	r3, .L95
 698              		.loc 1 207 3 discriminator 3 view .LVU262
 699 0064 D06F     		ldr	r0, [r2, #124]
 700 0066 9847     		blx	r3
 701              	.LVL51:
 702              	.L95:
 703              		.loc 1 207 3 discriminator 5 view .LVU263
 704              		.loc 1 207 25 discriminator 5 view .LVU264
 705              		.loc 1 209 3 discriminator 5 view .LVU265
 706              		.loc 1 209 3 discriminator 5 view .LVU266
 707              		.loc 1 209 3 discriminator 5 view .LVU267
 708              		.loc 1 209 3 discriminator 5 view .LVU268
 709              		.loc 1 209 3 discriminator 5 view .LVU269
 710              		.loc 1 210 1 is_stmt 0 discriminator 5 view .LVU270
 711 0068 BDE81040 		pop	{r4, lr}
 712              		.cfi_restore 14
 713              		.cfi_restore 4
 714              		.cfi_def_cfa_offset 0
 715              	.LVL52:
 716              		.loc 1 209 3 discriminator 5 view .LVU271
 717 006c FFF7FEBF 		b	_port_irq_epilogue
 718              	.LVL53:
 719              	.L133:
 720              		.align	2
 721              	.L132:
 722 0070 003C0140 		.word	1073822720
 723 0074 00000000 		.word	_pal_events
 724              		.cfi_endproc
 725              	.LFE340:
 726              		.size	VectorE0, .-VectorE0
 727              		.section	.text.irqInit,"ax",%progbits
 728              		.align	1
 729              		.global	irqInit
 730              		.syntax unified
 731              		.thumb
 732              		.thumb_func
 733              		.fpu fpv4-sp-d16
 734              		.type	irqInit, %function
 735              	irqInit:
 736              	.LFB341:
 737              		.loc 1 224 20 is_stmt 1 view -0
 738              		.cfi_startproc
 739              		@ args = 0, pretend = 0, frame = 0
 740              		@ frame_needed = 0, uses_anonymous_args = 0
 741              		.loc 1 227 3 view .LVU273
ARM GAS  /tmp/ccmqySKt.s 			page 14


 742 0000 0621     		movs	r1, #6
 743              		.loc 1 224 20 is_stmt 0 view .LVU274
 744 0002 08B5     		push	{r3, lr}
 745              		.cfi_def_cfa_offset 8
 746              		.cfi_offset 3, -8
 747              		.cfi_offset 14, -4
 748              		.loc 1 227 3 view .LVU275
 749 0004 0846     		mov	r0, r1
 750 0006 FFF7FEFF 		bl	nvicEnableVector
 751              	.LVL54:
 752              		.loc 1 228 3 is_stmt 1 view .LVU276
 753 000a 0621     		movs	r1, #6
 754 000c 0720     		movs	r0, #7
 755 000e FFF7FEFF 		bl	nvicEnableVector
 756              	.LVL55:
 757              		.loc 1 229 3 view .LVU277
 758 0012 0621     		movs	r1, #6
 759 0014 0820     		movs	r0, #8
 760 0016 FFF7FEFF 		bl	nvicEnableVector
 761              	.LVL56:
 762              		.loc 1 230 3 view .LVU278
 763 001a 0621     		movs	r1, #6
 764 001c 0920     		movs	r0, #9
 765 001e FFF7FEFF 		bl	nvicEnableVector
 766              	.LVL57:
 767              		.loc 1 231 3 view .LVU279
 768 0022 0621     		movs	r1, #6
 769 0024 0A20     		movs	r0, #10
 770 0026 FFF7FEFF 		bl	nvicEnableVector
 771              	.LVL58:
 772              		.loc 1 232 3 view .LVU280
 773 002a 0621     		movs	r1, #6
 774 002c 1720     		movs	r0, #23
 775 002e FFF7FEFF 		bl	nvicEnableVector
 776              	.LVL59:
 777              		.loc 1 233 3 view .LVU281
 778 0032 0621     		movs	r1, #6
 779 0034 2820     		movs	r0, #40
 780              		.loc 1 235 1 is_stmt 0 view .LVU282
 781 0036 BDE80840 		pop	{r3, lr}
 782              		.cfi_restore 14
 783              		.cfi_restore 3
 784              		.cfi_def_cfa_offset 0
 785              		.loc 1 233 3 view .LVU283
 786 003a FFF7FEBF 		b	nvicEnableVector
 787              	.LVL60:
 788              		.cfi_endproc
 789              	.LFE341:
 790              		.size	irqInit, .-irqInit
 791              		.section	.text.irqDeinit,"ax",%progbits
 792              		.align	1
 793              		.global	irqDeinit
 794              		.syntax unified
 795              		.thumb
 796              		.thumb_func
 797              		.fpu fpv4-sp-d16
 798              		.type	irqDeinit, %function
ARM GAS  /tmp/ccmqySKt.s 			page 15


 799              	irqDeinit:
 800              	.LFB342:
 801              		.loc 1 242 22 is_stmt 1 view -0
 802              		.cfi_startproc
 803              		@ args = 0, pretend = 0, frame = 0
 804              		@ frame_needed = 0, uses_anonymous_args = 0
 805              		.loc 1 245 3 view .LVU285
 806              		.loc 1 242 22 is_stmt 0 view .LVU286
 807 0000 08B5     		push	{r3, lr}
 808              		.cfi_def_cfa_offset 8
 809              		.cfi_offset 3, -8
 810              		.cfi_offset 14, -4
 811              		.loc 1 245 3 view .LVU287
 812 0002 0620     		movs	r0, #6
 813 0004 FFF7FEFF 		bl	nvicDisableVector
 814              	.LVL61:
 815              		.loc 1 246 3 is_stmt 1 view .LVU288
 816 0008 0720     		movs	r0, #7
 817 000a FFF7FEFF 		bl	nvicDisableVector
 818              	.LVL62:
 819              		.loc 1 247 3 view .LVU289
 820 000e 0820     		movs	r0, #8
 821 0010 FFF7FEFF 		bl	nvicDisableVector
 822              	.LVL63:
 823              		.loc 1 248 3 view .LVU290
 824 0014 0920     		movs	r0, #9
 825 0016 FFF7FEFF 		bl	nvicDisableVector
 826              	.LVL64:
 827              		.loc 1 249 3 view .LVU291
 828 001a 0A20     		movs	r0, #10
 829 001c FFF7FEFF 		bl	nvicDisableVector
 830              	.LVL65:
 831              		.loc 1 250 3 view .LVU292
 832 0020 1720     		movs	r0, #23
 833 0022 FFF7FEFF 		bl	nvicDisableVector
 834              	.LVL66:
 835              		.loc 1 251 3 view .LVU293
 836 0026 2820     		movs	r0, #40
 837              		.loc 1 253 1 is_stmt 0 view .LVU294
 838 0028 BDE80840 		pop	{r3, lr}
 839              		.cfi_restore 14
 840              		.cfi_restore 3
 841              		.cfi_def_cfa_offset 0
 842              		.loc 1 251 3 view .LVU295
 843 002c FFF7FEBF 		b	nvicDisableVector
 844              	.LVL67:
 845              		.cfi_endproc
 846              	.LFE342:
 847              		.size	irqDeinit, .-irqDeinit
 848              		.text
 849              	.Letext0:
 850              		.file 2 "/opt/gcc-arm-none-eabi-10-2020-q4-major/arm-none-eabi/include/machine/_default_types.h"
 851              		.file 3 "/opt/gcc-arm-none-eabi-10-2020-q4-major/arm-none-eabi/include/sys/_stdint.h"
 852              		.file 4 "../../modules/ChibiOS/os/common/ext/ST/STM32F7xx/stm32f767xx.h"
 853              		.file 5 "../../modules/ChibiOS/os/hal/include/hal_pal.h"
 854              		.file 6 "../../modules/ChibiOS/os/hal/ports/common/ARMCMx/nvic.h"
 855              		.file 7 "../../modules/ChibiOS/os/rt/include/chstats.h"
ARM GAS  /tmp/ccmqySKt.s 			page 16


 856              		.file 8 "../../modules/ChibiOS/os/common/ports/ARMCMx/chcore_v7m.h"
 857              		.file 9 "../../modules/ChibiOS/os/hal/ports/STM32/LLD/GPIOv2/hal_pal_lld.h"
 858              		.section	.debug_info,"",%progbits
 859              	.Ldebug_info0:
 860 0000 61070000 		.4byte	0x761
 861 0004 0400     		.2byte	0x4
 862 0006 00000000 		.4byte	.Ldebug_abbrev0
 863 000a 04       		.byte	0x4
 864 000b 01       		.uleb128 0x1
 865 000c 73070000 		.4byte	.LASF150
 866 0010 0C       		.byte	0xc
 867 0011 16020000 		.4byte	.LASF151
 868 0015 5D060000 		.4byte	.LASF152
 869 0019 00000000 		.4byte	.Ldebug_ranges0+0
 870 001d 00000000 		.4byte	0
 871 0021 00000000 		.4byte	.Ldebug_line0
 872 0025 02       		.uleb128 0x2
 873 0026 04       		.byte	0x4
 874 0027 05       		.byte	0x5
 875 0028 696E7400 		.ascii	"int\000"
 876 002c 03       		.uleb128 0x3
 877 002d 04       		.byte	0x4
 878 002e 07       		.byte	0x7
 879 002f B5060000 		.4byte	.LASF0
 880 0033 03       		.uleb128 0x3
 881 0034 08       		.byte	0x8
 882 0035 05       		.byte	0x5
 883 0036 FA010000 		.4byte	.LASF1
 884 003a 03       		.uleb128 0x3
 885 003b 08       		.byte	0x8
 886 003c 04       		.byte	0x4
 887 003d 51060000 		.4byte	.LASF2
 888 0041 03       		.uleb128 0x3
 889 0042 01       		.byte	0x1
 890 0043 06       		.byte	0x6
 891 0044 34010000 		.4byte	.LASF3
 892 0048 03       		.uleb128 0x3
 893 0049 01       		.byte	0x1
 894 004a 08       		.byte	0x8
 895 004b A2050000 		.4byte	.LASF4
 896 004f 03       		.uleb128 0x3
 897 0050 02       		.byte	0x2
 898 0051 05       		.byte	0x5
 899 0052 FB030000 		.4byte	.LASF5
 900 0056 03       		.uleb128 0x3
 901 0057 02       		.byte	0x2
 902 0058 07       		.byte	0x7
 903 0059 87030000 		.4byte	.LASF6
 904 005d 03       		.uleb128 0x3
 905 005e 04       		.byte	0x4
 906 005f 05       		.byte	0x5
 907 0060 AD010000 		.4byte	.LASF7
 908 0064 04       		.uleb128 0x4
 909 0065 9E020000 		.4byte	.LASF10
 910 0069 02       		.byte	0x2
 911 006a 4F       		.byte	0x4f
 912 006b 19       		.byte	0x19
ARM GAS  /tmp/ccmqySKt.s 			page 17


 913 006c 70000000 		.4byte	0x70
 914 0070 03       		.uleb128 0x3
 915 0071 04       		.byte	0x4
 916 0072 07       		.byte	0x7
 917 0073 69010000 		.4byte	.LASF8
 918 0077 03       		.uleb128 0x3
 919 0078 08       		.byte	0x8
 920 0079 07       		.byte	0x7
 921 007a 7B010000 		.4byte	.LASF9
 922 007e 04       		.uleb128 0x4
 923 007f 20060000 		.4byte	.LASF11
 924 0083 03       		.byte	0x3
 925 0084 30       		.byte	0x30
 926 0085 14       		.byte	0x14
 927 0086 64000000 		.4byte	0x64
 928 008a 05       		.uleb128 0x5
 929 008b 7E000000 		.4byte	0x7e
 930 008f 06       		.uleb128 0x6
 931 0090 04       		.byte	0x4
 932 0091 95000000 		.4byte	0x95
 933 0095 07       		.uleb128 0x7
 934 0096 A0000000 		.4byte	0xa0
 935 009a 08       		.uleb128 0x8
 936 009b A0000000 		.4byte	0xa0
 937 009f 00       		.byte	0
 938 00a0 09       		.uleb128 0x9
 939 00a1 04       		.byte	0x4
 940 00a2 0A       		.uleb128 0xa
 941 00a3 05       		.byte	0x5
 942 00a4 01       		.byte	0x1
 943 00a5 41000000 		.4byte	0x41
 944 00a9 04       		.byte	0x4
 945 00aa 44       		.byte	0x44
 946 00ab 01       		.byte	0x1
 947 00ac 69030000 		.4byte	0x369
 948 00b0 0B       		.uleb128 0xb
 949 00b1 DF060000 		.4byte	.LASF12
 950 00b5 72       		.sleb128 -14
 951 00b6 0B       		.uleb128 0xb
 952 00b7 1F030000 		.4byte	.LASF13
 953 00bb 74       		.sleb128 -12
 954 00bc 0B       		.uleb128 0xb
 955 00bd A9020000 		.4byte	.LASF14
 956 00c1 75       		.sleb128 -11
 957 00c2 0B       		.uleb128 0xb
 958 00c3 41060000 		.4byte	.LASF15
 959 00c7 76       		.sleb128 -10
 960 00c8 0B       		.uleb128 0xb
 961 00c9 7B030000 		.4byte	.LASF16
 962 00cd 7B       		.sleb128 -5
 963 00ce 0B       		.uleb128 0xb
 964 00cf 9E080000 		.4byte	.LASF17
 965 00d3 7C       		.sleb128 -4
 966 00d4 0B       		.uleb128 0xb
 967 00d5 7F020000 		.4byte	.LASF18
 968 00d9 7E       		.sleb128 -2
 969 00da 0B       		.uleb128 0xb
ARM GAS  /tmp/ccmqySKt.s 			page 18


 970 00db 19040000 		.4byte	.LASF19
 971 00df 7F       		.sleb128 -1
 972 00e0 0C       		.uleb128 0xc
 973 00e1 0B010000 		.4byte	.LASF20
 974 00e5 00       		.byte	0
 975 00e6 0C       		.uleb128 0xc
 976 00e7 2C000000 		.4byte	.LASF21
 977 00eb 01       		.byte	0x1
 978 00ec 0C       		.uleb128 0xc
 979 00ed 1D070000 		.4byte	.LASF22
 980 00f1 02       		.byte	0x2
 981 00f2 0C       		.uleb128 0xc
 982 00f3 EC010000 		.4byte	.LASF23
 983 00f7 03       		.byte	0x3
 984 00f8 0C       		.uleb128 0xc
 985 00f9 15060000 		.4byte	.LASF24
 986 00fd 04       		.byte	0x4
 987 00fe 0C       		.uleb128 0xc
 988 00ff 75080000 		.4byte	.LASF25
 989 0103 05       		.byte	0x5
 990 0104 0C       		.uleb128 0xc
 991 0105 55070000 		.4byte	.LASF26
 992 0109 06       		.byte	0x6
 993 010a 0C       		.uleb128 0xc
 994 010b 23090000 		.4byte	.LASF27
 995 010f 07       		.byte	0x7
 996 0110 0C       		.uleb128 0xc
 997 0111 00010000 		.4byte	.LASF28
 998 0115 08       		.byte	0x8
 999 0116 0C       		.uleb128 0xc
 1000 0117 DF040000 		.4byte	.LASF29
 1001 011b 09       		.byte	0x9
 1002 011c 0C       		.uleb128 0xc
 1003 011d C8050000 		.4byte	.LASF30
 1004 0121 0A       		.byte	0xa
 1005 0122 0C       		.uleb128 0xc
 1006 0123 2E090000 		.4byte	.LASF31
 1007 0127 0B       		.byte	0xb
 1008 0128 0C       		.uleb128 0xc
 1009 0129 DE030000 		.4byte	.LASF32
 1010 012d 0C       		.byte	0xc
 1011 012e 0C       		.uleb128 0xc
 1012 012f F4040000 		.4byte	.LASF33
 1013 0133 0D       		.byte	0xd
 1014 0134 0C       		.uleb128 0xc
 1015 0135 F6020000 		.4byte	.LASF34
 1016 0139 0E       		.byte	0xe
 1017 013a 0C       		.uleb128 0xc
 1018 013b C8000000 		.4byte	.LASF35
 1019 013f 0F       		.byte	0xf
 1020 0140 0C       		.uleb128 0xc
 1021 0141 CD010000 		.4byte	.LASF36
 1022 0145 10       		.byte	0x10
 1023 0146 0C       		.uleb128 0xc
 1024 0147 9D000000 		.4byte	.LASF37
 1025 014b 11       		.byte	0x11
 1026 014c 0C       		.uleb128 0xc
ARM GAS  /tmp/ccmqySKt.s 			page 19


 1027 014d D1080000 		.4byte	.LASF38
 1028 0151 12       		.byte	0x12
 1029 0152 0C       		.uleb128 0xc
 1030 0153 A8060000 		.4byte	.LASF39
 1031 0157 13       		.byte	0x13
 1032 0158 0C       		.uleb128 0xc
 1033 0159 1E000000 		.4byte	.LASF40
 1034 015d 14       		.byte	0x14
 1035 015e 0C       		.uleb128 0xc
 1036 015f 26010000 		.4byte	.LASF41
 1037 0163 15       		.byte	0x15
 1038 0164 0C       		.uleb128 0xc
 1039 0165 EC080000 		.4byte	.LASF42
 1040 0169 16       		.byte	0x16
 1041 016a 0C       		.uleb128 0xc
 1042 016b DF010000 		.4byte	.LASF43
 1043 016f 17       		.byte	0x17
 1044 0170 0C       		.uleb128 0xc
 1045 0171 B0050000 		.4byte	.LASF44
 1046 0175 18       		.byte	0x18
 1047 0176 0C       		.uleb128 0xc
 1048 0177 F3060000 		.4byte	.LASF45
 1049 017b 19       		.byte	0x19
 1050 017c 0C       		.uleb128 0xc
 1051 017d E7050000 		.4byte	.LASF46
 1052 0181 1A       		.byte	0x1a
 1053 0182 0C       		.uleb128 0xc
 1054 0183 26040000 		.4byte	.LASF47
 1055 0187 1B       		.byte	0x1b
 1056 0188 0C       		.uleb128 0xc
 1057 0189 4B070000 		.4byte	.LASF48
 1058 018d 1C       		.byte	0x1c
 1059 018e 0C       		.uleb128 0xc
 1060 018f 19090000 		.4byte	.LASF49
 1061 0193 1D       		.byte	0x1d
 1062 0194 0C       		.uleb128 0xc
 1063 0195 F6000000 		.4byte	.LASF50
 1064 0199 1E       		.byte	0x1e
 1065 019a 0C       		.uleb128 0xc
 1066 019b 7E000000 		.4byte	.LASF51
 1067 019f 1F       		.byte	0x1f
 1068 01a0 0C       		.uleb128 0xc
 1069 01a1 10070000 		.4byte	.LASF52
 1070 01a5 20       		.byte	0x20
 1071 01a6 0C       		.uleb128 0xc
 1072 01a7 B6010000 		.4byte	.LASF53
 1073 01ab 21       		.byte	0x21
 1074 01ac 0C       		.uleb128 0xc
 1075 01ad E9000000 		.4byte	.LASF54
 1076 01b1 22       		.byte	0x22
 1077 01b2 0C       		.uleb128 0xc
 1078 01b3 D4030000 		.4byte	.LASF55
 1079 01b7 23       		.byte	0x23
 1080 01b8 0C       		.uleb128 0xc
 1081 01b9 EA040000 		.4byte	.LASF56
 1082 01bd 24       		.byte	0x24
 1083 01be 0C       		.uleb128 0xc
ARM GAS  /tmp/ccmqySKt.s 			page 20


 1084 01bf 74050000 		.4byte	.LASF57
 1085 01c3 25       		.byte	0x25
 1086 01c4 0C       		.uleb128 0xc
 1087 01c5 35060000 		.4byte	.LASF58
 1088 01c9 26       		.byte	0x26
 1089 01ca 0C       		.uleb128 0xc
 1090 01cb 3F070000 		.4byte	.LASF59
 1091 01cf 27       		.byte	0x27
 1092 01d0 0C       		.uleb128 0xc
 1093 01d1 C5030000 		.4byte	.LASF60
 1094 01d5 28       		.byte	0x28
 1095 01d6 0C       		.uleb128 0xc
 1096 01d7 DA000000 		.4byte	.LASF61
 1097 01db 29       		.byte	0x29
 1098 01dc 0C       		.uleb128 0xc
 1099 01dd 6E020000 		.4byte	.LASF62
 1100 01e1 2A       		.byte	0x2a
 1101 01e2 0C       		.uleb128 0xc
 1102 01e3 05040000 		.4byte	.LASF63
 1103 01e7 2B       		.byte	0x2b
 1104 01e8 0C       		.uleb128 0xc
 1105 01e9 8B020000 		.4byte	.LASF64
 1106 01ed 2C       		.byte	0x2c
 1107 01ee 0C       		.uleb128 0xc
 1108 01ef 33040000 		.4byte	.LASF65
 1109 01f3 2D       		.byte	0x2d
 1110 01f4 0C       		.uleb128 0xc
 1111 01f5 8E040000 		.4byte	.LASF66
 1112 01f9 2E       		.byte	0x2e
 1113 01fa 0C       		.uleb128 0xc
 1114 01fb 91060000 		.4byte	.LASF67
 1115 01ff 2F       		.byte	0x2f
 1116 0200 0C       		.uleb128 0xc
 1117 0201 FF050000 		.4byte	.LASF68
 1118 0205 30       		.byte	0x30
 1119 0206 0C       		.uleb128 0xc
 1120 0207 7E080000 		.4byte	.LASF69
 1121 020b 31       		.byte	0x31
 1122 020c 0C       		.uleb128 0xc
 1123 020d D5040000 		.4byte	.LASF70
 1124 0211 32       		.byte	0x32
 1125 0212 0C       		.uleb128 0xc
 1126 0213 80050000 		.4byte	.LASF71
 1127 0217 33       		.byte	0x33
 1128 0218 0C       		.uleb128 0xc
 1129 0219 63020000 		.4byte	.LASF72
 1130 021d 34       		.byte	0x34
 1131 021e 0C       		.uleb128 0xc
 1132 021f DC050000 		.4byte	.LASF73
 1133 0223 35       		.byte	0x35
 1134 0224 0C       		.uleb128 0xc
 1135 0225 55020000 		.4byte	.LASF74
 1136 0229 36       		.byte	0x36
 1137 022a 0C       		.uleb128 0xc
 1138 022b C2060000 		.4byte	.LASF75
 1139 022f 37       		.byte	0x37
 1140 0230 0C       		.uleb128 0xc
ARM GAS  /tmp/ccmqySKt.s 			page 21


 1141 0231 2D070000 		.4byte	.LASF76
 1142 0235 38       		.byte	0x38
 1143 0236 0C       		.uleb128 0xc
 1144 0237 DA080000 		.4byte	.LASF77
 1145 023b 39       		.byte	0x39
 1146 023c 0C       		.uleb128 0xc
 1147 023d 9A030000 		.4byte	.LASF78
 1148 0241 3A       		.byte	0x3a
 1149 0242 0C       		.uleb128 0xc
 1150 0243 A9040000 		.4byte	.LASF79
 1151 0247 3B       		.byte	0x3b
 1152 0248 0C       		.uleb128 0xc
 1153 0249 8A050000 		.4byte	.LASF80
 1154 024d 3C       		.byte	0x3c
 1155 024e 0C       		.uleb128 0xc
 1156 024f 85040000 		.4byte	.LASF81
 1157 0253 3D       		.byte	0x3d
 1158 0254 0C       		.uleb128 0xc
 1159 0255 08020000 		.4byte	.LASF82
 1160 0259 3E       		.byte	0x3e
 1161 025a 0C       		.uleb128 0xc
 1162 025b 06050000 		.4byte	.LASF83
 1163 025f 3F       		.byte	0x3f
 1164 0260 0C       		.uleb128 0xc
 1165 0261 35000000 		.4byte	.LASF84
 1166 0265 40       		.byte	0x40
 1167 0266 0C       		.uleb128 0xc
 1168 0267 40010000 		.4byte	.LASF85
 1169 026b 41       		.byte	0x41
 1170 026c 0C       		.uleb128 0xc
 1171 026d FA080000 		.4byte	.LASF86
 1172 0271 42       		.byte	0x42
 1173 0272 0C       		.uleb128 0xc
 1174 0273 13050000 		.4byte	.LASF87
 1175 0277 43       		.byte	0x43
 1176 0278 0C       		.uleb128 0xc
 1177 0279 8B000000 		.4byte	.LASF88
 1178 027d 44       		.byte	0x44
 1179 027e 0C       		.uleb128 0xc
 1180 027f 9B010000 		.4byte	.LASF89
 1181 0283 45       		.byte	0x45
 1182 0284 0C       		.uleb128 0xc
 1183 0285 B7020000 		.4byte	.LASF90
 1184 0289 46       		.byte	0x46
 1185 028a 0C       		.uleb128 0xc
 1186 028b C9040000 		.4byte	.LASF91
 1187 028f 47       		.byte	0x47
 1188 0290 0C       		.uleb128 0xc
 1189 0291 35030000 		.4byte	.LASF92
 1190 0295 48       		.byte	0x48
 1191 0296 0C       		.uleb128 0xc
 1192 0297 66000000 		.4byte	.LASF93
 1193 029b 49       		.byte	0x49
 1194 029c 0C       		.uleb128 0xc
 1195 029d 67030000 		.4byte	.LASF94
 1196 02a1 4A       		.byte	0x4a
 1197 02a2 0C       		.uleb128 0xc
ARM GAS  /tmp/ccmqySKt.s 			page 22


 1198 02a3 CC060000 		.4byte	.LASF95
 1199 02a7 4B       		.byte	0x4b
 1200 02a8 0C       		.uleb128 0xc
 1201 02a9 08090000 		.4byte	.LASF96
 1202 02ad 4C       		.byte	0x4c
 1203 02ae 0C       		.uleb128 0xc
 1204 02af 28050000 		.4byte	.LASF97
 1205 02b3 4D       		.byte	0x4d
 1206 02b4 0C       		.uleb128 0xc
 1207 02b5 DE020000 		.4byte	.LASF98
 1208 02b9 4E       		.byte	0x4e
 1209 02ba 0C       		.uleb128 0xc
 1210 02bb D3050000 		.4byte	.LASF99
 1211 02bf 50       		.byte	0x50
 1212 02c0 0C       		.uleb128 0xc
 1213 02c1 95080000 		.4byte	.LASF100
 1214 02c5 51       		.byte	0x51
 1215 02c6 0C       		.uleb128 0xc
 1216 02c7 8A080000 		.4byte	.LASF101
 1217 02cb 52       		.byte	0x52
 1218 02cc 0C       		.uleb128 0xc
 1219 02cd 73000000 		.4byte	.LASF102
 1220 02d1 53       		.byte	0x53
 1221 02d2 0C       		.uleb128 0xc
 1222 02d3 BE000000 		.4byte	.LASF103
 1223 02d7 54       		.byte	0x54
 1224 02d8 0C       		.uleb128 0xc
 1225 02d9 C3010000 		.4byte	.LASF104
 1226 02dd 55       		.byte	0x55
 1227 02de 0C       		.uleb128 0xc
 1228 02df 5D030000 		.4byte	.LASF105
 1229 02e3 56       		.byte	0x56
 1230 02e4 0C       		.uleb128 0xc
 1231 02e5 53030000 		.4byte	.LASF106
 1232 02e9 57       		.byte	0x57
 1233 02ea 0C       		.uleb128 0xc
 1234 02eb 58050000 		.4byte	.LASF107
 1235 02ef 58       		.byte	0x58
 1236 02f0 0C       		.uleb128 0xc
 1237 02f1 00000000 		.4byte	.LASF108
 1238 02f5 59       		.byte	0x59
 1239 02f6 0C       		.uleb128 0xc
 1240 02f7 34050000 		.4byte	.LASF109
 1241 02fb 5A       		.byte	0x5a
 1242 02fc 0C       		.uleb128 0xc
 1243 02fd 5C040000 		.4byte	.LASF110
 1244 0301 5B       		.byte	0x5b
 1245 0302 0C       		.uleb128 0xc
 1246 0303 AC030000 		.4byte	.LASF111
 1247 0307 5C       		.byte	0x5c
 1248 0308 0C       		.uleb128 0xc
 1249 0309 29060000 		.4byte	.LASF112
 1250 030d 5D       		.byte	0x5d
 1251 030e 0C       		.uleb128 0xc
 1252 030f 92010000 		.4byte	.LASF113
 1253 0313 5E       		.byte	0x5e
 1254 0314 0C       		.uleb128 0xc
ARM GAS  /tmp/ccmqySKt.s 			page 23


 1255 0315 6F040000 		.4byte	.LASF114
 1256 0319 5F       		.byte	0x5f
 1257 031a 0C       		.uleb128 0xc
 1258 031b 5C010000 		.4byte	.LASF115
 1259 031f 60       		.byte	0x60
 1260 0320 0C       		.uleb128 0xc
 1261 0321 BB040000 		.4byte	.LASF116
 1262 0325 61       		.byte	0x61
 1263 0326 0C       		.uleb128 0xc
 1264 0327 42030000 		.4byte	.LASF117
 1265 032b 63       		.byte	0x63
 1266 032c 0C       		.uleb128 0xc
 1267 032d 4B040000 		.4byte	.LASF118
 1268 0331 64       		.byte	0x64
 1269 0332 0C       		.uleb128 0xc
 1270 0333 3F050000 		.4byte	.LASF119
 1271 0337 65       		.byte	0x65
 1272 0338 0C       		.uleb128 0xc
 1273 0339 0D000000 		.4byte	.LASF120
 1274 033d 66       		.byte	0x66
 1275 033e 0C       		.uleb128 0xc
 1276 033f 5A000000 		.4byte	.LASF121
 1277 0343 67       		.byte	0x67
 1278 0344 0C       		.uleb128 0xc
 1279 0345 08060000 		.4byte	.LASF122
 1280 0349 68       		.byte	0x68
 1281 034a 0C       		.uleb128 0xc
 1282 034b 4C000000 		.4byte	.LASF123
 1283 034f 69       		.byte	0x69
 1284 0350 0C       		.uleb128 0xc
 1285 0351 4E010000 		.4byte	.LASF124
 1286 0355 6A       		.byte	0x6a
 1287 0356 0C       		.uleb128 0xc
 1288 0357 9B040000 		.4byte	.LASF125
 1289 035b 6B       		.byte	0x6b
 1290 035c 0C       		.uleb128 0xc
 1291 035d 06070000 		.4byte	.LASF126
 1292 0361 6C       		.byte	0x6c
 1293 0362 0C       		.uleb128 0xc
 1294 0363 D3020000 		.4byte	.LASF127
 1295 0367 6D       		.byte	0x6d
 1296 0368 00       		.byte	0
 1297 0369 0D       		.uleb128 0xd
 1298 036a 18       		.byte	0x18
 1299 036b 04       		.byte	0x4
 1300 036c 3502     		.2byte	0x235
 1301 036e 09       		.byte	0x9
 1302 036f C7030000 		.4byte	0x3c7
 1303 0373 0E       		.uleb128 0xe
 1304 0374 494D5200 		.ascii	"IMR\000"
 1305 0378 04       		.byte	0x4
 1306 0379 3702     		.2byte	0x237
 1307 037b 11       		.byte	0x11
 1308 037c 8A000000 		.4byte	0x8a
 1309 0380 00       		.byte	0
 1310 0381 0E       		.uleb128 0xe
 1311 0382 454D5200 		.ascii	"EMR\000"
ARM GAS  /tmp/ccmqySKt.s 			page 24


 1312 0386 04       		.byte	0x4
 1313 0387 3802     		.2byte	0x238
 1314 0389 11       		.byte	0x11
 1315 038a 8A000000 		.4byte	0x8a
 1316 038e 04       		.byte	0x4
 1317 038f 0F       		.uleb128 0xf
 1318 0390 1A030000 		.4byte	.LASF128
 1319 0394 04       		.byte	0x4
 1320 0395 3902     		.2byte	0x239
 1321 0397 11       		.byte	0x11
 1322 0398 8A000000 		.4byte	0x8a
 1323 039c 08       		.byte	0x8
 1324 039d 0F       		.uleb128 0xf
 1325 039e C3050000 		.4byte	.LASF129
 1326 03a2 04       		.byte	0x4
 1327 03a3 3A02     		.2byte	0x23a
 1328 03a5 11       		.byte	0x11
 1329 03a6 8A000000 		.4byte	0x8a
 1330 03aa 0C       		.byte	0xc
 1331 03ab 0F       		.uleb128 0xf
 1332 03ac AF000000 		.4byte	.LASF130
 1333 03b0 04       		.byte	0x4
 1334 03b1 3B02     		.2byte	0x23b
 1335 03b3 11       		.byte	0x11
 1336 03b4 8A000000 		.4byte	0x8a
 1337 03b8 10       		.byte	0x10
 1338 03b9 0E       		.uleb128 0xe
 1339 03ba 505200   		.ascii	"PR\000"
 1340 03bd 04       		.byte	0x4
 1341 03be 3C02     		.2byte	0x23c
 1342 03c0 11       		.byte	0x11
 1343 03c1 8A000000 		.4byte	0x8a
 1344 03c5 14       		.byte	0x14
 1345 03c6 00       		.byte	0
 1346 03c7 10       		.uleb128 0x10
 1347 03c8 C4080000 		.4byte	.LASF131
 1348 03cc 04       		.byte	0x4
 1349 03cd 3D02     		.2byte	0x23d
 1350 03cf 03       		.byte	0x3
 1351 03d0 69030000 		.4byte	0x369
 1352 03d4 03       		.uleb128 0x3
 1353 03d5 01       		.byte	0x1
 1354 03d6 08       		.byte	0x8
 1355 03d7 A3060000 		.4byte	.LASF132
 1356 03db 03       		.uleb128 0x3
 1357 03dc 01       		.byte	0x1
 1358 03dd 02       		.byte	0x2
 1359 03de 9C050000 		.4byte	.LASF133
 1360 03e2 04       		.uleb128 0x4
 1361 03e3 E8020000 		.4byte	.LASF134
 1362 03e7 05       		.byte	0x5
 1363 03e8 94       		.byte	0x94
 1364 03e9 10       		.byte	0x10
 1365 03ea 8F000000 		.4byte	0x8f
 1366 03ee 11       		.uleb128 0x11
 1367 03ef 08       		.byte	0x8
 1368 03f0 05       		.byte	0x5
ARM GAS  /tmp/ccmqySKt.s 			page 25


 1369 03f1 9A       		.byte	0x9a
 1370 03f2 09       		.byte	0x9
 1371 03f3 11040000 		.4byte	0x411
 1372 03f7 12       		.uleb128 0x12
 1373 03f8 636200   		.ascii	"cb\000"
 1374 03fb 05       		.byte	0x5
 1375 03fc A5       		.byte	0xa5
 1376 03fd 19       		.byte	0x19
 1377 03fe E2030000 		.4byte	0x3e2
 1378 0402 00       		.byte	0
 1379 0403 12       		.uleb128 0x12
 1380 0404 61726700 		.ascii	"arg\000"
 1381 0408 05       		.byte	0x5
 1382 0409 A9       		.byte	0xa9
 1383 040a 1A       		.byte	0x1a
 1384 040b A0000000 		.4byte	0xa0
 1385 040f 04       		.byte	0x4
 1386 0410 00       		.byte	0
 1387 0411 04       		.uleb128 0x4
 1388 0412 F0030000 		.4byte	.LASF135
 1389 0416 05       		.byte	0x5
 1390 0417 AB       		.byte	0xab
 1391 0418 03       		.byte	0x3
 1392 0419 EE030000 		.4byte	0x3ee
 1393 041d 13       		.uleb128 0x13
 1394 041e 11040000 		.4byte	0x411
 1395 0422 2D040000 		.4byte	0x42d
 1396 0426 14       		.uleb128 0x14
 1397 0427 2C000000 		.4byte	0x2c
 1398 042b 0F       		.byte	0xf
 1399 042c 00       		.byte	0
 1400 042d 15       		.uleb128 0x15
 1401 042e B9030000 		.4byte	.LASF139
 1402 0432 09       		.byte	0x9
 1403 0433 EB01     		.2byte	0x1eb
 1404 0435 13       		.byte	0x13
 1405 0436 1D040000 		.4byte	0x41d
 1406 043a 16       		.uleb128 0x16
 1407 043b C9020000 		.4byte	.LASF136
 1408 043f 01       		.byte	0x1
 1409 0440 F2       		.byte	0xf2
 1410 0441 06       		.byte	0x6
 1411 0442 00000000 		.4byte	.LFB342
 1412 0446 30000000 		.4byte	.LFE342-.LFB342
 1413 044a 01       		.uleb128 0x1
 1414 044b 9C       		.byte	0x9c
 1415 044c D3040000 		.4byte	0x4d3
 1416 0450 17       		.uleb128 0x17
 1417 0451 08000000 		.4byte	.LVL61
 1418 0455 33070000 		.4byte	0x733
 1419 0459 63040000 		.4byte	0x463
 1420 045d 18       		.uleb128 0x18
 1421 045e 01       		.uleb128 0x1
 1422 045f 50       		.byte	0x50
 1423 0460 01       		.uleb128 0x1
 1424 0461 36       		.byte	0x36
 1425 0462 00       		.byte	0
ARM GAS  /tmp/ccmqySKt.s 			page 26


 1426 0463 17       		.uleb128 0x17
 1427 0464 0E000000 		.4byte	.LVL62
 1428 0468 33070000 		.4byte	0x733
 1429 046c 76040000 		.4byte	0x476
 1430 0470 18       		.uleb128 0x18
 1431 0471 01       		.uleb128 0x1
 1432 0472 50       		.byte	0x50
 1433 0473 01       		.uleb128 0x1
 1434 0474 37       		.byte	0x37
 1435 0475 00       		.byte	0
 1436 0476 17       		.uleb128 0x17
 1437 0477 14000000 		.4byte	.LVL63
 1438 047b 33070000 		.4byte	0x733
 1439 047f 89040000 		.4byte	0x489
 1440 0483 18       		.uleb128 0x18
 1441 0484 01       		.uleb128 0x1
 1442 0485 50       		.byte	0x50
 1443 0486 01       		.uleb128 0x1
 1444 0487 38       		.byte	0x38
 1445 0488 00       		.byte	0
 1446 0489 17       		.uleb128 0x17
 1447 048a 1A000000 		.4byte	.LVL64
 1448 048e 33070000 		.4byte	0x733
 1449 0492 9C040000 		.4byte	0x49c
 1450 0496 18       		.uleb128 0x18
 1451 0497 01       		.uleb128 0x1
 1452 0498 50       		.byte	0x50
 1453 0499 01       		.uleb128 0x1
 1454 049a 39       		.byte	0x39
 1455 049b 00       		.byte	0
 1456 049c 17       		.uleb128 0x17
 1457 049d 20000000 		.4byte	.LVL65
 1458 04a1 33070000 		.4byte	0x733
 1459 04a5 AF040000 		.4byte	0x4af
 1460 04a9 18       		.uleb128 0x18
 1461 04aa 01       		.uleb128 0x1
 1462 04ab 50       		.byte	0x50
 1463 04ac 01       		.uleb128 0x1
 1464 04ad 3A       		.byte	0x3a
 1465 04ae 00       		.byte	0
 1466 04af 17       		.uleb128 0x17
 1467 04b0 26000000 		.4byte	.LVL66
 1468 04b4 33070000 		.4byte	0x733
 1469 04b8 C2040000 		.4byte	0x4c2
 1470 04bc 18       		.uleb128 0x18
 1471 04bd 01       		.uleb128 0x1
 1472 04be 50       		.byte	0x50
 1473 04bf 01       		.uleb128 0x1
 1474 04c0 47       		.byte	0x47
 1475 04c1 00       		.byte	0
 1476 04c2 19       		.uleb128 0x19
 1477 04c3 30000000 		.4byte	.LVL67
 1478 04c7 33070000 		.4byte	0x733
 1479 04cb 18       		.uleb128 0x18
 1480 04cc 01       		.uleb128 0x1
 1481 04cd 50       		.byte	0x50
 1482 04ce 02       		.uleb128 0x2
ARM GAS  /tmp/ccmqySKt.s 			page 27


 1483 04cf 08       		.byte	0x8
 1484 04d0 28       		.byte	0x28
 1485 04d1 00       		.byte	0
 1486 04d2 00       		.byte	0
 1487 04d3 16       		.uleb128 0x16
 1488 04d4 50050000 		.4byte	.LASF137
 1489 04d8 01       		.byte	0x1
 1490 04d9 E0       		.byte	0xe0
 1491 04da 06       		.byte	0x6
 1492 04db 00000000 		.4byte	.LFB341
 1493 04df 3E000000 		.4byte	.LFE341-.LFB341
 1494 04e3 01       		.uleb128 0x1
 1495 04e4 9C       		.byte	0x9c
 1496 04e5 8F050000 		.4byte	0x58f
 1497 04e9 17       		.uleb128 0x17
 1498 04ea 0A000000 		.4byte	.LVL54
 1499 04ee 3F070000 		.4byte	0x73f
 1500 04f2 01050000 		.4byte	0x501
 1501 04f6 18       		.uleb128 0x18
 1502 04f7 01       		.uleb128 0x1
 1503 04f8 50       		.byte	0x50
 1504 04f9 01       		.uleb128 0x1
 1505 04fa 36       		.byte	0x36
 1506 04fb 18       		.uleb128 0x18
 1507 04fc 01       		.uleb128 0x1
 1508 04fd 51       		.byte	0x51
 1509 04fe 01       		.uleb128 0x1
 1510 04ff 36       		.byte	0x36
 1511 0500 00       		.byte	0
 1512 0501 17       		.uleb128 0x17
 1513 0502 12000000 		.4byte	.LVL55
 1514 0506 3F070000 		.4byte	0x73f
 1515 050a 19050000 		.4byte	0x519
 1516 050e 18       		.uleb128 0x18
 1517 050f 01       		.uleb128 0x1
 1518 0510 50       		.byte	0x50
 1519 0511 01       		.uleb128 0x1
 1520 0512 37       		.byte	0x37
 1521 0513 18       		.uleb128 0x18
 1522 0514 01       		.uleb128 0x1
 1523 0515 51       		.byte	0x51
 1524 0516 01       		.uleb128 0x1
 1525 0517 36       		.byte	0x36
 1526 0518 00       		.byte	0
 1527 0519 17       		.uleb128 0x17
 1528 051a 1A000000 		.4byte	.LVL56
 1529 051e 3F070000 		.4byte	0x73f
 1530 0522 31050000 		.4byte	0x531
 1531 0526 18       		.uleb128 0x18
 1532 0527 01       		.uleb128 0x1
 1533 0528 50       		.byte	0x50
 1534 0529 01       		.uleb128 0x1
 1535 052a 38       		.byte	0x38
 1536 052b 18       		.uleb128 0x18
 1537 052c 01       		.uleb128 0x1
 1538 052d 51       		.byte	0x51
 1539 052e 01       		.uleb128 0x1
ARM GAS  /tmp/ccmqySKt.s 			page 28


 1540 052f 36       		.byte	0x36
 1541 0530 00       		.byte	0
 1542 0531 17       		.uleb128 0x17
 1543 0532 22000000 		.4byte	.LVL57
 1544 0536 3F070000 		.4byte	0x73f
 1545 053a 49050000 		.4byte	0x549
 1546 053e 18       		.uleb128 0x18
 1547 053f 01       		.uleb128 0x1
 1548 0540 50       		.byte	0x50
 1549 0541 01       		.uleb128 0x1
 1550 0542 39       		.byte	0x39
 1551 0543 18       		.uleb128 0x18
 1552 0544 01       		.uleb128 0x1
 1553 0545 51       		.byte	0x51
 1554 0546 01       		.uleb128 0x1
 1555 0547 36       		.byte	0x36
 1556 0548 00       		.byte	0
 1557 0549 17       		.uleb128 0x17
 1558 054a 2A000000 		.4byte	.LVL58
 1559 054e 3F070000 		.4byte	0x73f
 1560 0552 61050000 		.4byte	0x561
 1561 0556 18       		.uleb128 0x18
 1562 0557 01       		.uleb128 0x1
 1563 0558 50       		.byte	0x50
 1564 0559 01       		.uleb128 0x1
 1565 055a 3A       		.byte	0x3a
 1566 055b 18       		.uleb128 0x18
 1567 055c 01       		.uleb128 0x1
 1568 055d 51       		.byte	0x51
 1569 055e 01       		.uleb128 0x1
 1570 055f 36       		.byte	0x36
 1571 0560 00       		.byte	0
 1572 0561 17       		.uleb128 0x17
 1573 0562 32000000 		.4byte	.LVL59
 1574 0566 3F070000 		.4byte	0x73f
 1575 056a 79050000 		.4byte	0x579
 1576 056e 18       		.uleb128 0x18
 1577 056f 01       		.uleb128 0x1
 1578 0570 50       		.byte	0x50
 1579 0571 01       		.uleb128 0x1
 1580 0572 47       		.byte	0x47
 1581 0573 18       		.uleb128 0x18
 1582 0574 01       		.uleb128 0x1
 1583 0575 51       		.byte	0x51
 1584 0576 01       		.uleb128 0x1
 1585 0577 36       		.byte	0x36
 1586 0578 00       		.byte	0
 1587 0579 19       		.uleb128 0x19
 1588 057a 3E000000 		.4byte	.LVL60
 1589 057e 3F070000 		.4byte	0x73f
 1590 0582 18       		.uleb128 0x18
 1591 0583 01       		.uleb128 0x1
 1592 0584 50       		.byte	0x50
 1593 0585 02       		.uleb128 0x2
 1594 0586 08       		.byte	0x8
 1595 0587 28       		.byte	0x28
 1596 0588 18       		.uleb128 0x18
ARM GAS  /tmp/ccmqySKt.s 			page 29


 1597 0589 01       		.uleb128 0x1
 1598 058a 51       		.byte	0x51
 1599 058b 01       		.uleb128 0x1
 1600 058c 36       		.byte	0x36
 1601 058d 00       		.byte	0
 1602 058e 00       		.byte	0
 1603 058f 1A       		.uleb128 0x1a
 1604 0590 1F050000 		.4byte	.LASF138
 1605 0594 01       		.byte	0x1
 1606 0595 C0       		.byte	0xc0
 1607 0596 01       		.byte	0x1
 1608 0597 00000000 		.4byte	.LFB340
 1609 059b 78000000 		.4byte	.LFE340-.LFB340
 1610 059f 01       		.uleb128 0x1
 1611 05a0 9C       		.byte	0x9c
 1612 05a1 CB050000 		.4byte	0x5cb
 1613 05a5 1B       		.uleb128 0x1b
 1614 05a6 707200   		.ascii	"pr\000"
 1615 05a9 01       		.byte	0x1
 1616 05aa C1       		.byte	0xc1
 1617 05ab 0C       		.byte	0xc
 1618 05ac 7E000000 		.4byte	0x7e
 1619 05b0 08000000 		.4byte	.LLST6
 1620 05b4 00000000 		.4byte	.LVUS6
 1621 05b8 1C       		.uleb128 0x1c
 1622 05b9 06000000 		.4byte	.LVL41
 1623 05bd 4B070000 		.4byte	0x74b
 1624 05c1 1D       		.uleb128 0x1d
 1625 05c2 70000000 		.4byte	.LVL53
 1626 05c6 57070000 		.4byte	0x757
 1627 05ca 00       		.byte	0
 1628 05cb 1A       		.uleb128 0x1a
 1629 05cc 43000000 		.4byte	.LASF140
 1630 05d0 01       		.byte	0x1
 1631 05d1 A6       		.byte	0xa6
 1632 05d2 01       		.byte	0x1
 1633 05d3 00000000 		.4byte	.LFB339
 1634 05d7 6C000000 		.4byte	.LFE339-.LFB339
 1635 05db 01       		.uleb128 0x1
 1636 05dc 9C       		.byte	0x9c
 1637 05dd 07060000 		.4byte	0x607
 1638 05e1 1B       		.uleb128 0x1b
 1639 05e2 707200   		.ascii	"pr\000"
 1640 05e5 01       		.byte	0x1
 1641 05e6 A7       		.byte	0xa7
 1642 05e7 0C       		.byte	0xc
 1643 05e8 7E000000 		.4byte	0x7e
 1644 05ec 4D000000 		.4byte	.LLST5
 1645 05f0 47000000 		.4byte	.LVUS5
 1646 05f4 1C       		.uleb128 0x1c
 1647 05f5 06000000 		.4byte	.LVL30
 1648 05f9 4B070000 		.4byte	0x74b
 1649 05fd 1D       		.uleb128 0x1d
 1650 05fe 62000000 		.4byte	.LVL40
 1651 0602 57070000 		.4byte	0x757
 1652 0606 00       		.byte	0
 1653 0607 1A       		.uleb128 0x1a
ARM GAS  /tmp/ccmqySKt.s 			page 30


 1654 0608 6B050000 		.4byte	.LASF141
 1655 060c 01       		.byte	0x1
 1656 060d 91       		.byte	0x91
 1657 060e 01       		.byte	0x1
 1658 060f 00000000 		.4byte	.LFB338
 1659 0613 30000000 		.4byte	.LFE338-.LFB338
 1660 0617 01       		.uleb128 0x1
 1661 0618 9C       		.byte	0x9c
 1662 0619 43060000 		.4byte	0x643
 1663 061d 1B       		.uleb128 0x1b
 1664 061e 707200   		.ascii	"pr\000"
 1665 0621 01       		.byte	0x1
 1666 0622 92       		.byte	0x92
 1667 0623 0C       		.byte	0xc
 1668 0624 7E000000 		.4byte	0x7e
 1669 0628 86000000 		.4byte	.LLST4
 1670 062c 80000000 		.4byte	.LVUS4
 1671 0630 1C       		.uleb128 0x1c
 1672 0631 06000000 		.4byte	.LVL24
 1673 0635 4B070000 		.4byte	0x74b
 1674 0639 1D       		.uleb128 0x1d
 1675 063a 28000000 		.4byte	.LVL29
 1676 063e 57070000 		.4byte	0x757
 1677 0642 00       		.byte	0
 1678 0643 1A       		.uleb128 0x1a
 1679 0644 62050000 		.4byte	.LASF142
 1680 0648 01       		.byte	0x1
 1681 0649 7C       		.byte	0x7c
 1682 064a 01       		.byte	0x1
 1683 064b 00000000 		.4byte	.LFB337
 1684 064f 30000000 		.4byte	.LFE337-.LFB337
 1685 0653 01       		.uleb128 0x1
 1686 0654 9C       		.byte	0x9c
 1687 0655 7F060000 		.4byte	0x67f
 1688 0659 1B       		.uleb128 0x1b
 1689 065a 707200   		.ascii	"pr\000"
 1690 065d 01       		.byte	0x1
 1691 065e 7D       		.byte	0x7d
 1692 065f 0C       		.byte	0xc
 1693 0660 7E000000 		.4byte	0x7e
 1694 0664 B9000000 		.4byte	.LLST3
 1695 0668 B3000000 		.4byte	.LVUS3
 1696 066c 1C       		.uleb128 0x1c
 1697 066d 06000000 		.4byte	.LVL18
 1698 0671 4B070000 		.4byte	0x74b
 1699 0675 1D       		.uleb128 0x1d
 1700 0676 28000000 		.4byte	.LVL23
 1701 067a 57070000 		.4byte	0x757
 1702 067e 00       		.byte	0
 1703 067f 1A       		.uleb128 0x1a
 1704 0680 B5000000 		.4byte	.LASF143
 1705 0684 01       		.byte	0x1
 1706 0685 67       		.byte	0x67
 1707 0686 01       		.byte	0x1
 1708 0687 00000000 		.4byte	.LFB336
 1709 068b 30000000 		.4byte	.LFE336-.LFB336
 1710 068f 01       		.uleb128 0x1
ARM GAS  /tmp/ccmqySKt.s 			page 31


 1711 0690 9C       		.byte	0x9c
 1712 0691 BB060000 		.4byte	0x6bb
 1713 0695 1B       		.uleb128 0x1b
 1714 0696 707200   		.ascii	"pr\000"
 1715 0699 01       		.byte	0x1
 1716 069a 68       		.byte	0x68
 1717 069b 0C       		.byte	0xc
 1718 069c 7E000000 		.4byte	0x7e
 1719 06a0 EC000000 		.4byte	.LLST2
 1720 06a4 E6000000 		.4byte	.LVUS2
 1721 06a8 1C       		.uleb128 0x1c
 1722 06a9 06000000 		.4byte	.LVL12
 1723 06ad 4B070000 		.4byte	0x74b
 1724 06b1 1D       		.uleb128 0x1d
 1725 06b2 28000000 		.4byte	.LVL17
 1726 06b6 57070000 		.4byte	0x757
 1727 06ba 00       		.byte	0
 1728 06bb 1A       		.uleb128 0x1a
 1729 06bc 7C040000 		.4byte	.LASF144
 1730 06c0 01       		.byte	0x1
 1731 06c1 52       		.byte	0x52
 1732 06c2 01       		.byte	0x1
 1733 06c3 00000000 		.4byte	.LFB335
 1734 06c7 30000000 		.4byte	.LFE335-.LFB335
 1735 06cb 01       		.uleb128 0x1
 1736 06cc 9C       		.byte	0x9c
 1737 06cd F7060000 		.4byte	0x6f7
 1738 06d1 1B       		.uleb128 0x1b
 1739 06d2 707200   		.ascii	"pr\000"
 1740 06d5 01       		.byte	0x1
 1741 06d6 53       		.byte	0x53
 1742 06d7 0C       		.byte	0xc
 1743 06d8 7E000000 		.4byte	0x7e
 1744 06dc 1F010000 		.4byte	.LLST1
 1745 06e0 19010000 		.4byte	.LVUS1
 1746 06e4 1C       		.uleb128 0x1c
 1747 06e5 06000000 		.4byte	.LVL6
 1748 06e9 4B070000 		.4byte	0x74b
 1749 06ed 1D       		.uleb128 0x1d
 1750 06ee 28000000 		.4byte	.LVL11
 1751 06f2 57070000 		.4byte	0x757
 1752 06f6 00       		.byte	0
 1753 06f7 1A       		.uleb128 0x1a
 1754 06f8 66040000 		.4byte	.LASF145
 1755 06fc 01       		.byte	0x1
 1756 06fd 3D       		.byte	0x3d
 1757 06fe 01       		.byte	0x1
 1758 06ff 00000000 		.4byte	.LFB334
 1759 0703 30000000 		.4byte	.LFE334-.LFB334
 1760 0707 01       		.uleb128 0x1
 1761 0708 9C       		.byte	0x9c
 1762 0709 33070000 		.4byte	0x733
 1763 070d 1B       		.uleb128 0x1b
 1764 070e 707200   		.ascii	"pr\000"
 1765 0711 01       		.byte	0x1
 1766 0712 3E       		.byte	0x3e
 1767 0713 0C       		.byte	0xc
ARM GAS  /tmp/ccmqySKt.s 			page 32


 1768 0714 7E000000 		.4byte	0x7e
 1769 0718 52010000 		.4byte	.LLST0
 1770 071c 4C010000 		.4byte	.LVUS0
 1771 0720 1C       		.uleb128 0x1c
 1772 0721 06000000 		.4byte	.LVL0
 1773 0725 4B070000 		.4byte	0x74b
 1774 0729 1D       		.uleb128 0x1d
 1775 072a 28000000 		.4byte	.LVL5
 1776 072e 57070000 		.4byte	0x757
 1777 0732 00       		.byte	0
 1778 0733 1E       		.uleb128 0x1e
 1779 0734 08030000 		.4byte	.LASF146
 1780 0738 08030000 		.4byte	.LASF146
 1781 073c 06       		.byte	0x6
 1782 073d 4F       		.byte	0x4f
 1783 073e 08       		.byte	0x8
 1784 073f 1E       		.uleb128 0x1e
 1785 0740 15010000 		.4byte	.LASF147
 1786 0744 15010000 		.4byte	.LASF147
 1787 0748 06       		.byte	0x6
 1788 0749 4E       		.byte	0x4e
 1789 074a 08       		.byte	0x8
 1790 074b 1E       		.uleb128 0x1e
 1791 074c B0080000 		.4byte	.LASF148
 1792 0750 B0080000 		.4byte	.LASF148
 1793 0754 07       		.byte	0x7
 1794 0755 4D       		.byte	0x4d
 1795 0756 08       		.byte	0x8
 1796 0757 1F       		.uleb128 0x1f
 1797 0758 60070000 		.4byte	.LASF149
 1798 075c 60070000 		.4byte	.LASF149
 1799 0760 08       		.byte	0x8
 1800 0761 F201     		.2byte	0x1f2
 1801 0763 08       		.byte	0x8
 1802 0764 00       		.byte	0
 1803              		.section	.debug_abbrev,"",%progbits
 1804              	.Ldebug_abbrev0:
 1805 0000 01       		.uleb128 0x1
 1806 0001 11       		.uleb128 0x11
 1807 0002 01       		.byte	0x1
 1808 0003 25       		.uleb128 0x25
 1809 0004 0E       		.uleb128 0xe
 1810 0005 13       		.uleb128 0x13
 1811 0006 0B       		.uleb128 0xb
 1812 0007 03       		.uleb128 0x3
 1813 0008 0E       		.uleb128 0xe
 1814 0009 1B       		.uleb128 0x1b
 1815 000a 0E       		.uleb128 0xe
 1816 000b 55       		.uleb128 0x55
 1817 000c 17       		.uleb128 0x17
 1818 000d 11       		.uleb128 0x11
 1819 000e 01       		.uleb128 0x1
 1820 000f 10       		.uleb128 0x10
 1821 0010 17       		.uleb128 0x17
 1822 0011 00       		.byte	0
 1823 0012 00       		.byte	0
 1824 0013 02       		.uleb128 0x2
ARM GAS  /tmp/ccmqySKt.s 			page 33


 1825 0014 24       		.uleb128 0x24
 1826 0015 00       		.byte	0
 1827 0016 0B       		.uleb128 0xb
 1828 0017 0B       		.uleb128 0xb
 1829 0018 3E       		.uleb128 0x3e
 1830 0019 0B       		.uleb128 0xb
 1831 001a 03       		.uleb128 0x3
 1832 001b 08       		.uleb128 0x8
 1833 001c 00       		.byte	0
 1834 001d 00       		.byte	0
 1835 001e 03       		.uleb128 0x3
 1836 001f 24       		.uleb128 0x24
 1837 0020 00       		.byte	0
 1838 0021 0B       		.uleb128 0xb
 1839 0022 0B       		.uleb128 0xb
 1840 0023 3E       		.uleb128 0x3e
 1841 0024 0B       		.uleb128 0xb
 1842 0025 03       		.uleb128 0x3
 1843 0026 0E       		.uleb128 0xe
 1844 0027 00       		.byte	0
 1845 0028 00       		.byte	0
 1846 0029 04       		.uleb128 0x4
 1847 002a 16       		.uleb128 0x16
 1848 002b 00       		.byte	0
 1849 002c 03       		.uleb128 0x3
 1850 002d 0E       		.uleb128 0xe
 1851 002e 3A       		.uleb128 0x3a
 1852 002f 0B       		.uleb128 0xb
 1853 0030 3B       		.uleb128 0x3b
 1854 0031 0B       		.uleb128 0xb
 1855 0032 39       		.uleb128 0x39
 1856 0033 0B       		.uleb128 0xb
 1857 0034 49       		.uleb128 0x49
 1858 0035 13       		.uleb128 0x13
 1859 0036 00       		.byte	0
 1860 0037 00       		.byte	0
 1861 0038 05       		.uleb128 0x5
 1862 0039 35       		.uleb128 0x35
 1863 003a 00       		.byte	0
 1864 003b 49       		.uleb128 0x49
 1865 003c 13       		.uleb128 0x13
 1866 003d 00       		.byte	0
 1867 003e 00       		.byte	0
 1868 003f 06       		.uleb128 0x6
 1869 0040 0F       		.uleb128 0xf
 1870 0041 00       		.byte	0
 1871 0042 0B       		.uleb128 0xb
 1872 0043 0B       		.uleb128 0xb
 1873 0044 49       		.uleb128 0x49
 1874 0045 13       		.uleb128 0x13
 1875 0046 00       		.byte	0
 1876 0047 00       		.byte	0
 1877 0048 07       		.uleb128 0x7
 1878 0049 15       		.uleb128 0x15
 1879 004a 01       		.byte	0x1
 1880 004b 27       		.uleb128 0x27
 1881 004c 19       		.uleb128 0x19
ARM GAS  /tmp/ccmqySKt.s 			page 34


 1882 004d 01       		.uleb128 0x1
 1883 004e 13       		.uleb128 0x13
 1884 004f 00       		.byte	0
 1885 0050 00       		.byte	0
 1886 0051 08       		.uleb128 0x8
 1887 0052 05       		.uleb128 0x5
 1888 0053 00       		.byte	0
 1889 0054 49       		.uleb128 0x49
 1890 0055 13       		.uleb128 0x13
 1891 0056 00       		.byte	0
 1892 0057 00       		.byte	0
 1893 0058 09       		.uleb128 0x9
 1894 0059 0F       		.uleb128 0xf
 1895 005a 00       		.byte	0
 1896 005b 0B       		.uleb128 0xb
 1897 005c 0B       		.uleb128 0xb
 1898 005d 00       		.byte	0
 1899 005e 00       		.byte	0
 1900 005f 0A       		.uleb128 0xa
 1901 0060 04       		.uleb128 0x4
 1902 0061 01       		.byte	0x1
 1903 0062 3E       		.uleb128 0x3e
 1904 0063 0B       		.uleb128 0xb
 1905 0064 0B       		.uleb128 0xb
 1906 0065 0B       		.uleb128 0xb
 1907 0066 49       		.uleb128 0x49
 1908 0067 13       		.uleb128 0x13
 1909 0068 3A       		.uleb128 0x3a
 1910 0069 0B       		.uleb128 0xb
 1911 006a 3B       		.uleb128 0x3b
 1912 006b 0B       		.uleb128 0xb
 1913 006c 39       		.uleb128 0x39
 1914 006d 0B       		.uleb128 0xb
 1915 006e 01       		.uleb128 0x1
 1916 006f 13       		.uleb128 0x13
 1917 0070 00       		.byte	0
 1918 0071 00       		.byte	0
 1919 0072 0B       		.uleb128 0xb
 1920 0073 28       		.uleb128 0x28
 1921 0074 00       		.byte	0
 1922 0075 03       		.uleb128 0x3
 1923 0076 0E       		.uleb128 0xe
 1924 0077 1C       		.uleb128 0x1c
 1925 0078 0D       		.uleb128 0xd
 1926 0079 00       		.byte	0
 1927 007a 00       		.byte	0
 1928 007b 0C       		.uleb128 0xc
 1929 007c 28       		.uleb128 0x28
 1930 007d 00       		.byte	0
 1931 007e 03       		.uleb128 0x3
 1932 007f 0E       		.uleb128 0xe
 1933 0080 1C       		.uleb128 0x1c
 1934 0081 0B       		.uleb128 0xb
 1935 0082 00       		.byte	0
 1936 0083 00       		.byte	0
 1937 0084 0D       		.uleb128 0xd
 1938 0085 13       		.uleb128 0x13
ARM GAS  /tmp/ccmqySKt.s 			page 35


 1939 0086 01       		.byte	0x1
 1940 0087 0B       		.uleb128 0xb
 1941 0088 0B       		.uleb128 0xb
 1942 0089 3A       		.uleb128 0x3a
 1943 008a 0B       		.uleb128 0xb
 1944 008b 3B       		.uleb128 0x3b
 1945 008c 05       		.uleb128 0x5
 1946 008d 39       		.uleb128 0x39
 1947 008e 0B       		.uleb128 0xb
 1948 008f 01       		.uleb128 0x1
 1949 0090 13       		.uleb128 0x13
 1950 0091 00       		.byte	0
 1951 0092 00       		.byte	0
 1952 0093 0E       		.uleb128 0xe
 1953 0094 0D       		.uleb128 0xd
 1954 0095 00       		.byte	0
 1955 0096 03       		.uleb128 0x3
 1956 0097 08       		.uleb128 0x8
 1957 0098 3A       		.uleb128 0x3a
 1958 0099 0B       		.uleb128 0xb
 1959 009a 3B       		.uleb128 0x3b
 1960 009b 05       		.uleb128 0x5
 1961 009c 39       		.uleb128 0x39
 1962 009d 0B       		.uleb128 0xb
 1963 009e 49       		.uleb128 0x49
 1964 009f 13       		.uleb128 0x13
 1965 00a0 38       		.uleb128 0x38
 1966 00a1 0B       		.uleb128 0xb
 1967 00a2 00       		.byte	0
 1968 00a3 00       		.byte	0
 1969 00a4 0F       		.uleb128 0xf
 1970 00a5 0D       		.uleb128 0xd
 1971 00a6 00       		.byte	0
 1972 00a7 03       		.uleb128 0x3
 1973 00a8 0E       		.uleb128 0xe
 1974 00a9 3A       		.uleb128 0x3a
 1975 00aa 0B       		.uleb128 0xb
 1976 00ab 3B       		.uleb128 0x3b
 1977 00ac 05       		.uleb128 0x5
 1978 00ad 39       		.uleb128 0x39
 1979 00ae 0B       		.uleb128 0xb
 1980 00af 49       		.uleb128 0x49
 1981 00b0 13       		.uleb128 0x13
 1982 00b1 38       		.uleb128 0x38
 1983 00b2 0B       		.uleb128 0xb
 1984 00b3 00       		.byte	0
 1985 00b4 00       		.byte	0
 1986 00b5 10       		.uleb128 0x10
 1987 00b6 16       		.uleb128 0x16
 1988 00b7 00       		.byte	0
 1989 00b8 03       		.uleb128 0x3
 1990 00b9 0E       		.uleb128 0xe
 1991 00ba 3A       		.uleb128 0x3a
 1992 00bb 0B       		.uleb128 0xb
 1993 00bc 3B       		.uleb128 0x3b
 1994 00bd 05       		.uleb128 0x5
 1995 00be 39       		.uleb128 0x39
ARM GAS  /tmp/ccmqySKt.s 			page 36


 1996 00bf 0B       		.uleb128 0xb
 1997 00c0 49       		.uleb128 0x49
 1998 00c1 13       		.uleb128 0x13
 1999 00c2 00       		.byte	0
 2000 00c3 00       		.byte	0
 2001 00c4 11       		.uleb128 0x11
 2002 00c5 13       		.uleb128 0x13
 2003 00c6 01       		.byte	0x1
 2004 00c7 0B       		.uleb128 0xb
 2005 00c8 0B       		.uleb128 0xb
 2006 00c9 3A       		.uleb128 0x3a
 2007 00ca 0B       		.uleb128 0xb
 2008 00cb 3B       		.uleb128 0x3b
 2009 00cc 0B       		.uleb128 0xb
 2010 00cd 39       		.uleb128 0x39
 2011 00ce 0B       		.uleb128 0xb
 2012 00cf 01       		.uleb128 0x1
 2013 00d0 13       		.uleb128 0x13
 2014 00d1 00       		.byte	0
 2015 00d2 00       		.byte	0
 2016 00d3 12       		.uleb128 0x12
 2017 00d4 0D       		.uleb128 0xd
 2018 00d5 00       		.byte	0
 2019 00d6 03       		.uleb128 0x3
 2020 00d7 08       		.uleb128 0x8
 2021 00d8 3A       		.uleb128 0x3a
 2022 00d9 0B       		.uleb128 0xb
 2023 00da 3B       		.uleb128 0x3b
 2024 00db 0B       		.uleb128 0xb
 2025 00dc 39       		.uleb128 0x39
 2026 00dd 0B       		.uleb128 0xb
 2027 00de 49       		.uleb128 0x49
 2028 00df 13       		.uleb128 0x13
 2029 00e0 38       		.uleb128 0x38
 2030 00e1 0B       		.uleb128 0xb
 2031 00e2 00       		.byte	0
 2032 00e3 00       		.byte	0
 2033 00e4 13       		.uleb128 0x13
 2034 00e5 01       		.uleb128 0x1
 2035 00e6 01       		.byte	0x1
 2036 00e7 49       		.uleb128 0x49
 2037 00e8 13       		.uleb128 0x13
 2038 00e9 01       		.uleb128 0x1
 2039 00ea 13       		.uleb128 0x13
 2040 00eb 00       		.byte	0
 2041 00ec 00       		.byte	0
 2042 00ed 14       		.uleb128 0x14
 2043 00ee 21       		.uleb128 0x21
 2044 00ef 00       		.byte	0
 2045 00f0 49       		.uleb128 0x49
 2046 00f1 13       		.uleb128 0x13
 2047 00f2 2F       		.uleb128 0x2f
 2048 00f3 0B       		.uleb128 0xb
 2049 00f4 00       		.byte	0
 2050 00f5 00       		.byte	0
 2051 00f6 15       		.uleb128 0x15
 2052 00f7 34       		.uleb128 0x34
ARM GAS  /tmp/ccmqySKt.s 			page 37


 2053 00f8 00       		.byte	0
 2054 00f9 03       		.uleb128 0x3
 2055 00fa 0E       		.uleb128 0xe
 2056 00fb 3A       		.uleb128 0x3a
 2057 00fc 0B       		.uleb128 0xb
 2058 00fd 3B       		.uleb128 0x3b
 2059 00fe 05       		.uleb128 0x5
 2060 00ff 39       		.uleb128 0x39
 2061 0100 0B       		.uleb128 0xb
 2062 0101 49       		.uleb128 0x49
 2063 0102 13       		.uleb128 0x13
 2064 0103 3F       		.uleb128 0x3f
 2065 0104 19       		.uleb128 0x19
 2066 0105 3C       		.uleb128 0x3c
 2067 0106 19       		.uleb128 0x19
 2068 0107 00       		.byte	0
 2069 0108 00       		.byte	0
 2070 0109 16       		.uleb128 0x16
 2071 010a 2E       		.uleb128 0x2e
 2072 010b 01       		.byte	0x1
 2073 010c 3F       		.uleb128 0x3f
 2074 010d 19       		.uleb128 0x19
 2075 010e 03       		.uleb128 0x3
 2076 010f 0E       		.uleb128 0xe
 2077 0110 3A       		.uleb128 0x3a
 2078 0111 0B       		.uleb128 0xb
 2079 0112 3B       		.uleb128 0x3b
 2080 0113 0B       		.uleb128 0xb
 2081 0114 39       		.uleb128 0x39
 2082 0115 0B       		.uleb128 0xb
 2083 0116 27       		.uleb128 0x27
 2084 0117 19       		.uleb128 0x19
 2085 0118 11       		.uleb128 0x11
 2086 0119 01       		.uleb128 0x1
 2087 011a 12       		.uleb128 0x12
 2088 011b 06       		.uleb128 0x6
 2089 011c 40       		.uleb128 0x40
 2090 011d 18       		.uleb128 0x18
 2091 011e 9742     		.uleb128 0x2117
 2092 0120 19       		.uleb128 0x19
 2093 0121 01       		.uleb128 0x1
 2094 0122 13       		.uleb128 0x13
 2095 0123 00       		.byte	0
 2096 0124 00       		.byte	0
 2097 0125 17       		.uleb128 0x17
 2098 0126 898201   		.uleb128 0x4109
 2099 0129 01       		.byte	0x1
 2100 012a 11       		.uleb128 0x11
 2101 012b 01       		.uleb128 0x1
 2102 012c 31       		.uleb128 0x31
 2103 012d 13       		.uleb128 0x13
 2104 012e 01       		.uleb128 0x1
 2105 012f 13       		.uleb128 0x13
 2106 0130 00       		.byte	0
 2107 0131 00       		.byte	0
 2108 0132 18       		.uleb128 0x18
 2109 0133 8A8201   		.uleb128 0x410a
ARM GAS  /tmp/ccmqySKt.s 			page 38


 2110 0136 00       		.byte	0
 2111 0137 02       		.uleb128 0x2
 2112 0138 18       		.uleb128 0x18
 2113 0139 9142     		.uleb128 0x2111
 2114 013b 18       		.uleb128 0x18
 2115 013c 00       		.byte	0
 2116 013d 00       		.byte	0
 2117 013e 19       		.uleb128 0x19
 2118 013f 898201   		.uleb128 0x4109
 2119 0142 01       		.byte	0x1
 2120 0143 11       		.uleb128 0x11
 2121 0144 01       		.uleb128 0x1
 2122 0145 9542     		.uleb128 0x2115
 2123 0147 19       		.uleb128 0x19
 2124 0148 31       		.uleb128 0x31
 2125 0149 13       		.uleb128 0x13
 2126 014a 00       		.byte	0
 2127 014b 00       		.byte	0
 2128 014c 1A       		.uleb128 0x1a
 2129 014d 2E       		.uleb128 0x2e
 2130 014e 01       		.byte	0x1
 2131 014f 3F       		.uleb128 0x3f
 2132 0150 19       		.uleb128 0x19
 2133 0151 03       		.uleb128 0x3
 2134 0152 0E       		.uleb128 0xe
 2135 0153 3A       		.uleb128 0x3a
 2136 0154 0B       		.uleb128 0xb
 2137 0155 3B       		.uleb128 0x3b
 2138 0156 0B       		.uleb128 0xb
 2139 0157 39       		.uleb128 0x39
 2140 0158 0B       		.uleb128 0xb
 2141 0159 27       		.uleb128 0x27
 2142 015a 19       		.uleb128 0x19
 2143 015b 11       		.uleb128 0x11
 2144 015c 01       		.uleb128 0x1
 2145 015d 12       		.uleb128 0x12
 2146 015e 06       		.uleb128 0x6
 2147 015f 40       		.uleb128 0x40
 2148 0160 18       		.uleb128 0x18
 2149 0161 9642     		.uleb128 0x2116
 2150 0163 19       		.uleb128 0x19
 2151 0164 01       		.uleb128 0x1
 2152 0165 13       		.uleb128 0x13
 2153 0166 00       		.byte	0
 2154 0167 00       		.byte	0
 2155 0168 1B       		.uleb128 0x1b
 2156 0169 34       		.uleb128 0x34
 2157 016a 00       		.byte	0
 2158 016b 03       		.uleb128 0x3
 2159 016c 08       		.uleb128 0x8
 2160 016d 3A       		.uleb128 0x3a
 2161 016e 0B       		.uleb128 0xb
 2162 016f 3B       		.uleb128 0x3b
 2163 0170 0B       		.uleb128 0xb
 2164 0171 39       		.uleb128 0x39
 2165 0172 0B       		.uleb128 0xb
 2166 0173 49       		.uleb128 0x49
ARM GAS  /tmp/ccmqySKt.s 			page 39


 2167 0174 13       		.uleb128 0x13
 2168 0175 02       		.uleb128 0x2
 2169 0176 17       		.uleb128 0x17
 2170 0177 B742     		.uleb128 0x2137
 2171 0179 17       		.uleb128 0x17
 2172 017a 00       		.byte	0
 2173 017b 00       		.byte	0
 2174 017c 1C       		.uleb128 0x1c
 2175 017d 898201   		.uleb128 0x4109
 2176 0180 00       		.byte	0
 2177 0181 11       		.uleb128 0x11
 2178 0182 01       		.uleb128 0x1
 2179 0183 31       		.uleb128 0x31
 2180 0184 13       		.uleb128 0x13
 2181 0185 00       		.byte	0
 2182 0186 00       		.byte	0
 2183 0187 1D       		.uleb128 0x1d
 2184 0188 898201   		.uleb128 0x4109
 2185 018b 00       		.byte	0
 2186 018c 11       		.uleb128 0x11
 2187 018d 01       		.uleb128 0x1
 2188 018e 9542     		.uleb128 0x2115
 2189 0190 19       		.uleb128 0x19
 2190 0191 31       		.uleb128 0x31
 2191 0192 13       		.uleb128 0x13
 2192 0193 00       		.byte	0
 2193 0194 00       		.byte	0
 2194 0195 1E       		.uleb128 0x1e
 2195 0196 2E       		.uleb128 0x2e
 2196 0197 00       		.byte	0
 2197 0198 3F       		.uleb128 0x3f
 2198 0199 19       		.uleb128 0x19
 2199 019a 3C       		.uleb128 0x3c
 2200 019b 19       		.uleb128 0x19
 2201 019c 6E       		.uleb128 0x6e
 2202 019d 0E       		.uleb128 0xe
 2203 019e 03       		.uleb128 0x3
 2204 019f 0E       		.uleb128 0xe
 2205 01a0 3A       		.uleb128 0x3a
 2206 01a1 0B       		.uleb128 0xb
 2207 01a2 3B       		.uleb128 0x3b
 2208 01a3 0B       		.uleb128 0xb
 2209 01a4 39       		.uleb128 0x39
 2210 01a5 0B       		.uleb128 0xb
 2211 01a6 00       		.byte	0
 2212 01a7 00       		.byte	0
 2213 01a8 1F       		.uleb128 0x1f
 2214 01a9 2E       		.uleb128 0x2e
 2215 01aa 00       		.byte	0
 2216 01ab 3F       		.uleb128 0x3f
 2217 01ac 19       		.uleb128 0x19
 2218 01ad 3C       		.uleb128 0x3c
 2219 01ae 19       		.uleb128 0x19
 2220 01af 6E       		.uleb128 0x6e
 2221 01b0 0E       		.uleb128 0xe
 2222 01b1 03       		.uleb128 0x3
 2223 01b2 0E       		.uleb128 0xe
ARM GAS  /tmp/ccmqySKt.s 			page 40


 2224 01b3 3A       		.uleb128 0x3a
 2225 01b4 0B       		.uleb128 0xb
 2226 01b5 3B       		.uleb128 0x3b
 2227 01b6 05       		.uleb128 0x5
 2228 01b7 39       		.uleb128 0x39
 2229 01b8 0B       		.uleb128 0xb
 2230 01b9 00       		.byte	0
 2231 01ba 00       		.byte	0
 2232 01bb 00       		.byte	0
 2233              		.section	.debug_loc,"",%progbits
 2234              	.Ldebug_loc0:
 2235              	.LVUS6:
 2236 0000 00       		.uleb128 .LVU222
 2237 0001 00       		.uleb128 .LVU228
 2238 0002 00       		.uleb128 .LVU228
 2239 0003 00       		.uleb128 .LVU231
 2240 0004 00       		.uleb128 .LVU231
 2241 0005 00       		.uleb128 .LVU233
 2242 0006 00       		.uleb128 .LVU233
 2243 0007 00       		.uleb128 .LVU271
 2244              	.LLST6:
 2245 0008 0A000000 		.4byte	.LVL42
 2246 000c 16000000 		.4byte	.LVL44
 2247 0010 0100     		.2byte	0x1
 2248 0012 52       		.byte	0x52
 2249 0013 16000000 		.4byte	.LVL44
 2250 0017 1C000000 		.4byte	.LVL45
 2251 001b 0200     		.2byte	0x2
 2252 001d 73       		.byte	0x73
 2253 001e 14       		.sleb128 20
 2254 001f 1C000000 		.4byte	.LVL45
 2255 0023 21000000 		.4byte	.LVL46-1
 2256 0027 0500     		.2byte	0x5
 2257 0029 0C       		.byte	0xc
 2258 002a 143C0140 		.4byte	0x40013c14
 2259 002e 21000000 		.4byte	.LVL46-1
 2260 0032 6C000000 		.4byte	.LVL52
 2261 0036 0700     		.2byte	0x7
 2262 0038 74       		.byte	0x74
 2263 0039 00       		.sleb128 0
 2264 003a 0A       		.byte	0xa
 2265 003b 00FC     		.2byte	0xfc00
 2266 003d 1A       		.byte	0x1a
 2267 003e 9F       		.byte	0x9f
 2268 003f 00000000 		.4byte	0
 2269 0043 00000000 		.4byte	0
 2270              	.LVUS5:
 2271 0047 00       		.uleb128 .LVU167
 2272 0048 00       		.uleb128 .LVU175
 2273 0049 00       		.uleb128 .LVU175
 2274 004a 00       		.uleb128 .LVU177
 2275 004b 00       		.uleb128 .LVU177
 2276 004c 00       		.uleb128 .LVU209
 2277              	.LLST5:
 2278 004d 0A000000 		.4byte	.LVL31
 2279 0051 1A000000 		.4byte	.LVL33
 2280 0055 0100     		.2byte	0x1
ARM GAS  /tmp/ccmqySKt.s 			page 41


 2281 0057 52       		.byte	0x52
 2282 0058 1A000000 		.4byte	.LVL33
 2283 005c 21000000 		.4byte	.LVL34-1
 2284 0060 0500     		.2byte	0x5
 2285 0062 0C       		.byte	0xc
 2286 0063 143C0140 		.4byte	0x40013c14
 2287 0067 21000000 		.4byte	.LVL34-1
 2288 006b 5E000000 		.4byte	.LVL39
 2289 006f 0700     		.2byte	0x7
 2290 0071 74       		.byte	0x74
 2291 0072 00       		.sleb128 0
 2292 0073 0A       		.byte	0xa
 2293 0074 E003     		.2byte	0x3e0
 2294 0076 1A       		.byte	0x1a
 2295 0077 9F       		.byte	0x9f
 2296 0078 00000000 		.4byte	0
 2297 007c 00000000 		.4byte	0
 2298              	.LVUS4:
 2299 0080 00       		.uleb128 .LVU136
 2300 0081 00       		.uleb128 .LVU139
 2301 0082 00       		.uleb128 .LVU139
 2302 0083 00       		.uleb128 .LVU144
 2303 0084 00       		.uleb128 .LVU144
 2304 0085 00       		.uleb128 .LVU146
 2305              	.LLST4:
 2306 0086 0A000000 		.4byte	.LVL25
 2307 008a 12000000 		.4byte	.LVL26
 2308 008e 0100     		.2byte	0x1
 2309 0090 51       		.byte	0x51
 2310 0091 12000000 		.4byte	.LVL26
 2311 0095 1A000000 		.4byte	.LVL27
 2312 0099 0100     		.2byte	0x1
 2313 009b 53       		.byte	0x53
 2314 009c 1A000000 		.4byte	.LVL27
 2315 00a0 1F000000 		.4byte	.LVL28-1
 2316 00a4 0500     		.2byte	0x5
 2317 00a6 0C       		.byte	0xc
 2318 00a7 143C0140 		.4byte	0x40013c14
 2319 00ab 00000000 		.4byte	0
 2320 00af 00000000 		.4byte	0
 2321              	.LVUS3:
 2322 00b3 00       		.uleb128 .LVU105
 2323 00b4 00       		.uleb128 .LVU108
 2324 00b5 00       		.uleb128 .LVU108
 2325 00b6 00       		.uleb128 .LVU113
 2326 00b7 00       		.uleb128 .LVU113
 2327 00b8 00       		.uleb128 .LVU115
 2328              	.LLST3:
 2329 00b9 0A000000 		.4byte	.LVL19
 2330 00bd 12000000 		.4byte	.LVL20
 2331 00c1 0100     		.2byte	0x1
 2332 00c3 51       		.byte	0x51
 2333 00c4 12000000 		.4byte	.LVL20
 2334 00c8 1A000000 		.4byte	.LVL21
 2335 00cc 0100     		.2byte	0x1
 2336 00ce 53       		.byte	0x53
 2337 00cf 1A000000 		.4byte	.LVL21
ARM GAS  /tmp/ccmqySKt.s 			page 42


 2338 00d3 1F000000 		.4byte	.LVL22-1
 2339 00d7 0500     		.2byte	0x5
 2340 00d9 0C       		.byte	0xc
 2341 00da 143C0140 		.4byte	0x40013c14
 2342 00de 00000000 		.4byte	0
 2343 00e2 00000000 		.4byte	0
 2344              	.LVUS2:
 2345 00e6 00       		.uleb128 .LVU74
 2346 00e7 00       		.uleb128 .LVU77
 2347 00e8 00       		.uleb128 .LVU77
 2348 00e9 00       		.uleb128 .LVU82
 2349 00ea 00       		.uleb128 .LVU82
 2350 00eb 00       		.uleb128 .LVU84
 2351              	.LLST2:
 2352 00ec 0A000000 		.4byte	.LVL13
 2353 00f0 12000000 		.4byte	.LVL14
 2354 00f4 0100     		.2byte	0x1
 2355 00f6 51       		.byte	0x51
 2356 00f7 12000000 		.4byte	.LVL14
 2357 00fb 1A000000 		.4byte	.LVL15
 2358 00ff 0100     		.2byte	0x1
 2359 0101 53       		.byte	0x53
 2360 0102 1A000000 		.4byte	.LVL15
 2361 0106 1F000000 		.4byte	.LVL16-1
 2362 010a 0500     		.2byte	0x5
 2363 010c 0C       		.byte	0xc
 2364 010d 143C0140 		.4byte	0x40013c14
 2365 0111 00000000 		.4byte	0
 2366 0115 00000000 		.4byte	0
 2367              	.LVUS1:
 2368 0119 00       		.uleb128 .LVU43
 2369 011a 00       		.uleb128 .LVU46
 2370 011b 00       		.uleb128 .LVU46
 2371 011c 00       		.uleb128 .LVU51
 2372 011d 00       		.uleb128 .LVU51
 2373 011e 00       		.uleb128 .LVU53
 2374              	.LLST1:
 2375 011f 0A000000 		.4byte	.LVL7
 2376 0123 12000000 		.4byte	.LVL8
 2377 0127 0100     		.2byte	0x1
 2378 0129 51       		.byte	0x51
 2379 012a 12000000 		.4byte	.LVL8
 2380 012e 1A000000 		.4byte	.LVL9
 2381 0132 0100     		.2byte	0x1
 2382 0134 53       		.byte	0x53
 2383 0135 1A000000 		.4byte	.LVL9
 2384 0139 1F000000 		.4byte	.LVL10-1
 2385 013d 0500     		.2byte	0x5
 2386 013f 0C       		.byte	0xc
 2387 0140 143C0140 		.4byte	0x40013c14
 2388 0144 00000000 		.4byte	0
 2389 0148 00000000 		.4byte	0
 2390              	.LVUS0:
 2391 014c 00       		.uleb128 .LVU12
 2392 014d 00       		.uleb128 .LVU15
 2393 014e 00       		.uleb128 .LVU15
 2394 014f 00       		.uleb128 .LVU20
ARM GAS  /tmp/ccmqySKt.s 			page 43


 2395 0150 00       		.uleb128 .LVU20
 2396 0151 00       		.uleb128 .LVU22
 2397              	.LLST0:
 2398 0152 0A000000 		.4byte	.LVL1
 2399 0156 12000000 		.4byte	.LVL2
 2400 015a 0100     		.2byte	0x1
 2401 015c 51       		.byte	0x51
 2402 015d 12000000 		.4byte	.LVL2
 2403 0161 1A000000 		.4byte	.LVL3
 2404 0165 0100     		.2byte	0x1
 2405 0167 53       		.byte	0x53
 2406 0168 1A000000 		.4byte	.LVL3
 2407 016c 1F000000 		.4byte	.LVL4-1
 2408 0170 0500     		.2byte	0x5
 2409 0172 0C       		.byte	0xc
 2410 0173 143C0140 		.4byte	0x40013c14
 2411 0177 00000000 		.4byte	0
 2412 017b 00000000 		.4byte	0
 2413              		.section	.debug_aranges,"",%progbits
 2414 0000 5C000000 		.4byte	0x5c
 2415 0004 0200     		.2byte	0x2
 2416 0006 00000000 		.4byte	.Ldebug_info0
 2417 000a 04       		.byte	0x4
 2418 000b 00       		.byte	0
 2419 000c 0000     		.2byte	0
 2420 000e 0000     		.2byte	0
 2421 0010 00000000 		.4byte	.LFB334
 2422 0014 30000000 		.4byte	.LFE334-.LFB334
 2423 0018 00000000 		.4byte	.LFB335
 2424 001c 30000000 		.4byte	.LFE335-.LFB335
 2425 0020 00000000 		.4byte	.LFB336
 2426 0024 30000000 		.4byte	.LFE336-.LFB336
 2427 0028 00000000 		.4byte	.LFB337
 2428 002c 30000000 		.4byte	.LFE337-.LFB337
 2429 0030 00000000 		.4byte	.LFB338
 2430 0034 30000000 		.4byte	.LFE338-.LFB338
 2431 0038 00000000 		.4byte	.LFB339
 2432 003c 6C000000 		.4byte	.LFE339-.LFB339
 2433 0040 00000000 		.4byte	.LFB340
 2434 0044 78000000 		.4byte	.LFE340-.LFB340
 2435 0048 00000000 		.4byte	.LFB341
 2436 004c 3E000000 		.4byte	.LFE341-.LFB341
 2437 0050 00000000 		.4byte	.LFB342
 2438 0054 30000000 		.4byte	.LFE342-.LFB342
 2439 0058 00000000 		.4byte	0
 2440 005c 00000000 		.4byte	0
 2441              		.section	.debug_ranges,"",%progbits
 2442              	.Ldebug_ranges0:
 2443 0000 00000000 		.4byte	.LFB334
 2444 0004 30000000 		.4byte	.LFE334
 2445 0008 00000000 		.4byte	.LFB335
 2446 000c 30000000 		.4byte	.LFE335
 2447 0010 00000000 		.4byte	.LFB336
 2448 0014 30000000 		.4byte	.LFE336
 2449 0018 00000000 		.4byte	.LFB337
 2450 001c 30000000 		.4byte	.LFE337
 2451 0020 00000000 		.4byte	.LFB338
ARM GAS  /tmp/ccmqySKt.s 			page 44


 2452 0024 30000000 		.4byte	.LFE338
 2453 0028 00000000 		.4byte	.LFB339
 2454 002c 6C000000 		.4byte	.LFE339
 2455 0030 00000000 		.4byte	.LFB340
 2456 0034 78000000 		.4byte	.LFE340
 2457 0038 00000000 		.4byte	.LFB341
 2458 003c 3E000000 		.4byte	.LFE341
 2459 0040 00000000 		.4byte	.LFB342
 2460 0044 30000000 		.4byte	.LFE342
 2461 0048 00000000 		.4byte	0
 2462 004c 00000000 		.4byte	0
 2463              		.section	.debug_line,"",%progbits
 2464              	.Ldebug_line0:
 2465 0000 D7070000 		.section	.debug_str,"MS",%progbits,1
 2465      03006002 
 2465      00000201 
 2465      FB0E0D00 
 2465      01010101 
 2466              	.LASF108:
 2467 0000 4C544443 		.ascii	"LTDC_ER_IRQn\000"
 2467      5F45525F 
 2467      4952516E 
 2467      00
 2468              	.LASF120:
 2469 000d 44465344 		.ascii	"DFSDM1_FLT3_IRQn\000"
 2469      4D315F46 
 2469      4C54335F 
 2469      4952516E 
 2469      00
 2470              	.LASF40:
 2471 001e 43414E31 		.ascii	"CAN1_RX0_IRQn\000"
 2471      5F525830 
 2471      5F495251 
 2471      6E00
 2472              	.LASF21:
 2473 002c 5056445F 		.ascii	"PVD_IRQn\000"
 2473      4952516E 
 2473      00
 2474              	.LASF84:
 2475 0035 43414E32 		.ascii	"CAN2_RX0_IRQn\000"
 2475      5F525830 
 2475      5F495251 
 2475      6E00
 2476              	.LASF140:
 2477 0043 56656374 		.ascii	"Vector9C\000"
 2477      6F723943 
 2477      00
 2478              	.LASF123:
 2479 004c 43414E33 		.ascii	"CAN3_RX0_IRQn\000"
 2479      5F525830 
 2479      5F495251 
 2479      6E00
 2480              	.LASF121:
 2481 005a 53444D4D 		.ascii	"SDMMC2_IRQn\000"
 2481      43325F49 
 2481      52516E00 
 2482              	.LASF93:
ARM GAS  /tmp/ccmqySKt.s 			page 45


 2483 0066 49324333 		.ascii	"I2C3_ER_IRQn\000"
 2483      5F45525F 
 2483      4952516E 
 2483      00
 2484              	.LASF102:
 2485 0073 55415254 		.ascii	"UART8_IRQn\000"
 2485      385F4952 
 2485      516E00
 2486              	.LASF51:
 2487 007e 49324331 		.ascii	"I2C1_EV_IRQn\000"
 2487      5F45565F 
 2487      4952516E 
 2487      00
 2488              	.LASF88:
 2489 008b 444D4132 		.ascii	"DMA2_Stream5_IRQn\000"
 2489      5F537472 
 2489      65616D35 
 2489      5F495251 
 2489      6E00
 2490              	.LASF37:
 2491 009d 444D4131 		.ascii	"DMA1_Stream6_IRQn\000"
 2491      5F537472 
 2491      65616D36 
 2491      5F495251 
 2491      6E00
 2492              	.LASF130:
 2493 00af 53574945 		.ascii	"SWIER\000"
 2493      5200
 2494              	.LASF143:
 2495 00b5 56656374 		.ascii	"Vector60\000"
 2495      6F723630 
 2495      00
 2496              	.LASF103:
 2497 00be 53504934 		.ascii	"SPI4_IRQn\000"
 2497      5F495251 
 2497      6E00
 2498              	.LASF35:
 2499 00c8 444D4131 		.ascii	"DMA1_Stream4_IRQn\000"
 2499      5F537472 
 2499      65616D34 
 2499      5F495251 
 2499      6E00
 2500              	.LASF61:
 2501 00da 5254435F 		.ascii	"RTC_Alarm_IRQn\000"
 2501      416C6172 
 2501      6D5F4952 
 2501      516E00
 2502              	.LASF54:
 2503 00e9 49324332 		.ascii	"I2C2_ER_IRQn\000"
 2503      5F45525F 
 2503      4952516E 
 2503      00
 2504              	.LASF50:
 2505 00f6 54494D34 		.ascii	"TIM4_IRQn\000"
 2505      5F495251 
 2505      6E00
 2506              	.LASF28:
ARM GAS  /tmp/ccmqySKt.s 			page 46


 2507 0100 45585449 		.ascii	"EXTI2_IRQn\000"
 2507      325F4952 
 2507      516E00
 2508              	.LASF20:
 2509 010b 57574447 		.ascii	"WWDG_IRQn\000"
 2509      5F495251 
 2509      6E00
 2510              	.LASF147:
 2511 0115 6E766963 		.ascii	"nvicEnableVector\000"
 2511      456E6162 
 2511      6C655665 
 2511      63746F72 
 2511      00
 2512              	.LASF41:
 2513 0126 43414E31 		.ascii	"CAN1_RX1_IRQn\000"
 2513      5F525831 
 2513      5F495251 
 2513      6E00
 2514              	.LASF3:
 2515 0134 7369676E 		.ascii	"signed char\000"
 2515      65642063 
 2515      68617200 
 2516              	.LASF85:
 2517 0140 43414E32 		.ascii	"CAN2_RX1_IRQn\000"
 2517      5F525831 
 2517      5F495251 
 2517      6E00
 2518              	.LASF124:
 2519 014e 43414E33 		.ascii	"CAN3_RX1_IRQn\000"
 2519      5F525831 
 2519      5F495251 
 2519      6E00
 2520              	.LASF115:
 2521 015c 49324334 		.ascii	"I2C4_ER_IRQn\000"
 2521      5F45525F 
 2521      4952516E 
 2521      00
 2522              	.LASF8:
 2523 0169 6C6F6E67 		.ascii	"long unsigned int\000"
 2523      20756E73 
 2523      69676E65 
 2523      6420696E 
 2523      7400
 2524              	.LASF9:
 2525 017b 6C6F6E67 		.ascii	"long long unsigned int\000"
 2525      206C6F6E 
 2525      6720756E 
 2525      7369676E 
 2525      65642069 
 2526              	.LASF113:
 2527 0192 4345435F 		.ascii	"CEC_IRQn\000"
 2527      4952516E 
 2527      00
 2528              	.LASF89:
 2529 019b 444D4132 		.ascii	"DMA2_Stream6_IRQn\000"
 2529      5F537472 
 2529      65616D36 
ARM GAS  /tmp/ccmqySKt.s 			page 47


 2529      5F495251 
 2529      6E00
 2530              	.LASF7:
 2531 01ad 6C6F6E67 		.ascii	"long int\000"
 2531      20696E74 
 2531      00
 2532              	.LASF53:
 2533 01b6 49324332 		.ascii	"I2C2_EV_IRQn\000"
 2533      5F45565F 
 2533      4952516E 
 2533      00
 2534              	.LASF104:
 2535 01c3 53504935 		.ascii	"SPI5_IRQn\000"
 2535      5F495251 
 2535      6E00
 2536              	.LASF36:
 2537 01cd 444D4131 		.ascii	"DMA1_Stream5_IRQn\000"
 2537      5F537472 
 2537      65616D35 
 2537      5F495251 
 2537      6E00
 2538              	.LASF43:
 2539 01df 45585449 		.ascii	"EXTI9_5_IRQn\000"
 2539      395F355F 
 2539      4952516E 
 2539      00
 2540              	.LASF23:
 2541 01ec 5254435F 		.ascii	"RTC_WKUP_IRQn\000"
 2541      574B5550 
 2541      5F495251 
 2541      6E00
 2542              	.LASF1:
 2543 01fa 6C6F6E67 		.ascii	"long long int\000"
 2543      206C6F6E 
 2543      6720696E 
 2543      7400
 2544              	.LASF82:
 2545 0208 4554485F 		.ascii	"ETH_WKUP_IRQn\000"
 2545      574B5550 
 2545      5F495251 
 2545      6E00
 2546              	.LASF151:
 2547 0216 2E2E2F2E 		.ascii	"../../modules/ChibiOS/os/hal/ports/STM32/STM32F7xx/"
 2547      2E2F6D6F 
 2547      64756C65 
 2547      732F4368 
 2547      6962694F 
 2548 0249 73746D33 		.ascii	"stm32_isr.c\000"
 2548      325F6973 
 2548      722E6300 
 2549              	.LASF74:
 2550 0255 54494D36 		.ascii	"TIM6_DAC_IRQn\000"
 2550      5F444143 
 2550      5F495251 
 2550      6E00
 2551              	.LASF72:
 2552 0263 55415254 		.ascii	"UART4_IRQn\000"
ARM GAS  /tmp/ccmqySKt.s 			page 48


 2552      345F4952 
 2552      516E00
 2553              	.LASF62:
 2554 026e 4F54475F 		.ascii	"OTG_FS_WKUP_IRQn\000"
 2554      46535F57 
 2554      4B55505F 
 2554      4952516E 
 2554      00
 2555              	.LASF18:
 2556 027f 50656E64 		.ascii	"PendSV_IRQn\000"
 2556      53565F49 
 2556      52516E00 
 2557              	.LASF64:
 2558 028b 54494D38 		.ascii	"TIM8_UP_TIM13_IRQn\000"
 2558      5F55505F 
 2558      54494D31 
 2558      335F4952 
 2558      516E00
 2559              	.LASF10:
 2560 029e 5F5F7569 		.ascii	"__uint32_t\000"
 2560      6E743332 
 2560      5F7400
 2561              	.LASF14:
 2562 02a9 42757346 		.ascii	"BusFault_IRQn\000"
 2562      61756C74 
 2562      5F495251 
 2562      6E00
 2563              	.LASF90:
 2564 02b7 444D4132 		.ascii	"DMA2_Stream7_IRQn\000"
 2564      5F537472 
 2564      65616D37 
 2564      5F495251 
 2564      6E00
 2565              	.LASF136:
 2566 02c9 69727144 		.ascii	"irqDeinit\000"
 2566      65696E69 
 2566      7400
 2567              	.LASF127:
 2568 02d3 4D44494F 		.ascii	"MDIOS_IRQn\000"
 2568      535F4952 
 2568      516E00
 2569              	.LASF98:
 2570 02de 44434D49 		.ascii	"DCMI_IRQn\000"
 2570      5F495251 
 2570      6E00
 2571              	.LASF134:
 2572 02e8 70616C63 		.ascii	"palcallback_t\000"
 2572      616C6C62 
 2572      61636B5F 
 2572      7400
 2573              	.LASF34:
 2574 02f6 444D4131 		.ascii	"DMA1_Stream3_IRQn\000"
 2574      5F537472 
 2574      65616D33 
 2574      5F495251 
 2574      6E00
 2575              	.LASF146:
ARM GAS  /tmp/ccmqySKt.s 			page 49


 2576 0308 6E766963 		.ascii	"nvicDisableVector\000"
 2576      44697361 
 2576      626C6556 
 2576      6563746F 
 2576      7200
 2577              	.LASF128:
 2578 031a 52545352 		.ascii	"RTSR\000"
 2578      00
 2579              	.LASF13:
 2580 031f 4D656D6F 		.ascii	"MemoryManagement_IRQn\000"
 2580      72794D61 
 2580      6E616765 
 2580      6D656E74 
 2580      5F495251 
 2581              	.LASF92:
 2582 0335 49324333 		.ascii	"I2C3_EV_IRQn\000"
 2582      5F45565F 
 2582      4952516E 
 2582      00
 2583              	.LASF117:
 2584 0342 44465344 		.ascii	"DFSDM1_FLT0_IRQn\000"
 2584      4D315F46 
 2584      4C54305F 
 2584      4952516E 
 2584      00
 2585              	.LASF106:
 2586 0353 53414931 		.ascii	"SAI1_IRQn\000"
 2586      5F495251 
 2586      6E00
 2587              	.LASF105:
 2588 035d 53504936 		.ascii	"SPI6_IRQn\000"
 2588      5F495251 
 2588      6E00
 2589              	.LASF94:
 2590 0367 4F54475F 		.ascii	"OTG_HS_EP1_OUT_IRQn\000"
 2590      48535F45 
 2590      50315F4F 
 2590      55545F49 
 2590      52516E00 
 2591              	.LASF16:
 2592 037b 53564361 		.ascii	"SVCall_IRQn\000"
 2592      6C6C5F49 
 2592      52516E00 
 2593              	.LASF6:
 2594 0387 73686F72 		.ascii	"short unsigned int\000"
 2594      7420756E 
 2594      7369676E 
 2594      65642069 
 2594      6E7400
 2595              	.LASF78:
 2596 039a 444D4132 		.ascii	"DMA2_Stream2_IRQn\000"
 2596      5F537472 
 2596      65616D32 
 2596      5F495251 
 2596      6E00
 2597              	.LASF111:
 2598 03ac 51554144 		.ascii	"QUADSPI_IRQn\000"
ARM GAS  /tmp/ccmqySKt.s 			page 50


 2598      5350495F 
 2598      4952516E 
 2598      00
 2599              	.LASF139:
 2600 03b9 5F70616C 		.ascii	"_pal_events\000"
 2600      5F657665 
 2600      6E747300 
 2601              	.LASF60:
 2602 03c5 45585449 		.ascii	"EXTI15_10_IRQn\000"
 2602      31355F31 
 2602      305F4952 
 2602      516E00
 2603              	.LASF55:
 2604 03d4 53504931 		.ascii	"SPI1_IRQn\000"
 2604      5F495251 
 2604      6E00
 2605              	.LASF32:
 2606 03de 444D4131 		.ascii	"DMA1_Stream1_IRQn\000"
 2606      5F537472 
 2606      65616D31 
 2606      5F495251 
 2606      6E00
 2607              	.LASF135:
 2608 03f0 70616C65 		.ascii	"palevent_t\000"
 2608      76656E74 
 2608      5F7400
 2609              	.LASF5:
 2610 03fb 73686F72 		.ascii	"short int\000"
 2610      7420696E 
 2610      7400
 2611              	.LASF63:
 2612 0405 54494D38 		.ascii	"TIM8_BRK_TIM12_IRQn\000"
 2612      5F42524B 
 2612      5F54494D 
 2612      31325F49 
 2612      52516E00 
 2613              	.LASF19:
 2614 0419 53797354 		.ascii	"SysTick_IRQn\000"
 2614      69636B5F 
 2614      4952516E 
 2614      00
 2615              	.LASF47:
 2616 0426 54494D31 		.ascii	"TIM1_CC_IRQn\000"
 2616      5F43435F 
 2616      4952516E 
 2616      00
 2617              	.LASF65:
 2618 0433 54494D38 		.ascii	"TIM8_TRG_COM_TIM14_IRQn\000"
 2618      5F545247 
 2618      5F434F4D 
 2618      5F54494D 
 2618      31345F49 
 2619              	.LASF118:
 2620 044b 44465344 		.ascii	"DFSDM1_FLT1_IRQn\000"
 2620      4D315F46 
 2620      4C54315F 
 2620      4952516E 
ARM GAS  /tmp/ccmqySKt.s 			page 51


 2620      00
 2621              	.LASF110:
 2622 045c 53414932 		.ascii	"SAI2_IRQn\000"
 2622      5F495251 
 2622      6E00
 2623              	.LASF145:
 2624 0466 56656374 		.ascii	"Vector58\000"
 2624      6F723538 
 2624      00
 2625              	.LASF114:
 2626 046f 49324334 		.ascii	"I2C4_EV_IRQn\000"
 2626      5F45565F 
 2626      4952516E 
 2626      00
 2627              	.LASF144:
 2628 047c 56656374 		.ascii	"Vector5C\000"
 2628      6F723543 
 2628      00
 2629              	.LASF81:
 2630 0485 4554485F 		.ascii	"ETH_IRQn\000"
 2630      4952516E 
 2630      00
 2631              	.LASF66:
 2632 048e 54494D38 		.ascii	"TIM8_CC_IRQn\000"
 2632      5F43435F 
 2632      4952516E 
 2632      00
 2633              	.LASF125:
 2634 049b 43414E33 		.ascii	"CAN3_SCE_IRQn\000"
 2634      5F534345 
 2634      5F495251 
 2634      6E00
 2635              	.LASF79:
 2636 04a9 444D4132 		.ascii	"DMA2_Stream3_IRQn\000"
 2636      5F537472 
 2636      65616D33 
 2636      5F495251 
 2636      6E00
 2637              	.LASF116:
 2638 04bb 53504449 		.ascii	"SPDIF_RX_IRQn\000"
 2638      465F5258 
 2638      5F495251 
 2638      6E00
 2639              	.LASF91:
 2640 04c9 55534152 		.ascii	"USART6_IRQn\000"
 2640      54365F49 
 2640      52516E00 
 2641              	.LASF70:
 2642 04d5 54494D35 		.ascii	"TIM5_IRQn\000"
 2642      5F495251 
 2642      6E00
 2643              	.LASF29:
 2644 04df 45585449 		.ascii	"EXTI3_IRQn\000"
 2644      335F4952 
 2644      516E00
 2645              	.LASF56:
 2646 04ea 53504932 		.ascii	"SPI2_IRQn\000"
ARM GAS  /tmp/ccmqySKt.s 			page 52


 2646      5F495251 
 2646      6E00
 2647              	.LASF33:
 2648 04f4 444D4131 		.ascii	"DMA1_Stream2_IRQn\000"
 2648      5F537472 
 2648      65616D32 
 2648      5F495251 
 2648      6E00
 2649              	.LASF83:
 2650 0506 43414E32 		.ascii	"CAN2_TX_IRQn\000"
 2650      5F54585F 
 2650      4952516E 
 2650      00
 2651              	.LASF87:
 2652 0513 4F54475F 		.ascii	"OTG_FS_IRQn\000"
 2652      46535F49 
 2652      52516E00 
 2653              	.LASF138:
 2654 051f 56656374 		.ascii	"VectorE0\000"
 2654      6F724530 
 2654      00
 2655              	.LASF97:
 2656 0528 4F54475F 		.ascii	"OTG_HS_IRQn\000"
 2656      48535F49 
 2656      52516E00 
 2657              	.LASF109:
 2658 0534 444D4132 		.ascii	"DMA2D_IRQn\000"
 2658      445F4952 
 2658      516E00
 2659              	.LASF119:
 2660 053f 44465344 		.ascii	"DFSDM1_FLT2_IRQn\000"
 2660      4D315F46 
 2660      4C54325F 
 2660      4952516E 
 2660      00
 2661              	.LASF137:
 2662 0550 69727149 		.ascii	"irqInit\000"
 2662      6E697400 
 2663              	.LASF107:
 2664 0558 4C544443 		.ascii	"LTDC_IRQn\000"
 2664      5F495251 
 2664      6E00
 2665              	.LASF142:
 2666 0562 56656374 		.ascii	"Vector64\000"
 2666      6F723634 
 2666      00
 2667              	.LASF141:
 2668 056b 56656374 		.ascii	"Vector68\000"
 2668      6F723638 
 2668      00
 2669              	.LASF57:
 2670 0574 55534152 		.ascii	"USART1_IRQn\000"
 2670      54315F49 
 2670      52516E00 
 2671              	.LASF71:
 2672 0580 53504933 		.ascii	"SPI3_IRQn\000"
 2672      5F495251 
ARM GAS  /tmp/ccmqySKt.s 			page 53


 2672      6E00
 2673              	.LASF80:
 2674 058a 444D4132 		.ascii	"DMA2_Stream4_IRQn\000"
 2674      5F537472 
 2674      65616D34 
 2674      5F495251 
 2674      6E00
 2675              	.LASF133:
 2676 059c 5F426F6F 		.ascii	"_Bool\000"
 2676      6C00
 2677              	.LASF4:
 2678 05a2 756E7369 		.ascii	"unsigned char\000"
 2678      676E6564 
 2678      20636861 
 2678      7200
 2679              	.LASF44:
 2680 05b0 54494D31 		.ascii	"TIM1_BRK_TIM9_IRQn\000"
 2680      5F42524B 
 2680      5F54494D 
 2680      395F4952 
 2680      516E00
 2681              	.LASF129:
 2682 05c3 46545352 		.ascii	"FTSR\000"
 2682      00
 2683              	.LASF30:
 2684 05c8 45585449 		.ascii	"EXTI4_IRQn\000"
 2684      345F4952 
 2684      516E00
 2685              	.LASF99:
 2686 05d3 524E475F 		.ascii	"RNG_IRQn\000"
 2686      4952516E 
 2686      00
 2687              	.LASF73:
 2688 05dc 55415254 		.ascii	"UART5_IRQn\000"
 2688      355F4952 
 2688      516E00
 2689              	.LASF46:
 2690 05e7 54494D31 		.ascii	"TIM1_TRG_COM_TIM11_IRQn\000"
 2690      5F545247 
 2690      5F434F4D 
 2690      5F54494D 
 2690      31315F49 
 2691              	.LASF68:
 2692 05ff 464D435F 		.ascii	"FMC_IRQn\000"
 2692      4952516E 
 2692      00
 2693              	.LASF122:
 2694 0608 43414E33 		.ascii	"CAN3_TX_IRQn\000"
 2694      5F54585F 
 2694      4952516E 
 2694      00
 2695              	.LASF24:
 2696 0615 464C4153 		.ascii	"FLASH_IRQn\000"
 2696      485F4952 
 2696      516E00
 2697              	.LASF11:
 2698 0620 75696E74 		.ascii	"uint32_t\000"
ARM GAS  /tmp/ccmqySKt.s 			page 54


 2698      33325F74 
 2698      00
 2699              	.LASF112:
 2700 0629 4C505449 		.ascii	"LPTIM1_IRQn\000"
 2700      4D315F49 
 2700      52516E00 
 2701              	.LASF58:
 2702 0635 55534152 		.ascii	"USART2_IRQn\000"
 2702      54325F49 
 2702      52516E00 
 2703              	.LASF15:
 2704 0641 55736167 		.ascii	"UsageFault_IRQn\000"
 2704      65466175 
 2704      6C745F49 
 2704      52516E00 
 2705              	.LASF2:
 2706 0651 6C6F6E67 		.ascii	"long double\000"
 2706      20646F75 
 2706      626C6500 
 2707              	.LASF152:
 2708 065d 2F686F6D 		.ascii	"/home/mahathi/mathur407_payload2/4.0.7/build/CUAVv5"
 2708      652F6D61 
 2708      68617468 
 2708      692F6D61 
 2708      74687572 
 2709 0690 00       		.ascii	"\000"
 2710              	.LASF67:
 2711 0691 444D4131 		.ascii	"DMA1_Stream7_IRQn\000"
 2711      5F537472 
 2711      65616D37 
 2711      5F495251 
 2711      6E00
 2712              	.LASF132:
 2713 06a3 63686172 		.ascii	"char\000"
 2713      00
 2714              	.LASF39:
 2715 06a8 43414E31 		.ascii	"CAN1_TX_IRQn\000"
 2715      5F54585F 
 2715      4952516E 
 2715      00
 2716              	.LASF0:
 2717 06b5 756E7369 		.ascii	"unsigned int\000"
 2717      676E6564 
 2717      20696E74 
 2717      00
 2718              	.LASF75:
 2719 06c2 54494D37 		.ascii	"TIM7_IRQn\000"
 2719      5F495251 
 2719      6E00
 2720              	.LASF95:
 2721 06cc 4F54475F 		.ascii	"OTG_HS_EP1_IN_IRQn\000"
 2721      48535F45 
 2721      50315F49 
 2721      4E5F4952 
 2721      516E00
 2722              	.LASF12:
 2723 06df 4E6F6E4D 		.ascii	"NonMaskableInt_IRQn\000"
ARM GAS  /tmp/ccmqySKt.s 			page 55


 2723      61736B61 
 2723      626C6549 
 2723      6E745F49 
 2723      52516E00 
 2724              	.LASF45:
 2725 06f3 54494D31 		.ascii	"TIM1_UP_TIM10_IRQn\000"
 2725      5F55505F 
 2725      54494D31 
 2725      305F4952 
 2725      516E00
 2726              	.LASF126:
 2727 0706 4A504547 		.ascii	"JPEG_IRQn\000"
 2727      5F495251 
 2727      6E00
 2728              	.LASF52:
 2729 0710 49324331 		.ascii	"I2C1_ER_IRQn\000"
 2729      5F45525F 
 2729      4952516E 
 2729      00
 2730              	.LASF22:
 2731 071d 54414D50 		.ascii	"TAMP_STAMP_IRQn\000"
 2731      5F535441 
 2731      4D505F49 
 2731      52516E00 
 2732              	.LASF76:
 2733 072d 444D4132 		.ascii	"DMA2_Stream0_IRQn\000"
 2733      5F537472 
 2733      65616D30 
 2733      5F495251 
 2733      6E00
 2734              	.LASF59:
 2735 073f 55534152 		.ascii	"USART3_IRQn\000"
 2735      54335F49 
 2735      52516E00 
 2736              	.LASF48:
 2737 074b 54494D32 		.ascii	"TIM2_IRQn\000"
 2737      5F495251 
 2737      6E00
 2738              	.LASF26:
 2739 0755 45585449 		.ascii	"EXTI0_IRQn\000"
 2739      305F4952 
 2739      516E00
 2740              	.LASF149:
 2741 0760 5F706F72 		.ascii	"_port_irq_epilogue\000"
 2741      745F6972 
 2741      715F6570 
 2741      696C6F67 
 2741      756500
 2742              	.LASF150:
 2743 0773 474E5520 		.ascii	"GNU C17 10.2.1 20201103 (release) -mcpu=cortex-m7 -"
 2743      43313720 
 2743      31302E32 
 2743      2E312032 
 2743      30323031 
 2744 07a6 6D666C6F 		.ascii	"mfloat-abi=hard -mfpu=fpv4-sp-d16 -mno-thumb-interw"
 2744      61742D61 
 2744      62693D68 
ARM GAS  /tmp/ccmqySKt.s 			page 56


 2744      61726420 
 2744      2D6D6670 
 2745 07d9 6F726B20 		.ascii	"ork -mthumb -march=armv7e-m+fp -g -Os -fomit-frame-"
 2745      2D6D7468 
 2745      756D6220 
 2745      2D6D6172 
 2745      63683D61 
 2746 080c 706F696E 		.ascii	"pointer -falign-functions=16 -ffunction-sections -f"
 2746      74657220 
 2746      2D66616C 
 2746      69676E2D 
 2746      66756E63 
 2747 083f 64617461 		.ascii	"data-sections -fno-common -fsingle-precision-consta"
 2747      2D736563 
 2747      74696F6E 
 2747      73202D66 
 2747      6E6F2D63 
 2748 0872 6E7400   		.ascii	"nt\000"
 2749              	.LASF25:
 2750 0875 5243435F 		.ascii	"RCC_IRQn\000"
 2750      4952516E 
 2750      00
 2751              	.LASF69:
 2752 087e 53444D4D 		.ascii	"SDMMC1_IRQn\000"
 2752      43315F49 
 2752      52516E00 
 2753              	.LASF101:
 2754 088a 55415254 		.ascii	"UART7_IRQn\000"
 2754      375F4952 
 2754      516E00
 2755              	.LASF100:
 2756 0895 4650555F 		.ascii	"FPU_IRQn\000"
 2756      4952516E 
 2756      00
 2757              	.LASF17:
 2758 089e 44656275 		.ascii	"DebugMonitor_IRQn\000"
 2758      674D6F6E 
 2758      69746F72 
 2758      5F495251 
 2758      6E00
 2759              	.LASF148:
 2760 08b0 5F737461 		.ascii	"_stats_increase_irq\000"
 2760      74735F69 
 2760      6E637265 
 2760      6173655F 
 2760      69727100 
 2761              	.LASF131:
 2762 08c4 45585449 		.ascii	"EXTI_TypeDef\000"
 2762      5F547970 
 2762      65446566 
 2762      00
 2763              	.LASF38:
 2764 08d1 4144435F 		.ascii	"ADC_IRQn\000"
 2764      4952516E 
 2764      00
 2765              	.LASF77:
 2766 08da 444D4132 		.ascii	"DMA2_Stream1_IRQn\000"
ARM GAS  /tmp/ccmqySKt.s 			page 57


 2766      5F537472 
 2766      65616D31 
 2766      5F495251 
 2766      6E00
 2767              	.LASF42:
 2768 08ec 43414E31 		.ascii	"CAN1_SCE_IRQn\000"
 2768      5F534345 
 2768      5F495251 
 2768      6E00
 2769              	.LASF86:
 2770 08fa 43414E32 		.ascii	"CAN2_SCE_IRQn\000"
 2770      5F534345 
 2770      5F495251 
 2770      6E00
 2771              	.LASF96:
 2772 0908 4F54475F 		.ascii	"OTG_HS_WKUP_IRQn\000"
 2772      48535F57 
 2772      4B55505F 
 2772      4952516E 
 2772      00
 2773              	.LASF49:
 2774 0919 54494D33 		.ascii	"TIM3_IRQn\000"
 2774      5F495251 
 2774      6E00
 2775              	.LASF27:
 2776 0923 45585449 		.ascii	"EXTI1_IRQn\000"
 2776      315F4952 
 2776      516E00
 2777              	.LASF31:
 2778 092e 444D4131 		.ascii	"DMA1_Stream0_IRQn\000"
 2778      5F537472 
 2778      65616D30 
 2778      5F495251 
 2778      6E00
 2779              		.ident	"GCC: (GNU Arm Embedded Toolchain 10-2020-q4-major) 10.2.1 20201103 (release)"
ARM GAS  /tmp/ccmqySKt.s 			page 58


DEFINED SYMBOLS
                            *ABS*:0000000000000000 stm32_isr.c
     /tmp/ccmqySKt.s:18     .text.Vector58:0000000000000000 $t
     /tmp/ccmqySKt.s:26     .text.Vector58:0000000000000000 Vector58
     /tmp/ccmqySKt.s:95     .text.Vector58:0000000000000028 $d
     /tmp/ccmqySKt.s:101    .text.Vector5C:0000000000000000 $t
     /tmp/ccmqySKt.s:108    .text.Vector5C:0000000000000000 Vector5C
     /tmp/ccmqySKt.s:176    .text.Vector5C:0000000000000028 $d
     /tmp/ccmqySKt.s:182    .text.Vector60:0000000000000000 $t
     /tmp/ccmqySKt.s:189    .text.Vector60:0000000000000000 Vector60
     /tmp/ccmqySKt.s:257    .text.Vector60:0000000000000028 $d
     /tmp/ccmqySKt.s:263    .text.Vector64:0000000000000000 $t
     /tmp/ccmqySKt.s:270    .text.Vector64:0000000000000000 Vector64
     /tmp/ccmqySKt.s:338    .text.Vector64:0000000000000028 $d
     /tmp/ccmqySKt.s:344    .text.Vector68:0000000000000000 $t
     /tmp/ccmqySKt.s:351    .text.Vector68:0000000000000000 Vector68
     /tmp/ccmqySKt.s:419    .text.Vector68:0000000000000028 $d
     /tmp/ccmqySKt.s:425    .text.Vector9C:0000000000000000 $t
     /tmp/ccmqySKt.s:432    .text.Vector9C:0000000000000000 Vector9C
     /tmp/ccmqySKt.s:562    .text.Vector9C:0000000000000064 $d
     /tmp/ccmqySKt.s:568    .text.VectorE0:0000000000000000 $t
     /tmp/ccmqySKt.s:575    .text.VectorE0:0000000000000000 VectorE0
     /tmp/ccmqySKt.s:722    .text.VectorE0:0000000000000070 $d
     /tmp/ccmqySKt.s:728    .text.irqInit:0000000000000000 $t
     /tmp/ccmqySKt.s:735    .text.irqInit:0000000000000000 irqInit
     /tmp/ccmqySKt.s:792    .text.irqDeinit:0000000000000000 $t
     /tmp/ccmqySKt.s:799    .text.irqDeinit:0000000000000000 irqDeinit

UNDEFINED SYMBOLS
_stats_increase_irq
_port_irq_epilogue
_pal_events
nvicEnableVector
nvicDisableVector
