ARM GAS  /tmp/ccmqySKt.s 			page 1


   1              		.cpu cortex-m7
   2              		.eabi_attribute 27, 1
   3              		.eabi_attribute 28, 1
   4              		.eabi_attribute 20, 1
   5              		.eabi_attribute 21, 1
   6              		.eabi_attribute 23, 3
   7              		.eabi_attribute 24, 1
   8              		.eabi_attribute 25, 1
   9              		.eabi_attribute 26, 1
  10              		.eabi_attribute 30, 4
  11              		.eabi_attribute 34, 1
  12              		.eabi_attribute 18, 4
  13              		.file	"stm32_isr.c"
  14              		.text
  15              	.Ltext0:
  16              		.cfi_sections	.debug_frame
  17              		.section	.text.Vector58,"ax",%progbits
  18              		.align	1
  19              		.global	Vector58
  20              		.arch armv7e-m
  21              		.syntax unified
  22              		.thumb
  23              		.thumb_func
  24              		.fpu fpv4-sp-d16
  25              		.type	Vector58, %function
  26              	Vector58:
  27              	.LFB334:
  28              		.file 1 "../../modules/ChibiOS/os/hal/ports/STM32/STM32F7xx/stm32_isr.c"
  29              		.loc 1 61 28 view -0
  30              		.cfi_startproc
  31              		@ args = 0, pretend = 0, frame = 0
  32              		@ frame_needed = 0, uses_anonymous_args = 0
  33              		.loc 1 62 3 view .LVU1
  34              		.loc 1 64 3 view .LVU2
  35              		.loc 1 64 3 view .LVU3
  36              		.loc 1 64 3 view .LVU4
  37              		.loc 1 64 3 view .LVU5
  38              		.loc 1 61 28 is_stmt 0 view .LVU6
  39 0000 08B5     		push	{r3, lr}
  40              		.cfi_def_cfa_offset 8
  41              		.cfi_offset 3, -8
  42              		.cfi_offset 14, -4
  43              		.loc 1 64 3 view .LVU7
  44 0002 FFF7FEFF 		bl	_stats_increase_irq
  45              	.LVL0:
  46              		.loc 1 64 3 is_stmt 1 view .LVU8
  47              		.loc 1 64 22 view .LVU9
  48              		.loc 1 66 3 view .LVU10
  49              		.loc 1 66 6 is_stmt 0 view .LVU11
  50 0006 084A     		ldr	r2, .L9
  51 0008 5169     		ldr	r1, [r2, #20]
  52              	.LVL1:
  53              		.loc 1 67 3 is_stmt 1 view .LVU12
  54              		.loc 1 67 13 is_stmt 0 view .LVU13
  55 000a 1368     		ldr	r3, [r2]
  56 000c 0B40     		ands	r3, r3, r1
  57              		.loc 1 67 6 view .LVU14
ARM GAS  /tmp/ccmqySKt.s 			page 2


  58 000e 03F00103 		and	r3, r3, #1
  59              	.LVL2:
  60              		.loc 1 68 3 is_stmt 1 view .LVU15
  61              		.loc 1 68 12 is_stmt 0 view .LVU16
  62 0012 5361     		str	r3, [r2, #20]
  63              		.loc 1 70 3 is_stmt 1 view .LVU17
  64 0014 23B1     		cbz	r3, .L2
  65              		.loc 1 70 3 discriminator 1 view .LVU18
  66              		.loc 1 70 3 discriminator 1 view .LVU19
  67 0016 054A     		ldr	r2, .L9+4
  68 0018 1368     		ldr	r3, [r2]
  69              	.LVL3:
  70              		.loc 1 70 3 is_stmt 0 discriminator 1 view .LVU20
  71 001a 0BB1     		cbz	r3, .L2
  72              		.loc 1 70 3 is_stmt 1 discriminator 3 view .LVU21
  73 001c 5068     		ldr	r0, [r2, #4]
  74 001e 9847     		blx	r3
  75              	.LVL4:
  76              	.L2:
  77              		.loc 1 70 3 discriminator 5 view .LVU22
  78              		.loc 1 70 24 discriminator 5 view .LVU23
  79              		.loc 1 72 3 discriminator 5 view .LVU24
  80              		.loc 1 72 3 discriminator 5 view .LVU25
  81              		.loc 1 72 3 discriminator 5 view .LVU26
  82              		.loc 1 72 3 discriminator 5 view .LVU27
  83              		.loc 1 72 3 discriminator 5 view .LVU28
  84              		.loc 1 73 1 is_stmt 0 discriminator 5 view .LVU29
  85 0020 BDE80840 		pop	{r3, lr}
  86              		.cfi_restore 14
  87              		.cfi_restore 3
  88              		.cfi_def_cfa_offset 0
  89              		.loc 1 72 3 discriminator 5 view .LVU30
  90 0024 FFF7FEBF 		b	_port_irq_epilogue
  91              	.LVL5:
  92              	.L10:
  93              		.align	2
  94              	.L9:
  95 0028 003C0140 		.word	1073822720
  96 002c 00000000 		.word	_pal_events
  97              		.cfi_endproc
  98              	.LFE334:
  99              		.size	Vector58, .-Vector58
 100              		.section	.text.Vector5C,"ax",%progbits
 101              		.align	1
 102              		.global	Vector5C
 103              		.syntax unified
 104              		.thumb
 105              		.thumb_func
 106              		.fpu fpv4-sp-d16
 107              		.type	Vector5C, %function
 108              	Vector5C:
 109              	.LFB335:
 110              		.loc 1 82 28 is_stmt 1 view -0
 111              		.cfi_startproc
 112              		@ args = 0, pretend = 0, frame = 0
 113              		@ frame_needed = 0, uses_anonymous_args = 0
 114              		.loc 1 83 3 view .LVU32
ARM GAS  /tmp/ccmqySKt.s 			page 3


 115              		.loc 1 85 3 view .LVU33
 116              		.loc 1 85 3 view .LVU34
 117              		.loc 1 85 3 view .LVU35
 118              		.loc 1 85 3 view .LVU36
 119              		.loc 1 82 28 is_stmt 0 view .LVU37
 120 0000 08B5     		push	{r3, lr}
 121              		.cfi_def_cfa_offset 8
 122              		.cfi_offset 3, -8
 123              		.cfi_offset 14, -4
 124              		.loc 1 85 3 view .LVU38
 125 0002 FFF7FEFF 		bl	_stats_increase_irq
 126              	.LVL6:
 127              		.loc 1 85 3 is_stmt 1 view .LVU39
 128              		.loc 1 85 22 view .LVU40
 129              		.loc 1 87 3 view .LVU41
 130              		.loc 1 87 6 is_stmt 0 view .LVU42
 131 0006 084A     		ldr	r2, .L19
 132 0008 5169     		ldr	r1, [r2, #20]
 133              	.LVL7:
 134              		.loc 1 88 3 is_stmt 1 view .LVU43
 135              		.loc 1 88 13 is_stmt 0 view .LVU44
 136 000a 1368     		ldr	r3, [r2]
 137 000c 0B40     		ands	r3, r3, r1
 138              		.loc 1 88 6 view .LVU45
 139 000e 03F00203 		and	r3, r3, #2
 140              	.LVL8:
 141              		.loc 1 89 3 is_stmt 1 view .LVU46
 142              		.loc 1 89 12 is_stmt 0 view .LVU47
 143 0012 5361     		str	r3, [r2, #20]
 144              		.loc 1 91 3 is_stmt 1 view .LVU48
 145 0014 23B1     		cbz	r3, .L12
 146              		.loc 1 91 3 discriminator 1 view .LVU49
 147              		.loc 1 91 3 discriminator 1 view .LVU50
 148 0016 054A     		ldr	r2, .L19+4
 149 0018 9368     		ldr	r3, [r2, #8]
 150              	.LVL9:
 151              		.loc 1 91 3 is_stmt 0 discriminator 1 view .LVU51
 152 001a 0BB1     		cbz	r3, .L12
 153              		.loc 1 91 3 is_stmt 1 discriminator 3 view .LVU52
 154 001c D068     		ldr	r0, [r2, #12]
 155 001e 9847     		blx	r3
 156              	.LVL10:
 157              	.L12:
 158              		.loc 1 91 3 discriminator 5 view .LVU53
 159              		.loc 1 91 24 discriminator 5 view .LVU54
 160              		.loc 1 93 3 discriminator 5 view .LVU55
 161              		.loc 1 93 3 discriminator 5 view .LVU56
 162              		.loc 1 93 3 discriminator 5 view .LVU57
 163              		.loc 1 93 3 discriminator 5 view .LVU58
 164              		.loc 1 93 3 discriminator 5 view .LVU59
 165              		.loc 1 94 1 is_stmt 0 discriminator 5 view .LVU60
 166 0020 BDE80840 		pop	{r3, lr}
 167              		.cfi_restore 14
 168              		.cfi_restore 3
 169              		.cfi_def_cfa_offset 0
 170              		.loc 1 93 3 discriminator 5 view .LVU61
 171 0024 FFF7FEBF 		b	_port_irq_epilogue
ARM GAS  /tmp/ccmqySKt.s 			page 4


 172              	.LVL11:
 173              	.L20:
 174              		.align	2
 175              	.L19:
 176 0028 003C0140 		.word	1073822720
 177 002c 00000000 		.word	_pal_events
 178              		.cfi_endproc
 179              	.LFE335:
 180              		.size	Vector5C, .-Vector5C
 181              		.section	.text.Vector60,"ax",%progbits
 182              		.align	1
 183              		.global	Vector60
 184              		.syntax unified
 185              		.thumb
 186              		.thumb_func
 187              		.fpu fpv4-sp-d16
 188              		.type	Vector60, %function
 189              	Vector60:
 190              	.LFB336:
 191              		.loc 1 103 28 is_stmt 1 view -0
 192              		.cfi_startproc
 193              		@ args = 0, pretend = 0, frame = 0
 194              		@ frame_needed = 0, uses_anonymous_args = 0
 195              		.loc 1 104 3 view .LVU63
 196              		.loc 1 106 3 view .LVU64
 197              		.loc 1 106 3 view .LVU65
 198              		.loc 1 106 3 view .LVU66
 199              		.loc 1 106 3 view .LVU67
 200              		.loc 1 103 28 is_stmt 0 view .LVU68
 201 0000 08B5     		push	{r3, lr}
 202              		.cfi_def_cfa_offset 8
 203              		.cfi_offset 3, -8
 204              		.cfi_offset 14, -4
 205              		.loc 1 106 3 view .LVU69
 206 0002 FFF7FEFF 		bl	_stats_increase_irq
 207              	.LVL12:
 208              		.loc 1 106 3 is_stmt 1 view .LVU70
 209              		.loc 1 106 22 view .LVU71
 210              		.loc 1 108 3 view .LVU72
 211              		.loc 1 108 6 is_stmt 0 view .LVU73
 212 0006 084A     		ldr	r2, .L29
 213 0008 5169     		ldr	r1, [r2, #20]
 214              	.LVL13:
 215              		.loc 1 109 3 is_stmt 1 view .LVU74
 216              		.loc 1 109 13 is_stmt 0 view .LVU75
 217 000a 1368     		ldr	r3, [r2]
 218 000c 0B40     		ands	r3, r3, r1
 219              		.loc 1 109 6 view .LVU76
 220 000e 03F00403 		and	r3, r3, #4
 221              	.LVL14:
 222              		.loc 1 110 3 is_stmt 1 view .LVU77
 223              		.loc 1 110 12 is_stmt 0 view .LVU78
 224 0012 5361     		str	r3, [r2, #20]
 225              		.loc 1 112 3 is_stmt 1 view .LVU79
 226 0014 23B1     		cbz	r3, .L22
 227              		.loc 1 112 3 discriminator 1 view .LVU80
 228              		.loc 1 112 3 discriminator 1 view .LVU81
ARM GAS  /tmp/ccmqySKt.s 			page 5


 229 0016 054A     		ldr	r2, .L29+4
 230 0018 1369     		ldr	r3, [r2, #16]
 231              	.LVL15:
 232              		.loc 1 112 3 is_stmt 0 discriminator 1 view .LVU82
 233 001a 0BB1     		cbz	r3, .L22
 234              		.loc 1 112 3 is_stmt 1 discriminator 3 view .LVU83
 235 001c 5069     		ldr	r0, [r2, #20]
 236 001e 9847     		blx	r3
 237              	.LVL16:
 238              	.L22:
 239              		.loc 1 112 3 discriminator 5 view .LVU84
 240              		.loc 1 112 24 discriminator 5 view .LVU85
 241              		.loc 1 114 3 discriminator 5 view .LVU86
 242              		.loc 1 114 3 discriminator 5 view .LVU87
 243              		.loc 1 114 3 discriminator 5 view .LVU88
 244              		.loc 1 114 3 discriminator 5 view .LVU89
 245              		.loc 1 114 3 discriminator 5 view .LVU90
 246              		.loc 1 115 1 is_stmt 0 discriminator 5 view .LVU91
 247 0020 BDE80840 		pop	{r3, lr}
 248              		.cfi_restore 14
 249              		.cfi_restore 3
 250              		.cfi_def_cfa_offset 0
 251              		.loc 1 114 3 discriminator 5 view .LVU92
 252 0024 FFF7FEBF 		b	_port_irq_epilogue
 253              	.LVL17:
 254              	.L30:
 255              		.align	2
 256              	.L29:
 257 0028 003C0140 		.word	1073822720
 258 002c 00000000 		.word	_pal_events
 259              		.cfi_endproc
 260              	.LFE336:
 261              		.size	Vector60, .-Vector60
 262              		.section	.text.Vector64,"ax",%progbits
 263              		.align	1
 264              		.global	Vector64
 265              		.syntax unified
 266              		.thumb
 267              		.thumb_func
 268              		.fpu fpv4-sp-d16
 269              		.type	Vector64, %function
 270              	Vector64:
 271              	.LFB337:
 272              		.loc 1 124 28 is_stmt 1 view -0
 273              		.cfi_startproc
 274              		@ args = 0, pretend = 0, frame = 0
 275              		@ frame_needed = 0, uses_anonymous_args = 0
 276              		.loc 1 125 3 view .LVU94
 277              		.loc 1 127 3 view .LVU95
 278              		.loc 1 127 3 view .LVU96
 279              		.loc 1 127 3 view .LVU97
 280              		.loc 1 127 3 view .LVU98
 281              		.loc 1 124 28 is_stmt 0 view .LVU99
 282 0000 08B5     		push	{r3, lr}
 283              		.cfi_def_cfa_offset 8
 284              		.cfi_offset 3, -8
 285              		.cfi_offset 14, -4
ARM GAS  /tmp/ccmqySKt.s 			page 6


 286              		.loc 1 127 3 view .LVU100
 287 0002 FFF7FEFF 		bl	_stats_increase_irq
 288              	.LVL18:
 289              		.loc 1 127 3 is_stmt 1 view .LVU101
 290              		.loc 1 127 22 view .LVU102
 291              		.loc 1 129 3 view .LVU103
 292              		.loc 1 129 6 is_stmt 0 view .LVU104
 293 0006 084A     		ldr	r2, .L39
 294 0008 5169     		ldr	r1, [r2, #20]
 295              	.LVL19:
 296              		.loc 1 130 3 is_stmt 1 view .LVU105
 297              		.loc 1 130 13 is_stmt 0 view .LVU106
 298 000a 1368     		ldr	r3, [r2]
 299 000c 0B40     		ands	r3, r3, r1
 300              		.loc 1 130 6 view .LVU107
 301 000e 03F00803 		and	r3, r3, #8
 302              	.LVL20:
 303              		.loc 1 131 3 is_stmt 1 view .LVU108
 304              		.loc 1 131 12 is_stmt 0 view .LVU109
 305 0012 5361     		str	r3, [r2, #20]
 306              		.loc 1 133 3 is_stmt 1 view .LVU110
 307 0014 23B1     		cbz	r3, .L32
 308              		.loc 1 133 3 discriminator 1 view .LVU111
 309              		.loc 1 133 3 discriminator 1 view .LVU112
 310 0016 054A     		ldr	r2, .L39+4
 311 0018 9369     		ldr	r3, [r2, #24]
 312              	.LVL21:
 313              		.loc 1 133 3 is_stmt 0 discriminator 1 view .LVU113
 314 001a 0BB1     		cbz	r3, .L32
 315              		.loc 1 133 3 is_stmt 1 discriminator 3 view .LVU114
 316 001c D069     		ldr	r0, [r2, #28]
 317 001e 9847     		blx	r3
 318              	.LVL22:
 319              	.L32:
 320              		.loc 1 133 3 discriminator 5 view .LVU115
 321              		.loc 1 133 24 discriminator 5 view .LVU116
 322              		.loc 1 135 3 discriminator 5 view .LVU117
 323              		.loc 1 135 3 discriminator 5 view .LVU118
 324              		.loc 1 135 3 discriminator 5 view .LVU119
 325              		.loc 1 135 3 discriminator 5 view .LVU120
 326              		.loc 1 135 3 discriminator 5 view .LVU121
 327              		.loc 1 136 1 is_stmt 0 discriminator 5 view .LVU122
 328 0020 BDE80840 		pop	{r3, lr}
 329              		.cfi_restore 14
 330              		.cfi_restore 3
 331              		.cfi_def_cfa_offset 0
 332              		.loc 1 135 3 discriminator 5 view .LVU123
 333 0024 FFF7FEBF 		b	_port_irq_epilogue
 334              	.LVL23:
 335              	.L40:
 336              		.align	2
 337              	.L39:
 338 0028 003C0140 		.word	1073822720
 339 002c 00000000 		.word	_pal_events
 340              		.cfi_endproc
 341              	.LFE337:
 342              		.size	Vector64, .-Vector64
ARM GAS  /tmp/ccmqySKt.s 			page 7


 343              		.section	.text.Vector68,"ax",%progbits
 344              		.align	1
 345              		.global	Vector68
 346              		.syntax unified
 347              		.thumb
 348              		.thumb_func
 349              		.fpu fpv4-sp-d16
 350              		.type	Vector68, %function
 351              	Vector68:
 352              	.LFB338:
 353              		.loc 1 145 28 is_stmt 1 view -0
 354              		.cfi_startproc
 355              		@ args = 0, pretend = 0, frame = 0
 356              		@ frame_needed = 0, uses_anonymous_args = 0
 357              		.loc 1 146 3 view .LVU125
 358              		.loc 1 148 3 view .LVU126
 359              		.loc 1 148 3 view .LVU127
 360              		.loc 1 148 3 view .LVU128
 361              		.loc 1 148 3 view .LVU129
 362              		.loc 1 145 28 is_stmt 0 view .LVU130
 363 0000 08B5     		push	{r3, lr}
 364              		.cfi_def_cfa_offset 8
 365              		.cfi_offset 3, -8
 366              		.cfi_offset 14, -4
 367              		.loc 1 148 3 view .LVU131
 368 0002 FFF7FEFF 		bl	_stats_increase_irq
 369              	.LVL24:
 370              		.loc 1 148 3 is_stmt 1 view .LVU132
 371              		.loc 1 148 22 view .LVU133
 372              		.loc 1 150 3 view .LVU134
 373              		.loc 1 150 6 is_stmt 0 view .LVU135
 374 0006 084A     		ldr	r2, .L49
 375 0008 5169     		ldr	r1, [r2, #20]
 376              	.LVL25:
 377              		.loc 1 151 3 is_stmt 1 view .LVU136
 378              		.loc 1 151 13 is_stmt 0 view .LVU137
 379 000a 1368     		ldr	r3, [r2]
 380 000c 0B40     		ands	r3, r3, r1
 381              		.loc 1 151 6 view .LVU138
 382 000e 03F01003 		and	r3, r3, #16
 383              	.LVL26:
 384              		.loc 1 152 3 is_stmt 1 view .LVU139
 385              		.loc 1 152 12 is_stmt 0 view .LVU140
 386 0012 5361     		str	r3, [r2, #20]
 387              		.loc 1 154 3 is_stmt 1 view .LVU141
 388 0014 23B1     		cbz	r3, .L42
 389              		.loc 1 154 3 discriminator 1 view .LVU142
 390              		.loc 1 154 3 discriminator 1 view .LVU143
 391 0016 054A     		ldr	r2, .L49+4
 392 0018 136A     		ldr	r3, [r2, #32]
 393              	.LVL27:
 394              		.loc 1 154 3 is_stmt 0 discriminator 1 view .LVU144
 395 001a 0BB1     		cbz	r3, .L42
 396              		.loc 1 154 3 is_stmt 1 discriminator 3 view .LVU145
 397 001c 506A     		ldr	r0, [r2, #36]
 398 001e 9847     		blx	r3
 399              	.LVL28:
ARM GAS  /tmp/ccmqySKt.s 			page 8


 400              	.L42:
 401              		.loc 1 154 3 discriminator 5 view .LVU146
 402              		.loc 1 154 24 discriminator 5 view .LVU147
 403              		.loc 1 156 3 discriminator 5 view .LVU148
 404              		.loc 1 156 3 discriminator 5 view .LVU149
 405              		.loc 1 156 3 discriminator 5 view .LVU150
 406              		.loc 1 156 3 discriminator 5 view .LVU151
 407              		.loc 1 156 3 discriminator 5 view .LVU152
 408              		.loc 1 157 1 is_stmt 0 discriminator 5 view .LVU153
 409 0020 BDE80840 		pop	{r3, lr}
 410              		.cfi_restore 14
 411              		.cfi_restore 3
 412              		.cfi_def_cfa_offset 0
 413              		.loc 1 156 3 discriminator 5 view .LVU154
 414 0024 FFF7FEBF 		b	_port_irq_epilogue
 415              	.LVL29:
 416              	.L50:
 417              		.align	2
 418              	.L49:
 419 0028 003C0140 		.word	1073822720
 420 002c 00000000 		.word	_pal_events
 421              		.cfi_endproc
 422              	.LFE338:
 423              		.size	Vector68, .-Vector68
 424              		.section	.text.Vector9C,"ax",%progbits
 425              		.align	1
 426              		.global	Vector9C
 427              		.syntax unified
 428              		.thumb
 429              		.thumb_func
 430              		.fpu fpv4-sp-d16
 431              		.type	Vector9C, %function
 432              	Vector9C:
 433              	.LFB339:
 434              		.loc 1 166 28 is_stmt 1 view -0
 435              		.cfi_startproc
 436              		@ args = 0, pretend = 0, frame = 0
 437              		@ frame_needed = 0, uses_anonymous_args = 0
 438              		.loc 1 167 3 view .LVU156
 439              		.loc 1 169 3 view .LVU157
 440              		.loc 1 169 3 view .LVU158
 441              		.loc 1 169 3 view .LVU159
 442              		.loc 1 169 3 view .LVU160
 443              		.loc 1 166 28 is_stmt 0 view .LVU161
 444 0000 10B5     		push	{r4, lr}
 445              		.cfi_def_cfa_offset 8
 446              		.cfi_offset 4, -8
 447              		.cfi_offset 14, -4
 448              		.loc 1 169 3 view .LVU162
 449 0002 FFF7FEFF 		bl	_stats_increase_irq
 450              	.LVL30:
 451              		.loc 1 169 3 is_stmt 1 view .LVU163
 452              		.loc 1 169 22 view .LVU164
 453              		.loc 1 171 3 view .LVU165
 454              		.loc 1 171 6 is_stmt 0 view .LVU166
 455 0006 174B     		ldr	r3, .L87
 456 0008 5A69     		ldr	r2, [r3, #20]
ARM GAS  /tmp/ccmqySKt.s 			page 9


 457              	.LVL31:
 458              		.loc 1 172 3 is_stmt 1 view .LVU167
 459              		.loc 1 172 13 is_stmt 0 view .LVU168
 460 000a 1C68     		ldr	r4, [r3]
 461 000c 1440     		ands	r4, r4, r2
 462              		.loc 1 172 6 view .LVU169
 463 000e 04F47872 		and	r2, r4, #992
 464              	.LVL32:
 465              		.loc 1 174 3 is_stmt 1 view .LVU170
 466              		.loc 1 174 12 is_stmt 0 view .LVU171
 467 0012 5A61     		str	r2, [r3, #20]
 468              		.loc 1 176 3 is_stmt 1 view .LVU172
 469 0014 A306     		lsls	r3, r4, #26
 470 0016 04D5     		bpl	.L52
 471              		.loc 1 176 3 discriminator 1 view .LVU173
 472              		.loc 1 176 3 discriminator 1 view .LVU174
 473 0018 134A     		ldr	r2, .L87+4
 474              	.LVL33:
 475              		.loc 1 176 3 is_stmt 0 discriminator 1 view .LVU175
 476 001a 936A     		ldr	r3, [r2, #40]
 477 001c 0BB1     		cbz	r3, .L52
 478              		.loc 1 176 3 is_stmt 1 discriminator 3 view .LVU176
 479 001e D06A     		ldr	r0, [r2, #44]
 480 0020 9847     		blx	r3
 481              	.LVL34:
 482              	.L52:
 483              		.loc 1 176 3 discriminator 5 view .LVU177
 484              		.loc 1 176 24 discriminator 5 view .LVU178
 485              		.loc 1 177 3 discriminator 5 view .LVU179
 486 0022 6006     		lsls	r0, r4, #25
 487 0024 04D5     		bpl	.L53
 488              		.loc 1 177 3 discriminator 1 view .LVU180
 489              		.loc 1 177 3 discriminator 1 view .LVU181
 490 0026 104A     		ldr	r2, .L87+4
 491 0028 136B     		ldr	r3, [r2, #48]
 492 002a 0BB1     		cbz	r3, .L53
 493              		.loc 1 177 3 discriminator 3 view .LVU182
 494 002c 506B     		ldr	r0, [r2, #52]
 495 002e 9847     		blx	r3
 496              	.LVL35:
 497              	.L53:
 498              		.loc 1 177 3 discriminator 5 view .LVU183
 499              		.loc 1 177 24 discriminator 5 view .LVU184
 500              		.loc 1 178 3 discriminator 5 view .LVU185
 501 0030 2106     		lsls	r1, r4, #24
 502 0032 04D5     		bpl	.L54
 503              		.loc 1 178 3 discriminator 1 view .LVU186
 504              		.loc 1 178 3 discriminator 1 view .LVU187
 505 0034 0C4A     		ldr	r2, .L87+4
 506 0036 936B     		ldr	r3, [r2, #56]
 507 0038 0BB1     		cbz	r3, .L54
 508              		.loc 1 178 3 discriminator 3 view .LVU188
 509 003a D06B     		ldr	r0, [r2, #60]
 510 003c 9847     		blx	r3
 511              	.LVL36:
 512              	.L54:
 513              		.loc 1 178 3 discriminator 5 view .LVU189
ARM GAS  /tmp/ccmqySKt.s 			page 10


 514              		.loc 1 178 24 discriminator 5 view .LVU190
 515              		.loc 1 179 3 discriminator 5 view .LVU191
 516 003e E205     		lsls	r2, r4, #23
 517 0040 04D5     		bpl	.L55
 518              		.loc 1 179 3 discriminator 1 view .LVU192
 519              		.loc 1 179 3 discriminator 1 view .LVU193
 520 0042 094A     		ldr	r2, .L87+4
 521 0044 136C     		ldr	r3, [r2, #64]
 522 0046 0BB1     		cbz	r3, .L55
 523              		.loc 1 179 3 discriminator 3 view .LVU194
 524 0048 506C     		ldr	r0, [r2, #68]
 525 004a 9847     		blx	r3
 526              	.LVL37:
 527              	.L55:
 528              		.loc 1 179 3 discriminator 5 view .LVU195
 529              		.loc 1 179 24 discriminator 5 view .LVU196
 530              		.loc 1 180 3 discriminator 5 view .LVU197
 531 004c A305     		lsls	r3, r4, #22
 532 004e 04D5     		bpl	.L56
 533              		.loc 1 180 3 discriminator 1 view .LVU198
 534              		.loc 1 180 3 discriminator 1 view .LVU199
 535 0050 054A     		ldr	r2, .L87+4
 536 0052 936C     		ldr	r3, [r2, #72]
 537 0054 0BB1     		cbz	r3, .L56
 538              		.loc 1 180 3 discriminator 3 view .LVU200
 539 0056 D06C     		ldr	r0, [r2, #76]
 540 0058 9847     		blx	r3
 541              	.LVL38:
 542              	.L56:
 543              		.loc 1 180 3 discriminator 5 view .LVU201
 544              		.loc 1 180 24 discriminator 5 view .LVU202
 545              		.loc 1 182 3 discriminator 5 view .LVU203
 546              		.loc 1 182 3 discriminator 5 view .LVU204
 547              		.loc 1 182 3 discriminator 5 view .LVU205
 548              		.loc 1 182 3 discriminator 5 view .LVU206
 549              		.loc 1 182 3 discriminator 5 view .LVU207
 550              		.loc 1 183 1 is_stmt 0 discriminator 5 view .LVU208
 551 005a BDE81040 		pop	{r4, lr}
 552              		.cfi_restore 14
 553              		.cfi_restore 4
 554              		.cfi_def_cfa_offset 0
 555              	.LVL39:
 556              		.loc 1 182 3 discriminator 5 view .LVU209
 557 005e FFF7FEBF 		b	_port_irq_epilogue
 558              	.LVL40:
 559              	.L88:
 560 0062 00BF     		.align	2
 561              	.L87:
 562 0064 003C0140 		.word	1073822720
 563 0068 00000000 		.word	_pal_events
 564              		.cfi_endproc
 565              	.LFE339:
 566              		.size	Vector9C, .-Vector9C
 567              		.section	.text.VectorE0,"ax",%progbits
 568              		.align	1
 569              		.global	VectorE0
 570              		.syntax unified
ARM GAS  /tmp/ccmqySKt.s 			page 11


 571              		.thumb
 572              		.thumb_func
 573              		.fpu fpv4-sp-d16
 574              		.type	VectorE0, %function
 575              	VectorE0:
 576              	.LFB340:
 577              		.loc 1 192 28 is_stmt 1 view -0
 578              		.cfi_startproc
 579              		@ args = 0, pretend = 0, frame = 0
 580              		@ frame_needed = 0, uses_anonymous_args = 0
 581              		.loc 1 193 3 view .LVU211
 582              		.loc 1 195 3 view .LVU212
 583              		.loc 1 195 3 view .LVU213
 584              		.loc 1 195 3 view .LVU214
 585              		.loc 1 195 3 view .LVU215
 586              		.loc 1 192 28 is_stmt 0 view .LVU216
 587 0000 10B5     		push	{r4, lr}
 588              		.cfi_def_cfa_offset 8
 589              		.cfi_offset 4, -8
 590              		.cfi_offset 14, -4
 591              		.loc 1 195 3 view .LVU217
 592 0002 FFF7FEFF 		bl	_stats_increase_irq
 593              	.LVL41:
 594              		.loc 1 195 3 is_stmt 1 view .LVU218
 595              		.loc 1 195 22 view .LVU219
 596              		.loc 1 197 3 view .LVU220
 597              		.loc 1 197 6 is_stmt 0 view .LVU221
 598 0006 1A4B     		ldr	r3, .L132
 599 0008 5A69     		ldr	r2, [r3, #20]
 600              	.LVL42:
 601              		.loc 1 198 3 is_stmt 1 view .LVU222
 602              		.loc 1 198 13 is_stmt 0 view .LVU223
 603 000a 1C68     		ldr	r4, [r3]
 604 000c 1440     		ands	r4, r4, r2
 605              		.loc 1 198 6 view .LVU224
 606 000e 04F47C42 		and	r2, r4, #64512
 607              	.LVL43:
 608              		.loc 1 200 3 is_stmt 1 view .LVU225
 609              		.loc 1 200 12 is_stmt 0 view .LVU226
 610 0012 5A61     		str	r2, [r3, #20]
 611              		.loc 1 202 3 is_stmt 1 view .LVU227
 612 0014 6205     		lsls	r2, r4, #21
 613              	.LVL44:
 614              		.loc 1 202 3 is_stmt 0 view .LVU228
 615 0016 04D5     		bpl	.L90
 616              		.loc 1 202 3 is_stmt 1 discriminator 1 view .LVU229
 617              		.loc 1 202 3 discriminator 1 view .LVU230
 618 0018 164A     		ldr	r2, .L132+4
 619 001a 136D     		ldr	r3, [r2, #80]
 620              	.LVL45:
 621              		.loc 1 202 3 is_stmt 0 discriminator 1 view .LVU231
 622 001c 0BB1     		cbz	r3, .L90
 623              		.loc 1 202 3 is_stmt 1 discriminator 3 view .LVU232
 624 001e 506D     		ldr	r0, [r2, #84]
 625 0020 9847     		blx	r3
 626              	.LVL46:
 627              	.L90:
ARM GAS  /tmp/ccmqySKt.s 			page 12


 628              		.loc 1 202 3 discriminator 5 view .LVU233
 629              		.loc 1 202 25 discriminator 5 view .LVU234
 630              		.loc 1 203 3 discriminator 5 view .LVU235
 631 0022 2305     		lsls	r3, r4, #20
 632 0024 04D5     		bpl	.L91
 633              		.loc 1 203 3 discriminator 1 view .LVU236
 634              		.loc 1 203 3 discriminator 1 view .LVU237
 635 0026 134A     		ldr	r2, .L132+4
 636 0028 936D     		ldr	r3, [r2, #88]
 637 002a 0BB1     		cbz	r3, .L91
 638              		.loc 1 203 3 discriminator 3 view .LVU238
 639 002c D06D     		ldr	r0, [r2, #92]
 640 002e 9847     		blx	r3
 641              	.LVL47:
 642              	.L91:
 643              		.loc 1 203 3 discriminator 5 view .LVU239
 644              		.loc 1 203 25 discriminator 5 view .LVU240
 645              		.loc 1 204 3 discriminator 5 view .LVU241
 646 0030 E004     		lsls	r0, r4, #19
 647 0032 04D5     		bpl	.L92
 648              		.loc 1 204 3 discriminator 1 view .LVU242
 649              		.loc 1 204 3 discriminator 1 view .LVU243
 650 0034 0F4A     		ldr	r2, .L132+4
 651 0036 136E     		ldr	r3, [r2, #96]
 652 0038 0BB1     		cbz	r3, .L92
 653              		.loc 1 204 3 discriminator 3 view .LVU244
 654 003a 506E     		ldr	r0, [r2, #100]
 655 003c 9847     		blx	r3
 656              	.LVL48:
 657              	.L92:
 658              		.loc 1 204 3 discriminator 5 view .LVU245
 659              		.loc 1 204 25 discriminator 5 view .LVU246
 660              		.loc 1 205 3 discriminator 5 view .LVU247
 661 003e A104     		lsls	r1, r4, #18
 662 0040 04D5     		bpl	.L93
 663              		.loc 1 205 3 discriminator 1 view .LVU248
 664              		.loc 1 205 3 discriminator 1 view .LVU249
 665 0042 0C4A     		ldr	r2, .L132+4
 666 0044 936E     		ldr	r3, [r2, #104]
 667 0046 0BB1     		cbz	r3, .L93
 668              		.loc 1 205 3 discriminator 3 view .LVU250
 669 0048 D06E     		ldr	r0, [r2, #108]
 670 004a 9847     		blx	r3
 671              	.LVL49:
 672              	.L93:
 673              		.loc 1 205 3 discriminator 5 view .LVU251
 674              		.loc 1 205 25 discriminator 5 view .LVU252
 675              		.loc 1 206 3 discriminator 5 view .LVU253
 676 004c 6204     		lsls	r2, r4, #17
 677 004e 04D5     		bpl	.L94
 678              		.loc 1 206 3 discriminator 1 view .LVU254
 679              		.loc 1 206 3 discriminator 1 view .LVU255
 680 0050 084A     		ldr	r2, .L132+4
 681 0052 136F     		ldr	r3, [r2, #112]
 682 0054 0BB1     		cbz	r3, .L94
 683              		.loc 1 206 3 discriminator 3 view .LVU256
 684 0056 506F     		ldr	r0, [r2, #116]
ARM GAS  /tmp/ccmqySKt.s 			page 13


 685 0058 9847     		blx	r3
 686              	.LVL50:
 687              	.L94:
 688              		.loc 1 206 3 discriminator 5 view .LVU257
 689              		.loc 1 206 25 discriminator 5 view .LVU258
 690              		.loc 1 207 3 discriminator 5 view .LVU259
 691 005a 2304     		lsls	r3, r4, #16
 692 005c 04D5     		bpl	.L95
 693              		.loc 1 207 3 discriminator 1 view .LVU260
 694              		.loc 1 207 3 discriminator 1 view .LVU261
 695 005e 054A     		ldr	r2, .L132+4
 696 0060 936F     		ldr	r3, [r2, #120]
 697 0062 0BB1     		cbz	r3, .L95
 698              		.loc 1 207 3 discriminator 3 view .LVU262
 699 0064 D06F     		ldr	r0, [r2, #124]
 700 0066 9847     		blx	r3
 701              	.LVL51:
 702              	.L95:
 703              		.loc 1 207 3 discriminator 5 view .LVU263
 704              		.loc 1 207 25 discriminator 5 view .LVU264
 705              		.loc 1 209 3 discriminator 5 view .LVU265
 706              		.loc 1 209 3 discriminator 5 view .LVU266
 707              		.loc 1 209 3 discriminator 5 view .LVU267
 708              		.loc 1 209 3 discriminator 5 view .LVU268
 709              		.loc 1 209 3 discriminator 5 view .LVU269
 710              		.loc 1 210 1 is_stmt 0 discriminator 5 view .LVU270
 711 0068 BDE81040 		pop	{r4, lr}
 712              		.cfi_restore 14
 713              		.cfi_restore 4
 714              		.cfi_def_cfa_offset 0
 715              	.LVL52:
 716              		.loc 1 209 3 discriminator 5 view .LVU271
 717 006c FFF7FEBF 		b	_port_irq_epilogue
 718              	.LVL53:
 719              	.L133:
 720              		.align	2
 721              	.L132:
 722 0070 003C0140 		.word	1073822720
 723 0074 00000000 		.word	_pal_events
 724              		.cfi_endproc
 725              	.LFE340:
 726              		.size	VectorE0, .-VectorE0
 727              		.section	.text.irqInit,"ax",%progbits
 728              		.align	1
 729              		.global	irqInit
 730              		.syntax unified
 731              		.thumb
 732              		.thumb_func
 733              		.fpu fpv4-sp-d16
 734              		.type	irqInit, %function
 735              	irqInit:
 736              	.LFB341:
 737              		.loc 1 224 20 is_stmt 1 view -0
 738              		.cfi_startproc
 739              		@ args = 0, pretend = 0, frame = 0
 740              		@ frame_needed = 0, uses_anonymous_args = 0
 741              		.loc 1 227 3 view .LVU273
ARM GAS  /tmp/ccmqySKt.s 			page 14


 742 0000 0621     		movs	r1, #6
 743              		.loc 1 224 20 is_stmt 0 view .LVU274
 744 0002 08B5     		push	{r3, lr}
 745              		.cfi_def_cfa_offset 8
 746              		.cfi_offset 3, -8
 747              		.cfi_offset 14, -4
 748              		.loc 1 227 3 view .LVU275
 749 0004 0846     		mov	r0, r1
 750 0006 FFF7FEFF 		bl	nvicEnableVector
 751              	.LVL54:
 752              		.loc 1 228 3 is_stmt 1 view .LVU276
 753 000a 0621     		movs	r1, #6
 754 000c 0720     		movs	r0, #7
 755 000e FFF7FEFF 		bl	nvicEnableVector
 756              	.LVL55:
 757              		.loc 1 229 3 view .LVU277
 758 0012 0621     		movs	r1, #6
 759 0014 0820     		movs	r0, #8
 760 0016 FFF7FEFF 		bl	nvicEnableVector
 761              	.LVL56:
 762              		.loc 1 230 3 view .LVU278
 763 001a 0621     		movs	r1, #6
 764 001c 0920     		movs	r0, #9
 765 001e FFF7FEFF 		bl	nvicEnableVector
 766              	.LVL57:
 767              		.loc 1 231 3 view .LVU279
 768 0022 0621     		movs	r1, #6
 769 0024 0A20     		movs	r0, #10
 770 0026 FFF7FEFF 		bl	nvicEnableVector
 771              	.LVL58:
 772              		.loc 1 232 3 view .LVU280
 773 002a 0621     		movs	r1, #6
 774 002c 1720     		movs	r0, #23
 775 002e FFF7FEFF 		bl	nvicEnableVector
 776              	.LVL59:
 777              		.loc 1 233 3 view .LVU281
 778 0032 0621     		movs	r1, #6
 779 0034 2820     		movs	r0, #40
 780              		.loc 1 235 1 is_stmt 0 view .LVU282
 781 0036 BDE80840 		pop	{r3, lr}
 782              		.cfi_restore 14
 783              		.cfi_restore 3
 784              		.cfi_def_cfa_offset 0
 785              		.loc 1 233 3 view .LVU283
 786 003a FFF7FEBF 		b	nvicEnableVector
 787              	.LVL60:
 788              		.cfi_endproc
 789              	.LFE341:
 790              		.size	irqInit, .-irqInit
 791              		.section	.text.irqDeinit,"ax",%progbits
 792              		.align	1
 793              		.global	irqDeinit
 794              		.syntax unified
 795              		.thumb
 796              		.thumb_func
 797              		.fpu fpv4-sp-d16
 798              		.type	irqDeinit, %function
ARM GAS  /tmp/ccmqySKt.s 			page 15


 799              	irqDeinit:
 800              	.LFB342:
 801              		.loc 1 242 22 is_stmt 1 view -0
 802              		.cfi_startproc
 803              		@ args = 0, pretend = 0, frame = 0
 804              		@ frame_needed = 0, uses_anonymous_args = 0
 805              		.loc 1 245 3 view .LVU285
 806              		.loc 1 242 22 is_stmt 0 view .LVU286
 807 0000 08B5     		push	{r3, lr}
 808              		.cfi_def_cfa_offset 8
 809              		.cfi_offset 3, -8
 810              		.cfi_offset 14, -4
 811              		.loc 1 245 3 view .LVU287
 812 0002 0620     		movs	r0, #6
 813 0004 FFF7FEFF 		bl	nvicDisableVector
 814              	.LVL61:
 815              		.loc 1 246 3 is_stmt 1 view .LVU288
 816 0008 0720     		movs	r0, #7
 817 000a FFF7FEFF 		bl	nvicDisableVector
 818              	.LVL62:
 819              		.loc 1 247 3 view .LVU289
 820 000e 0820     		movs	r0, #8
 821 0010 FFF7FEFF 		bl	nvicDisableVector
 822              	.LVL63:
 823              		.loc 1 248 3 view .LVU290
 824 0014 0920     		movs	r0, #9
 825 0016 FFF7FEFF 		bl	nvicDisableVector
 826              	.LVL64:
 827              		.loc 1 249 3 view .LVU291
 828 001a 0A20     		movs	r0, #10
 829 001c FFF7FEFF 		bl	nvicDisableVector
 830              	.LVL65:
 831              		.loc 1 250 3 view .LVU292
 832 0020 1720     		movs	r0, #23
 833 0022 FFF7FEFF 		bl	nvicDisableVector
 834              	.LVL66:
 835              		.loc 1 251 3 view .LVU293
 836 0026 2820     		movs	r0, #40
 837              		.loc 1 253 1 is_stmt 0 view .LVU294
 838 0028 BDE80840 		pop	{r3, lr}
 839              		.cfi_restore 14
 840              		.cfi_restore 3
 841              		.cfi_def_cfa_offset 0
 842              		.loc 1 251 3 view .LVU295
 843 002c FFF7FEBF 		b	nvicDisableVector
 844              	.LVL67:
 845              		.cfi_endproc
 846              	.LFE342:
 847              		.size	irqDeinit, .-irqDeinit
 848              		.text
 849              	.Letext0:
 850              		.file 2 "/opt/gcc-arm-none-eabi-10-2020-q4-major/arm-none-eabi/include/machine/_default_types.h"
 851              		.file 3 "/opt/gcc-arm-none-eabi-10-2020-q4-major/arm-none-eabi/include/sys/_stdint.h"
 852              		.file 4 "../../modules/ChibiOS/os/common/ext/ST/STM32F7xx/stm32f767xx.h"
 853              		.file 5 "../../modules/ChibiOS/os/hal/include/hal_pal.h"
 854              		.file 6 "../../modules/ChibiOS/os/hal/ports/common/ARMCMx/nvic.h"
 855              		.file 7 "../../modules/ChibiOS/os/rt/include/chstats.h"
ARM GAS  /tmp/ccmqySKt.s 			page 16


 856              		.file 8 "../../modules/ChibiOS/os/common/ports/ARMCMx/chcore_v7m.h"
 857              		.file 9 "../../modules/ChibiOS/os/hal/ports/STM32/LLD/GPIOv2/hal_pal_lld.h"