ARM GAS  /tmp/ccdVWu2V.s 			page 1


   1              		.cpu cortex-m7
   2              		.eabi_attribute 27, 1
   3              		.eabi_attribute 28, 1
   4              		.eabi_attribute 20, 1
   5              		.eabi_attribute 21, 1
   6              		.eabi_attribute 23, 3
   7              		.eabi_attribute 24, 1
   8              		.eabi_attribute 25, 1
   9              		.eabi_attribute 26, 1
  10              		.eabi_attribute 30, 4
  11              		.eabi_attribute 34, 1
  12              		.eabi_attribute 18, 4
  13              		.file	"stm32_util.c"
  14              		.text
  15              	.Ltext0:
  16              		.cfi_sections	.debug_frame
  17              		.section	.text.stm32_timer_set_input_filter,"ax",%progbits
  18              		.align	1
  19              		.global	stm32_timer_set_input_filter
  20              		.arch armv7e-m
  21              		.syntax unified
  22              		.thumb
  23              		.thumb_func
  24              		.fpu fpv4-sp-d16
  25              		.type	stm32_timer_set_input_filter, %function
  26              	stm32_timer_set_input_filter:
  27              	.LVL0:
  28              	.LFB334:
  29              		.file 1 "../../libraries/AP_HAL_ChibiOS/hwdef/common/stm32_util.c"
  30              		.loc 1 29 1 view -0
  31              		.cfi_startproc
  32              		@ args = 0, pretend = 0, frame = 0
  33              		@ frame_needed = 0, uses_anonymous_args = 0
  34              		@ link register save eliminated.
  35              		.loc 1 30 5 view .LVU1
  36 0000 0329     		cmp	r1, #3
  37 0002 10D8     		bhi	.L1
  38 0004 DFE801F0 		tbb	[pc, r1]
  39              	.L4:
  40 0008 02       		.byte	(.L7-.L4)/2
  41 0009 07       		.byte	(.L6-.L4)/2
  42 000a 0B       		.byte	(.L5-.L4)/2
  43 000b 10       		.byte	(.L3-.L4)/2
  44              		.p2align 1
  45              	.L7:
  46              		.loc 1 32 9 view .LVU2
  47              		.loc 1 32 20 is_stmt 0 view .LVU3
  48 000c 8369     		ldr	r3, [r0, #24]
  49 000e 43EA0212 		orr	r2, r3, r2, lsl #4
  50              	.LVL1:
  51              	.L8:
  52              		.loc 1 35 20 view .LVU4
  53 0012 8261     		str	r2, [r0, #24]
  54              		.loc 1 36 9 is_stmt 1 view .LVU5
  55 0014 7047     		bx	lr
  56              	.LVL2:
  57              	.L6:
ARM GAS  /tmp/ccdVWu2V.s 			page 2


  58              		.loc 1 35 9 view .LVU6
  59              		.loc 1 35 20 is_stmt 0 view .LVU7
  60 0016 8369     		ldr	r3, [r0, #24]
  61 0018 43EA0232 		orr	r2, r3, r2, lsl #12
  62              	.LVL3:
  63              		.loc 1 35 20 view .LVU8
  64 001c F9E7     		b	.L8
  65              	.LVL4:
  66              	.L5:
  67              		.loc 1 38 9 is_stmt 1 view .LVU9
  68              		.loc 1 38 20 is_stmt 0 view .LVU10
  69 001e C369     		ldr	r3, [r0, #28]
  70 0020 43EA0212 		orr	r2, r3, r2, lsl #4
  71              	.LVL5:
  72              	.L9:
  73              		.loc 1 41 20 view .LVU11
  74 0024 C261     		str	r2, [r0, #28]
  75              		.loc 1 42 9 is_stmt 1 view .LVU12
  76              	.L1:
  77              		.loc 1 44 1 is_stmt 0 view .LVU13
  78 0026 7047     		bx	lr
  79              	.LVL6:
  80              	.L3:
  81              		.loc 1 41 9 is_stmt 1 view .LVU14
  82              		.loc 1 41 20 is_stmt 0 view .LVU15
  83 0028 C369     		ldr	r3, [r0, #28]
  84 002a 43EA0232 		orr	r2, r3, r2, lsl #12
  85              	.LVL7:
  86              		.loc 1 41 20 view .LVU16
  87 002e F9E7     		b	.L9
  88              		.cfi_endproc
  89              	.LFE334:
  90              		.size	stm32_timer_set_input_filter, .-stm32_timer_set_input_filter
  91              		.section	.text.stm32_timer_set_channel_input,"ax",%progbits
  92              		.align	1
  93              		.global	stm32_timer_set_channel_input
  94              		.syntax unified
  95              		.thumb
  96              		.thumb_func
  97              		.fpu fpv4-sp-d16
  98              		.type	stm32_timer_set_channel_input, %function
  99              	stm32_timer_set_channel_input:
 100              	.LVL8:
 101              	.LFB335:
 102              		.loc 1 50 1 is_stmt 1 view -0
 103              		.cfi_startproc
 104              		@ args = 0, pretend = 0, frame = 0
 105              		@ frame_needed = 0, uses_anonymous_args = 0
 106              		@ link register save eliminated.
 107              		.loc 1 51 5 view .LVU18
 108 0000 0329     		cmp	r1, #3
 109 0002 12D8     		bhi	.L10
 110 0004 DFE801F0 		tbb	[pc, r1]
 111              	.L13:
 112 0008 02       		.byte	(.L16-.L13)/2
 113 0009 12       		.byte	(.L15-.L13)/2
 114 000a 22       		.byte	(.L14-.L13)/2
ARM GAS  /tmp/ccdVWu2V.s 			page 3


 115 000b 31       		.byte	(.L12-.L13)/2
 116              		.p2align 1
 117              	.L16:
 118              		.loc 1 53 13 view .LVU19
 119              		.loc 1 53 23 is_stmt 0 view .LVU20
 120 000c 036A     		ldr	r3, [r0, #32]
 121 000e 23F00103 		bic	r3, r3, #1
 122 0012 0362     		str	r3, [r0, #32]
 123              		.loc 1 54 13 is_stmt 1 view .LVU21
 124              		.loc 1 54 24 is_stmt 0 view .LVU22
 125 0014 8369     		ldr	r3, [r0, #24]
 126 0016 23F00303 		bic	r3, r3, #3
 127 001a 8361     		str	r3, [r0, #24]
 128              		.loc 1 55 13 is_stmt 1 view .LVU23
 129              		.loc 1 55 24 is_stmt 0 view .LVU24
 130 001c 8369     		ldr	r3, [r0, #24]
 131 001e 1A43     		orrs	r2, r2, r3
 132              	.LVL9:
 133              		.loc 1 55 24 view .LVU25
 134 0020 8261     		str	r2, [r0, #24]
 135              		.loc 1 56 13 is_stmt 1 view .LVU26
 136              		.loc 1 56 23 is_stmt 0 view .LVU27
 137 0022 036A     		ldr	r3, [r0, #32]
 138 0024 43F00103 		orr	r3, r3, #1
 139              	.L17:
 140              		.loc 1 74 23 view .LVU28
 141 0028 0362     		str	r3, [r0, #32]
 142              		.loc 1 75 13 is_stmt 1 view .LVU29
 143              	.L10:
 144              		.loc 1 77 1 is_stmt 0 view .LVU30
 145 002a 7047     		bx	lr
 146              	.LVL10:
 147              	.L15:
 148              		.loc 1 59 13 is_stmt 1 view .LVU31
 149              		.loc 1 59 23 is_stmt 0 view .LVU32
 150 002c 036A     		ldr	r3, [r0, #32]
 151 002e 23F01003 		bic	r3, r3, #16
 152 0032 0362     		str	r3, [r0, #32]
 153              		.loc 1 60 13 is_stmt 1 view .LVU33
 154              		.loc 1 60 24 is_stmt 0 view .LVU34
 155 0034 8369     		ldr	r3, [r0, #24]
 156 0036 23F44073 		bic	r3, r3, #768
 157 003a 8361     		str	r3, [r0, #24]
 158              		.loc 1 61 13 is_stmt 1 view .LVU35
 159              		.loc 1 61 24 is_stmt 0 view .LVU36
 160 003c 8369     		ldr	r3, [r0, #24]
 161 003e 43EA0222 		orr	r2, r3, r2, lsl #8
 162              	.LVL11:
 163              		.loc 1 61 24 view .LVU37
 164 0042 8261     		str	r2, [r0, #24]
 165              		.loc 1 62 13 is_stmt 1 view .LVU38
 166              		.loc 1 62 23 is_stmt 0 view .LVU39
 167 0044 036A     		ldr	r3, [r0, #32]
 168 0046 43F01003 		orr	r3, r3, #16
 169 004a EDE7     		b	.L17
 170              	.LVL12:
 171              	.L14:
ARM GAS  /tmp/ccdVWu2V.s 			page 4


 172              		.loc 1 65 13 is_stmt 1 view .LVU40
 173              		.loc 1 65 23 is_stmt 0 view .LVU41
 174 004c 036A     		ldr	r3, [r0, #32]
 175 004e 23F48073 		bic	r3, r3, #256
 176 0052 0362     		str	r3, [r0, #32]
 177              		.loc 1 66 13 is_stmt 1 view .LVU42
 178              		.loc 1 66 24 is_stmt 0 view .LVU43
 179 0054 C369     		ldr	r3, [r0, #28]
 180 0056 23F00303 		bic	r3, r3, #3
 181 005a C361     		str	r3, [r0, #28]
 182              		.loc 1 67 13 is_stmt 1 view .LVU44
 183              		.loc 1 67 24 is_stmt 0 view .LVU45
 184 005c C369     		ldr	r3, [r0, #28]
 185 005e 1A43     		orrs	r2, r2, r3
 186              	.LVL13:
 187              		.loc 1 67 24 view .LVU46
 188 0060 C261     		str	r2, [r0, #28]
 189              		.loc 1 68 13 is_stmt 1 view .LVU47
 190              		.loc 1 68 23 is_stmt 0 view .LVU48
 191 0062 036A     		ldr	r3, [r0, #32]
 192 0064 43F48073 		orr	r3, r3, #256
 193 0068 DEE7     		b	.L17
 194              	.LVL14:
 195              	.L12:
 196              		.loc 1 71 13 is_stmt 1 view .LVU49
 197              		.loc 1 71 23 is_stmt 0 view .LVU50
 198 006a 036A     		ldr	r3, [r0, #32]
 199 006c 23F48053 		bic	r3, r3, #4096
 200 0070 0362     		str	r3, [r0, #32]
 201              		.loc 1 72 13 is_stmt 1 view .LVU51
 202              		.loc 1 72 24 is_stmt 0 view .LVU52
 203 0072 C369     		ldr	r3, [r0, #28]
 204 0074 23F44073 		bic	r3, r3, #768
 205 0078 C361     		str	r3, [r0, #28]
 206              		.loc 1 73 13 is_stmt 1 view .LVU53
 207              		.loc 1 73 24 is_stmt 0 view .LVU54
 208 007a C369     		ldr	r3, [r0, #28]
 209 007c 43EA0222 		orr	r2, r3, r2, lsl #8
 210              	.LVL15:
 211              		.loc 1 73 24 view .LVU55
 212 0080 C261     		str	r2, [r0, #28]
 213              		.loc 1 74 13 is_stmt 1 view .LVU56
 214              		.loc 1 74 23 is_stmt 0 view .LVU57
 215 0082 036A     		ldr	r3, [r0, #32]
 216 0084 43F48053 		orr	r3, r3, #4096
 217 0088 CEE7     		b	.L17
 218              		.cfi_endproc
 219              	.LFE335:
 220              		.size	stm32_timer_set_channel_input, .-stm32_timer_set_channel_input
 221              		.section	.rodata.show_stack_usage.str1.1,"aMS",%progbits,1
 222              	.LC0:
 223 0000 25732025 		.ascii	"%s %u\012\000"
 223      750A00
 224              		.section	.text.show_stack_usage,"ax",%progbits
 225              		.align	1
 226              		.global	show_stack_usage
 227              		.syntax unified
ARM GAS  /tmp/ccdVWu2V.s 			page 5


 228              		.thumb
 229              		.thumb_func
 230              		.fpu fpv4-sp-d16
 231              		.type	show_stack_usage, %function
 232              	show_stack_usage:
 233              	.LFB336:
 234              		.loc 1 81 1 is_stmt 1 view -0
 235              		.cfi_startproc
 236              		@ args = 0, pretend = 0, frame = 0
 237              		@ frame_needed = 0, uses_anonymous_args = 0
 238              		.loc 1 82 3 view .LVU59
 239              		.loc 1 84 3 view .LVU60
 240              		.loc 1 81 1 is_stmt 0 view .LVU61
 241 0000 38B5     		push	{r3, r4, r5, lr}
 242              		.cfi_def_cfa_offset 16
 243              		.cfi_offset 3, -16
 244              		.cfi_offset 4, -12
 245              		.cfi_offset 5, -8
 246              		.cfi_offset 14, -4
 247              		.loc 1 84 8 view .LVU62
 248 0002 FFF7FEFF 		bl	chRegFirstThread
 249              	.LVL16:
 250              	.LBB24:
 251              		.loc 1 92 7 view .LVU63
 252 0006 0A4D     		ldr	r5, .L24
 253              	.LBE24:
 254              		.loc 1 84 8 view .LVU64
 255 0008 0446     		mov	r4, r0
 256              	.LVL17:
 257              	.L20:
 258              		.loc 1 85 3 is_stmt 1 view .LVU65
 259              	.LBB25:
 260              		.loc 1 86 7 view .LVU66
 261              		.loc 1 86 16 is_stmt 0 view .LVU67
 262 000a E269     		ldr	r2, [r4, #28]
 263              	.LVL18:
 264              		.loc 1 87 7 is_stmt 1 view .LVU68
 265              		.loc 1 88 7 view .LVU69
 266              		.loc 1 88 13 is_stmt 0 view .LVU70
 267 000c 1346     		mov	r3, r2
 268              	.LVL19:
 269              	.L19:
 270              		.loc 1 88 13 is_stmt 1 view .LVU71
 271              		.loc 1 88 14 is_stmt 0 view .LVU72
 272 000e 1878     		ldrb	r0, [r3]	@ zero_extendqisi2
 273 0010 1946     		mov	r1, r3
 274 0012 0133     		adds	r3, r3, #1
 275              	.LVL20:
 276              		.loc 1 88 13 view .LVU73
 277 0014 5528     		cmp	r0, #85
 278 0016 FAD0     		beq	.L19
 279              		.loc 1 91 7 is_stmt 1 view .LVU74
 280              	.LVL21:
 281              		.loc 1 92 7 view .LVU75
 282 0018 8A1A     		subs	r2, r1, r2
 283              	.LVL22:
 284              		.loc 1 92 7 is_stmt 0 view .LVU76
ARM GAS  /tmp/ccdVWu2V.s 			page 6


 285 001a 2846     		mov	r0, r5
 286 001c A169     		ldr	r1, [r4, #24]
 287              	.LVL23:
 288              		.loc 1 92 7 view .LVU77
 289 001e FFF7FEFF 		bl	printf
 290              	.LVL24:
 291              		.loc 1 93 7 is_stmt 1 view .LVU78
 292              		.loc 1 93 12 is_stmt 0 view .LVU79
 293 0022 2046     		mov	r0, r4
 294 0024 FFF7FEFF 		bl	chRegNextThread
 295              	.LVL25:
 296              		.loc 1 93 12 view .LVU80
 297              	.LBE25:
 298              		.loc 1 94 11 is_stmt 1 view .LVU81
 299              		.loc 1 94 3 is_stmt 0 view .LVU82
 300 0028 0446     		mov	r4, r0
 301 002a 0028     		cmp	r0, #0
 302 002c EDD1     		bne	.L20
 303              		.loc 1 95 1 view .LVU83
 304 002e 38BD     		pop	{r3, r4, r5, pc}
 305              	.L25:
 306              		.align	2
 307              	.L24:
 308 0030 00000000 		.word	.LC0
 309              		.cfi_endproc
 310              	.LFE336:
 311              		.size	show_stack_usage, .-show_stack_usage
 312              		.section	.text.stm32_set_utc_usec,"ax",%progbits
 313              		.align	1
 314              		.global	stm32_set_utc_usec
 315              		.syntax unified
 316              		.thumb
 317              		.thumb_func
 318              		.fpu fpv4-sp-d16
 319              		.type	stm32_set_utc_usec, %function
 320              	stm32_set_utc_usec:
 321              	.LVL26:
 322              	.LFB337:
 323              		.loc 1 102 1 is_stmt 1 view -0
 324              		.cfi_startproc
 325              		@ args = 0, pretend = 0, frame = 0
 326              		@ frame_needed = 0, uses_anonymous_args = 0
 327              		.loc 1 103 5 view .LVU85
 328              		.loc 1 102 1 is_stmt 0 view .LVU86
 329 0000 38B5     		push	{r3, r4, r5, lr}
 330              		.cfi_def_cfa_offset 16
 331              		.cfi_offset 3, -16
 332              		.cfi_offset 4, -12
 333              		.cfi_offset 5, -8
 334              		.cfi_offset 14, -4
 335              		.loc 1 102 1 view .LVU87
 336 0002 0446     		mov	r4, r0
 337 0004 0D46     		mov	r5, r1
 338              		.loc 1 103 20 view .LVU88
 339 0006 FFF7FEFF 		bl	hrt_micros64
 340              	.LVL27:
 341              		.loc 1 104 5 is_stmt 1 view .LVU89
ARM GAS  /tmp/ccdVWu2V.s 			page 7


 342              		.loc 1 104 8 is_stmt 0 view .LVU90
 343 000a 8442     		cmp	r4, r0
 344 000c 75EB0103 		sbcs	r3, r5, r1
 345 0010 05D3     		bcc	.L26
 346              		.loc 1 105 9 is_stmt 1 view .LVU91
 347              		.loc 1 105 41 is_stmt 0 view .LVU92
 348 0012 241A     		subs	r4, r4, r0
 349              		.loc 1 105 25 view .LVU93
 350 0014 024B     		ldr	r3, .L28
 351              		.loc 1 105 41 view .LVU94
 352 0016 65EB0105 		sbc	r5, r5, r1
 353              		.loc 1 105 25 view .LVU95
 354 001a C3E90045 		strd	r4, r5, [r3]
 355              	.L26:
 356              		.loc 1 107 1 view .LVU96
 357 001e 38BD     		pop	{r3, r4, r5, pc}
 358              	.L29:
 359              		.align	2
 360              	.L28:
 361 0020 00000000 		.word	.LANCHOR0
 362              		.cfi_endproc
 363              	.LFE337:
 364              		.size	stm32_set_utc_usec, .-stm32_set_utc_usec
 365              		.section	.text.stm32_get_utc_usec,"ax",%progbits
 366              		.align	1
 367              		.global	stm32_get_utc_usec
 368              		.syntax unified
 369              		.thumb
 370              		.thumb_func
 371              		.fpu fpv4-sp-d16
 372              		.type	stm32_get_utc_usec, %function
 373              	stm32_get_utc_usec:
 374              	.LFB338:
 375              		.loc 1 113 1 is_stmt 1 view -0
 376              		.cfi_startproc
 377              		@ args = 0, pretend = 0, frame = 0
 378              		@ frame_needed = 0, uses_anonymous_args = 0
 379              		.loc 1 114 5 view .LVU98
 380              		.loc 1 113 1 is_stmt 0 view .LVU99
 381 0000 08B5     		push	{r3, lr}
 382              		.cfi_def_cfa_offset 8
 383              		.cfi_offset 3, -8
 384              		.cfi_offset 14, -4
 385              		.loc 1 114 12 view .LVU100
 386 0002 FFF7FEFF 		bl	hrt_micros64
 387              	.LVL28:
 388              		.loc 1 114 27 view .LVU101
 389 0006 034A     		ldr	r2, .L31
 390 0008 D2E90032 		ldrd	r3, r2, [r2]
 391 000c C018     		adds	r0, r0, r3
 392              		.loc 1 115 1 view .LVU102
 393 000e 42EB0101 		adc	r1, r2, r1
 394 0012 08BD     		pop	{r3, pc}
 395              	.L32:
 396              		.align	2
 397              	.L31:
 398 0014 00000000 		.word	.LANCHOR0
ARM GAS  /tmp/ccdVWu2V.s 			page 8


 399              		.cfi_endproc
 400              	.LFE338:
 401              		.size	stm32_get_utc_usec, .-stm32_get_utc_usec
 402              		.global	__aeabi_uldivmod
 403              		.global	__aeabi_ldivmod
 404              		.section	.text.get_fattime,"ax",%progbits
 405              		.align	1
 406              		.global	get_fattime
 407              		.syntax unified
 408              		.thumb
 409              		.thumb_func
 410              		.fpu fpv4-sp-d16
 411              		.type	get_fattime, %function
 412              	get_fattime:
 413              	.LFB341:
 414              		.loc 1 189 1 is_stmt 1 view -0
 415              		.cfi_startproc
 416              		@ args = 0, pretend = 0, frame = 8
 417              		@ frame_needed = 0, uses_anonymous_args = 0
 418              		.loc 1 190 5 view .LVU104
 419              		.loc 1 190 25 is_stmt 0 view .LVU105
 420 0000 434B     		ldr	r3, .L52
 421              		.loc 1 190 8 view .LVU106
 422 0002 D3E90023 		ldrd	r2, r3, [r3]
 423              		.loc 1 189 1 view .LVU107
 424 0006 2DE9F341 		push	{r0, r1, r4, r5, r6, r7, r8, lr}
 425              		.cfi_def_cfa_offset 32
 426              		.cfi_offset 4, -24
 427              		.cfi_offset 5, -20
 428              		.cfi_offset 6, -16
 429              		.cfi_offset 7, -12
 430              		.cfi_offset 8, -8
 431              		.cfi_offset 14, -4
 432              		.loc 1 190 8 view .LVU108
 433 000a 1343     		orrs	r3, r2, r3
 434 000c 7CD0     		beq	.L43
 435              		.loc 1 194 5 is_stmt 1 view .LVU109
 436              		.loc 1 194 25 is_stmt 0 view .LVU110
 437 000e FFF7FEFF 		bl	stm32_get_utc_usec
 438              	.LVL29:
 439              		.loc 1 195 5 is_stmt 1 view .LVU111
 440              		.loc 1 195 14 is_stmt 0 view .LVU112
 441 0012 404A     		ldr	r2, .L52+4
 442 0014 0023     		movs	r3, #0
 443              	.LBB32:
 444              	.LBB33:
 445              		.loc 1 149 5 view .LVU113
 446 0016 0027     		movs	r7, #0
 447              	.LBE33:
 448              	.LBE32:
 449              		.loc 1 195 14 view .LVU114
 450 0018 FFF7FEFF 		bl	__aeabi_uldivmod
 451              	.LVL30:
 452              		.loc 1 195 14 view .LVU115
 453 001c 0646     		mov	r6, r0
 454 001e 0D46     		mov	r5, r1
 455              	.LVL31:
ARM GAS  /tmp/ccdVWu2V.s 			page 9


 456              		.loc 1 196 5 is_stmt 1 view .LVU116
 457              		.loc 1 198 5 view .LVU117
 458              	.LBB47:
 459              	.LBI32:
 460              		.loc 1 144 13 view .LVU118
 461              	.LBB46:
 462              		.loc 1 146 5 view .LVU119
 463              		.loc 1 146 31 is_stmt 0 view .LVU120
 464 0020 3D4A     		ldr	r2, .L52+8
 465 0022 0023     		movs	r3, #0
 466 0024 FFF7FEFF 		bl	__aeabi_uldivmod
 467              	.LVL32:
 468              		.loc 1 147 29 view .LVU121
 469 0028 0023     		movs	r3, #0
 470              		.loc 1 146 31 view .LVU122
 471 002a 1446     		mov	r4, r2
 472              	.LVL33:
 473              		.loc 1 147 5 is_stmt 1 view .LVU123
 474              		.loc 1 147 29 is_stmt 0 view .LVU124
 475 002c 3046     		mov	r0, r6
 476 002e 2946     		mov	r1, r5
 477 0030 394A     		ldr	r2, .L52+8
 478              	.LVL34:
 479              		.loc 1 147 29 view .LVU125
 480 0032 FFF7FEFF 		bl	__aeabi_uldivmod
 481              	.LVL35:
 482              		.loc 1 149 5 is_stmt 1 view .LVU126
 483              		.loc 1 152 26 is_stmt 0 view .LVU127
 484 0036 4FF46161 		mov	r1, #3600
 485              		.loc 1 151 25 view .LVU128
 486 003a 3C23     		movs	r3, #60
 487              		.loc 1 149 5 view .LVU129
 488 003c ADF80170 		strh	r7, [sp, #1]	@ unaligned
 489              		.loc 1 151 5 is_stmt 1 view .LVU130
 490              		.loc 1 152 26 is_stmt 0 view .LVU131
 491 0040 B4FBF1F5 		udiv	r5, r4, r1
 492              	.LVL36:
 493              		.loc 1 151 25 view .LVU132
 494 0044 B4FBF3F6 		udiv	r6, r4, r3
 495              		.loc 1 152 26 view .LVU133
 496 0048 01FB1541 		mls	r1, r1, r5, r4
 497              		.loc 1 151 25 view .LVU134
 498 004c 03FB1646 		mls	r6, r3, r6, r4
 499              		.loc 1 154 17 view .LVU135
 500 0050 4624     		movs	r4, #70
 501              	.LVL37:
 502              		.loc 1 152 35 view .LVU136
 503 0052 B1FBF3F1 		udiv	r1, r1, r3
 504              		.loc 1 156 8 view .LVU137
 505 0056 314B     		ldr	r3, .L52+12
 506              		.loc 1 151 16 view .LVU138
 507 0058 F6B2     		uxtb	r6, r6
 508              		.loc 1 152 5 is_stmt 1 view .LVU139
 509              		.loc 1 153 5 view .LVU140
 510              		.loc 1 154 5 view .LVU141
 511              		.loc 1 154 17 is_stmt 0 view .LVU142
 512 005a 8DF80040 		strb	r4, [sp]
ARM GAS  /tmp/ccdVWu2V.s 			page 10


 513              		.loc 1 156 5 is_stmt 1 view .LVU143
 514              		.loc 1 156 8 is_stmt 0 view .LVU144
 515 005e 9842     		cmp	r0, r3
 516 0060 3CD8     		bhi	.L35
 517              	.LBB34:
 518              	.LBB35:
 519              	.LBB36:
 520 0062 4FF0640C 		mov	ip, #100
 521              		.loc 1 133 44 view .LVU145
 522 0066 4FF4C87E 		mov	lr, #400
 523              	.L40:
 524              		.loc 1 133 44 view .LVU146
 525              	.LBE36:
 526              	.LBE35:
 527              	.LBE34:
 528              		.loc 1 161 5 is_stmt 1 view .LVU147
 529              	.LBB41:
 530              		.loc 1 162 9 view .LVU148
 531              	.LVL38:
 532              	.LBB39:
 533              	.LBI35:
 534              		.loc 1 130 13 view .LVU149
 535              	.LBB37:
 536              		.loc 1 132 5 view .LVU150
 537              		.loc 1 133 25 is_stmt 0 view .LVU151
 538 006a A307     		lsls	r3, r4, #30
 539              		.loc 1 132 7 view .LVU152
 540 006c 04F26C72 		addw	r2, r4, #1900
 541              	.LVL39:
 542              		.loc 1 133 5 is_stmt 1 view .LVU153
 543              		.loc 1 133 25 is_stmt 0 view .LVU154
 544 0070 25D1     		bne	.L44
 545              		.loc 1 133 25 view .LVU155
 546 0072 B2FBFCF3 		udiv	r3, r2, ip
 547 0076 0CFB1323 		mls	r3, ip, r3, r2
 548 007a 13BB     		cbnz	r3, .L45
 549              		.loc 1 133 44 view .LVU156
 550 007c B2FBFEF3 		udiv	r3, r2, lr
 551 0080 0EFB1322 		mls	r2, lr, r3, r2
 552              	.LVL40:
 553              		.loc 1 133 44 view .LVU157
 554 0084 B2FA82F3 		clz	r3, r2
 555 0088 5B09     		lsrs	r3, r3, #5
 556              	.L36:
 557              	.LVL41:
 558              		.loc 1 133 44 view .LVU158
 559              	.LBE37:
 560              	.LBE39:
 561              		.loc 1 162 58 view .LVU159
 562 008a 03F26D18 		addw	r8, r3, #365
 563              	.LVL42:
 564              		.loc 1 163 9 is_stmt 1 view .LVU160
 565              		.loc 1 163 12 is_stmt 0 view .LVU161
 566 008e 621C     		adds	r2, r4, #1
 567 0090 8045     		cmp	r8, r0
 568 0092 D2B2     		uxtb	r2, r2
 569 0094 17D9     		bls	.L37
ARM GAS  /tmp/ccdVWu2V.s 			page 11


 570 0096 0FB1     		cbz	r7, .L38
 571 0098 8DF80040 		strb	r4, [sp]
 572              	.L38:
 573              	.LBE41:
 574              		.loc 1 171 18 view .LVU162
 575 009c 0022     		movs	r2, #0
 576              	.LBB42:
 577              		.loc 1 172 63 view .LVU163
 578 009e 204C     		ldr	r4, .L52+16
 579 00a0 4FF00C0C 		mov	ip, #12
 580              	.LBE42:
 581              		.loc 1 171 18 view .LVU164
 582 00a4 1746     		mov	r7, r2
 583              	.LBB43:
 584              		.loc 1 172 63 view .LVU165
 585 00a6 0CFB0343 		mla	r3, ip, r3, r4
 586              	.L39:
 587              		.loc 1 172 63 view .LVU166
 588 00aa D4B2     		uxtb	r4, r2
 589              		.loc 1 172 63 view .LVU167
 590              	.LBE43:
 591              		.loc 1 171 5 is_stmt 1 view .LVU168
 592              	.LBB44:
 593              		.loc 1 172 9 view .LVU169
 594              		.loc 1 173 12 is_stmt 0 view .LVU170
 595 00ac 0132     		adds	r2, r2, #1
 596              		.loc 1 172 18 view .LVU171
 597 00ae 13F804C0 		ldrb	ip, [r3, r4]	@ zero_extendqisi2
 598              	.LVL43:
 599              		.loc 1 173 9 is_stmt 1 view .LVU172
 600              		.loc 1 173 12 is_stmt 0 view .LVU173
 601 00b2 8445     		cmp	ip, r0
 602 00b4 0CD8     		bhi	.L41
 603              		.loc 1 176 9 is_stmt 1 view .LVU174
 604              		.loc 1 176 14 is_stmt 0 view .LVU175
 605 00b6 A0EB0C00 		sub	r0, r0, ip
 606              	.LVL44:
 607              		.loc 1 177 9 is_stmt 1 view .LVU176
 608              	.LBE44:
 609              		.loc 1 171 11 view .LVU177
 610              		.loc 1 171 18 is_stmt 0 view .LVU178
 611 00ba 0127     		movs	r7, #1
 612 00bc F5E7     		b	.L39
 613              	.LVL45:
 614              	.L44:
 615              	.LBB45:
 616              	.LBB40:
 617              	.LBB38:
 618              		.loc 1 133 25 view .LVU179
 619 00be 0023     		movs	r3, #0
 620 00c0 E3E7     		b	.L36
 621              	.L45:
 622 00c2 0123     		movs	r3, #1
 623 00c4 E1E7     		b	.L36
 624              	.LVL46:
 625              	.L37:
 626              		.loc 1 133 25 view .LVU180
ARM GAS  /tmp/ccdVWu2V.s 			page 12


 627              	.LBE38:
 628              	.LBE40:
 629              		.loc 1 166 9 is_stmt 1 view .LVU181
 630              		.loc 1 167 9 view .LVU182
 631              		.loc 1 167 14 is_stmt 0 view .LVU183
 632 00c6 A0EB0800 		sub	r0, r0, r8
 633              	.LVL47:
 634              		.loc 1 167 14 view .LVU184
 635              	.LBE45:
 636              		.loc 1 161 11 is_stmt 1 view .LVU185
 637              		.loc 1 161 18 is_stmt 0 view .LVU186
 638 00ca 1446     		mov	r4, r2
 639 00cc 0127     		movs	r7, #1
 640 00ce CCE7     		b	.L40
 641              	.LVL48:
 642              	.L41:
 643              		.loc 1 161 18 view .LVU187
 644 00d0 0FB1     		cbz	r7, .L42
 645 00d2 8DF80140 		strb	r4, [sp, #1]
 646              	.L42:
 647              		.loc 1 179 5 is_stmt 1 view .LVU188
 648              		.loc 1 179 24 is_stmt 0 view .LVU189
 649 00d6 431C     		adds	r3, r0, #1
 650              		.loc 1 179 17 view .LVU190
 651 00d8 8DF80230 		strb	r3, [sp, #2]
 652              	.LVL49:
 653              	.L35:
 654              		.loc 1 179 17 view .LVU191
 655              	.LBE46:
 656              	.LBE47:
 657              		.loc 1 200 5 is_stmt 1 view .LVU192
 658              		.loc 1 202 5 view .LVU193
 659              		.loc 1 203 5 view .LVU194
 660              		.loc 1 204 5 view .LVU195
 661              		.loc 1 205 5 view .LVU196
 662              		.loc 1 206 5 view .LVU197
 663              		.loc 1 207 5 view .LVU198
 664              		.loc 1 206 19 is_stmt 0 view .LVU199
 665 00dc 9DF80100 		ldrb	r0, [sp, #1]	@ zero_extendqisi2
 666              		.loc 1 206 26 view .LVU200
 667 00e0 431C     		adds	r3, r0, #1
 668              		.loc 1 207 30 view .LVU201
 669 00e2 9DF80000 		ldrb	r0, [sp]	@ zero_extendqisi2
 670              		.loc 1 207 38 view .LVU202
 671 00e6 5038     		subs	r0, r0, #80
 672              		.loc 1 207 43 view .LVU203
 673 00e8 4006     		lsls	r0, r0, #25
 674 00ea 40EA4350 		orr	r0, r0, r3, lsl #21
 675              		.loc 1 205 18 view .LVU204
 676 00ee 9DF80230 		ldrb	r3, [sp, #2]	@ zero_extendqisi2
 677 00f2 40EA0340 		orr	r0, r0, r3, lsl #16
 678 00f6 40EA5600 		orr	r0, r0, r6, lsr #1
 679 00fa 40EAC520 		orr	r0, r0, r5, lsl #11
 680              		.loc 1 207 13 view .LVU205
 681 00fe 40EA4110 		orr	r0, r0, r1, lsl #5
 682              	.LVL50:
 683              		.loc 1 209 5 is_stmt 1 view .LVU206
ARM GAS  /tmp/ccdVWu2V.s 			page 13


 684              	.L33:
 685              		.loc 1 210 1 is_stmt 0 view .LVU207
 686 0102 02B0     		add	sp, sp, #8
 687              		.cfi_remember_state
 688              		.cfi_def_cfa_offset 24
 689              		@ sp needed
 690 0104 BDE8F081 		pop	{r4, r5, r6, r7, r8, pc}
 691              	.L43:
 692              		.cfi_restore_state
 693              		.loc 1 192 16 view .LVU208
 694 0108 4FF40410 		mov	r0, #2162688
 695 010c F9E7     		b	.L33
 696              	.L53:
 697 010e 00BF     		.align	2
 698              	.L52:
 699 0110 00000000 		.word	.LANCHOR0
 700 0114 40420F00 		.word	1000000
 701 0118 80510100 		.word	86400
 702 011c 90230B00 		.word	730000
 703 0120 00000000 		.word	.LANCHOR1
 704              		.cfi_endproc
 705              	.LFE341:
 706              		.size	get_fattime, .-get_fattime
 707              		.section	.text.get_rtc_backup,"ax",%progbits
 708              		.align	1
 709              		.global	get_rtc_backup
 710              		.syntax unified
 711              		.thumb
 712              		.thumb_func
 713              		.fpu fpv4-sp-d16
 714              		.type	get_rtc_backup, %function
 715              	get_rtc_backup:
 716              	.LVL51:
 717              	.LFB342:
 718              		.loc 1 216 1 is_stmt 1 view -0
 719              		.cfi_startproc
 720              		@ args = 0, pretend = 0, frame = 0
 721              		@ frame_needed = 0, uses_anonymous_args = 0
 722              		.loc 1 217 5 view .LVU210
 723 0000 0244     		add	r2, r2, r0
 724              	.LVL52:
 725              		.loc 1 222 46 is_stmt 0 view .LVU211
 726 0002 074B     		ldr	r3, .L57
 727 0004 D2B2     		uxtb	r2, r2
 728              		.loc 1 216 1 view .LVU212
 729 0006 10B5     		push	{r4, lr}
 730              		.cfi_def_cfa_offset 8
 731              		.cfi_offset 4, -8
 732              		.cfi_offset 14, -4
 733              	.LVL53:
 734              	.L55:
 735              		.loc 1 217 11 is_stmt 1 view .LVU213
 736              		.loc 1 217 11 is_stmt 0 view .LVU214
 737 0008 9042     		cmp	r0, r2
 738 000a 00D1     		bne	.L56
 739              		.loc 1 225 1 view .LVU215
 740 000c 10BD     		pop	{r4, pc}
ARM GAS  /tmp/ccdVWu2V.s 			page 14


 741              	.L56:
 742              		.loc 1 222 9 is_stmt 1 view .LVU216
 743              		.loc 1 222 50 is_stmt 0 view .LVU217
 744 000e 441C     		adds	r4, r0, #1
 745              	.LVL54:
 746              		.loc 1 222 46 view .LVU218
 747 0010 00B2     		sxth	r0, r0
 748              	.LVL55:
 749              		.loc 1 222 46 view .LVU219
 750 0012 53F82000 		ldr	r0, [r3, r0, lsl #2]
 751              		.loc 1 222 14 view .LVU220
 752 0016 41F8040B 		str	r0, [r1], #4
 753              	.LVL56:
 754              		.loc 1 222 50 view .LVU221
 755 001a E0B2     		uxtb	r0, r4
 756 001c F4E7     		b	.L55
 757              	.L58:
 758 001e 00BF     		.align	2
 759              	.L57:
 760 0020 50280040 		.word	1073752144
 761              		.cfi_endproc
 762              	.LFE342:
 763              		.size	get_rtc_backup, .-get_rtc_backup
 764              		.section	.text.set_rtc_backup,"ax",%progbits
 765              		.align	1
 766              		.global	set_rtc_backup
 767              		.syntax unified
 768              		.thumb
 769              		.thumb_func
 770              		.fpu fpv4-sp-d16
 771              		.type	set_rtc_backup, %function
 772              	set_rtc_backup:
 773              	.LVL57:
 774              	.LFB343:
 775              		.loc 1 229 1 is_stmt 1 view -0
 776              		.cfi_startproc
 777              		@ args = 0, pretend = 0, frame = 0
 778              		@ frame_needed = 0, uses_anonymous_args = 0
 779              		.loc 1 231 5 view .LVU223
 780              		.loc 1 231 13 is_stmt 0 view .LVU224
 781 0000 0F4B     		ldr	r3, .L63
 782              		.loc 1 229 1 view .LVU225
 783 0002 30B5     		push	{r4, r5, lr}
 784              		.cfi_def_cfa_offset 12
 785              		.cfi_offset 4, -12
 786              		.cfi_offset 5, -8
 787              		.cfi_offset 14, -4
 788              		.loc 1 231 13 view .LVU226
 789 0004 1C6F     		ldr	r4, [r3, #112]
 790              		.loc 1 231 8 view .LVU227
 791 0006 2404     		lsls	r4, r4, #16
 792 0008 07D4     		bmi	.L60
 793              		.loc 1 232 9 is_stmt 1 view .LVU228
 794              		.loc 1 232 19 is_stmt 0 view .LVU229
 795 000a 1C6F     		ldr	r4, [r3, #112]
 796 000c 44F40074 		orr	r4, r4, #512
 797 0010 1C67     		str	r4, [r3, #112]
ARM GAS  /tmp/ccdVWu2V.s 			page 15


 798              		.loc 1 233 9 is_stmt 1 view .LVU230
 799              		.loc 1 233 19 is_stmt 0 view .LVU231
 800 0012 1C6F     		ldr	r4, [r3, #112]
 801 0014 44F40044 		orr	r4, r4, #32768
 802 0018 1C67     		str	r4, [r3, #112]
 803              	.L60:
 804              		.loc 1 238 5 is_stmt 1 view .LVU232
 805              		.loc 1 238 14 is_stmt 0 view .LVU233
 806 001a 0A4C     		ldr	r4, .L63+4
 807 001c 0244     		add	r2, r2, r0
 808              	.LVL58:
 809              		.loc 1 238 14 view .LVU234
 810 001e 2368     		ldr	r3, [r4]
 811 0020 D2B2     		uxtb	r2, r2
 812 0022 43F48073 		orr	r3, r3, #256
 813 0026 2360     		str	r3, [r4]
 814              		.loc 1 241 5 is_stmt 1 view .LVU235
 815              		.loc 1 247 39 is_stmt 0 view .LVU236
 816 0028 074B     		ldr	r3, .L63+8
 817              	.LVL59:
 818              	.L61:
 819              		.loc 1 241 11 is_stmt 1 view .LVU237
 820              		.loc 1 241 11 is_stmt 0 view .LVU238
 821 002a 9042     		cmp	r0, r2
 822 002c 00D1     		bne	.L62
 823              		.loc 1 250 1 view .LVU239
 824 002e 30BD     		pop	{r4, r5, pc}
 825              	.L62:
 826              		.loc 1 247 9 is_stmt 1 view .LVU240
 827              	.LVL60:
 828              		.loc 1 247 43 is_stmt 0 view .LVU241
 829 0030 441C     		adds	r4, r0, #1
 830              	.LVL61:
 831              		.loc 1 247 49 view .LVU242
 832 0032 51F8045B 		ldr	r5, [r1], #4
 833              	.LVL62:
 834              		.loc 1 247 39 view .LVU243
 835 0036 00B2     		sxth	r0, r0
 836              		.loc 1 247 47 view .LVU244
 837 0038 43F82050 		str	r5, [r3, r0, lsl #2]
 838              		.loc 1 247 43 view .LVU245
 839 003c E0B2     		uxtb	r0, r4
 840 003e F4E7     		b	.L61
 841              	.L64:
 842              		.align	2
 843              	.L63:
 844 0040 00380240 		.word	1073887232
 845 0044 00700040 		.word	1073770496
 846 0048 50280040 		.word	1073752144
 847              		.cfi_endproc
 848              	.LFE343:
 849              		.size	set_rtc_backup, .-set_rtc_backup
 850              		.section	.text.check_fast_reboot,"ax",%progbits
 851              		.align	1
 852              		.global	check_fast_reboot
 853              		.syntax unified
 854              		.thumb
ARM GAS  /tmp/ccdVWu2V.s 			page 16


 855              		.thumb_func
 856              		.fpu fpv4-sp-d16
 857              		.type	check_fast_reboot, %function
 858              	check_fast_reboot:
 859              	.LFB344:
 860              		.loc 1 254 1 is_stmt 1 view -0
 861              		.cfi_startproc
 862              		@ args = 0, pretend = 0, frame = 8
 863              		@ frame_needed = 0, uses_anonymous_args = 0
 864              		.loc 1 255 5 view .LVU247
 865              		.loc 1 256 5 view .LVU248
 866              		.loc 1 254 1 is_stmt 0 view .LVU249
 867 0000 07B5     		push	{r0, r1, r2, lr}
 868              		.cfi_def_cfa_offset 16
 869              		.cfi_offset 14, -4
 870              		.loc 1 256 5 view .LVU250
 871 0002 0122     		movs	r2, #1
 872 0004 01A9     		add	r1, sp, #4
 873 0006 0020     		movs	r0, #0
 874 0008 FFF7FEFF 		bl	get_rtc_backup
 875              	.LVL63:
 876              		.loc 1 257 5 is_stmt 1 view .LVU251
 877              		.loc 1 258 1 is_stmt 0 view .LVU252
 878 000c 0198     		ldr	r0, [sp, #4]
 879 000e 03B0     		add	sp, sp, #12
 880              		.cfi_def_cfa_offset 4
 881              		@ sp needed
 882 0010 5DF804FB 		ldr	pc, [sp], #4
 883              		.cfi_endproc
 884              	.LFE344:
 885              		.size	check_fast_reboot, .-check_fast_reboot
 886              		.section	.text.set_fast_reboot,"ax",%progbits
 887              		.align	1
 888              		.global	set_fast_reboot
 889              		.syntax unified
 890              		.thumb
 891              		.thumb_func
 892              		.fpu fpv4-sp-d16
 893              		.type	set_fast_reboot, %function
 894              	set_fast_reboot:
 895              	.LVL64:
 896              	.LFB345:
 897              		.loc 1 262 1 is_stmt 1 view -0
 898              		.cfi_startproc
 899              		@ args = 0, pretend = 0, frame = 8
 900              		@ frame_needed = 0, uses_anonymous_args = 0
 901              		.loc 1 263 5 view .LVU254
 902              		.loc 1 262 1 is_stmt 0 view .LVU255
 903 0000 13B5     		push	{r0, r1, r4, lr}
 904              		.cfi_def_cfa_offset 16
 905              		.cfi_offset 4, -8
 906              		.cfi_offset 14, -4
 907              		.loc 1 262 1 view .LVU256
 908 0002 0446     		mov	r4, r0
 909              		.loc 1 263 9 view .LVU257
 910 0004 FFF7FEFF 		bl	check_fast_reboot
 911              	.LVL65:
ARM GAS  /tmp/ccdVWu2V.s 			page 17


 912              		.loc 1 263 8 view .LVU258
 913 0008 A042     		cmp	r0, r4
 914 000a 05D0     		beq	.L66
 915              	.LBB48:
 916              		.loc 1 264 9 is_stmt 1 view .LVU259
 917              		.loc 1 265 9 is_stmt 0 view .LVU260
 918 000c 0122     		movs	r2, #1
 919 000e 01A9     		add	r1, sp, #4
 920 0010 0020     		movs	r0, #0
 921              		.loc 1 264 18 view .LVU261
 922 0012 0194     		str	r4, [sp, #4]
 923              		.loc 1 265 9 is_stmt 1 view .LVU262
 924 0014 FFF7FEFF 		bl	set_rtc_backup
 925              	.LVL66:
 926              	.L66:
 927              	.LBE48:
 928              		.loc 1 267 1 is_stmt 0 view .LVU263
 929 0018 02B0     		add	sp, sp, #8
 930              		.cfi_def_cfa_offset 8
 931              		@ sp needed
 932 001a 10BD     		pop	{r4, pc}
 933              		.loc 1 267 1 view .LVU264
 934              		.cfi_endproc
 935              	.LFE345:
 936              		.size	set_fast_reboot, .-set_fast_reboot
 937              		.section	.text.peripheral_power_enable,"ax",%progbits
 938              		.align	1
 939              		.global	peripheral_power_enable
 940              		.syntax unified
 941              		.thumb
 942              		.thumb_func
 943              		.fpu fpv4-sp-d16
 944              		.type	peripheral_power_enable, %function
 945              	peripheral_power_enable:
 946              	.LFB346:
 947              		.loc 1 289 1 is_stmt 1 view -0
 948              		.cfi_startproc
 949              		@ args = 0, pretend = 0, frame = 0
 950              		@ frame_needed = 0, uses_anonymous_args = 0
 951              		.loc 1 294 5 view .LVU266
 952              		.loc 1 295 5 view .LVU267
 953              	.LVL67:
 954              		.loc 1 295 15 view .LVU268
 955              		.loc 1 289 1 is_stmt 0 view .LVU269
 956 0000 10B5     		push	{r4, lr}
 957              		.cfi_def_cfa_offset 8
 958              		.cfi_offset 4, -8
 959              		.cfi_offset 14, -4
 960              		.loc 1 289 1 view .LVU270
 961 0002 6424     		movs	r4, #100
 962              	.LVL68:
 963              	.L69:
 964              		.loc 1 297 9 is_stmt 1 view .LVU271
 965              		.file 2 "../../modules/ChibiOS/os/rt/include/chtime.h"
 966              		.loc 2 348 3 view .LVU272
 967              		.loc 2 350 3 view .LVU273
 968              		.loc 2 355 3 view .LVU274
ARM GAS  /tmp/ccdVWu2V.s 			page 18


 969              		.loc 2 355 3 view .LVU275
 970              		.loc 2 355 3 view .LVU276
 971              		.loc 2 358 3 view .LVU277
 972              		.loc 1 295 5 is_stmt 0 view .LVU278
 973 0004 013C     		subs	r4, r4, #1
 974              	.LVL69:
 975              		.loc 1 297 9 view .LVU279
 976 0006 4FF47A70 		mov	r0, #1000
 977 000a FFF7FEFF 		bl	chThdSleep
 978              	.LVL70:
 979              		.loc 1 295 22 is_stmt 1 view .LVU280
 980              		.loc 1 295 15 view .LVU281
 981              		.loc 1 295 5 is_stmt 0 view .LVU282
 982 000e 14F0FF04 		ands	r4, r4, #255
 983 0012 F7D1     		bne	.L69
 984              	.LBB49:
 985              		.loc 1 300 5 is_stmt 1 view .LVU283
 986              	.LVL71:
 987              		.loc 1 300 5 view .LVU284
 988 0014 0B4B     		ldr	r3, .L73
 989 0016 4FF48012 		mov	r2, #1048576
 990              	.LBE49:
 991              	.LBB50:
 992              		.loc 1 303 5 is_stmt 0 view .LVU285
 993 001a 4FF08051 		mov	r1, #268435456
 994              	.LBE50:
 995              	.LBB51:
 996              		.loc 1 315 5 view .LVU286
 997 001e 1424     		movs	r4, #20
 998              	.LBE51:
 999              	.LBB52:
 1000              		.loc 1 300 5 view .LVU287
 1001 0020 9A61     		str	r2, [r3, #24]
 1002              	.LBE52:
 1003              		.loc 1 300 52 is_stmt 1 view .LVU288
 1004              	.LBB53:
 1005              		.loc 1 303 5 view .LVU289
 1006              	.LVL72:
 1007              		.loc 1 303 5 view .LVU290
 1008 0022 094A     		ldr	r2, .L73+4
 1009 0024 9161     		str	r1, [r2, #24]
 1010              	.LBE53:
 1011              		.loc 1 303 53 view .LVU291
 1012              	.LBB54:
 1013              		.loc 1 307 5 view .LVU292
 1014              	.LVL73:
 1015              		.loc 1 307 5 view .LVU293
 1016 0026 A2F58062 		sub	r2, r2, #1024
 1017 002a 0821     		movs	r1, #8
 1018 002c 9161     		str	r1, [r2, #24]
 1019              	.LBE54:
 1020              		.loc 1 307 53 view .LVU294
 1021              	.LBB55:
 1022              		.loc 1 315 5 view .LVU295
 1023              	.LVL74:
 1024              		.loc 1 315 5 view .LVU296
 1025 002e 8022     		movs	r2, #128
ARM GAS  /tmp/ccdVWu2V.s 			page 19


 1026 0030 9A61     		str	r2, [r3, #24]
 1027              	.LBE55:
 1028              		.loc 1 315 53 view .LVU297
 1029              		.loc 1 317 5 view .LVU298
 1030              	.LVL75:
 1031              		.loc 1 317 15 view .LVU299
 1032              	.L70:
 1033              		.loc 1 319 9 view .LVU300
 1034              		.loc 2 348 3 view .LVU301
 1035              		.loc 2 350 3 view .LVU302
 1036              		.loc 2 355 3 view .LVU303
 1037              		.loc 2 355 3 view .LVU304
 1038              		.loc 2 355 3 view .LVU305
 1039              		.loc 2 358 3 view .LVU306
 1040              		.loc 1 317 5 is_stmt 0 view .LVU307
 1041 0032 013C     		subs	r4, r4, #1
 1042              	.LVL76:
 1043              		.loc 1 319 9 view .LVU308
 1044 0034 4FF47A70 		mov	r0, #1000
 1045 0038 FFF7FEFF 		bl	chThdSleep
 1046              	.LVL77:
 1047              		.loc 1 317 21 is_stmt 1 view .LVU309
 1048              		.loc 1 317 15 view .LVU310
 1049              		.loc 1 317 5 is_stmt 0 view .LVU311
 1050 003c 14F0FF04 		ands	r4, r4, #255
 1051 0040 F7D1     		bne	.L70
 1052              		.loc 1 322 1 view .LVU312
 1053 0042 10BD     		pop	{r4, pc}
 1054              	.L74:
 1055              		.align	2
 1056              	.L73:
 1057 0044 00180240 		.word	1073879040
 1058 0048 00140240 		.word	1073878016
 1059              		.cfi_endproc
 1060              	.LFE346:
 1061              		.size	peripheral_power_enable, .-peripheral_power_enable
 1062              		.section	.text.palReadLineMode,"ax",%progbits
 1063              		.align	1
 1064              		.global	palReadLineMode
 1065              		.syntax unified
 1066              		.thumb
 1067              		.thumb_func
 1068              		.fpu fpv4-sp-d16
 1069              		.type	palReadLineMode, %function
 1070              	palReadLineMode:
 1071              	.LVL78:
 1072              	.LFB347:
 1073              		.loc 1 330 1 is_stmt 1 view -0
 1074              		.cfi_startproc
 1075              		@ args = 0, pretend = 0, frame = 0
 1076              		@ frame_needed = 0, uses_anonymous_args = 0
 1077              		.loc 1 331 5 view .LVU314
 1078              		.loc 1 330 1 is_stmt 0 view .LVU315
 1079 0000 70B5     		push	{r4, r5, r6, lr}
 1080              		.cfi_def_cfa_offset 16
 1081              		.cfi_offset 4, -16
 1082              		.cfi_offset 5, -12
ARM GAS  /tmp/ccdVWu2V.s 			page 20


 1083              		.cfi_offset 6, -8
 1084              		.cfi_offset 14, -4
 1085              		.loc 1 331 23 view .LVU316
 1086 0002 20F00F04 		bic	r4, r0, #15
 1087              	.LVL79:
 1088              		.loc 1 332 5 is_stmt 1 view .LVU317
 1089              		.loc 1 332 13 is_stmt 0 view .LVU318
 1090 0006 00F00F01 		and	r1, r0, #15
 1091              	.LVL80:
 1092              		.loc 1 333 5 is_stmt 1 view .LVU319
 1093              		.loc 1 334 5 view .LVU320
 1094              		.loc 1 334 17 is_stmt 0 view .LVU321
 1095 000a 2368     		ldr	r3, [r4]
 1096              		.loc 1 334 32 view .LVU322
 1097 000c 4E00     		lsls	r6, r1, #1
 1098              	.LVL81:
 1099              		.loc 1 335 5 is_stmt 1 view .LVU323
 1100              		.loc 1 335 18 is_stmt 0 view .LVU324
 1101 000e 6268     		ldr	r2, [r4, #4]
 1102              		.loc 1 334 25 view .LVU325
 1103 0010 F340     		lsrs	r3, r3, r6
 1104              	.LVL82:
 1105              		.loc 1 335 27 view .LVU326
 1106 0012 CA40     		lsrs	r2, r2, r1
 1107              		.loc 1 334 37 view .LVU327
 1108 0014 03F00303 		and	r3, r3, #3
 1109              	.LVL83:
 1110              		.loc 1 335 38 view .LVU328
 1111 0018 9200     		lsls	r2, r2, #2
 1112 001a 02F00402 		and	r2, r2, #4
 1113              		.loc 1 335 9 view .LVU329
 1114 001e 1A43     		orrs	r2, r2, r3
 1115              	.LVL84:
 1116              		.loc 1 336 5 is_stmt 1 view .LVU330
 1117              		.loc 1 336 18 is_stmt 0 view .LVU331
 1118 0020 A368     		ldr	r3, [r4, #8]
 1119              		.loc 1 336 28 view .LVU332
 1120 0022 F340     		lsrs	r3, r3, r6
 1121              		.loc 1 336 43 view .LVU333
 1122 0024 DB00     		lsls	r3, r3, #3
 1123 0026 03F01803 		and	r3, r3, #24
 1124              		.loc 1 336 9 view .LVU334
 1125 002a 1A43     		orrs	r2, r2, r3
 1126              	.LVL85:
 1127              		.loc 1 337 5 is_stmt 1 view .LVU335
 1128              		.loc 1 337 18 is_stmt 0 view .LVU336
 1129 002c E368     		ldr	r3, [r4, #12]
 1130              		.loc 1 337 26 view .LVU337
 1131 002e F340     		lsrs	r3, r3, r6
 1132              		.loc 1 337 41 view .LVU338
 1133 0030 5B01     		lsls	r3, r3, #5
 1134 0032 03F06003 		and	r3, r3, #96
 1135              		.loc 1 337 9 view .LVU339
 1136 0036 1343     		orrs	r3, r3, r2
 1137              	.LVL86:
 1138              		.loc 1 338 5 is_stmt 1 view .LVU340
 1139              		.loc 1 338 8 is_stmt 0 view .LVU341
ARM GAS  /tmp/ccdVWu2V.s 			page 21


 1140 0038 0207     		lsls	r2, r0, #28
 1141 003a 07D4     		bmi	.L76
 1142              		.loc 1 339 9 is_stmt 1 view .LVU342
 1143              		.loc 1 339 22 is_stmt 0 view .LVU343
 1144 003c 206A     		ldr	r0, [r4, #32]
 1145              	.LVL87:
 1146              		.loc 1 339 36 view .LVU344
 1147 003e 8D00     		lsls	r5, r1, #2
 1148              		.loc 1 339 29 view .LVU345
 1149 0040 E840     		lsrs	r0, r0, r5
 1150              	.LVL88:
 1151              	.L78:
 1152              		.loc 1 341 50 view .LVU346
 1153 0042 C001     		lsls	r0, r0, #7
 1154 0044 00F4F060 		and	r0, r0, #1920
 1155              		.loc 1 341 13 view .LVU347
 1156 0048 1843     		orrs	r0, r0, r3
 1157              	.LVL89:
 1158              		.loc 1 343 5 is_stmt 1 view .LVU348
 1159              		.loc 1 344 1 is_stmt 0 view .LVU349
 1160 004a 70BD     		pop	{r4, r5, r6, pc}
 1161              	.LVL90:
 1162              	.L76:
 1163              		.loc 1 341 9 is_stmt 1 view .LVU350
 1164              		.loc 1 341 37 is_stmt 0 view .LVU351
 1165 004c 0839     		subs	r1, r1, #8
 1166              	.LVL91:
 1167              		.loc 1 341 22 view .LVU352
 1168 004e 606A     		ldr	r0, [r4, #36]
 1169              	.LVL92:
 1170              		.loc 1 341 40 view .LVU353
 1171 0050 8900     		lsls	r1, r1, #2
 1172              	.LVL93:
 1173              		.loc 1 341 29 view .LVU354
 1174 0052 C840     		lsrs	r0, r0, r1
 1175 0054 F5E7     		b	.L78
 1176              		.cfi_endproc
 1177              	.LFE347:
 1178              		.size	palReadLineMode, .-palReadLineMode
 1179              		.section	.text.palLineSetPushPull,"ax",%progbits
 1180              		.align	1
 1181              		.global	palLineSetPushPull
 1182              		.syntax unified
 1183              		.thumb
 1184              		.thumb_func
 1185              		.fpu fpv4-sp-d16
 1186              		.type	palLineSetPushPull, %function
 1187              	palLineSetPushPull:
 1188              	.LVL94:
 1189              	.LFB348:
 1190              		.loc 1 350 1 is_stmt 1 view -0
 1191              		.cfi_startproc
 1192              		@ args = 0, pretend = 0, frame = 0
 1193              		@ frame_needed = 0, uses_anonymous_args = 0
 1194              		.loc 1 351 5 view .LVU356
 1195              		.loc 1 350 1 is_stmt 0 view .LVU357
 1196 0000 10B5     		push	{r4, lr}
ARM GAS  /tmp/ccdVWu2V.s 			page 22


 1197              		.cfi_def_cfa_offset 8
 1198              		.cfi_offset 4, -8
 1199              		.cfi_offset 14, -4
 1200              		.loc 1 351 23 view .LVU358
 1201 0002 20F00F04 		bic	r4, r0, #15
 1202              	.LVL95:
 1203              		.loc 1 352 5 is_stmt 1 view .LVU359
 1204              		.loc 1 353 5 view .LVU360
 1205              		.loc 1 353 43 is_stmt 0 view .LVU361
 1206 0006 00F00F00 		and	r0, r0, #15
 1207              	.LVL96:
 1208              		.loc 1 353 37 view .LVU362
 1209 000a 0322     		movs	r2, #3
 1210              		.loc 1 353 43 view .LVU363
 1211 000c 4000     		lsls	r0, r0, #1
 1212              		.loc 1 353 24 view .LVU364
 1213 000e E368     		ldr	r3, [r4, #12]
 1214              		.loc 1 353 37 view .LVU365
 1215 0010 8240     		lsls	r2, r2, r0
 1216              		.loc 1 353 54 view .LVU366
 1217 0012 8140     		lsls	r1, r1, r0
 1218              	.LVL97:
 1219              		.loc 1 353 32 view .LVU367
 1220 0014 23EA0203 		bic	r3, r3, r2
 1221              		.loc 1 353 49 view .LVU368
 1222 0018 0B43     		orrs	r3, r3, r1
 1223              		.loc 1 353 17 view .LVU369
 1224 001a E360     		str	r3, [r4, #12]
 1225              		.loc 1 354 1 view .LVU370
 1226 001c 10BD     		pop	{r4, pc}
 1227              		.loc 1 354 1 view .LVU371
 1228              		.cfi_endproc
 1229              	.LFE348:
 1230              		.size	palLineSetPushPull, .-palLineSetPushPull
 1231              		.section	.text.stm32_cacheBufferInvalidate,"ax",%progbits
 1232              		.align	1
 1233              		.global	stm32_cacheBufferInvalidate
 1234              		.syntax unified
 1235              		.thumb
 1236              		.thumb_func
 1237              		.fpu fpv4-sp-d16
 1238              		.type	stm32_cacheBufferInvalidate, %function
 1239              	stm32_cacheBufferInvalidate:
 1240              	.LVL98:
 1241              	.LFB349:
 1242              		.loc 1 359 1 is_stmt 1 view -0
 1243              		.cfi_startproc
 1244              		@ args = 0, pretend = 0, frame = 0
 1245              		@ frame_needed = 0, uses_anonymous_args = 0
 1246              		@ link register save eliminated.
 1247              	.LBB56:
 1248              		.loc 1 360 5 view .LVU373
 1249              		.loc 1 360 5 view .LVU374
 1250 0000 0144     		add	r1, r1, r0
 1251              	.LVL99:
 1252              		.loc 1 360 5 view .LVU375
 1253              	.LBB57:
ARM GAS  /tmp/ccdVWu2V.s 			page 23


 1254              	.LBI57:
 1255              		.file 3 "../../modules/ChibiOS/os/common/ext/ARM/CMSIS/Core/Include/cmsis_gcc.h"
 1256              		.loc 3 877 27 view .LVU376
 1257              	.LBB58:
 1258              		.loc 3 879 3 view .LVU377
 1259              		.syntax unified
 1260              	@ 879 "../../modules/ChibiOS/os/common/ext/ARM/CMSIS/Core/Include/cmsis_gcc.h" 1
 1261 0002 BFF34F8F 		dsb 0xF
 1262              	@ 0 "" 2
 1263              		.thumb
 1264              		.syntax unified
 1265              	.LBE58:
 1266              	.LBE57:
 1267              		.loc 1 360 5 is_stmt 0 view .LVU378
 1268 0006 064B     		ldr	r3, .L83
 1269              	.LVL100:
 1270              	.L81:
 1271              		.loc 1 360 5 is_stmt 1 discriminator 1 view .LVU379
 1272 0008 8842     		cmp	r0, r1
 1273 000a 04D3     		bcc	.L82
 1274              		.loc 1 360 5 view .LVU380
 1275              	.LBB59:
 1276              	.LBI59:
 1277              		.loc 3 877 27 view .LVU381
 1278              	.LBB60:
 1279              		.loc 3 879 3 view .LVU382
 1280              		.syntax unified
 1281              	@ 879 "../../modules/ChibiOS/os/common/ext/ARM/CMSIS/Core/Include/cmsis_gcc.h" 1
 1282 000c BFF34F8F 		dsb 0xF
 1283              	@ 0 "" 2
 1284              		.thumb
 1285              		.syntax unified
 1286              	.LBE60:
 1287              	.LBE59:
 1288              		.loc 1 360 5 view .LVU383
 1289              	.LBB61:
 1290              	.LBI61:
 1291              		.loc 3 866 27 view .LVU384
 1292              	.LBB62:
 1293              		.loc 3 868 3 view .LVU385
 1294              		.syntax unified
 1295              	@ 868 "../../modules/ChibiOS/os/common/ext/ARM/CMSIS/Core/Include/cmsis_gcc.h" 1
 1296 0010 BFF36F8F 		isb 0xF
 1297              	@ 0 "" 2
 1298              		.thumb
 1299              		.syntax unified
 1300              	.LBE62:
 1301              	.LBE61:
 1302              	.LBE56:
 1303              		.loc 1 360 35 view .LVU386
 1304              		.loc 1 361 1 is_stmt 0 view .LVU387
 1305 0014 7047     		bx	lr
 1306              	.L82:
 1307              	.LBB63:
 1308              		.loc 1 360 5 is_stmt 1 discriminator 3 view .LVU388
 1309 0016 C3F85C02 		str	r0, [r3, #604]
 1310              		.loc 1 360 5 discriminator 3 view .LVU389
ARM GAS  /tmp/ccdVWu2V.s 			page 24


 1311 001a 2030     		adds	r0, r0, #32
 1312              	.LVL101:
 1313              		.loc 1 360 5 is_stmt 0 discriminator 3 view .LVU390
 1314 001c F4E7     		b	.L81
 1315              	.L84:
 1316 001e 00BF     		.align	2
 1317              	.L83:
 1318 0020 00ED00E0 		.word	-536810240
 1319              	.LBE63:
 1320              		.cfi_endproc
 1321              	.LFE349:
 1322              		.size	stm32_cacheBufferInvalidate, .-stm32_cacheBufferInvalidate
 1323              		.section	.text.stm32_cacheBufferFlush,"ax",%progbits
 1324              		.align	1
 1325              		.global	stm32_cacheBufferFlush
 1326              		.syntax unified
 1327              		.thumb
 1328              		.thumb_func
 1329              		.fpu fpv4-sp-d16
 1330              		.type	stm32_cacheBufferFlush, %function
 1331              	stm32_cacheBufferFlush:
 1332              	.LVL102:
 1333              	.LFB350:
 1334              		.loc 1 364 1 is_stmt 1 view -0
 1335              		.cfi_startproc
 1336              		@ args = 0, pretend = 0, frame = 0
 1337              		@ frame_needed = 0, uses_anonymous_args = 0
 1338              		@ link register save eliminated.
 1339              	.LBB64:
 1340              		.loc 1 365 5 view .LVU392
 1341              		.loc 1 365 5 view .LVU393
 1342 0000 0144     		add	r1, r1, r0
 1343              	.LVL103:
 1344              		.loc 1 365 5 view .LVU394
 1345              	.LBB65:
 1346              	.LBI65:
 1347              		.loc 3 877 27 view .LVU395
 1348              	.LBB66:
 1349              		.loc 3 879 3 view .LVU396
 1350              		.syntax unified
 1351              	@ 879 "../../modules/ChibiOS/os/common/ext/ARM/CMSIS/Core/Include/cmsis_gcc.h" 1
 1352 0002 BFF34F8F 		dsb 0xF
 1353              	@ 0 "" 2
 1354              		.thumb
 1355              		.syntax unified
 1356              	.LBE66:
 1357              	.LBE65:
 1358              		.loc 1 365 5 is_stmt 0 view .LVU397
 1359 0006 064B     		ldr	r3, .L88
 1360              	.LVL104:
 1361              	.L86:
 1362              		.loc 1 365 5 is_stmt 1 discriminator 1 view .LVU398
 1363 0008 8842     		cmp	r0, r1
 1364 000a 04D3     		bcc	.L87
 1365              		.loc 1 365 5 view .LVU399
 1366              	.LBB67:
 1367              	.LBI67:
ARM GAS  /tmp/ccdVWu2V.s 			page 25


 1368              		.loc 3 877 27 view .LVU400
 1369              	.LBB68:
 1370              		.loc 3 879 3 view .LVU401
 1371              		.syntax unified
 1372              	@ 879 "../../modules/ChibiOS/os/common/ext/ARM/CMSIS/Core/Include/cmsis_gcc.h" 1
 1373 000c BFF34F8F 		dsb 0xF
 1374              	@ 0 "" 2
 1375              		.thumb
 1376              		.syntax unified
 1377              	.LBE68:
 1378              	.LBE67:
 1379              		.loc 1 365 5 view .LVU402
 1380              	.LBB69:
 1381              	.LBI69:
 1382              		.loc 3 866 27 view .LVU403
 1383              	.LBB70:
 1384              		.loc 3 868 3 view .LVU404
 1385              		.syntax unified
 1386              	@ 868 "../../modules/ChibiOS/os/common/ext/ARM/CMSIS/Core/Include/cmsis_gcc.h" 1
 1387 0010 BFF36F8F 		isb 0xF
 1388              	@ 0 "" 2
 1389              		.thumb
 1390              		.syntax unified
 1391              	.LBE70:
 1392              	.LBE69:
 1393              	.LBE64:
 1394              		.loc 1 365 30 view .LVU405
 1395              		.loc 1 366 1 is_stmt 0 view .LVU406
 1396 0014 7047     		bx	lr
 1397              	.L87:
 1398              	.LBB71:
 1399              		.loc 1 365 5 is_stmt 1 discriminator 3 view .LVU407
 1400 0016 C3F87002 		str	r0, [r3, #624]
 1401              		.loc 1 365 5 discriminator 3 view .LVU408
 1402 001a 2030     		adds	r0, r0, #32
 1403              	.LVL105:
 1404              		.loc 1 365 5 is_stmt 0 discriminator 3 view .LVU409
 1405 001c F4E7     		b	.L86
 1406              	.L89:
 1407 001e 00BF     		.align	2
 1408              	.L88:
 1409 0020 00ED00E0 		.word	-536810240
 1410              	.LBE71:
 1411              		.cfi_endproc
 1412              	.LFE350:
 1413              		.size	stm32_cacheBufferFlush, .-stm32_cacheBufferFlush
 1414              		.section	.text.system_halt_hook,"ax",%progbits
 1415              		.align	1
 1416              		.global	system_halt_hook
 1417              		.syntax unified
 1418              		.thumb
 1419              		.thumb_func
 1420              		.fpu fpv4-sp-d16
 1421              		.type	system_halt_hook, %function
 1422              	system_halt_hook:
 1423              	.LFB351:
 1424              		.loc 1 428 1 is_stmt 1 view -0
ARM GAS  /tmp/ccdVWu2V.s 			page 26


 1425              		.cfi_startproc
 1426              		@ args = 0, pretend = 0, frame = 0
 1427              		@ frame_needed = 0, uses_anonymous_args = 0
 1428              		@ link register save eliminated.
 1429              		.loc 1 436 1 view .LVU411
 1430 0000 7047     		bx	lr
 1431              		.cfi_endproc
 1432              	.LFE351:
 1433              		.size	system_halt_hook, .-system_halt_hook
 1434              		.section	.text.stack_overflow,"ax",%progbits
 1435              		.align	1
 1436              		.global	stack_overflow
 1437              		.syntax unified
 1438              		.thumb
 1439              		.thumb_func
 1440              		.fpu fpv4-sp-d16
 1441              		.type	stack_overflow, %function
 1442              	stack_overflow:
 1443              	.LVL106:
 1444              	.LFB352:
 1445              		.loc 1 440 1 view -0
 1446              		.cfi_startproc
 1447              		@ args = 0, pretend = 0, frame = 0
 1448              		@ frame_needed = 0, uses_anonymous_args = 0
 1449              		@ link register save eliminated.
 1450              		.loc 1 442 5 view .LVU413
 1451              		.loc 1 443 5 view .LVU414
 1452 0000 8069     		ldr	r0, [r0, #24]
 1453              	.LVL107:
 1454              		.loc 1 443 5 is_stmt 0 view .LVU415
 1455 0002 FFF7FEBF 		b	AP_stack_overflow
 1456              	.LVL108:
 1457              		.cfi_endproc
 1458              	.LFE352:
 1459              		.size	stack_overflow, .-stack_overflow
 1460              		.section	.bss.utc_time_offset,"aw",%nobits
 1461              		.align	3
 1462              		.set	.LANCHOR0,. + 0
 1463              		.type	utc_time_offset, %object
 1464              		.size	utc_time_offset, 8
 1465              	utc_time_offset:
 1466 0000 00000000 		.space	8
 1466      00000000 
 1467              		.section	.rodata.ndays,"a"
 1468              		.set	.LANCHOR1,. + 0
 1469              		.type	ndays, %object
 1470              		.size	ndays, 24
 1471              	ndays:
 1472 0000 1F1C1F1E 		.ascii	"\037\034\037\036\037\036\037\037\036\037\036\037"
 1472      1F1E1F1F 
 1472      1E1F1E1F 
 1473 000c 1F1D1F1E 		.ascii	"\037\035\037\036\037\036\037\037\036\037\036\037"
 1473      1F1E1F1F 
 1473      1E1F1E1F 
 1474              		.text
 1475              	.Letext0:
 1476              		.file 4 "/opt/gcc-arm-none-eabi-10-2020-q4-major/lib/gcc/arm-none-eabi/10.2.1/include/stddef.h"
ARM GAS  /tmp/ccdVWu2V.s 			page 27


 1477              		.file 5 "/opt/gcc-arm-none-eabi-10-2020-q4-major/arm-none-eabi/include/machine/_default_types.h"
 1478              		.file 6 "/opt/gcc-arm-none-eabi-10-2020-q4-major/arm-none-eabi/include/sys/_stdint.h"
 1479              		.file 7 "../../modules/ChibiOS/os/common/ports/ARMCMx/compilers/GCC/chtypes.h"
 1480              		.file 8 "../../modules/ChibiOS/os/rt/include/chsystypes.h"
 1481              		.file 9 "../../modules/ChibiOS/os/rt/include/chschd.h"
 1482              		.file 10 "../../modules/ChibiOS/os/common/ext/ARM/CMSIS/Core/Include/core_cm7.h"
 1483              		.file 11 "../../modules/ChibiOS/os/common/ext/ST/STM32F7xx/stm32f767xx.h"
 1484              		.file 12 "../../modules/ChibiOS/os/common/ports/ARMCMx/chcore.h"
 1485              		.file 13 "../../modules/ChibiOS/os/common/ports/ARMCMx/chcore_v7m.h"
 1486              		.file 14 "../../modules/ChibiOS/os/hal/ports/STM32/LLD/TIMv1/stm32_tim.h"
 1487              		.file 15 "../../modules/ChibiOS/os/rt/include/chtm.h"
 1488              		.file 16 "../../modules/ChibiOS/os/rt/include/chsem.h"
 1489              		.file 17 "../../modules/ChibiOS/os/rt/include/chmtx.h"
 1490              		.file 18 "../../modules/ChibiOS/os/hal/ports/STM32/LLD/GPIOv2/stm32_gpio.h"
 1491              		.file 19 "../../modules/ChibiOS/os/hal/ports/STM32/LLD/GPIOv2/hal_pal_lld.h"
 1492              		.file 20 "../../libraries/AP_HAL_ChibiOS/hwdef/common/stm32_util.h"
 1493              		.file 21 "../../modules/ChibiOS/os/rt/include/chthreads.h"
 1494              		.file 22 "../../libraries/AP_HAL_ChibiOS/hwdef/common/hrt.h"
 1495              		.file 23 "../../libraries/AP_HAL_ChibiOS/hwdef/common/stdio.h"
 1496              		.file 24 "../../modules/ChibiOS/os/rt/include/chregistry.h"