ARM GAS  /tmp/ccltZX7S.s 			page 1


   1              		.cpu cortex-m7
   2              		.eabi_attribute 27, 1
   3              		.eabi_attribute 28, 1
   4              		.eabi_attribute 20, 1
   5              		.eabi_attribute 21, 1
   6              		.eabi_attribute 23, 3
   7              		.eabi_attribute 24, 1
   8              		.eabi_attribute 25, 1
   9              		.eabi_attribute 26, 1
  10              		.eabi_attribute 30, 4
  11              		.eabi_attribute 34, 1
  12              		.eabi_attribute 18, 4
  13              		.file	"usbcfg_common.c"
  14              		.text
  15              	.Ltext0:
  16              		.cfi_sections	.debug_frame
  17              		.section	.text.string_contains,"ax",%progbits
  18              		.align	1
  19              		.global	string_contains
  20              		.arch armv7e-m
  21              		.syntax unified
  22              		.thumb
  23              		.thumb_func
  24              		.fpu fpv4-sp-d16
  25              		.type	string_contains, %function
  26              	string_contains:
  27              	.LVL0:
  28              	.LFB334:
  29              		.file 1 "../../libraries/AP_HAL_ChibiOS/hwdef/common/usbcfg_common.c"
  30              		.loc 1 42 1 view -0
  31              		.cfi_startproc
  32              		@ args = 0, pretend = 0, frame = 0
  33              		@ frame_needed = 0, uses_anonymous_args = 0
  34              		.loc 1 43 5 view .LVU1
  35              		.loc 1 42 1 is_stmt 0 view .LVU2
  36 0000 70B5     		push	{r4, r5, r6, lr}
  37              		.cfi_def_cfa_offset 16
  38              		.cfi_offset 4, -16
  39              		.cfi_offset 5, -12
  40              		.cfi_offset 6, -8
  41              		.cfi_offset 14, -4
  42              		.loc 1 42 1 view .LVU3
  43 0002 0446     		mov	r4, r0
  44              		.loc 1 43 26 view .LVU4
  45 0004 0846     		mov	r0, r1
  46              	.LVL1:
  47              		.loc 1 42 1 view .LVU5
  48 0006 0D46     		mov	r5, r1
  49              		.loc 1 43 26 view .LVU6
  50 0008 FFF7FEFF 		bl	strlen
  51              	.LVL2:
  52              		.loc 1 44 5 is_stmt 1 view .LVU7
  53              		.loc 1 45 13 is_stmt 0 view .LVU8
  54 000c C6B2     		uxtb	r6, r0
  55              	.LVL3:
  56              	.L2:
  57              		.loc 1 45 13 view .LVU9
ARM GAS  /tmp/ccltZX7S.s 			page 2


  58 000e 2046     		mov	r0, r4
  59              	.LVL4:
  60              		.loc 1 44 11 is_stmt 1 view .LVU10
  61 0010 0134     		adds	r4, r4, #1
  62 0012 0378     		ldrb	r3, [r0]	@ zero_extendqisi2
  63 0014 0BB9     		cbnz	r3, .L4
  64              		.loc 1 50 12 is_stmt 0 view .LVU11
  65 0016 1846     		mov	r0, r3
  66              	.LVL5:
  67              	.L3:
  68              		.loc 1 51 1 view .LVU12
  69 0018 70BD     		pop	{r4, r5, r6, pc}
  70              	.LVL6:
  71              	.L4:
  72              		.loc 1 45 9 is_stmt 1 view .LVU13
  73              		.loc 1 45 13 is_stmt 0 view .LVU14
  74 001a 3246     		mov	r2, r6
  75 001c 2946     		mov	r1, r5
  76 001e FFF7FEFF 		bl	strncmp
  77              	.LVL7:
  78              		.loc 1 45 12 view .LVU15
  79 0022 0028     		cmp	r0, #0
  80 0024 F3D1     		bne	.L2
  81              		.loc 1 46 20 view .LVU16
  82 0026 0120     		movs	r0, #1
  83 0028 F6E7     		b	.L3
  84              		.cfi_endproc
  85              	.LFE334:
  86              		.size	string_contains, .-string_contains
  87              		.section	.rodata.string_substitute.str1.1,"aMS",%progbits,1
  88              	.LC0:
  89 0000 25424F41 		.ascii	"%BOARD%\000"
  89      52442500 
  90              	.LC1:
  91 0008 25534552 		.ascii	"%SERIAL%\000"
  91      49414C25 
  91      00
  92              	.LC2:
  93 0011 43554156 		.ascii	"CUAVv5\000"
  93      763500
  94              	.LC3:
  95 0018 30313233 		.ascii	"0123456789ABCDEF\000"
  95      34353637 
  95      38394142 
  95      43444546 
  95      00
  96              		.section	.text.string_substitute,"ax",%progbits
  97              		.align	1
  98              		.global	string_substitute
  99              		.syntax unified
 100              		.thumb
 101              		.thumb_func
 102              		.fpu fpv4-sp-d16
 103              		.type	string_substitute, %function
 104              	string_substitute:
 105              	.LVL8:
 106              	.LFB335:
ARM GAS  /tmp/ccltZX7S.s 			page 3


 107              		.loc 1 57 1 is_stmt 1 view -0
 108              		.cfi_startproc
 109              		@ args = 0, pretend = 0, frame = 0
 110              		@ frame_needed = 0, uses_anonymous_args = 0
 111              		.loc 1 58 5 view .LVU18
 112              		.loc 1 59 5 view .LVU19
 113              		.loc 1 60 5 view .LVU20
 114              		.loc 1 57 1 is_stmt 0 view .LVU21
 115 0000 2DE9F84F 		push	{r3, r4, r5, r6, r7, r8, r9, r10, fp, lr}
 116              		.cfi_def_cfa_offset 40
 117              		.cfi_offset 3, -40
 118              		.cfi_offset 4, -36
 119              		.cfi_offset 5, -32
 120              		.cfi_offset 6, -28
 121              		.cfi_offset 7, -24
 122              		.cfi_offset 8, -20
 123              		.cfi_offset 9, -16
 124              		.cfi_offset 10, -12
 125              		.cfi_offset 11, -8
 126              		.cfi_offset 14, -4
 127              		.loc 1 57 1 view .LVU22
 128 0004 0546     		mov	r5, r0
 129 0006 0C46     		mov	r4, r1
 130              		.loc 1 60 23 view .LVU23
 131 0008 FFF7FEFF 		bl	strlen
 132              	.LVL9:
 133              		.loc 1 61 9 view .LVU24
 134 000c 2A49     		ldr	r1, .L24
 135              		.loc 1 60 13 view .LVU25
 136 000e C6B2     		uxtb	r6, r0
 137              	.LVL10:
 138              		.loc 1 61 5 is_stmt 1 view .LVU26
 139              		.loc 1 61 9 is_stmt 0 view .LVU27
 140 0010 2846     		mov	r0, r5
 141 0012 FFF7FEFF 		bl	string_contains
 142              	.LVL11:
 143              		.loc 1 61 8 view .LVU28
 144 0016 08B1     		cbz	r0, .L7
 145              		.loc 1 62 9 is_stmt 1 view .LVU29
 146              		.loc 1 62 17 is_stmt 0 view .LVU30
 147 0018 013E     		subs	r6, r6, #1
 148              	.LVL12:
 149              		.loc 1 62 17 view .LVU31
 150 001a F6B2     		uxtb	r6, r6
 151              	.LVL13:
 152              	.L7:
 153              		.loc 1 64 5 is_stmt 1 view .LVU32
 154              		.loc 1 64 9 is_stmt 0 view .LVU33
 155 001c 2749     		ldr	r1, .L24+4
 156 001e 2846     		mov	r0, r5
 157 0020 FFF7FEFF 		bl	string_contains
 158              	.LVL14:
 159              		.loc 1 64 8 view .LVU34
 160 0024 08B1     		cbz	r0, .L8
 161              		.loc 1 65 9 is_stmt 1 view .LVU35
 162              		.loc 1 65 17 is_stmt 0 view .LVU36
 163 0026 1036     		adds	r6, r6, #16
ARM GAS  /tmp/ccltZX7S.s 			page 4


 164              	.LVL15:
 165              		.loc 1 65 17 view .LVU37
 166 0028 F6B2     		uxtb	r6, r6
 167              	.LVL16:
 168              	.L8:
 169              		.loc 1 67 5 is_stmt 1 view .LVU38
 170              		.loc 1 67 8 is_stmt 0 view .LVU39
 171 002a 632E     		cmp	r6, #99
 172 002c 0DD8     		bhi	.L23
 173              	.LBB2:
 174              		.loc 1 75 17 view .LVU40
 175 002e DFF88890 		ldr	r9, .L24
 176              		.loc 1 81 17 view .LVU41
 177 0032 DFF888A0 		ldr	r10, .L24+4
 178              	.LBB3:
 179              		.loc 1 86 31 view .LVU42
 180 0036 224F     		ldr	r7, .L24+8
 181              		.loc 1 85 17 view .LVU43
 182 0038 DFF88CB0 		ldr	fp, .L24+16
 183              	.LBE3:
 184              		.loc 1 76 17 view .LVU44
 185 003c DFF88C80 		ldr	r8, .L24+20
 186              	.LVL17:
 187              	.L9:
 188              		.loc 1 76 17 view .LVU45
 189              	.LBE2:
 190              		.loc 1 72 11 is_stmt 1 view .LVU46
 191              		.loc 1 72 12 is_stmt 0 view .LVU47
 192 0040 2E78     		ldrb	r6, [r5]	@ zero_extendqisi2
 193              		.loc 1 72 11 view .LVU48
 194 0042 46B9     		cbnz	r6, .L14
 195              		.loc 1 95 5 is_stmt 1 view .LVU49
 196              		.loc 1 95 8 is_stmt 0 view .LVU50
 197 0044 2670     		strb	r6, [r4]
 198              		.loc 1 96 1 view .LVU51
 199 0046 BDE8F88F 		pop	{r3, r4, r5, r6, r7, r8, r9, r10, fp, pc}
 200              	.LVL18:
 201              	.L23:
 202              		.loc 1 68 9 is_stmt 1 view .LVU52
 203 004a 2946     		mov	r1, r5
 204 004c 2046     		mov	r0, r4
 205              		.loc 1 96 1 is_stmt 0 view .LVU53
 206 004e BDE8F84F 		pop	{r3, r4, r5, r6, r7, r8, r9, r10, fp, lr}
 207              		.cfi_remember_state
 208              		.cfi_restore 14
 209              		.cfi_restore 11
 210              		.cfi_restore 10
 211              		.cfi_restore 9
 212              		.cfi_restore 8
 213              		.cfi_restore 7
 214              		.cfi_restore 6
 215              		.cfi_restore 5
 216              		.cfi_restore 4
 217              		.cfi_restore 3
 218              		.cfi_def_cfa_offset 0
 219              	.LVL19:
 220              		.loc 1 68 9 view .LVU54
ARM GAS  /tmp/ccltZX7S.s 			page 5


 221 0052 FFF7FEBF 		b	strcpy
 222              	.LVL20:
 223              	.L14:
 224              		.cfi_restore_state
 225              	.LBB5:
 226              		.loc 1 73 9 is_stmt 1 view .LVU55
 227              		.loc 1 74 9 view .LVU56
 228              		.loc 1 74 12 is_stmt 0 view .LVU57
 229 0056 252E     		cmp	r6, #37
 230 0058 2AD1     		bne	.L10
 231              		.loc 1 75 13 is_stmt 1 view .LVU58
 232              		.loc 1 75 17 is_stmt 0 view .LVU59
 233 005a 0722     		movs	r2, #7
 234 005c 4946     		mov	r1, r9
 235 005e 2846     		mov	r0, r5
 236 0060 FFF7FEFF 		bl	strncmp
 237              	.LVL21:
 238              		.loc 1 75 16 view .LVU60
 239 0064 50B9     		cbnz	r0, .L11
 240              		.loc 1 76 17 is_stmt 1 view .LVU61
 241 0066 D8F80030 		ldr	r3, [r8]	@ unaligned
 242              		.loc 1 77 21 is_stmt 0 view .LVU62
 243 006a 0735     		adds	r5, r5, #7
 244              	.LVL22:
 245              		.loc 1 78 19 view .LVU63
 246 006c 0634     		adds	r4, r4, #6
 247              	.LVL23:
 248              		.loc 1 76 17 view .LVU64
 249 006e 44F8063C 		str	r3, [r4, #-6]	@ unaligned
 250 0072 B8F80430 		ldrh	r3, [r8, #4]	@ unaligned
 251 0076 24F8023C 		strh	r3, [r4, #-2]	@ unaligned
 252              		.loc 1 77 17 is_stmt 1 view .LVU65
 253              	.LVL24:
 254              		.loc 1 78 17 view .LVU66
 255              		.loc 1 79 17 view .LVU67
 256 007a E1E7     		b	.L9
 257              	.L11:
 258              		.loc 1 81 13 view .LVU68
 259              		.loc 1 81 17 is_stmt 0 view .LVU69
 260 007c 0822     		movs	r2, #8
 261 007e 5146     		mov	r1, r10
 262 0080 2846     		mov	r0, r5
 263 0082 FFF7FEFF 		bl	strncmp
 264              	.LVL25:
 265              		.loc 1 81 16 view .LVU70
 266 0086 98B9     		cbnz	r0, .L10
 267 0088 A21C     		adds	r2, r4, #2
 268 008a 0E4B     		ldr	r3, .L24+12
 269              	.LVL26:
 270              	.L13:
 271              	.LBB4:
 272              		.loc 1 86 21 is_stmt 1 discriminator 3 view .LVU71
 273              		.loc 1 86 46 is_stmt 0 discriminator 3 view .LVU72
 274 008c 1978     		ldrb	r1, [r3]	@ zero_extendqisi2
 275              		.loc 1 85 17 discriminator 3 view .LVU73
 276 008e 0232     		adds	r2, r2, #2
 277              	.LVL27:
ARM GAS  /tmp/ccltZX7S.s 			page 6


 278              		.loc 1 86 46 discriminator 3 view .LVU74
 279 0090 0909     		lsrs	r1, r1, #4
 280              		.loc 1 86 26 discriminator 3 view .LVU75
 281 0092 C95D     		ldrb	r1, [r1, r7]	@ zero_extendqisi2
 282 0094 02F8041C 		strb	r1, [r2, #-4]
 283              		.loc 1 87 21 is_stmt 1 discriminator 3 view .LVU76
 284              	.LVL28:
 285              		.loc 1 87 41 is_stmt 0 discriminator 3 view .LVU77
 286 0098 13F8011B 		ldrb	r1, [r3], #1	@ zero_extendqisi2
 287              	.LVL29:
 288              		.loc 1 87 41 discriminator 3 view .LVU78
 289 009c 01F00F01 		and	r1, r1, #15
 290              		.loc 1 85 17 discriminator 3 view .LVU79
 291 00a0 5B45     		cmp	r3, fp
 292              		.loc 1 87 26 discriminator 3 view .LVU80
 293 00a2 C95D     		ldrb	r1, [r1, r7]	@ zero_extendqisi2
 294 00a4 02F8031C 		strb	r1, [r2, #-3]
 295              		.loc 1 85 33 is_stmt 1 discriminator 3 view .LVU81
 296              	.LVL30:
 297              		.loc 1 85 27 discriminator 3 view .LVU82
 298              		.loc 1 85 17 is_stmt 0 discriminator 3 view .LVU83
 299 00a8 F0D1     		bne	.L13
 300              		.loc 1 87 23 view .LVU84
 301 00aa 1834     		adds	r4, r4, #24
 302              		.loc 1 89 17 is_stmt 1 view .LVU85
 303              		.loc 1 89 21 is_stmt 0 view .LVU86
 304 00ac 0835     		adds	r5, r5, #8
 305              	.LVL31:
 306              		.loc 1 90 17 is_stmt 1 view .LVU87
 307 00ae C7E7     		b	.L9
 308              	.LVL32:
 309              	.L10:
 310              		.loc 1 90 17 is_stmt 0 view .LVU88
 311              	.LBE4:
 312              		.loc 1 93 9 is_stmt 1 view .LVU89
 313              		.loc 1 93 20 is_stmt 0 view .LVU90
 314 00b0 0135     		adds	r5, r5, #1
 315              	.LVL33:
 316              		.loc 1 93 14 view .LVU91
 317 00b2 04F8016B 		strb	r6, [r4], #1
 318              	.LVL34:
 319              		.loc 1 93 14 view .LVU92
 320 00b6 C3E7     		b	.L9
 321              	.L25:
 322              		.align	2
 323              	.L24:
 324 00b8 00000000 		.word	.LC0
 325 00bc 08000000 		.word	.LC1
 326 00c0 18000000 		.word	.LC3
 327 00c4 20F4F01F 		.word	535884832
 328 00c8 2CF4F01F 		.word	535884844
 329 00cc 11000000 		.word	.LC2
 330              	.LBE5:
 331              		.cfi_endproc
 332              	.LFE335:
 333              		.size	string_substitute, .-string_substitute
 334              		.text
ARM GAS  /tmp/ccltZX7S.s 			page 7


 335              	.Letext0:
 336              		.file 2 "/opt/gcc-arm-none-eabi-10-2020-q4-major/arm-none-eabi/include/machine/_default_types.h"
 337              		.file 3 "/opt/gcc-arm-none-eabi-10-2020-q4-major/arm-none-eabi/include/sys/_stdint.h"
 338              		.file 4 "/opt/gcc-arm-none-eabi-10-2020-q4-major/arm-none-eabi/include/string.h"