ARM GAS  /tmp/ccltZX7S.s 			page 1


   1              		.cpu cortex-m7
   2              		.eabi_attribute 27, 1
   3              		.eabi_attribute 28, 1
   4              		.eabi_attribute 20, 1
   5              		.eabi_attribute 21, 1
   6              		.eabi_attribute 23, 3
   7              		.eabi_attribute 24, 1
   8              		.eabi_attribute 25, 1
   9              		.eabi_attribute 26, 1
  10              		.eabi_attribute 30, 4
  11              		.eabi_attribute 34, 1
  12              		.eabi_attribute 18, 4
  13              		.file	"usbcfg_common.c"
  14              		.text
  15              	.Ltext0:
  16              		.cfi_sections	.debug_frame
  17              		.section	.text.string_contains,"ax",%progbits
  18              		.align	1
  19              		.global	string_contains
  20              		.arch armv7e-m
  21              		.syntax unified
  22              		.thumb
  23              		.thumb_func
  24              		.fpu fpv4-sp-d16
  25              		.type	string_contains, %function
  26              	string_contains:
  27              	.LVL0:
  28              	.LFB334:
  29              		.file 1 "../../libraries/AP_HAL_ChibiOS/hwdef/common/usbcfg_common.c"
  30              		.loc 1 42 1 view -0
  31              		.cfi_startproc
  32              		@ args = 0, pretend = 0, frame = 0
  33              		@ frame_needed = 0, uses_anonymous_args = 0
  34              		.loc 1 43 5 view .LVU1
  35              		.loc 1 42 1 is_stmt 0 view .LVU2
  36 0000 70B5     		push	{r4, r5, r6, lr}
  37              		.cfi_def_cfa_offset 16
  38              		.cfi_offset 4, -16
  39              		.cfi_offset 5, -12
  40              		.cfi_offset 6, -8
  41              		.cfi_offset 14, -4
  42              		.loc 1 42 1 view .LVU3
  43 0002 0446     		mov	r4, r0
  44              		.loc 1 43 26 view .LVU4
  45 0004 0846     		mov	r0, r1
  46              	.LVL1:
  47              		.loc 1 42 1 view .LVU5
  48 0006 0D46     		mov	r5, r1
  49              		.loc 1 43 26 view .LVU6
  50 0008 FFF7FEFF 		bl	strlen
  51              	.LVL2:
  52              		.loc 1 44 5 is_stmt 1 view .LVU7
  53              		.loc 1 45 13 is_stmt 0 view .LVU8
  54 000c C6B2     		uxtb	r6, r0
  55              	.LVL3:
  56              	.L2:
  57              		.loc 1 45 13 view .LVU9
ARM GAS  /tmp/ccltZX7S.s 			page 2


  58 000e 2046     		mov	r0, r4
  59              	.LVL4:
  60              		.loc 1 44 11 is_stmt 1 view .LVU10
  61 0010 0134     		adds	r4, r4, #1
  62 0012 0378     		ldrb	r3, [r0]	@ zero_extendqisi2
  63 0014 0BB9     		cbnz	r3, .L4
  64              		.loc 1 50 12 is_stmt 0 view .LVU11
  65 0016 1846     		mov	r0, r3
  66              	.LVL5:
  67              	.L3:
  68              		.loc 1 51 1 view .LVU12
  69 0018 70BD     		pop	{r4, r5, r6, pc}
  70              	.LVL6:
  71              	.L4:
  72              		.loc 1 45 9 is_stmt 1 view .LVU13
  73              		.loc 1 45 13 is_stmt 0 view .LVU14
  74 001a 3246     		mov	r2, r6
  75 001c 2946     		mov	r1, r5
  76 001e FFF7FEFF 		bl	strncmp
  77              	.LVL7:
  78              		.loc 1 45 12 view .LVU15
  79 0022 0028     		cmp	r0, #0
  80 0024 F3D1     		bne	.L2
  81              		.loc 1 46 20 view .LVU16
  82 0026 0120     		movs	r0, #1
  83 0028 F6E7     		b	.L3
  84              		.cfi_endproc
  85              	.LFE334:
  86              		.size	string_contains, .-string_contains
  87              		.section	.rodata.string_substitute.str1.1,"aMS",%progbits,1
  88              	.LC0:
  89 0000 25424F41 		.ascii	"%BOARD%\000"
  89      52442500 
  90              	.LC1:
  91 0008 25534552 		.ascii	"%SERIAL%\000"
  91      49414C25 
  91      00
  92              	.LC2:
  93 0011 43554156 		.ascii	"CUAVv5\000"
  93      763500
  94              	.LC3:
  95 0018 30313233 		.ascii	"0123456789ABCDEF\000"
  95      34353637 
  95      38394142 
  95      43444546 
  95      00
  96              		.section	.text.string_substitute,"ax",%progbits
  97              		.align	1
  98              		.global	string_substitute
  99              		.syntax unified
 100              		.thumb
 101              		.thumb_func
 102              		.fpu fpv4-sp-d16
 103              		.type	string_substitute, %function
 104              	string_substitute:
 105              	.LVL8:
 106              	.LFB335:
ARM GAS  /tmp/ccltZX7S.s 			page 3


 107              		.loc 1 57 1 is_stmt 1 view -0
 108              		.cfi_startproc
 109              		@ args = 0, pretend = 0, frame = 0
 110              		@ frame_needed = 0, uses_anonymous_args = 0
 111              		.loc 1 58 5 view .LVU18
 112              		.loc 1 59 5 view .LVU19
 113              		.loc 1 60 5 view .LVU20
 114              		.loc 1 57 1 is_stmt 0 view .LVU21
 115 0000 2DE9F84F 		push	{r3, r4, r5, r6, r7, r8, r9, r10, fp, lr}
 116              		.cfi_def_cfa_offset 40
 117              		.cfi_offset 3, -40
 118              		.cfi_offset 4, -36
 119              		.cfi_offset 5, -32
 120              		.cfi_offset 6, -28
 121              		.cfi_offset 7, -24
 122              		.cfi_offset 8, -20
 123              		.cfi_offset 9, -16
 124              		.cfi_offset 10, -12
 125              		.cfi_offset 11, -8
 126              		.cfi_offset 14, -4
 127              		.loc 1 57 1 view .LVU22
 128 0004 0546     		mov	r5, r0
 129 0006 0C46     		mov	r4, r1
 130              		.loc 1 60 23 view .LVU23
 131 0008 FFF7FEFF 		bl	strlen
 132              	.LVL9:
 133              		.loc 1 61 9 view .LVU24
 134 000c 2A49     		ldr	r1, .L24
 135              		.loc 1 60 13 view .LVU25
 136 000e C6B2     		uxtb	r6, r0
 137              	.LVL10:
 138              		.loc 1 61 5 is_stmt 1 view .LVU26
 139              		.loc 1 61 9 is_stmt 0 view .LVU27
 140 0010 2846     		mov	r0, r5
 141 0012 FFF7FEFF 		bl	string_contains
 142              	.LVL11:
 143              		.loc 1 61 8 view .LVU28
 144 0016 08B1     		cbz	r0, .L7
 145              		.loc 1 62 9 is_stmt 1 view .LVU29
 146              		.loc 1 62 17 is_stmt 0 view .LVU30
 147 0018 013E     		subs	r6, r6, #1
 148              	.LVL12:
 149              		.loc 1 62 17 view .LVU31
 150 001a F6B2     		uxtb	r6, r6
 151              	.LVL13:
 152              	.L7:
 153              		.loc 1 64 5 is_stmt 1 view .LVU32
 154              		.loc 1 64 9 is_stmt 0 view .LVU33
 155 001c 2749     		ldr	r1, .L24+4
 156 001e 2846     		mov	r0, r5
 157 0020 FFF7FEFF 		bl	string_contains
 158              	.LVL14:
 159              		.loc 1 64 8 view .LVU34
 160 0024 08B1     		cbz	r0, .L8
 161              		.loc 1 65 9 is_stmt 1 view .LVU35
 162              		.loc 1 65 17 is_stmt 0 view .LVU36
 163 0026 1036     		adds	r6, r6, #16
ARM GAS  /tmp/ccltZX7S.s 			page 4


 164              	.LVL15:
 165              		.loc 1 65 17 view .LVU37
 166 0028 F6B2     		uxtb	r6, r6
 167              	.LVL16:
 168              	.L8:
 169              		.loc 1 67 5 is_stmt 1 view .LVU38
 170              		.loc 1 67 8 is_stmt 0 view .LVU39
 171 002a 632E     		cmp	r6, #99
 172 002c 0DD8     		bhi	.L23
 173              	.LBB2:
 174              		.loc 1 75 17 view .LVU40
 175 002e DFF88890 		ldr	r9, .L24
 176              		.loc 1 81 17 view .LVU41
 177 0032 DFF888A0 		ldr	r10, .L24+4
 178              	.LBB3:
 179              		.loc 1 86 31 view .LVU42
 180 0036 224F     		ldr	r7, .L24+8
 181              		.loc 1 85 17 view .LVU43
 182 0038 DFF88CB0 		ldr	fp, .L24+16
 183              	.LBE3:
 184              		.loc 1 76 17 view .LVU44
 185 003c DFF88C80 		ldr	r8, .L24+20
 186              	.LVL17:
 187              	.L9:
 188              		.loc 1 76 17 view .LVU45
 189              	.LBE2:
 190              		.loc 1 72 11 is_stmt 1 view .LVU46
 191              		.loc 1 72 12 is_stmt 0 view .LVU47
 192 0040 2E78     		ldrb	r6, [r5]	@ zero_extendqisi2
 193              		.loc 1 72 11 view .LVU48
 194 0042 46B9     		cbnz	r6, .L14
 195              		.loc 1 95 5 is_stmt 1 view .LVU49
 196              		.loc 1 95 8 is_stmt 0 view .LVU50
 197 0044 2670     		strb	r6, [r4]
 198              		.loc 1 96 1 view .LVU51
 199 0046 BDE8F88F 		pop	{r3, r4, r5, r6, r7, r8, r9, r10, fp, pc}
 200              	.LVL18:
 201              	.L23:
 202              		.loc 1 68 9 is_stmt 1 view .LVU52
 203 004a 2946     		mov	r1, r5
 204 004c 2046     		mov	r0, r4
 205              		.loc 1 96 1 is_stmt 0 view .LVU53
 206 004e BDE8F84F 		pop	{r3, r4, r5, r6, r7, r8, r9, r10, fp, lr}
 207              		.cfi_remember_state
 208              		.cfi_restore 14
 209              		.cfi_restore 11
 210              		.cfi_restore 10
 211              		.cfi_restore 9
 212              		.cfi_restore 8
 213              		.cfi_restore 7
 214              		.cfi_restore 6
 215              		.cfi_restore 5
 216              		.cfi_restore 4
 217              		.cfi_restore 3
 218              		.cfi_def_cfa_offset 0
 219              	.LVL19:
 220              		.loc 1 68 9 view .LVU54
ARM GAS  /tmp/ccltZX7S.s 			page 5


 221 0052 FFF7FEBF 		b	strcpy
 222              	.LVL20:
 223              	.L14:
 224              		.cfi_restore_state
 225              	.LBB5:
 226              		.loc 1 73 9 is_stmt 1 view .LVU55
 227              		.loc 1 74 9 view .LVU56
 228              		.loc 1 74 12 is_stmt 0 view .LVU57
 229 0056 252E     		cmp	r6, #37
 230 0058 2AD1     		bne	.L10
 231              		.loc 1 75 13 is_stmt 1 view .LVU58
 232              		.loc 1 75 17 is_stmt 0 view .LVU59
 233 005a 0722     		movs	r2, #7
 234 005c 4946     		mov	r1, r9
 235 005e 2846     		mov	r0, r5
 236 0060 FFF7FEFF 		bl	strncmp
 237              	.LVL21:
 238              		.loc 1 75 16 view .LVU60
 239 0064 50B9     		cbnz	r0, .L11
 240              		.loc 1 76 17 is_stmt 1 view .LVU61
 241 0066 D8F80030 		ldr	r3, [r8]	@ unaligned
 242              		.loc 1 77 21 is_stmt 0 view .LVU62
 243 006a 0735     		adds	r5, r5, #7
 244              	.LVL22:
 245              		.loc 1 78 19 view .LVU63
 246 006c 0634     		adds	r4, r4, #6
 247              	.LVL23:
 248              		.loc 1 76 17 view .LVU64
 249 006e 44F8063C 		str	r3, [r4, #-6]	@ unaligned
 250 0072 B8F80430 		ldrh	r3, [r8, #4]	@ unaligned
 251 0076 24F8023C 		strh	r3, [r4, #-2]	@ unaligned
 252              		.loc 1 77 17 is_stmt 1 view .LVU65
 253              	.LVL24:
 254              		.loc 1 78 17 view .LVU66
 255              		.loc 1 79 17 view .LVU67
 256 007a E1E7     		b	.L9
 257              	.L11:
 258              		.loc 1 81 13 view .LVU68
 259              		.loc 1 81 17 is_stmt 0 view .LVU69
 260 007c 0822     		movs	r2, #8
 261 007e 5146     		mov	r1, r10
 262 0080 2846     		mov	r0, r5
 263 0082 FFF7FEFF 		bl	strncmp
 264              	.LVL25:
 265              		.loc 1 81 16 view .LVU70
 266 0086 98B9     		cbnz	r0, .L10
 267 0088 A21C     		adds	r2, r4, #2
 268 008a 0E4B     		ldr	r3, .L24+12
 269              	.LVL26:
 270              	.L13:
 271              	.LBB4:
 272              		.loc 1 86 21 is_stmt 1 discriminator 3 view .LVU71
 273              		.loc 1 86 46 is_stmt 0 discriminator 3 view .LVU72
 274 008c 1978     		ldrb	r1, [r3]	@ zero_extendqisi2
 275              		.loc 1 85 17 discriminator 3 view .LVU73
 276 008e 0232     		adds	r2, r2, #2
 277              	.LVL27:
ARM GAS  /tmp/ccltZX7S.s 			page 6


 278              		.loc 1 86 46 discriminator 3 view .LVU74
 279 0090 0909     		lsrs	r1, r1, #4
 280              		.loc 1 86 26 discriminator 3 view .LVU75
 281 0092 C95D     		ldrb	r1, [r1, r7]	@ zero_extendqisi2
 282 0094 02F8041C 		strb	r1, [r2, #-4]
 283              		.loc 1 87 21 is_stmt 1 discriminator 3 view .LVU76
 284              	.LVL28:
 285              		.loc 1 87 41 is_stmt 0 discriminator 3 view .LVU77
 286 0098 13F8011B 		ldrb	r1, [r3], #1	@ zero_extendqisi2
 287              	.LVL29:
 288              		.loc 1 87 41 discriminator 3 view .LVU78
 289 009c 01F00F01 		and	r1, r1, #15
 290              		.loc 1 85 17 discriminator 3 view .LVU79
 291 00a0 5B45     		cmp	r3, fp
 292              		.loc 1 87 26 discriminator 3 view .LVU80
 293 00a2 C95D     		ldrb	r1, [r1, r7]	@ zero_extendqisi2
 294 00a4 02F8031C 		strb	r1, [r2, #-3]
 295              		.loc 1 85 33 is_stmt 1 discriminator 3 view .LVU81
 296              	.LVL30:
 297              		.loc 1 85 27 discriminator 3 view .LVU82
 298              		.loc 1 85 17 is_stmt 0 discriminator 3 view .LVU83
 299 00a8 F0D1     		bne	.L13
 300              		.loc 1 87 23 view .LVU84
 301 00aa 1834     		adds	r4, r4, #24
 302              		.loc 1 89 17 is_stmt 1 view .LVU85
 303              		.loc 1 89 21 is_stmt 0 view .LVU86
 304 00ac 0835     		adds	r5, r5, #8
 305              	.LVL31:
 306              		.loc 1 90 17 is_stmt 1 view .LVU87
 307 00ae C7E7     		b	.L9
 308              	.LVL32:
 309              	.L10:
 310              		.loc 1 90 17 is_stmt 0 view .LVU88
 311              	.LBE4:
 312              		.loc 1 93 9 is_stmt 1 view .LVU89
 313              		.loc 1 93 20 is_stmt 0 view .LVU90
 314 00b0 0135     		adds	r5, r5, #1
 315              	.LVL33:
 316              		.loc 1 93 14 view .LVU91
 317 00b2 04F8016B 		strb	r6, [r4], #1
 318              	.LVL34:
 319              		.loc 1 93 14 view .LVU92
 320 00b6 C3E7     		b	.L9
 321              	.L25:
 322              		.align	2
 323              	.L24:
 324 00b8 00000000 		.word	.LC0
 325 00bc 08000000 		.word	.LC1
 326 00c0 18000000 		.word	.LC3
 327 00c4 20F4F01F 		.word	535884832
 328 00c8 2CF4F01F 		.word	535884844
 329 00cc 11000000 		.word	.LC2
 330              	.LBE5:
 331              		.cfi_endproc
 332              	.LFE335:
 333              		.size	string_substitute, .-string_substitute
 334              		.text
ARM GAS  /tmp/ccltZX7S.s 			page 7


 335              	.Letext0:
 336              		.file 2 "/opt/gcc-arm-none-eabi-10-2020-q4-major/arm-none-eabi/include/machine/_default_types.h"
 337              		.file 3 "/opt/gcc-arm-none-eabi-10-2020-q4-major/arm-none-eabi/include/sys/_stdint.h"
 338              		.file 4 "/opt/gcc-arm-none-eabi-10-2020-q4-major/arm-none-eabi/include/string.h"
 339              		.section	.debug_info,"",%progbits
 340              	.Ldebug_info0:
 341 0000 D1020000 		.4byte	0x2d1
 342 0004 0400     		.2byte	0x4
 343 0006 00000000 		.4byte	.Ldebug_abbrev0
 344 000a 04       		.byte	0x4
 345 000b 01       		.uleb128 0x1
 346 000c 03010000 		.4byte	.LASF25
 347 0010 0C       		.byte	0xc
 348 0011 57020000 		.4byte	.LASF26
 349 0015 A9000000 		.4byte	.LASF27
 350 0019 30000000 		.4byte	.Ldebug_ranges0+0x30
 351 001d 00000000 		.4byte	0
 352 0021 00000000 		.4byte	.Ldebug_line0
 353 0025 02       		.uleb128 0x2
 354 0026 04       		.byte	0x4
 355 0027 05       		.byte	0x5
 356 0028 696E7400 		.ascii	"int\000"
 357 002c 03       		.uleb128 0x3
 358 002d 04       		.byte	0x4
 359 002e 07       		.byte	0x7
 360 002f 2F000000 		.4byte	.LASF0
 361 0033 03       		.uleb128 0x3
 362 0034 08       		.byte	0x8
 363 0035 05       		.byte	0x5
 364 0036 00000000 		.4byte	.LASF1
 365 003a 03       		.uleb128 0x3
 366 003b 08       		.byte	0x8
 367 003c 04       		.byte	0x4
 368 003d 18020000 		.4byte	.LASF2
 369 0041 03       		.uleb128 0x3
 370 0042 01       		.byte	0x1
 371 0043 06       		.byte	0x6
 372 0044 36020000 		.4byte	.LASF3
 373 0048 04       		.uleb128 0x4
 374 0049 25000000 		.4byte	.LASF10
 375 004d 02       		.byte	0x2
 376 004e 2B       		.byte	0x2b
 377 004f 18       		.byte	0x18
 378 0050 54000000 		.4byte	0x54
 379 0054 03       		.uleb128 0x3
 380 0055 01       		.byte	0x1
 381 0056 08       		.byte	0x8
 382 0057 3C000000 		.4byte	.LASF4
 383 005b 03       		.uleb128 0x3
 384 005c 02       		.byte	0x2
 385 005d 05       		.byte	0x5
 386 005e 05020000 		.4byte	.LASF5
 387 0062 03       		.uleb128 0x3
 388 0063 02       		.byte	0x2
 389 0064 07       		.byte	0x7
 390 0065 63000000 		.4byte	.LASF6
 391 0069 03       		.uleb128 0x3
ARM GAS  /tmp/ccltZX7S.s 			page 8


 392 006a 04       		.byte	0x4
 393 006b 05       		.byte	0x5
 394 006c 0F020000 		.4byte	.LASF7
 395 0070 03       		.uleb128 0x3
 396 0071 04       		.byte	0x4
 397 0072 07       		.byte	0x7
 398 0073 51000000 		.4byte	.LASF8
 399 0077 03       		.uleb128 0x3
 400 0078 08       		.byte	0x8
 401 0079 07       		.byte	0x7
 402 007a 0E000000 		.4byte	.LASF9
 403 007e 04       		.uleb128 0x4
 404 007f A1000000 		.4byte	.LASF11
 405 0083 03       		.byte	0x3
 406 0084 18       		.byte	0x18
 407 0085 13       		.byte	0x13
 408 0086 48000000 		.4byte	0x48
 409 008a 05       		.uleb128 0x5
 410 008b 7E000000 		.4byte	0x7e
 411 008f 06       		.uleb128 0x6
 412 0090 04       		.byte	0x4
 413 0091 9C000000 		.4byte	0x9c
 414 0095 03       		.uleb128 0x3
 415 0096 01       		.byte	0x1
 416 0097 08       		.byte	0x8
 417 0098 9C000000 		.4byte	.LASF12
 418 009c 05       		.uleb128 0x5
 419 009d 95000000 		.4byte	0x95
 420 00a1 03       		.uleb128 0x3
 421 00a2 01       		.byte	0x1
 422 00a3 02       		.byte	0x2
 423 00a4 48020000 		.4byte	.LASF13
 424 00a8 06       		.uleb128 0x6
 425 00a9 04       		.byte	0x4
 426 00aa 8A000000 		.4byte	0x8a
 427 00ae 06       		.uleb128 0x6
 428 00af 04       		.byte	0x4
 429 00b0 95000000 		.4byte	0x95
 430 00b4 07       		.uleb128 0x7
 431 00b5 24020000 		.4byte	.LASF28
 432 00b9 01       		.byte	0x1
 433 00ba 38       		.byte	0x38
 434 00bb 06       		.byte	0x6
 435 00bc 00000000 		.4byte	.LFB335
 436 00c0 D0000000 		.4byte	.LFE335-.LFB335
 437 00c4 01       		.uleb128 0x1
 438 00c5 9C       		.byte	0x9c
 439 00c6 2F020000 		.4byte	0x22f
 440 00ca 08       		.uleb128 0x8
 441 00cb 73747200 		.ascii	"str\000"
 442 00cf 01       		.byte	0x1
 443 00d0 38       		.byte	0x38
 444 00d1 24       		.byte	0x24
 445 00d2 8F000000 		.4byte	0x8f
 446 00d6 0E000000 		.4byte	.LLST3
 447 00da 00000000 		.4byte	.LVUS3
 448 00de 09       		.uleb128 0x9
ARM GAS  /tmp/ccltZX7S.s 			page 9


 449 00df 7D000000 		.4byte	.LASF14
 450 00e3 01       		.byte	0x1
 451 00e4 38       		.byte	0x38
 452 00e5 2F       		.byte	0x2f
 453 00e6 AE000000 		.4byte	0xae
 454 00ea 74000000 		.4byte	.LLST4
 455 00ee 68000000 		.4byte	.LVUS4
 456 00f2 0A       		.uleb128 0xa
 457 00f3 42020000 		.4byte	.LASF15
 458 00f7 01       		.byte	0x1
 459 00f8 3A       		.byte	0x3a
 460 00f9 11       		.byte	0x11
 461 00fa 8F000000 		.4byte	0x8f
 462 00fe 06       		.uleb128 0x6
 463 00ff 03       		.byte	0x3
 464 0100 00000000 		.4byte	.LC0
 465 0104 9F       		.byte	0x9f
 466 0105 0A       		.uleb128 0xa
 467 0106 F4000000 		.4byte	.LASF16
 468 010a 01       		.byte	0x1
 469 010b 3B       		.byte	0x3b
 470 010c 11       		.byte	0x11
 471 010d 8F000000 		.4byte	0x8f
 472 0111 06       		.uleb128 0x6
 473 0112 03       		.byte	0x3
 474 0113 08000000 		.4byte	.LC1
 475 0117 9F       		.byte	0x9f
 476 0118 0B       		.uleb128 0xb
 477 0119 82000000 		.4byte	.LASF17
 478 011d 01       		.byte	0x1
 479 011e 3C       		.byte	0x3c
 480 011f 0D       		.byte	0xd
 481 0120 7E000000 		.4byte	0x7e
 482 0124 CE000000 		.4byte	.LLST5
 483 0128 C4000000 		.4byte	.LVUS5
 484 012c 0C       		.uleb128 0xc
 485 012d 7000     		.ascii	"p\000"
 486 012f 01       		.byte	0x1
 487 0130 47       		.byte	0x47
 488 0131 0B       		.byte	0xb
 489 0132 AE000000 		.4byte	0xae
 490 0136 23010000 		.4byte	.LLST6
 491 013a 0F010000 		.4byte	.LVUS6
 492 013e 0D       		.uleb128 0xd
 493 013f 00000000 		.4byte	.Ldebug_ranges0+0
 494 0143 C8010000 		.4byte	0x1c8
 495 0147 0C       		.uleb128 0xc
 496 0148 6300     		.ascii	"c\000"
 497 014a 01       		.byte	0x1
 498 014b 49       		.byte	0x49
 499 014c 0E       		.byte	0xe
 500 014d 95000000 		.4byte	0x95
 501 0151 A5010000 		.4byte	.LLST7
 502 0155 A3010000 		.4byte	.LVUS7
 503 0159 0D       		.uleb128 0xd
 504 015a 18000000 		.4byte	.Ldebug_ranges0+0x18
 505 015e 8D010000 		.4byte	0x18d
ARM GAS  /tmp/ccltZX7S.s 			page 10


 506 0162 0E       		.uleb128 0xe
 507 0163 68657800 		.ascii	"hex\000"
 508 0167 01       		.byte	0x1
 509 0168 52       		.byte	0x52
 510 0169 1D       		.byte	0x1d
 511 016a 8F000000 		.4byte	0x8f
 512 016e 0F       		.uleb128 0xf
 513 016f ED000000 		.4byte	.LASF18
 514 0173 01       		.byte	0x1
 515 0174 53       		.byte	0x53
 516 0175 20       		.byte	0x20
 517 0176 A8000000 		.4byte	0xa8
 518 017a 0C       		.uleb128 0xc
 519 017b 6900     		.ascii	"i\000"
 520 017d 01       		.byte	0x1
 521 017e 54       		.byte	0x54
 522 017f 19       		.byte	0x19
 523 0180 7E000000 		.4byte	0x7e
 524 0184 BC010000 		.4byte	.LLST8
 525 0188 B8010000 		.4byte	.LVUS8
 526 018c 00       		.byte	0
 527 018d 10       		.uleb128 0x10
 528 018e 64000000 		.4byte	.LVL21
 529 0192 B0020000 		.4byte	0x2b0
 530 0196 AC010000 		.4byte	0x1ac
 531 019a 11       		.uleb128 0x11
 532 019b 01       		.uleb128 0x1
 533 019c 50       		.byte	0x50
 534 019d 02       		.uleb128 0x2
 535 019e 75       		.byte	0x75
 536 019f 00       		.sleb128 0
 537 01a0 11       		.uleb128 0x11
 538 01a1 01       		.uleb128 0x1
 539 01a2 51       		.byte	0x51
 540 01a3 02       		.uleb128 0x2
 541 01a4 79       		.byte	0x79
 542 01a5 00       		.sleb128 0
 543 01a6 11       		.uleb128 0x11
 544 01a7 01       		.uleb128 0x1
 545 01a8 52       		.byte	0x52
 546 01a9 01       		.uleb128 0x1
 547 01aa 37       		.byte	0x37
 548 01ab 00       		.byte	0
 549 01ac 12       		.uleb128 0x12
 550 01ad 86000000 		.4byte	.LVL25
 551 01b1 B0020000 		.4byte	0x2b0
 552 01b5 11       		.uleb128 0x11
 553 01b6 01       		.uleb128 0x1
 554 01b7 50       		.byte	0x50
 555 01b8 02       		.uleb128 0x2
 556 01b9 75       		.byte	0x75
 557 01ba 00       		.sleb128 0
 558 01bb 11       		.uleb128 0x11
 559 01bc 01       		.uleb128 0x1
 560 01bd 51       		.byte	0x51
 561 01be 02       		.uleb128 0x2
 562 01bf 7A       		.byte	0x7a
ARM GAS  /tmp/ccltZX7S.s 			page 11


 563 01c0 00       		.sleb128 0
 564 01c1 11       		.uleb128 0x11
 565 01c2 01       		.uleb128 0x1
 566 01c3 52       		.byte	0x52
 567 01c4 01       		.uleb128 0x1
 568 01c5 38       		.byte	0x38
 569 01c6 00       		.byte	0
 570 01c7 00       		.byte	0
 571 01c8 10       		.uleb128 0x10
 572 01c9 0C000000 		.4byte	.LVL9
 573 01cd BC020000 		.4byte	0x2bc
 574 01d1 DC010000 		.4byte	0x1dc
 575 01d5 11       		.uleb128 0x11
 576 01d6 01       		.uleb128 0x1
 577 01d7 50       		.byte	0x50
 578 01d8 02       		.uleb128 0x2
 579 01d9 75       		.byte	0x75
 580 01da 00       		.sleb128 0
 581 01db 00       		.byte	0
 582 01dc 10       		.uleb128 0x10
 583 01dd 16000000 		.4byte	.LVL11
 584 01e1 2F020000 		.4byte	0x22f
 585 01e5 F9010000 		.4byte	0x1f9
 586 01e9 11       		.uleb128 0x11
 587 01ea 01       		.uleb128 0x1
 588 01eb 50       		.byte	0x50
 589 01ec 02       		.uleb128 0x2
 590 01ed 75       		.byte	0x75
 591 01ee 00       		.sleb128 0
 592 01ef 11       		.uleb128 0x11
 593 01f0 01       		.uleb128 0x1
 594 01f1 51       		.byte	0x51
 595 01f2 05       		.uleb128 0x5
 596 01f3 03       		.byte	0x3
 597 01f4 00000000 		.4byte	.LC0
 598 01f8 00       		.byte	0
 599 01f9 10       		.uleb128 0x10
 600 01fa 24000000 		.4byte	.LVL14
 601 01fe 2F020000 		.4byte	0x22f
 602 0202 16020000 		.4byte	0x216
 603 0206 11       		.uleb128 0x11
 604 0207 01       		.uleb128 0x1
 605 0208 50       		.byte	0x50
 606 0209 02       		.uleb128 0x2
 607 020a 75       		.byte	0x75
 608 020b 00       		.sleb128 0
 609 020c 11       		.uleb128 0x11
 610 020d 01       		.uleb128 0x1
 611 020e 51       		.byte	0x51
 612 020f 05       		.uleb128 0x5
 613 0210 03       		.byte	0x3
 614 0211 08000000 		.4byte	.LC1
 615 0215 00       		.byte	0
 616 0216 13       		.uleb128 0x13
 617 0217 56000000 		.4byte	.LVL20
 618 021b C8020000 		.4byte	0x2c8
 619 021f 11       		.uleb128 0x11
ARM GAS  /tmp/ccltZX7S.s 			page 12


 620 0220 01       		.uleb128 0x1
 621 0221 50       		.byte	0x50
 622 0222 03       		.uleb128 0x3
 623 0223 F3       		.byte	0xf3
 624 0224 01       		.uleb128 0x1
 625 0225 51       		.byte	0x51
 626 0226 11       		.uleb128 0x11
 627 0227 01       		.uleb128 0x1
 628 0228 51       		.byte	0x51
 629 0229 03       		.uleb128 0x3
 630 022a F3       		.byte	0xf3
 631 022b 01       		.uleb128 0x1
 632 022c 50       		.byte	0x50
 633 022d 00       		.byte	0
 634 022e 00       		.byte	0
 635 022f 14       		.uleb128 0x14
 636 0230 DD000000 		.4byte	.LASF29
 637 0234 01       		.byte	0x1
 638 0235 29       		.byte	0x29
 639 0236 06       		.byte	0x6
 640 0237 A1000000 		.4byte	0xa1
 641 023b 00000000 		.4byte	.LFB334
 642 023f 2A000000 		.4byte	.LFE334-.LFB334
 643 0243 01       		.uleb128 0x1
 644 0244 9C       		.byte	0x9c
 645 0245 B0020000 		.4byte	0x2b0
 646 0249 09       		.uleb128 0x9
 647 024a 4E020000 		.4byte	.LASF19
 648 024e 01       		.byte	0x1
 649 024f 29       		.byte	0x29
 650 0250 22       		.byte	0x22
 651 0251 8F000000 		.4byte	0x8f
 652 0255 EA010000 		.4byte	.LLST0
 653 0259 DE010000 		.4byte	.LVUS0
 654 025d 09       		.uleb128 0x9
 655 025e 76000000 		.4byte	.LASF20
 656 0262 01       		.byte	0x1
 657 0263 29       		.byte	0x29
 658 0264 38       		.byte	0x38
 659 0265 8F000000 		.4byte	0x8f
 660 0269 3C020000 		.4byte	.LLST1
 661 026d 38020000 		.4byte	.LVUS1
 662 0271 0B       		.uleb128 0xb
 663 0272 8A000000 		.4byte	.LASF21
 664 0276 01       		.byte	0x1
 665 0277 2B       		.byte	0x2b
 666 0278 0D       		.byte	0xd
 667 0279 7E000000 		.4byte	0x7e
 668 027d 5E020000 		.4byte	.LLST2
 669 0281 5A020000 		.4byte	.LVUS2
 670 0285 10       		.uleb128 0x10
 671 0286 0C000000 		.4byte	.LVL2
 672 028a BC020000 		.4byte	0x2bc
 673 028e 99020000 		.4byte	0x299
 674 0292 11       		.uleb128 0x11
 675 0293 01       		.uleb128 0x1
 676 0294 50       		.byte	0x50
ARM GAS  /tmp/ccltZX7S.s 			page 13


 677 0295 02       		.uleb128 0x2
 678 0296 75       		.byte	0x75
 679 0297 00       		.sleb128 0
 680 0298 00       		.byte	0
 681 0299 12       		.uleb128 0x12
 682 029a 22000000 		.4byte	.LVL7
 683 029e B0020000 		.4byte	0x2b0
 684 02a2 11       		.uleb128 0x11
 685 02a3 01       		.uleb128 0x1
 686 02a4 51       		.byte	0x51
 687 02a5 02       		.uleb128 0x2
 688 02a6 75       		.byte	0x75
 689 02a7 00       		.sleb128 0
 690 02a8 11       		.uleb128 0x11
 691 02a9 01       		.uleb128 0x1
 692 02aa 52       		.byte	0x52
 693 02ab 02       		.uleb128 0x2
 694 02ac 76       		.byte	0x76
 695 02ad 00       		.sleb128 0
 696 02ae 00       		.byte	0
 697 02af 00       		.byte	0
 698 02b0 15       		.uleb128 0x15
 699 02b1 FB000000 		.4byte	.LASF22
 700 02b5 FB000000 		.4byte	.LASF22
 701 02b9 04       		.byte	0x4
 702 02ba 2B       		.byte	0x2b
 703 02bb 06       		.byte	0x6
 704 02bc 15       		.uleb128 0x15
 705 02bd 95000000 		.4byte	.LASF23
 706 02c1 95000000 		.4byte	.LASF23
 707 02c5 04       		.byte	0x4
 708 02c6 29       		.byte	0x29
 709 02c7 09       		.byte	0x9
 710 02c8 15       		.uleb128 0x15
 711 02c9 4A000000 		.4byte	.LASF24
 712 02cd 4A000000 		.4byte	.LASF24
 713 02d1 04       		.byte	0x4
 714 02d2 26       		.byte	0x26
 715 02d3 08       		.byte	0x8
 716 02d4 00       		.byte	0
 717              		.section	.debug_abbrev,"",%progbits
 718              	.Ldebug_abbrev0:
 719 0000 01       		.uleb128 0x1
 720 0001 11       		.uleb128 0x11
 721 0002 01       		.byte	0x1
 722 0003 25       		.uleb128 0x25
 723 0004 0E       		.uleb128 0xe
 724 0005 13       		.uleb128 0x13
 725 0006 0B       		.uleb128 0xb
 726 0007 03       		.uleb128 0x3
 727 0008 0E       		.uleb128 0xe
 728 0009 1B       		.uleb128 0x1b
 729 000a 0E       		.uleb128 0xe
 730 000b 55       		.uleb128 0x55
 731 000c 17       		.uleb128 0x17
 732 000d 11       		.uleb128 0x11
 733 000e 01       		.uleb128 0x1
ARM GAS  /tmp/ccltZX7S.s 			page 14


 734 000f 10       		.uleb128 0x10
 735 0010 17       		.uleb128 0x17
 736 0011 00       		.byte	0
 737 0012 00       		.byte	0
 738 0013 02       		.uleb128 0x2
 739 0014 24       		.uleb128 0x24
 740 0015 00       		.byte	0
 741 0016 0B       		.uleb128 0xb
 742 0017 0B       		.uleb128 0xb
 743 0018 3E       		.uleb128 0x3e
 744 0019 0B       		.uleb128 0xb
 745 001a 03       		.uleb128 0x3
 746 001b 08       		.uleb128 0x8
 747 001c 00       		.byte	0
 748 001d 00       		.byte	0
 749 001e 03       		.uleb128 0x3
 750 001f 24       		.uleb128 0x24
 751 0020 00       		.byte	0
 752 0021 0B       		.uleb128 0xb
 753 0022 0B       		.uleb128 0xb
 754 0023 3E       		.uleb128 0x3e
 755 0024 0B       		.uleb128 0xb
 756 0025 03       		.uleb128 0x3
 757 0026 0E       		.uleb128 0xe
 758 0027 00       		.byte	0
 759 0028 00       		.byte	0
 760 0029 04       		.uleb128 0x4
 761 002a 16       		.uleb128 0x16
 762 002b 00       		.byte	0
 763 002c 03       		.uleb128 0x3
 764 002d 0E       		.uleb128 0xe
 765 002e 3A       		.uleb128 0x3a
 766 002f 0B       		.uleb128 0xb
 767 0030 3B       		.uleb128 0x3b
 768 0031 0B       		.uleb128 0xb
 769 0032 39       		.uleb128 0x39
 770 0033 0B       		.uleb128 0xb
 771 0034 49       		.uleb128 0x49
 772 0035 13       		.uleb128 0x13
 773 0036 00       		.byte	0
 774 0037 00       		.byte	0
 775 0038 05       		.uleb128 0x5
 776 0039 26       		.uleb128 0x26
 777 003a 00       		.byte	0
 778 003b 49       		.uleb128 0x49
 779 003c 13       		.uleb128 0x13
 780 003d 00       		.byte	0
 781 003e 00       		.byte	0
 782 003f 06       		.uleb128 0x6
 783 0040 0F       		.uleb128 0xf
 784 0041 00       		.byte	0
 785 0042 0B       		.uleb128 0xb
 786 0043 0B       		.uleb128 0xb
 787 0044 49       		.uleb128 0x49
 788 0045 13       		.uleb128 0x13
 789 0046 00       		.byte	0
 790 0047 00       		.byte	0
ARM GAS  /tmp/ccltZX7S.s 			page 15


 791 0048 07       		.uleb128 0x7
 792 0049 2E       		.uleb128 0x2e
 793 004a 01       		.byte	0x1
 794 004b 3F       		.uleb128 0x3f
 795 004c 19       		.uleb128 0x19
 796 004d 03       		.uleb128 0x3
 797 004e 0E       		.uleb128 0xe
 798 004f 3A       		.uleb128 0x3a
 799 0050 0B       		.uleb128 0xb
 800 0051 3B       		.uleb128 0x3b
 801 0052 0B       		.uleb128 0xb
 802 0053 39       		.uleb128 0x39
 803 0054 0B       		.uleb128 0xb
 804 0055 27       		.uleb128 0x27
 805 0056 19       		.uleb128 0x19
 806 0057 11       		.uleb128 0x11
 807 0058 01       		.uleb128 0x1
 808 0059 12       		.uleb128 0x12
 809 005a 06       		.uleb128 0x6
 810 005b 40       		.uleb128 0x40
 811 005c 18       		.uleb128 0x18
 812 005d 9742     		.uleb128 0x2117
 813 005f 19       		.uleb128 0x19
 814 0060 01       		.uleb128 0x1
 815 0061 13       		.uleb128 0x13
 816 0062 00       		.byte	0
 817 0063 00       		.byte	0
 818 0064 08       		.uleb128 0x8
 819 0065 05       		.uleb128 0x5
 820 0066 00       		.byte	0
 821 0067 03       		.uleb128 0x3
 822 0068 08       		.uleb128 0x8
 823 0069 3A       		.uleb128 0x3a
 824 006a 0B       		.uleb128 0xb
 825 006b 3B       		.uleb128 0x3b
 826 006c 0B       		.uleb128 0xb
 827 006d 39       		.uleb128 0x39
 828 006e 0B       		.uleb128 0xb
 829 006f 49       		.uleb128 0x49
 830 0070 13       		.uleb128 0x13
 831 0071 02       		.uleb128 0x2
 832 0072 17       		.uleb128 0x17
 833 0073 B742     		.uleb128 0x2137
 834 0075 17       		.uleb128 0x17
 835 0076 00       		.byte	0
 836 0077 00       		.byte	0
 837 0078 09       		.uleb128 0x9
 838 0079 05       		.uleb128 0x5
 839 007a 00       		.byte	0
 840 007b 03       		.uleb128 0x3
 841 007c 0E       		.uleb128 0xe
 842 007d 3A       		.uleb128 0x3a
 843 007e 0B       		.uleb128 0xb
 844 007f 3B       		.uleb128 0x3b
 845 0080 0B       		.uleb128 0xb
 846 0081 39       		.uleb128 0x39
 847 0082 0B       		.uleb128 0xb
ARM GAS  /tmp/ccltZX7S.s 			page 16


 848 0083 49       		.uleb128 0x49
 849 0084 13       		.uleb128 0x13
 850 0085 02       		.uleb128 0x2
 851 0086 17       		.uleb128 0x17
 852 0087 B742     		.uleb128 0x2137
 853 0089 17       		.uleb128 0x17
 854 008a 00       		.byte	0
 855 008b 00       		.byte	0
 856 008c 0A       		.uleb128 0xa
 857 008d 34       		.uleb128 0x34
 858 008e 00       		.byte	0
 859 008f 03       		.uleb128 0x3
 860 0090 0E       		.uleb128 0xe
 861 0091 3A       		.uleb128 0x3a
 862 0092 0B       		.uleb128 0xb
 863 0093 3B       		.uleb128 0x3b
 864 0094 0B       		.uleb128 0xb
 865 0095 39       		.uleb128 0x39
 866 0096 0B       		.uleb128 0xb
 867 0097 49       		.uleb128 0x49
 868 0098 13       		.uleb128 0x13
 869 0099 02       		.uleb128 0x2
 870 009a 18       		.uleb128 0x18
 871 009b 00       		.byte	0
 872 009c 00       		.byte	0
 873 009d 0B       		.uleb128 0xb
 874 009e 34       		.uleb128 0x34
 875 009f 00       		.byte	0
 876 00a0 03       		.uleb128 0x3
 877 00a1 0E       		.uleb128 0xe
 878 00a2 3A       		.uleb128 0x3a
 879 00a3 0B       		.uleb128 0xb
 880 00a4 3B       		.uleb128 0x3b
 881 00a5 0B       		.uleb128 0xb
 882 00a6 39       		.uleb128 0x39
 883 00a7 0B       		.uleb128 0xb
 884 00a8 49       		.uleb128 0x49
 885 00a9 13       		.uleb128 0x13
 886 00aa 02       		.uleb128 0x2
 887 00ab 17       		.uleb128 0x17
 888 00ac B742     		.uleb128 0x2137
 889 00ae 17       		.uleb128 0x17
 890 00af 00       		.byte	0
 891 00b0 00       		.byte	0
 892 00b1 0C       		.uleb128 0xc
 893 00b2 34       		.uleb128 0x34
 894 00b3 00       		.byte	0
 895 00b4 03       		.uleb128 0x3
 896 00b5 08       		.uleb128 0x8
 897 00b6 3A       		.uleb128 0x3a
 898 00b7 0B       		.uleb128 0xb
 899 00b8 3B       		.uleb128 0x3b
 900 00b9 0B       		.uleb128 0xb
 901 00ba 39       		.uleb128 0x39
 902 00bb 0B       		.uleb128 0xb
 903 00bc 49       		.uleb128 0x49
 904 00bd 13       		.uleb128 0x13
ARM GAS  /tmp/ccltZX7S.s 			page 17


 905 00be 02       		.uleb128 0x2
 906 00bf 17       		.uleb128 0x17
 907 00c0 B742     		.uleb128 0x2137
 908 00c2 17       		.uleb128 0x17
 909 00c3 00       		.byte	0
 910 00c4 00       		.byte	0
 911 00c5 0D       		.uleb128 0xd
 912 00c6 0B       		.uleb128 0xb
 913 00c7 01       		.byte	0x1
 914 00c8 55       		.uleb128 0x55
 915 00c9 17       		.uleb128 0x17
 916 00ca 01       		.uleb128 0x1
 917 00cb 13       		.uleb128 0x13
 918 00cc 00       		.byte	0
 919 00cd 00       		.byte	0
 920 00ce 0E       		.uleb128 0xe
 921 00cf 34       		.uleb128 0x34
 922 00d0 00       		.byte	0
 923 00d1 03       		.uleb128 0x3
 924 00d2 08       		.uleb128 0x8
 925 00d3 3A       		.uleb128 0x3a
 926 00d4 0B       		.uleb128 0xb
 927 00d5 3B       		.uleb128 0x3b
 928 00d6 0B       		.uleb128 0xb
 929 00d7 39       		.uleb128 0x39
 930 00d8 0B       		.uleb128 0xb
 931 00d9 49       		.uleb128 0x49
 932 00da 13       		.uleb128 0x13
 933 00db 00       		.byte	0
 934 00dc 00       		.byte	0
 935 00dd 0F       		.uleb128 0xf
 936 00de 34       		.uleb128 0x34
 937 00df 00       		.byte	0
 938 00e0 03       		.uleb128 0x3
 939 00e1 0E       		.uleb128 0xe
 940 00e2 3A       		.uleb128 0x3a
 941 00e3 0B       		.uleb128 0xb
 942 00e4 3B       		.uleb128 0x3b
 943 00e5 0B       		.uleb128 0xb
 944 00e6 39       		.uleb128 0x39
 945 00e7 0B       		.uleb128 0xb
 946 00e8 49       		.uleb128 0x49
 947 00e9 13       		.uleb128 0x13
 948 00ea 00       		.byte	0
 949 00eb 00       		.byte	0
 950 00ec 10       		.uleb128 0x10
 951 00ed 898201   		.uleb128 0x4109
 952 00f0 01       		.byte	0x1
 953 00f1 11       		.uleb128 0x11
 954 00f2 01       		.uleb128 0x1
 955 00f3 31       		.uleb128 0x31
 956 00f4 13       		.uleb128 0x13
 957 00f5 01       		.uleb128 0x1
 958 00f6 13       		.uleb128 0x13
 959 00f7 00       		.byte	0
 960 00f8 00       		.byte	0
 961 00f9 11       		.uleb128 0x11
ARM GAS  /tmp/ccltZX7S.s 			page 18


 962 00fa 8A8201   		.uleb128 0x410a
 963 00fd 00       		.byte	0
 964 00fe 02       		.uleb128 0x2
 965 00ff 18       		.uleb128 0x18
 966 0100 9142     		.uleb128 0x2111
 967 0102 18       		.uleb128 0x18
 968 0103 00       		.byte	0
 969 0104 00       		.byte	0
 970 0105 12       		.uleb128 0x12
 971 0106 898201   		.uleb128 0x4109
 972 0109 01       		.byte	0x1
 973 010a 11       		.uleb128 0x11
 974 010b 01       		.uleb128 0x1
 975 010c 31       		.uleb128 0x31
 976 010d 13       		.uleb128 0x13
 977 010e 00       		.byte	0
 978 010f 00       		.byte	0
 979 0110 13       		.uleb128 0x13
 980 0111 898201   		.uleb128 0x4109
 981 0114 01       		.byte	0x1
 982 0115 11       		.uleb128 0x11
 983 0116 01       		.uleb128 0x1
 984 0117 9542     		.uleb128 0x2115
 985 0119 19       		.uleb128 0x19
 986 011a 31       		.uleb128 0x31
 987 011b 13       		.uleb128 0x13
 988 011c 00       		.byte	0
 989 011d 00       		.byte	0
 990 011e 14       		.uleb128 0x14
 991 011f 2E       		.uleb128 0x2e
 992 0120 01       		.byte	0x1
 993 0121 3F       		.uleb128 0x3f
 994 0122 19       		.uleb128 0x19
 995 0123 03       		.uleb128 0x3
 996 0124 0E       		.uleb128 0xe
 997 0125 3A       		.uleb128 0x3a
 998 0126 0B       		.uleb128 0xb
 999 0127 3B       		.uleb128 0x3b
 1000 0128 0B       		.uleb128 0xb
 1001 0129 39       		.uleb128 0x39
 1002 012a 0B       		.uleb128 0xb
 1003 012b 27       		.uleb128 0x27
 1004 012c 19       		.uleb128 0x19
 1005 012d 49       		.uleb128 0x49
 1006 012e 13       		.uleb128 0x13
 1007 012f 11       		.uleb128 0x11
 1008 0130 01       		.uleb128 0x1
 1009 0131 12       		.uleb128 0x12
 1010 0132 06       		.uleb128 0x6
 1011 0133 40       		.uleb128 0x40
 1012 0134 18       		.uleb128 0x18
 1013 0135 9742     		.uleb128 0x2117
 1014 0137 19       		.uleb128 0x19
 1015 0138 01       		.uleb128 0x1
 1016 0139 13       		.uleb128 0x13
 1017 013a 00       		.byte	0
 1018 013b 00       		.byte	0
ARM GAS  /tmp/ccltZX7S.s 			page 19


 1019 013c 15       		.uleb128 0x15
 1020 013d 2E       		.uleb128 0x2e
 1021 013e 00       		.byte	0
 1022 013f 3F       		.uleb128 0x3f
 1023 0140 19       		.uleb128 0x19
 1024 0141 3C       		.uleb128 0x3c
 1025 0142 19       		.uleb128 0x19
 1026 0143 6E       		.uleb128 0x6e
 1027 0144 0E       		.uleb128 0xe
 1028 0145 03       		.uleb128 0x3
 1029 0146 0E       		.uleb128 0xe
 1030 0147 3A       		.uleb128 0x3a
 1031 0148 0B       		.uleb128 0xb
 1032 0149 3B       		.uleb128 0x3b
 1033 014a 0B       		.uleb128 0xb
 1034 014b 39       		.uleb128 0x39
 1035 014c 0B       		.uleb128 0xb
 1036 014d 00       		.byte	0
 1037 014e 00       		.byte	0
 1038 014f 00       		.byte	0
 1039              		.section	.debug_loc,"",%progbits
 1040              	.Ldebug_loc0:
 1041              	.LVUS3:
 1042 0000 00       		.uleb128 0
 1043 0001 00       		.uleb128 .LVU24
 1044 0002 00       		.uleb128 .LVU24
 1045 0003 00       		.uleb128 .LVU54
 1046 0004 00       		.uleb128 .LVU54
 1047 0005 00       		.uleb128 .LVU55
 1048 0006 00       		.uleb128 .LVU55
 1049 0007 00       		.uleb128 .LVU55
 1050 0008 00       		.uleb128 .LVU55
 1051 0009 00       		.uleb128 .LVU63
 1052 000a 00       		.uleb128 .LVU63
 1053 000b 01       		.uleb128 .LVU66
 1054 000c 01       		.uleb128 .LVU66
 1055 000d 00       		.uleb128 0
 1056              	.LLST3:
 1057 000e 00000000 		.4byte	.LVL8
 1058 0012 0B000000 		.4byte	.LVL9-1
 1059 0016 0100     		.2byte	0x1
 1060 0018 50       		.byte	0x50
 1061 0019 0B000000 		.4byte	.LVL9-1
 1062 001d 52000000 		.4byte	.LVL19
 1063 0021 0100     		.2byte	0x1
 1064 0023 55       		.byte	0x55
 1065 0024 52000000 		.4byte	.LVL19
 1066 0028 55000000 		.4byte	.LVL20-1
 1067 002c 0100     		.2byte	0x1
 1068 002e 51       		.byte	0x51
 1069 002f 55000000 		.4byte	.LVL20-1
 1070 0033 56000000 		.4byte	.LVL20
 1071 0037 0400     		.2byte	0x4
 1072 0039 F3       		.byte	0xf3
 1073 003a 01       		.uleb128 0x1
 1074 003b 50       		.byte	0x50
 1075 003c 9F       		.byte	0x9f
ARM GAS  /tmp/ccltZX7S.s 			page 20


 1076 003d 56000000 		.4byte	.LVL20
 1077 0041 6C000000 		.4byte	.LVL22
 1078 0045 0100     		.2byte	0x1
 1079 0047 55       		.byte	0x55
 1080 0048 6C000000 		.4byte	.LVL22
 1081 004c 7A000000 		.4byte	.LVL24
 1082 0050 0300     		.2byte	0x3
 1083 0052 75       		.byte	0x75
 1084 0053 79       		.sleb128 -7
 1085 0054 9F       		.byte	0x9f
 1086 0055 7A000000 		.4byte	.LVL24
 1087 0059 D0000000 		.4byte	.LFE335
 1088 005d 0100     		.2byte	0x1
 1089 005f 55       		.byte	0x55
 1090 0060 00000000 		.4byte	0
 1091 0064 00000000 		.4byte	0
 1092              	.LVUS4:
 1093 0068 00       		.uleb128 0
 1094 0069 00       		.uleb128 .LVU24
 1095 006a 00       		.uleb128 .LVU24
 1096 006b 00       		.uleb128 .LVU45
 1097 006c 00       		.uleb128 .LVU45
 1098 006d 00       		.uleb128 .LVU52
 1099 006e 00       		.uleb128 .LVU52
 1100 006f 00       		.uleb128 .LVU54
 1101 0070 00       		.uleb128 .LVU54
 1102 0071 00       		.uleb128 .LVU55
 1103 0072 00       		.uleb128 .LVU55
 1104 0073 00       		.uleb128 0
 1105              	.LLST4:
 1106 0074 00000000 		.4byte	.LVL8
 1107 0078 0B000000 		.4byte	.LVL9-1
 1108 007c 0100     		.2byte	0x1
 1109 007e 51       		.byte	0x51
 1110 007f 0B000000 		.4byte	.LVL9-1
 1111 0083 40000000 		.4byte	.LVL17
 1112 0087 0100     		.2byte	0x1
 1113 0089 54       		.byte	0x54
 1114 008a 40000000 		.4byte	.LVL17
 1115 008e 4A000000 		.4byte	.LVL18
 1116 0092 0400     		.2byte	0x4
 1117 0094 F3       		.byte	0xf3
 1118 0095 01       		.uleb128 0x1
 1119 0096 51       		.byte	0x51
 1120 0097 9F       		.byte	0x9f
 1121 0098 4A000000 		.4byte	.LVL18
 1122 009c 52000000 		.4byte	.LVL19
 1123 00a0 0100     		.2byte	0x1
 1124 00a2 54       		.byte	0x54
 1125 00a3 52000000 		.4byte	.LVL19
 1126 00a7 55000000 		.4byte	.LVL20-1
 1127 00ab 0100     		.2byte	0x1
 1128 00ad 50       		.byte	0x50
 1129 00ae 55000000 		.4byte	.LVL20-1
 1130 00b2 D0000000 		.4byte	.LFE335
 1131 00b6 0400     		.2byte	0x4
 1132 00b8 F3       		.byte	0xf3
ARM GAS  /tmp/ccltZX7S.s 			page 21


 1133 00b9 01       		.uleb128 0x1
 1134 00ba 51       		.byte	0x51
 1135 00bb 9F       		.byte	0x9f
 1136 00bc 00000000 		.4byte	0
 1137 00c0 00000000 		.4byte	0
 1138              	.LVUS5:
 1139 00c4 00       		.uleb128 .LVU26
 1140 00c5 00       		.uleb128 .LVU31
 1141 00c6 00       		.uleb128 .LVU31
 1142 00c7 00       		.uleb128 .LVU32
 1143 00c8 00       		.uleb128 .LVU32
 1144 00c9 00       		.uleb128 .LVU37
 1145 00ca 00       		.uleb128 .LVU38
 1146 00cb 00       		.uleb128 .LVU45
 1147 00cc 00       		.uleb128 .LVU52
 1148 00cd 00       		.uleb128 .LVU54
 1149              	.LLST5:
 1150 00ce 10000000 		.4byte	.LVL10
 1151 00d2 1A000000 		.4byte	.LVL12
 1152 00d6 0100     		.2byte	0x1
 1153 00d8 56       		.byte	0x56
 1154 00d9 1A000000 		.4byte	.LVL12
 1155 00dd 1C000000 		.4byte	.LVL13
 1156 00e1 0300     		.2byte	0x3
 1157 00e3 76       		.byte	0x76
 1158 00e4 01       		.sleb128 1
 1159 00e5 9F       		.byte	0x9f
 1160 00e6 1C000000 		.4byte	.LVL13
 1161 00ea 28000000 		.4byte	.LVL15
 1162 00ee 0100     		.2byte	0x1
 1163 00f0 56       		.byte	0x56
 1164 00f1 2A000000 		.4byte	.LVL16
 1165 00f5 40000000 		.4byte	.LVL17
 1166 00f9 0100     		.2byte	0x1
 1167 00fb 56       		.byte	0x56
 1168 00fc 4A000000 		.4byte	.LVL18
 1169 0100 52000000 		.4byte	.LVL19
 1170 0104 0100     		.2byte	0x1
 1171 0106 56       		.byte	0x56
 1172 0107 00000000 		.4byte	0
 1173 010b 00000000 		.4byte	0
 1174              	.LVUS6:
 1175 010f 00       		.uleb128 .LVU45
 1176 0110 00       		.uleb128 .LVU52
 1177 0111 00       		.uleb128 .LVU55
 1178 0112 00       		.uleb128 .LVU64
 1179 0113 00       		.uleb128 .LVU64
 1180 0114 02       		.uleb128 .LVU67
 1181 0115 02       		.uleb128 .LVU67
 1182 0116 00       		.uleb128 .LVU71
 1183 0117 00       		.uleb128 .LVU71
 1184 0118 01       		.uleb128 .LVU72
 1185 0119 01       		.uleb128 .LVU72
 1186 011a 00       		.uleb128 .LVU74
 1187 011b 00       		.uleb128 .LVU74
 1188 011c 01       		.uleb128 .LVU77
 1189 011d 00       		.uleb128 .LVU88
ARM GAS  /tmp/ccltZX7S.s 			page 22


 1190 011e 00       		.uleb128 .LVU91
 1191 011f 00       		.uleb128 .LVU91
 1192 0120 00       		.uleb128 .LVU92
 1193 0121 00       		.uleb128 .LVU92
 1194 0122 00       		.uleb128 0
 1195              	.LLST6:
 1196 0123 40000000 		.4byte	.LVL17
 1197 0127 4A000000 		.4byte	.LVL18
 1198 012b 0100     		.2byte	0x1
 1199 012d 54       		.byte	0x54
 1200 012e 56000000 		.4byte	.LVL20
 1201 0132 6E000000 		.4byte	.LVL23
 1202 0136 0100     		.2byte	0x1
 1203 0138 54       		.byte	0x54
 1204 0139 6E000000 		.4byte	.LVL23
 1205 013d 7A000000 		.4byte	.LVL24
 1206 0141 0300     		.2byte	0x3
 1207 0143 74       		.byte	0x74
 1208 0144 7A       		.sleb128 -6
 1209 0145 9F       		.byte	0x9f
 1210 0146 7A000000 		.4byte	.LVL24
 1211 014a 8C000000 		.4byte	.LVL26
 1212 014e 0100     		.2byte	0x1
 1213 0150 54       		.byte	0x54
 1214 0151 8C000000 		.4byte	.LVL26
 1215 0155 8C000000 		.4byte	.LVL26
 1216 0159 0300     		.2byte	0x3
 1217 015b 72       		.byte	0x72
 1218 015c 7E       		.sleb128 -2
 1219 015d 9F       		.byte	0x9f
 1220 015e 8C000000 		.4byte	.LVL26
 1221 0162 90000000 		.4byte	.LVL27
 1222 0166 0300     		.2byte	0x3
 1223 0168 72       		.byte	0x72
 1224 0169 7F       		.sleb128 -1
 1225 016a 9F       		.byte	0x9f
 1226 016b 90000000 		.4byte	.LVL27
 1227 016f 98000000 		.4byte	.LVL28
 1228 0173 0300     		.2byte	0x3
 1229 0175 72       		.byte	0x72
 1230 0176 7D       		.sleb128 -3
 1231 0177 9F       		.byte	0x9f
 1232 0178 B0000000 		.4byte	.LVL32
 1233 017c B2000000 		.4byte	.LVL33
 1234 0180 0100     		.2byte	0x1
 1235 0182 54       		.byte	0x54
 1236 0183 B2000000 		.4byte	.LVL33
 1237 0187 B6000000 		.4byte	.LVL34
 1238 018b 0300     		.2byte	0x3
 1239 018d 74       		.byte	0x74
 1240 018e 01       		.sleb128 1
 1241 018f 9F       		.byte	0x9f
 1242 0190 B6000000 		.4byte	.LVL34
 1243 0194 D0000000 		.4byte	.LFE335
 1244 0198 0100     		.2byte	0x1
 1245 019a 54       		.byte	0x54
 1246 019b 00000000 		.4byte	0
ARM GAS  /tmp/ccltZX7S.s 			page 23


 1247 019f 00000000 		.4byte	0
 1248              	.LVUS7:
 1249 01a3 01       		.uleb128 .LVU56
 1250 01a4 00       		.uleb128 0
 1251              	.LLST7:
 1252 01a5 56000000 		.4byte	.LVL20
 1253 01a9 D0000000 		.4byte	.LFE335
 1254 01ad 0100     		.2byte	0x1
 1255 01af 56       		.byte	0x56
 1256 01b0 00000000 		.4byte	0
 1257 01b4 00000000 		.4byte	0
 1258              	.LVUS8:
 1259 01b8 00       		.uleb128 .LVU71
 1260 01b9 00       		.uleb128 .LVU78
 1261 01ba 01       		.uleb128 .LVU82
 1262 01bb 00       		.uleb128 .LVU88
 1263              	.LLST8:
 1264 01bc 8C000000 		.4byte	.LVL26
 1265 01c0 9C000000 		.4byte	.LVL29
 1266 01c4 0300     		.2byte	0x3
 1267 01c6 73       		.byte	0x73
 1268 01c7 60       		.sleb128 -32
 1269 01c8 9F       		.byte	0x9f
 1270 01c9 A8000000 		.4byte	.LVL30
 1271 01cd B0000000 		.4byte	.LVL32
 1272 01d1 0300     		.2byte	0x3
 1273 01d3 73       		.byte	0x73
 1274 01d4 60       		.sleb128 -32
 1275 01d5 9F       		.byte	0x9f
 1276 01d6 00000000 		.4byte	0
 1277 01da 00000000 		.4byte	0
 1278              	.LVUS0:
 1279 01de 00       		.uleb128 0
 1280 01df 00       		.uleb128 .LVU5
 1281 01e0 00       		.uleb128 .LVU5
 1282 01e1 00       		.uleb128 .LVU9
 1283 01e2 00       		.uleb128 .LVU10
 1284 01e3 00       		.uleb128 .LVU12
 1285 01e4 00       		.uleb128 .LVU12
 1286 01e5 00       		.uleb128 .LVU13
 1287 01e6 00       		.uleb128 .LVU13
 1288 01e7 00       		.uleb128 .LVU15
 1289 01e8 00       		.uleb128 .LVU15
 1290 01e9 00       		.uleb128 0
 1291              	.LLST0:
 1292 01ea 00000000 		.4byte	.LVL0
 1293 01ee 06000000 		.4byte	.LVL1
 1294 01f2 0100     		.2byte	0x1
 1295 01f4 50       		.byte	0x50
 1296 01f5 06000000 		.4byte	.LVL1
 1297 01f9 0E000000 		.4byte	.LVL3
 1298 01fd 0100     		.2byte	0x1
 1299 01ff 54       		.byte	0x54
 1300 0200 10000000 		.4byte	.LVL4
 1301 0204 18000000 		.4byte	.LVL5
 1302 0208 0100     		.2byte	0x1
 1303 020a 50       		.byte	0x50
ARM GAS  /tmp/ccltZX7S.s 			page 24


 1304 020b 18000000 		.4byte	.LVL5
 1305 020f 1A000000 		.4byte	.LVL6
 1306 0213 0300     		.2byte	0x3
 1307 0215 74       		.byte	0x74
 1308 0216 7F       		.sleb128 -1
 1309 0217 9F       		.byte	0x9f
 1310 0218 1A000000 		.4byte	.LVL6
 1311 021c 21000000 		.4byte	.LVL7-1
 1312 0220 0100     		.2byte	0x1
 1313 0222 50       		.byte	0x50
 1314 0223 21000000 		.4byte	.LVL7-1
 1315 0227 2A000000 		.4byte	.LFE334
 1316 022b 0300     		.2byte	0x3
 1317 022d 74       		.byte	0x74
 1318 022e 7F       		.sleb128 -1
 1319 022f 9F       		.byte	0x9f
 1320 0230 00000000 		.4byte	0
 1321 0234 00000000 		.4byte	0
 1322              	.LVUS1:
 1323 0238 00       		.uleb128 0
 1324 0239 00       		.uleb128 .LVU7
 1325 023a 00       		.uleb128 .LVU7
 1326 023b 00       		.uleb128 0
 1327              	.LLST1:
 1328 023c 00000000 		.4byte	.LVL0
 1329 0240 0B000000 		.4byte	.LVL2-1
 1330 0244 0100     		.2byte	0x1
 1331 0246 51       		.byte	0x51
 1332 0247 0B000000 		.4byte	.LVL2-1
 1333 024b 2A000000 		.4byte	.LFE334
 1334 024f 0100     		.2byte	0x1
 1335 0251 55       		.byte	0x55
 1336 0252 00000000 		.4byte	0
 1337 0256 00000000 		.4byte	0
 1338              	.LVUS2:
 1339 025a 00       		.uleb128 .LVU7
 1340 025b 00       		.uleb128 .LVU9
 1341 025c 00       		.uleb128 .LVU9
 1342 025d 00       		.uleb128 0
 1343              	.LLST2:
 1344 025e 0C000000 		.4byte	.LVL2
 1345 0262 0E000000 		.4byte	.LVL3
 1346 0266 0100     		.2byte	0x1
 1347 0268 50       		.byte	0x50
 1348 0269 0E000000 		.4byte	.LVL3
 1349 026d 2A000000 		.4byte	.LFE334
 1350 0271 0100     		.2byte	0x1
 1351 0273 56       		.byte	0x56
 1352 0274 00000000 		.4byte	0
 1353 0278 00000000 		.4byte	0
 1354              		.section	.debug_aranges,"",%progbits
 1355 0000 24000000 		.4byte	0x24
 1356 0004 0200     		.2byte	0x2
 1357 0006 00000000 		.4byte	.Ldebug_info0
 1358 000a 04       		.byte	0x4
 1359 000b 00       		.byte	0
 1360 000c 0000     		.2byte	0
ARM GAS  /tmp/ccltZX7S.s 			page 25


 1361 000e 0000     		.2byte	0
 1362 0010 00000000 		.4byte	.LFB334
 1363 0014 2A000000 		.4byte	.LFE334-.LFB334
 1364 0018 00000000 		.4byte	.LFB335
 1365 001c D0000000 		.4byte	.LFE335-.LFB335
 1366 0020 00000000 		.4byte	0
 1367 0024 00000000 		.4byte	0
 1368              		.section	.debug_ranges,"",%progbits
 1369              	.Ldebug_ranges0:
 1370 0000 2E000000 		.4byte	.LBB2
 1371 0004 40000000 		.4byte	.LBE2
 1372 0008 56000000 		.4byte	.LBB5
 1373 000c D0000000 		.4byte	.LBE5
 1374 0010 00000000 		.4byte	0
 1375 0014 00000000 		.4byte	0
 1376 0018 36000000 		.4byte	.LBB3
 1377 001c 3C000000 		.4byte	.LBE3
 1378 0020 8C000000 		.4byte	.LBB4
 1379 0024 B0000000 		.4byte	.LBE4
 1380 0028 00000000 		.4byte	0
 1381 002c 00000000 		.4byte	0
 1382 0030 00000000 		.4byte	.LFB334
 1383 0034 2A000000 		.4byte	.LFE334
 1384 0038 00000000 		.4byte	.LFB335
 1385 003c D0000000 		.4byte	.LFE335
 1386 0040 00000000 		.4byte	0
 1387 0044 00000000 		.4byte	0
 1388              		.section	.debug_line,"",%progbits
 1389              	.Ldebug_line0:
 1390 0000 C6020000 		.section	.debug_str,"MS",%progbits,1
 1390      03004501 
 1390      00000201 
 1390      FB0E0D00 
 1390      01010101 
 1391              	.LASF1:
 1392 0000 6C6F6E67 		.ascii	"long long int\000"
 1392      206C6F6E 
 1392      6720696E 
 1392      7400
 1393              	.LASF9:
 1394 000e 6C6F6E67 		.ascii	"long long unsigned int\000"
 1394      206C6F6E 
 1394      6720756E 
 1394      7369676E 
 1394      65642069 
 1395              	.LASF10:
 1396 0025 5F5F7569 		.ascii	"__uint8_t\000"
 1396      6E74385F 
 1396      7400
 1397              	.LASF0:
 1398 002f 756E7369 		.ascii	"unsigned int\000"
 1398      676E6564 
 1398      20696E74 
 1398      00
 1399              	.LASF4:
 1400 003c 756E7369 		.ascii	"unsigned char\000"
 1400      676E6564 
ARM GAS  /tmp/ccltZX7S.s 			page 26


 1400      20636861 
 1400      7200
 1401              	.LASF24:
 1402 004a 73747263 		.ascii	"strcpy\000"
 1402      707900
 1403              	.LASF8:
 1404 0051 6C6F6E67 		.ascii	"long unsigned int\000"
 1404      20756E73 
 1404      69676E65 
 1404      6420696E 
 1404      7400
 1405              	.LASF6:
 1406 0063 73686F72 		.ascii	"short unsigned int\000"
 1406      7420756E 
 1406      7369676E 
 1406      65642069 
 1406      6E7400
 1407              	.LASF20:
 1408 0076 6E656564 		.ascii	"needle\000"
 1408      6C6500
 1409              	.LASF14:
 1410 007d 73747232 		.ascii	"str2\000"
 1410      00
 1411              	.LASF17:
 1412 0082 6E65775F 		.ascii	"new_len\000"
 1412      6C656E00 
 1413              	.LASF21:
 1414 008a 6E656564 		.ascii	"needle_len\000"
 1414      6C655F6C 
 1414      656E00
 1415              	.LASF23:
 1416 0095 7374726C 		.ascii	"strlen\000"
 1416      656E00
 1417              	.LASF12:
 1418 009c 63686172 		.ascii	"char\000"
 1418      00
 1419              	.LASF11:
 1420 00a1 75696E74 		.ascii	"uint8_t\000"
 1420      385F7400 
 1421              	.LASF27:
 1422 00a9 2F686F6D 		.ascii	"/home/mahathi/mathur407_payload2/4.0.7/build/CUAVv5"
 1422      652F6D61 
 1422      68617468 
 1422      692F6D61 
 1422      74687572 
 1423 00dc 00       		.ascii	"\000"
 1424              	.LASF29:
 1425 00dd 73747269 		.ascii	"string_contains\000"
 1425      6E675F63 
 1425      6F6E7461 
 1425      696E7300 
 1426              	.LASF18:
 1427 00ed 6370755F 		.ascii	"cpu_id\000"
 1427      696400
 1428              	.LASF16:
 1429 00f4 73657269 		.ascii	"serial\000"
 1429      616C00
ARM GAS  /tmp/ccltZX7S.s 			page 27


 1430              	.LASF22:
 1431 00fb 7374726E 		.ascii	"strncmp\000"
 1431      636D7000 
 1432              	.LASF25:
 1433 0103 474E5520 		.ascii	"GNU C17 10.2.1 20201103 (release) -mcpu=cortex-m7 -"
 1433      43313720 
 1433      31302E32 
 1433      2E312032 
 1433      30323031 
 1434 0136 6D666C6F 		.ascii	"mfloat-abi=hard -mfpu=fpv4-sp-d16 -mno-thumb-interw"
 1434      61742D61 
 1434      62693D68 
 1434      61726420 
 1434      2D6D6670 
 1435 0169 6F726B20 		.ascii	"ork -mthumb -march=armv7e-m+fp -g -Os -fomit-frame-"
 1435      2D6D7468 
 1435      756D6220 
 1435      2D6D6172 
 1435      63683D61 
 1436 019c 706F696E 		.ascii	"pointer -falign-functions=16 -ffunction-sections -f"
 1436      74657220 
 1436      2D66616C 
 1436      69676E2D 
 1436      66756E63 
 1437 01cf 64617461 		.ascii	"data-sections -fno-common -fsingle-precision-consta"
 1437      2D736563 
 1437      74696F6E 
 1437      73202D66 
 1437      6E6F2D63 
 1438 0202 6E7400   		.ascii	"nt\000"
 1439              	.LASF5:
 1440 0205 73686F72 		.ascii	"short int\000"
 1440      7420696E 
 1440      7400
 1441              	.LASF7:
 1442 020f 6C6F6E67 		.ascii	"long int\000"
 1442      20696E74 
 1442      00
 1443              	.LASF2:
 1444 0218 6C6F6E67 		.ascii	"long double\000"
 1444      20646F75 
 1444      626C6500 
 1445              	.LASF28:
 1446 0224 73747269 		.ascii	"string_substitute\000"
 1446      6E675F73 
 1446      75627374 
 1446      69747574 
 1446      6500
 1447              	.LASF3:
 1448 0236 7369676E 		.ascii	"signed char\000"
 1448      65642063 
 1448      68617200 
 1449              	.LASF15:
 1450 0242 626F6172 		.ascii	"board\000"
 1450      6400
 1451              	.LASF13:
 1452 0248 5F426F6F 		.ascii	"_Bool\000"
ARM GAS  /tmp/ccltZX7S.s 			page 28


 1452      6C00
 1453              	.LASF19:
 1454 024e 68617973 		.ascii	"haystack\000"
 1454      7461636B 
 1454      00
 1455              	.LASF26:
 1456 0257 2E2E2F2E 		.ascii	"../../libraries/AP_HAL_ChibiOS/hwdef/common/usbcfg_"
 1456      2E2F6C69 
 1456      62726172 
 1456      6965732F 
 1456      41505F48 
 1457 028a 636F6D6D 		.ascii	"common.c\000"
 1457      6F6E2E63 
 1457      00
 1458              		.ident	"GCC: (GNU Arm Embedded Toolchain 10-2020-q4-major) 10.2.1 20201103 (release)"
ARM GAS  /tmp/ccltZX7S.s 			page 29


DEFINED SYMBOLS
                            *ABS*:0000000000000000 usbcfg_common.c
     /tmp/ccltZX7S.s:18     .text.string_contains:0000000000000000 $t
     /tmp/ccltZX7S.s:26     .text.string_contains:0000000000000000 string_contains
     /tmp/ccltZX7S.s:97     .text.string_substitute:0000000000000000 $t
     /tmp/ccltZX7S.s:104    .text.string_substitute:0000000000000000 string_substitute
     /tmp/ccltZX7S.s:324    .text.string_substitute:00000000000000b8 $d

UNDEFINED SYMBOLS
strlen
strncmp
strcpy
