ARM GAS  /tmp/ccK8vljT.s 			page 1


   1              		.cpu cortex-m7
   2              		.eabi_attribute 27, 1
   3              		.eabi_attribute 28, 1
   4              		.eabi_attribute 20, 1
   5              		.eabi_attribute 21, 1
   6              		.eabi_attribute 23, 3
   7              		.eabi_attribute 24, 1
   8              		.eabi_attribute 25, 1
   9              		.eabi_attribute 26, 1
  10              		.eabi_attribute 30, 4
  11              		.eabi_attribute 34, 1
  12              		.eabi_attribute 18, 4
  13              		.file	"usbcfg_dualcdc.c"
  14              		.text
  15              	.Ltext0:
  16              		.cfi_sections	.debug_frame
  17              		.section	.text.get_descriptor,"ax",%progbits
  18              		.align	1
  19              		.arch armv7e-m
  20              		.syntax unified
  21              		.thumb
  22              		.thumb_func
  23              		.fpu fpv4-sp-d16
  24              		.type	get_descriptor, %function
  25              	get_descriptor:
  26              	.LVL0:
  27              	.LFB336:
  28              		.file 1 "../../libraries/AP_HAL_ChibiOS/hwdef/common/usbcfg_dualcdc.c"
  29              		.loc 1 274 59 view -0
  30              		.cfi_startproc
  31              		@ args = 0, pretend = 0, frame = 0
  32              		@ frame_needed = 0, uses_anonymous_args = 0
  33              		@ link register save eliminated.
  34              		.loc 1 276 3 view .LVU1
  35              		.loc 1 277 3 view .LVU2
  36              		.loc 1 278 3 view .LVU3
  37 0000 0229     		cmp	r1, #2
  38 0002 0CD0     		beq	.L4
  39 0004 0329     		cmp	r1, #3
  40 0006 04D0     		beq	.L3
  41              		.loc 1 280 12 is_stmt 0 view .LVU4
  42 0008 0129     		cmp	r1, #1
  43 000a 0748     		ldr	r0, .L7
  44              	.LVL1:
  45              		.loc 1 280 12 view .LVU5
  46 000c 18BF     		it	ne
  47 000e 0020     		movne	r0, #0
  48 0010 7047     		bx	lr
  49              	.LVL2:
  50              	.L3:
  51              		.loc 1 284 5 is_stmt 1 view .LVU6
  52              		.loc 1 284 8 is_stmt 0 view .LVU7
  53 0012 032A     		cmp	r2, #3
  54 0014 05D8     		bhi	.L6
  55              		.loc 1 285 7 is_stmt 1 view .LVU8
  56              		.loc 1 285 14 is_stmt 0 view .LVU9
  57 0016 0548     		ldr	r0, .L7+4
ARM GAS  /tmp/ccK8vljT.s 			page 2


  58              	.LVL3:
  59              		.loc 1 285 14 view .LVU10
  60 0018 00EBC200 		add	r0, r0, r2, lsl #3
  61 001c 7047     		bx	lr
  62              	.LVL4:
  63              	.L4:
  64              		.loc 1 278 3 view .LVU11
  65 001e 0448     		ldr	r0, .L7+8
  66              	.LVL5:
  67              		.loc 1 278 3 view .LVU12
  68 0020 7047     		bx	lr
  69              	.LVL6:
  70              	.L6:
  71              		.loc 1 287 10 view .LVU13
  72 0022 0020     		movs	r0, #0
  73              	.LVL7:
  74              		.loc 1 288 1 view .LVU14
  75 0024 7047     		bx	lr
  76              	.L8:
  77 0026 00BF     		.align	2
  78              	.L7:
  79 0028 00000000 		.word	.LANCHOR0
  80 002c 00000000 		.word	.LANCHOR2
  81 0030 00000000 		.word	.LANCHOR1
  82              		.cfi_endproc
  83              	.LFE336:
  84              		.size	get_descriptor, .-get_descriptor
  85              		.section	.text.setup_usb_string,"ax",%progbits
  86              		.align	1
  87              		.syntax unified
  88              		.thumb
  89              		.thumb_func
  90              		.fpu fpv4-sp-d16
  91              		.type	setup_usb_string, %function
  92              	setup_usb_string:
  93              	.LVL8:
  94              	.LFB334:
  95              		.loc 1 242 1 is_stmt 1 view -0
  96              		.cfi_startproc
  97              		@ args = 0, pretend = 0, frame = 104
  98              		@ frame_needed = 0, uses_anonymous_args = 0
  99              		.loc 1 243 5 view .LVU16
 100              		.loc 1 244 5 view .LVU17
 101              		.loc 1 242 1 is_stmt 0 view .LVU18
 102 0000 70B5     		push	{r4, r5, r6, lr}
 103              		.cfi_def_cfa_offset 16
 104              		.cfi_offset 4, -16
 105              		.cfi_offset 5, -12
 106              		.cfi_offset 6, -8
 107              		.cfi_offset 14, -4
 108 0002 9AB0     		sub	sp, sp, #104
 109              		.cfi_def_cfa_offset 120
 110              		.loc 1 242 1 view .LVU19
 111 0004 0546     		mov	r5, r0
 112 0006 0846     		mov	r0, r1
 113              	.LVL9:
 114              		.loc 1 242 1 view .LVU20
ARM GAS  /tmp/ccK8vljT.s 			page 3


 115 0008 1446     		mov	r4, r2
 116              		.loc 1 244 5 view .LVU21
 117 000a 01A9     		add	r1, sp, #4
 118              	.LVL10:
 119              		.loc 1 244 5 view .LVU22
 120 000c FFF7FEFF 		bl	string_substitute
 121              	.LVL11:
 122              		.loc 1 245 5 is_stmt 1 view .LVU23
 123              		.loc 1 245 19 is_stmt 0 view .LVU24
 124 0010 01A8     		add	r0, sp, #4
 125 0012 FFF7FEFF 		bl	strlen
 126              	.LVL12:
 127              		.loc 1 246 22 view .LVU25
 128 0016 431C     		adds	r3, r0, #1
 129              		.loc 1 251 5 view .LVU26
 130 0018 0022     		movs	r2, #0
 131              		.loc 1 245 13 view .LVU27
 132 001a C6B2     		uxtb	r6, r0
 133              	.LVL13:
 134              		.loc 1 246 5 is_stmt 1 view .LVU28
 135              		.loc 1 246 22 is_stmt 0 view .LVU29
 136 001c 5B00     		lsls	r3, r3, #1
 137              		.loc 1 253 20 view .LVU30
 138 001e 1046     		mov	r0, r2
 139              		.loc 1 247 21 view .LVU31
 140 0020 C5E90034 		strd	r3, r4, [r5]
 141              		.loc 1 248 5 is_stmt 1 view .LVU32
 142              		.loc 1 248 12 is_stmt 0 view .LVU33
 143 0024 2370     		strb	r3, [r4]
 144              		.loc 1 249 5 is_stmt 1 view .LVU34
 145              		.loc 1 249 10 is_stmt 0 view .LVU35
 146 0026 0323     		movs	r3, #3
 147 0028 0234     		adds	r4, r4, #2
 148              	.LVL14:
 149              		.loc 1 249 10 view .LVU36
 150 002a 04F8013C 		strb	r3, [r4, #-1]
 151              		.loc 1 250 5 is_stmt 1 view .LVU37
 152              		.loc 1 251 5 view .LVU38
 153              	.LVL15:
 154              		.loc 1 251 5 is_stmt 0 view .LVU39
 155 002e 01AB     		add	r3, sp, #4
 156              	.LVL16:
 157              	.L10:
 158              		.loc 1 251 15 is_stmt 1 discriminator 1 view .LVU40
 159              		.loc 1 251 5 is_stmt 0 discriminator 1 view .LVU41
 160 0030 D1B2     		uxtb	r1, r2
 161 0032 0234     		adds	r4, r4, #2
 162 0034 8E42     		cmp	r6, r1
 163 0036 01D8     		bhi	.L11
 164              		.loc 1 255 1 view .LVU42
 165 0038 1AB0     		add	sp, sp, #104
 166              		.cfi_remember_state
 167              		.cfi_def_cfa_offset 16
 168              		@ sp needed
 169 003a 70BD     		pop	{r4, r5, r6, pc}
 170              	.LVL17:
 171              	.L11:
ARM GAS  /tmp/ccK8vljT.s 			page 4


 172              		.cfi_restore_state
 173              		.loc 1 252 9 is_stmt 1 discriminator 3 view .LVU43
 174              		.loc 1 252 24 is_stmt 0 discriminator 3 view .LVU44
 175 003c 13F8011B 		ldrb	r1, [r3], #1	@ zero_extendqisi2
 176 0040 0132     		adds	r2, r2, #1
 177              	.LVL18:
 178              		.loc 1 253 20 discriminator 3 view .LVU45
 179 0042 04F8010C 		strb	r0, [r4, #-1]
 180              		.loc 1 252 18 discriminator 3 view .LVU46
 181 0046 04F8021C 		strb	r1, [r4, #-2]
 182              		.loc 1 253 9 is_stmt 1 discriminator 3 view .LVU47
 183              		.loc 1 251 22 discriminator 3 view .LVU48
 184              		.loc 1 251 22 is_stmt 0 discriminator 3 view .LVU49
 185 004a F1E7     		b	.L10
 186              		.cfi_endproc
 187              	.LFE334:
 188              		.size	setup_usb_string, .-setup_usb_string
 189              		.section	.text.sof_handler,"ax",%progbits
 190              		.align	1
 191              		.syntax unified
 192              		.thumb
 193              		.thumb_func
 194              		.fpu fpv4-sp-d16
 195              		.type	sof_handler, %function
 196              	sof_handler:
 197              	.LVL19:
 198              	.LFB339:
 199              		.loc 1 461 42 is_stmt 1 view -0
 200              		.cfi_startproc
 201              		@ args = 0, pretend = 0, frame = 0
 202              		@ frame_needed = 0, uses_anonymous_args = 0
 203              		.loc 1 463 3 view .LVU51
 204              		.loc 1 465 3 view .LVU52
 205              	.LBB44:
 206              	.LBI44:
 207              		.file 2 "../../modules/ChibiOS/os/hal/osal/rt/osal.h"
 208              		.loc 2 531 20 view .LVU53
 209              	.LBE44:
 210              		.loc 2 533 3 view .LVU54
 211              	.LBB64:
 212              	.LBB45:
 213              	.LBI45:
 214              		.file 3 "../../modules/ChibiOS/os/rt/include/chsys.h"
 215              		.loc 3 393 20 view .LVU55
 216              	.LBB46:
 217              		.loc 3 395 3 view .LVU56
 218              	.LBB47:
 219              	.LBI47:
 220              		.file 4 "../../modules/ChibiOS/os/common/ports/ARMCMx/chcore_v7m.h"
 221              		.loc 4 641 20 view .LVU57
 222              	.LBE47:
 223              	.LBE46:
 224              	.LBE45:
 225              	.LBE64:
 226              		.loc 4 643 3 view .LVU58
 227              	.LBB65:
 228              	.LBB61:
ARM GAS  /tmp/ccK8vljT.s 			page 5


 229              	.LBB58:
 230              	.LBB55:
 231              	.LBB48:
 232              	.LBI48:
 233              		.loc 4 602 20 view .LVU59
 234              	.LBE48:
 235              	.LBE55:
 236              	.LBE58:
 237              	.LBE61:
 238              	.LBE65:
 239              		.loc 4 610 3 view .LVU60
 240              	.LBB66:
 241              	.LBB62:
 242              	.LBB59:
 243              	.LBB56:
 244              	.LBB53:
 245              	.LBB49:
 246              	.LBI49:
 247              		.file 5 "../../modules/ChibiOS/os/common/ext/ARM/CMSIS/Core/Include/cmsis_gcc.h"
 248              		.loc 5 491 27 view .LVU61
 249              	.LBB50:
 250              		.loc 5 493 3 view .LVU62
 251              	.LBE50:
 252              	.LBE49:
 253              	.LBE53:
 254              	.LBE56:
 255              	.LBE59:
 256              	.LBE62:
 257              	.LBE66:
 258              		.loc 1 461 42 is_stmt 0 view .LVU63
 259 0000 08B5     		push	{r3, lr}
 260              		.cfi_def_cfa_offset 8
 261              		.cfi_offset 3, -8
 262              		.cfi_offset 14, -4
 263              	.LBB67:
 264              	.LBB63:
 265              	.LBB60:
 266              	.LBB57:
 267              	.LBB54:
 268              	.LBB52:
 269              	.LBB51:
 270              		.loc 5 493 3 view .LVU64
 271 0002 2023     		movs	r3, #32
 272              		.syntax unified
 273              	@ 493 "../../modules/ChibiOS/os/common/ext/ARM/CMSIS/Core/Include/cmsis_gcc.h" 1
 274 0004 83F31188 		MSR basepri, r3
 275              	@ 0 "" 2
 276              	.LVL20:
 277              		.loc 5 493 3 view .LVU65
 278              		.thumb
 279              		.syntax unified
 280              	.LBE51:
 281              	.LBE52:
 282              	.LBE54:
 283              	.LBE57:
 284              		.loc 3 396 3 is_stmt 1 view .LVU66
 285 0008 FFF7FEFF 		bl	_stats_start_measure_crit_isr
ARM GAS  /tmp/ccK8vljT.s 			page 6


 286              	.LVL21:
 287              		.loc 3 397 29 view .LVU67
 288              	.LBE60:
 289              	.LBE63:
 290              	.LBE67:
 291              		.loc 1 466 3 view .LVU68
 292 000c 0548     		ldr	r0, .L13
 293 000e FFF7FEFF 		bl	sduSOFHookI
 294              	.LVL22:
 295              		.loc 1 467 3 view .LVU69
 296 0012 0548     		ldr	r0, .L13+4
 297 0014 FFF7FEFF 		bl	sduSOFHookI
 298              	.LVL23:
 299              		.loc 1 468 3 view .LVU70
 300              	.LBB68:
 301              	.LBI68:
 302              		.loc 2 542 20 view .LVU71
 303              	.LBE68:
 304              		.loc 2 544 3 view .LVU72
 305              	.LBB82:
 306              	.LBB69:
 307              	.LBI69:
 308              		.loc 3 413 20 view .LVU73
 309              	.LBB70:
 310              		.loc 3 415 31 view .LVU74
 311              		.loc 3 416 3 view .LVU75
 312 0018 FFF7FEFF 		bl	_stats_stop_measure_crit_isr
 313              	.LVL24:
 314              		.loc 3 417 3 view .LVU76
 315              	.LBB71:
 316              	.LBI71:
 317              		.loc 4 652 20 view .LVU77
 318              	.LBE71:
 319              	.LBE70:
 320              	.LBE69:
 321              	.LBE82:
 322              		.loc 4 654 3 view .LVU78
 323              	.LBB83:
 324              	.LBB80:
 325              	.LBB78:
 326              	.LBB76:
 327              	.LBB72:
 328              	.LBI72:
 329              		.loc 4 626 20 view .LVU79
 330              	.LBE72:
 331              	.LBE76:
 332              	.LBE78:
 333              	.LBE80:
 334              	.LBE83:
 335              		.loc 4 629 3 view .LVU80
 336              	.LBB84:
 337              	.LBB81:
 338              	.LBB79:
 339              	.LBB77:
 340              	.LBB75:
 341              	.LBB73:
 342              	.LBI73:
ARM GAS  /tmp/ccK8vljT.s 			page 7


 343              		.loc 5 491 27 view .LVU81
 344              	.LBB74:
 345              		.loc 5 493 3 view .LVU82
 346 001c 0023     		movs	r3, #0
 347              		.syntax unified
 348              	@ 493 "../../modules/ChibiOS/os/common/ext/ARM/CMSIS/Core/Include/cmsis_gcc.h" 1
 349 001e 83F31188 		MSR basepri, r3
 350              	@ 0 "" 2
 351              	.LVL25:
 352              		.loc 5 493 3 is_stmt 0 view .LVU83
 353              		.thumb
 354              		.syntax unified
 355              	.LBE74:
 356              	.LBE73:
 357              	.LBE75:
 358              	.LBE77:
 359              	.LBE79:
 360              	.LBE81:
 361              	.LBE84:
 362              		.loc 1 469 1 view .LVU84
 363 0022 08BD     		pop	{r3, pc}
 364              	.L14:
 365              		.align	2
 366              	.L13:
 367 0024 00000000 		.word	.LANCHOR3
 368 0028 00000000 		.word	.LANCHOR4
 369              		.cfi_endproc
 370              	.LFE339:
 371              		.size	sof_handler, .-sof_handler
 372              		.section	.text.requests_hook,"ax",%progbits
 373              		.align	1
 374              		.syntax unified
 375              		.thumb
 376              		.thumb_func
 377              		.fpu fpv4-sp-d16
 378              		.type	requests_hook, %function
 379              	requests_hook:
 380              	.LVL26:
 381              	.LFB338:
 382              		.loc 1 448 44 is_stmt 1 view -0
 383              		.cfi_startproc
 384              		@ args = 0, pretend = 0, frame = 0
 385              		@ frame_needed = 0, uses_anonymous_args = 0
 386              		@ link register save eliminated.
 387              		.loc 1 450 3 view .LVU86
 388              		.loc 1 450 6 is_stmt 0 view .LVU87
 389 0000 90F85C30 		ldrb	r3, [r0, #92]	@ zero_extendqisi2
 390 0004 03F01F03 		and	r3, r3, #31
 391 0008 012B     		cmp	r3, #1
 392 000a 03D1     		bne	.L16
 393              		.loc 1 450 86 discriminator 1 view .LVU88
 394 000c 90F85D20 		ldrb	r2, [r0, #93]	@ zero_extendqisi2
 395 0010 0B2A     		cmp	r2, #11
 396 0012 01D0     		beq	.L19
 397              	.L16:
 398              		.loc 1 455 3 is_stmt 1 view .LVU89
 399              		.loc 1 455 10 is_stmt 0 view .LVU90
ARM GAS  /tmp/ccK8vljT.s 			page 8


 400 0014 FFF7FEBF 		b	sduRequestsHook
 401              	.LVL27:
 402              	.L19:
 403              		.loc 1 452 5 is_stmt 1 view .LVU91
 404 0018 0022     		movs	r2, #0
 405 001a C0E91422 		strd	r2, r2, [r0, #80]
 406              		.loc 1 452 5 view .LVU92
 407 001e 8265     		str	r2, [r0, #88]
 408              		.loc 1 452 42 view .LVU93
 409              		.loc 1 453 5 view .LVU94
 410              		.loc 1 456 1 is_stmt 0 view .LVU95
 411 0020 1846     		mov	r0, r3
 412              	.LVL28:
 413              		.loc 1 456 1 view .LVU96
 414 0022 7047     		bx	lr
 415              		.cfi_endproc
 416              	.LFE338:
 417              		.size	requests_hook, .-requests_hook
 418              		.section	.text.usb_event,"ax",%progbits
 419              		.align	1
 420              		.syntax unified
 421              		.thumb
 422              		.thumb_func
 423              		.fpu fpv4-sp-d16
 424              		.type	usb_event, %function
 425              	usb_event:
 426              	.LVL29:
 427              	.LFB337:
 428              		.loc 1 387 58 is_stmt 1 view -0
 429              		.cfi_startproc
 430              		@ args = 0, pretend = 0, frame = 8
 431              		@ frame_needed = 0, uses_anonymous_args = 0
 432              		.loc 1 388 3 view .LVU98
 433              		.loc 1 389 3 view .LVU99
 434              		.loc 1 391 3 view .LVU100
 435              		.loc 1 387 58 is_stmt 0 view .LVU101
 436 0000 13B5     		push	{r0, r1, r4, lr}
 437              		.cfi_def_cfa_offset 16
 438              		.cfi_offset 4, -8
 439              		.cfi_offset 14, -4
 440 0002 0529     		cmp	r1, #5
 441 0004 2CD8     		bhi	.L20
 442 0006 DFE801F0 		tbb	[pc, r1]
 443              	.L23:
 444 000a 32       		.byte	(.L24-.L23)/2
 445 000b 2B       		.byte	(.L20-.L23)/2
 446 000c 03       		.byte	(.L25-.L23)/2
 447 000d 32       		.byte	(.L24-.L23)/2
 448 000e 32       		.byte	(.L24-.L23)/2
 449 000f 3E       		.byte	(.L22-.L23)/2
 450              		.p2align 1
 451              	.L25:
 452              	.LBB121:
 453              	.LBB122:
 454              	.LBB123:
 455              	.LBB124:
 456              	.LBB125:
ARM GAS  /tmp/ccK8vljT.s 			page 9


 457              	.LBB126:
 458              		.loc 5 493 3 view .LVU102
 459 0010 2023     		movs	r3, #32
 460 0012 0190     		str	r0, [sp, #4]
 461              	.LBE126:
 462              	.LBE125:
 463              	.LBE124:
 464              	.LBE123:
 465              	.LBE122:
 466              	.LBE121:
 467              		.loc 1 395 5 is_stmt 1 view .LVU103
 468              	.LBB137:
 469              	.LBI121:
 470              		.loc 3 393 20 view .LVU104
 471              	.LBB134:
 472              		.loc 3 395 3 view .LVU105
 473              	.LBB131:
 474              	.LBI123:
 475              		.loc 4 641 20 view .LVU106
 476              	.LBE131:
 477              	.LBE134:
 478              	.LBE137:
 479              		.loc 4 643 3 view .LVU107
 480              	.LBB138:
 481              	.LBB135:
 482              	.LBB132:
 483              	.LBB129:
 484              	.LBI124:
 485              		.loc 4 602 20 view .LVU108
 486              	.LBE129:
 487              	.LBE132:
 488              	.LBE135:
 489              	.LBE138:
 490              		.loc 4 610 3 view .LVU109
 491              	.LVL30:
 492              	.LBB139:
 493              	.LBB136:
 494              	.LBB133:
 495              	.LBB130:
 496              	.LBB128:
 497              	.LBI125:
 498              		.loc 5 491 27 view .LVU110
 499              	.LBB127:
 500              		.loc 5 493 3 view .LVU111
 501              		.syntax unified
 502              	@ 493 "../../modules/ChibiOS/os/common/ext/ARM/CMSIS/Core/Include/cmsis_gcc.h" 1
 503 0014 83F31188 		MSR basepri, r3
 504              	@ 0 "" 2
 505              	.LVL31:
 506              		.loc 5 493 3 is_stmt 0 view .LVU112
 507              		.thumb
 508              		.syntax unified
 509              	.LBE127:
 510              	.LBE128:
 511              	.LBE130:
 512              	.LBE133:
 513              		.loc 3 396 3 is_stmt 1 view .LVU113
ARM GAS  /tmp/ccK8vljT.s 			page 10


 514 0018 FFF7FEFF 		bl	_stats_start_measure_crit_isr
 515              	.LVL32:
 516              		.loc 3 397 29 view .LVU114
 517              	.LBE136:
 518              	.LBE139:
 519              		.loc 1 397 5 view .LVU115
 520              		.loc 1 397 13 is_stmt 0 view .LVU116
 521 001c 0198     		ldr	r0, [sp, #4]
 522 001e 0478     		ldrb	r4, [r0]	@ zero_extendqisi2
 523              		.loc 1 397 8 view .LVU117
 524 0020 042C     		cmp	r4, #4
 525 0022 1FD1     		bne	.L26
 526              		.loc 1 401 7 is_stmt 1 view .LVU118
 527 0024 1E4A     		ldr	r2, .L29
 528 0026 0121     		movs	r1, #1
 529 0028 FFF7FEFF 		bl	usbInitEndpointI
 530              	.LVL33:
 531              		.loc 1 402 7 view .LVU119
 532 002c 1D4A     		ldr	r2, .L29+4
 533 002e 0221     		movs	r1, #2
 534 0030 0198     		ldr	r0, [sp, #4]
 535 0032 FFF7FEFF 		bl	usbInitEndpointI
 536              	.LVL34:
 537              		.loc 1 403 7 view .LVU120
 538 0036 1C4A     		ldr	r2, .L29+8
 539 0038 0321     		movs	r1, #3
 540 003a 0198     		ldr	r0, [sp, #4]
 541 003c FFF7FEFF 		bl	usbInitEndpointI
 542              	.LVL35:
 543              		.loc 1 404 7 view .LVU121
 544 0040 1A4A     		ldr	r2, .L29+12
 545 0042 2146     		mov	r1, r4
 546 0044 0198     		ldr	r0, [sp, #4]
 547 0046 FFF7FEFF 		bl	usbInitEndpointI
 548              	.LVL36:
 549              		.loc 1 407 7 view .LVU122
 550 004a 1948     		ldr	r0, .L29+16
 551 004c FFF7FEFF 		bl	sduConfigureHookI
 552              	.LVL37:
 553              		.loc 1 408 7 view .LVU123
 554 0050 1848     		ldr	r0, .L29+20
 555 0052 FFF7FEFF 		bl	sduConfigureHookI
 556              	.LVL38:
 557              	.L28:
 558              		.loc 1 436 5 view .LVU124
 559              	.LBB140:
 560              	.LBI140:
 561              		.loc 3 413 20 view .LVU125
 562              	.LBB141:
 563              		.loc 3 415 31 view .LVU126
 564              		.loc 3 416 3 view .LVU127
 565 0056 FFF7FEFF 		bl	_stats_stop_measure_crit_isr
 566              	.LVL39:
 567              		.loc 3 417 3 view .LVU128
 568              	.LBB142:
 569              	.LBI142:
 570              		.loc 4 652 20 view .LVU129
ARM GAS  /tmp/ccK8vljT.s 			page 11


 571              	.LBE142:
 572              	.LBE141:
 573              	.LBE140:
 574              		.loc 4 654 3 view .LVU130
 575              	.LBB151:
 576              	.LBB149:
 577              	.LBB147:
 578              	.LBB143:
 579              	.LBI143:
 580              		.loc 4 626 20 view .LVU131
 581              	.LBE143:
 582              	.LBE147:
 583              	.LBE149:
 584              	.LBE151:
 585              		.loc 4 629 3 view .LVU132
 586              	.LBB152:
 587              	.LBB150:
 588              	.LBB148:
 589              	.LBB146:
 590              	.LBB144:
 591              	.LBI144:
 592              		.loc 5 491 27 view .LVU133
 593              	.LBB145:
 594              		.loc 5 493 3 view .LVU134
 595 005a 0023     		movs	r3, #0
 596              		.syntax unified
 597              	@ 493 "../../modules/ChibiOS/os/common/ext/ARM/CMSIS/Core/Include/cmsis_gcc.h" 1
 598 005c 83F31188 		MSR basepri, r3
 599              	@ 0 "" 2
 600              	.LVL40:
 601              		.thumb
 602              		.syntax unified
 603              	.L20:
 604              		.loc 5 493 3 is_stmt 0 view .LVU135
 605              	.LBE145:
 606              	.LBE144:
 607              	.LBE146:
 608              	.LBE148:
 609              	.LBE150:
 610              	.LBE152:
 611              		.loc 1 442 1 view .LVU136
 612 0060 02B0     		add	sp, sp, #8
 613              		.cfi_remember_state
 614              		.cfi_def_cfa_offset 8
 615              		@ sp needed
 616 0062 10BD     		pop	{r4, pc}
 617              	.LVL41:
 618              	.L26:
 619              		.cfi_restore_state
 620              		.loc 1 410 10 is_stmt 1 view .LVU137
 621              		.loc 1 410 13 is_stmt 0 view .LVU138
 622 0064 032C     		cmp	r4, #3
 623 0066 F6D1     		bne	.L28
 624              		.loc 1 411 7 is_stmt 1 view .LVU139
 625 0068 FFF7FEFF 		bl	usbDisableEndpointsI
 626              	.LVL42:
 627              		.loc 1 414 5 view .LVU140
ARM GAS  /tmp/ccK8vljT.s 			page 12


 628              	.LBB153:
 629              	.LBI153:
 630              		.loc 3 413 20 view .LVU141
 631              	.LBB154:
 632              		.loc 3 415 31 view .LVU142
 633              		.loc 3 416 3 view .LVU143
 634 006c F3E7     		b	.L28
 635              	.LVL43:
 636              	.L24:
 637              		.loc 3 416 3 is_stmt 0 view .LVU144
 638              	.LBE154:
 639              	.LBE153:
 640              		.loc 1 421 5 is_stmt 1 view .LVU145
 641              	.LBB155:
 642              	.LBI155:
 643              		.loc 3 393 20 view .LVU146
 644              	.LBB156:
 645              		.loc 3 395 3 view .LVU147
 646              	.LBB157:
 647              	.LBI157:
 648              		.loc 4 641 20 view .LVU148
 649              	.LBE157:
 650              	.LBE156:
 651              	.LBE155:
 652              		.loc 4 643 3 view .LVU149
 653              	.LBB166:
 654              	.LBB164:
 655              	.LBB162:
 656              	.LBB158:
 657              	.LBI158:
 658              		.loc 4 602 20 view .LVU150
 659              	.LBE158:
 660              	.LBE162:
 661              	.LBE164:
 662              	.LBE166:
 663              		.loc 4 610 3 view .LVU151
 664              	.LBB167:
 665              	.LBB165:
 666              	.LBB163:
 667              	.LBB161:
 668              	.LBB159:
 669              	.LBI159:
 670              		.loc 5 491 27 view .LVU152
 671              	.LBB160:
 672              		.loc 5 493 3 view .LVU153
 673 006e 2023     		movs	r3, #32
 674              		.syntax unified
 675              	@ 493 "../../modules/ChibiOS/os/common/ext/ARM/CMSIS/Core/Include/cmsis_gcc.h" 1
 676 0070 83F31188 		MSR basepri, r3
 677              	@ 0 "" 2
 678              	.LVL44:
 679              		.loc 5 493 3 is_stmt 0 view .LVU154
 680              		.thumb
 681              		.syntax unified
 682              	.LBE160:
 683              	.LBE159:
 684              	.LBE161:
ARM GAS  /tmp/ccK8vljT.s 			page 13


 685              	.LBE163:
 686              		.loc 3 396 3 is_stmt 1 view .LVU155
 687 0074 FFF7FEFF 		bl	_stats_start_measure_crit_isr
 688              	.LVL45:
 689              		.loc 3 397 29 view .LVU156
 690              	.LBE165:
 691              	.LBE167:
 692              		.loc 1 424 5 view .LVU157
 693 0078 0D48     		ldr	r0, .L29+16
 694 007a FFF7FEFF 		bl	sduSuspendHookI
 695              	.LVL46:
 696              		.loc 1 425 5 view .LVU158
 697 007e 0D48     		ldr	r0, .L29+20
 698 0080 FFF7FEFF 		bl	sduSuspendHookI
 699              	.LVL47:
 700              		.loc 1 427 5 view .LVU159
 701              	.LBB168:
 702              	.LBI168:
 703              		.loc 3 413 20 view .LVU160
 704              	.LBB169:
 705              		.loc 3 415 31 view .LVU161
 706              		.loc 3 416 3 view .LVU162
 707 0084 E7E7     		b	.L28
 708              	.LVL48:
 709              	.L22:
 710              		.loc 3 416 3 is_stmt 0 view .LVU163
 711              	.LBE169:
 712              	.LBE168:
 713              		.loc 1 430 5 is_stmt 1 view .LVU164
 714              	.LBB170:
 715              	.LBI170:
 716              		.loc 3 393 20 view .LVU165
 717              	.LBB171:
 718              		.loc 3 395 3 view .LVU166
 719              	.LBB172:
 720              	.LBI172:
 721              		.loc 4 641 20 view .LVU167
 722              	.LBE172:
 723              	.LBE171:
 724              	.LBE170:
 725              		.loc 4 643 3 view .LVU168
 726              	.LBB181:
 727              	.LBB179:
 728              	.LBB177:
 729              	.LBB173:
 730              	.LBI173:
 731              		.loc 4 602 20 view .LVU169
 732              	.LBE173:
 733              	.LBE177:
 734              	.LBE179:
 735              	.LBE181:
 736              		.loc 4 610 3 view .LVU170
 737              	.LBB182:
 738              	.LBB180:
 739              	.LBB178:
 740              	.LBB176:
 741              	.LBB174:
ARM GAS  /tmp/ccK8vljT.s 			page 14


 742              	.LBI174:
 743              		.loc 5 491 27 view .LVU171
 744              	.LBB175:
 745              		.loc 5 493 3 view .LVU172
 746 0086 2023     		movs	r3, #32
 747              		.syntax unified
 748              	@ 493 "../../modules/ChibiOS/os/common/ext/ARM/CMSIS/Core/Include/cmsis_gcc.h" 1
 749 0088 83F31188 		MSR basepri, r3
 750              	@ 0 "" 2
 751              	.LVL49:
 752              		.loc 5 493 3 is_stmt 0 view .LVU173
 753              		.thumb
 754              		.syntax unified
 755              	.LBE175:
 756              	.LBE174:
 757              	.LBE176:
 758              	.LBE178:
 759              		.loc 3 396 3 is_stmt 1 view .LVU174
 760 008c FFF7FEFF 		bl	_stats_start_measure_crit_isr
 761              	.LVL50:
 762              		.loc 3 397 29 view .LVU175
 763              	.LBE180:
 764              	.LBE182:
 765              		.loc 1 433 5 view .LVU176
 766 0090 0748     		ldr	r0, .L29+16
 767 0092 FFF7FEFF 		bl	sduWakeupHookI
 768              	.LVL51:
 769              		.loc 1 434 5 view .LVU177
 770 0096 0748     		ldr	r0, .L29+20
 771 0098 FFF7FEFF 		bl	sduWakeupHookI
 772              	.LVL52:
 773 009c DBE7     		b	.L28
 774              	.L30:
 775 009e 00BF     		.align	2
 776              	.L29:
 777 00a0 00000000 		.word	.LANCHOR5
 778 00a4 00000000 		.word	.LANCHOR6
 779 00a8 00000000 		.word	.LANCHOR7
 780 00ac 00000000 		.word	.LANCHOR8
 781 00b0 00000000 		.word	.LANCHOR3
 782 00b4 00000000 		.word	.LANCHOR4
 783              		.cfi_endproc
 784              	.LFE337:
 785              		.size	usb_event, .-usb_event
 786              		.section	.rodata.setup_usb_strings.str1.1,"aMS",%progbits,1
 787              	.LC0:
 788 0000 41726475 		.ascii	"ArduPilot\000"
 788      50696C6F 
 788      7400
 789              	.LC1:
 790 000a 25424F41 		.ascii	"%BOARD%\000"
 790      52442500 
 791              	.LC2:
 792 0012 25534552 		.ascii	"%SERIAL%\000"
 792      49414C25 
 792      00
 793              		.section	.text.setup_usb_strings,"ax",%progbits
ARM GAS  /tmp/ccK8vljT.s 			page 15


 794              		.align	1
 795              		.global	setup_usb_strings
 796              		.syntax unified
 797              		.thumb
 798              		.thumb_func
 799              		.fpu fpv4-sp-d16
 800              		.type	setup_usb_strings, %function
 801              	setup_usb_strings:
 802              	.LFB335:
 803              		.loc 1 261 1 view -0
 804              		.cfi_startproc
 805              		@ args = 0, pretend = 0, frame = 0
 806              		@ frame_needed = 0, uses_anonymous_args = 0
 807              		.loc 1 262 5 view .LVU179
 808              		.loc 1 261 1 is_stmt 0 view .LVU180
 809 0000 38B5     		push	{r3, r4, r5, lr}
 810              		.cfi_def_cfa_offset 16
 811              		.cfi_offset 3, -16
 812              		.cfi_offset 4, -12
 813              		.cfi_offset 5, -8
 814              		.cfi_offset 14, -4
 815              		.loc 1 262 5 view .LVU181
 816 0002 0C4D     		ldr	r5, .L32
 817 0004 0C4C     		ldr	r4, .L32+4
 818 0006 2A46     		mov	r2, r5
 819 0008 0C49     		ldr	r1, .L32+8
 820 000a 04F10800 		add	r0, r4, #8
 821 000e FFF7FEFF 		bl	setup_usb_string
 822              	.LVL53:
 823              		.loc 1 263 5 is_stmt 1 view .LVU182
 824 0012 05F1CA02 		add	r2, r5, #202
 825 0016 04F11000 		add	r0, r4, #16
 826 001a 0949     		ldr	r1, .L32+12
 827 001c FFF7FEFF 		bl	setup_usb_string
 828              	.LVL54:
 829              		.loc 1 264 5 view .LVU183
 830 0020 05F5CA72 		add	r2, r5, #404
 831 0024 04F11800 		add	r0, r4, #24
 832 0028 0649     		ldr	r1, .L32+16
 833              		.loc 1 265 1 is_stmt 0 view .LVU184
 834 002a BDE83840 		pop	{r3, r4, r5, lr}
 835              		.cfi_restore 14
 836              		.cfi_restore 5
 837              		.cfi_restore 4
 838              		.cfi_restore 3
 839              		.cfi_def_cfa_offset 0
 840              		.loc 1 264 5 view .LVU185
 841 002e FFF7FEBF 		b	setup_usb_string
 842              	.LVL55:
 843              	.L33:
 844 0032 00BF     		.align	2
 845              	.L32:
 846 0034 00000000 		.word	.LANCHOR9
 847 0038 00000000 		.word	.LANCHOR2
 848 003c 00000000 		.word	.LC0
 849 0040 0A000000 		.word	.LC1
 850 0044 12000000 		.word	.LC2
ARM GAS  /tmp/ccK8vljT.s 			page 16


 851              		.cfi_endproc
 852              	.LFE335:
 853              		.size	setup_usb_strings, .-setup_usb_strings
 854              		.global	serusbcfg2
 855              		.global	serusbcfg1
 856              		.global	usbcfg
 857              		.global	SDU2
 858              		.global	SDU1
 859              		.section	.bss.SDU1,"aw",%nobits
 860              		.align	2
 861              		.set	.LANCHOR3,. + 0
 862              		.type	SDU1, %object
 863              		.size	SDU1, 1168
 864              	SDU1:
 865 0000 00000000 		.space	1168
 865      00000000 
 865      00000000 
 865      00000000 
 865      00000000 
 866              		.section	.bss.SDU2,"aw",%nobits
 867              		.align	2
 868              		.set	.LANCHOR4,. + 0
 869              		.type	SDU2, %object
 870              		.size	SDU2, 1168
 871              	SDU2:
 872 0000 00000000 		.space	1168
 872      00000000 
 872      00000000 
 872      00000000 
 872      00000000 
 873              		.section	.bss.ep1instate,"aw",%nobits
 874              		.align	2
 875              		.type	ep1instate, %object
 876              		.size	ep1instate, 16
 877              	ep1instate:
 878 0000 00000000 		.space	16
 878      00000000 
 878      00000000 
 878      00000000 
 879              		.section	.bss.ep2instate,"aw",%nobits
 880              		.align	2
 881              		.type	ep2instate, %object
 882              		.size	ep2instate, 16
 883              	ep2instate:
 884 0000 00000000 		.space	16
 884      00000000 
 884      00000000 
 884      00000000 
 885              		.section	.bss.ep2outstate,"aw",%nobits
 886              		.align	2
 887              		.type	ep2outstate, %object
 888              		.size	ep2outstate, 16
 889              	ep2outstate:
 890 0000 00000000 		.space	16
 890      00000000 
 890      00000000 
 890      00000000 
ARM GAS  /tmp/ccK8vljT.s 			page 17


 891              		.section	.bss.ep3instate,"aw",%nobits
 892              		.align	2
 893              		.type	ep3instate, %object
 894              		.size	ep3instate, 16
 895              	ep3instate:
 896 0000 00000000 		.space	16
 896      00000000 
 896      00000000 
 896      00000000 
 897              		.section	.bss.ep4instate,"aw",%nobits
 898              		.align	2
 899              		.type	ep4instate, %object
 900              		.size	ep4instate, 16
 901              	ep4instate:
 902 0000 00000000 		.space	16
 902      00000000 
 902      00000000 
 902      00000000 
 903              		.section	.bss.ep4outstate,"aw",%nobits
 904              		.align	2
 905              		.type	ep4outstate, %object
 906              		.size	ep4outstate, 16
 907              	ep4outstate:
 908 0000 00000000 		.space	16
 908      00000000 
 908      00000000 
 908      00000000 
 909              		.section	.bss.vcom_buffers,"aw",%nobits
 910              		.set	.LANCHOR9,. + 0
 911              		.type	vcom_buffers, %object
 912              		.size	vcom_buffers, 606
 913              	vcom_buffers:
 914 0000 00000000 		.space	606
 914      00000000 
 914      00000000 
 914      00000000 
 914      00000000 
 915              		.section	.data.vcom_strings,"aw"
 916              		.align	2
 917              		.set	.LANCHOR2,. + 0
 918              		.type	vcom_strings, %object
 919              		.size	vcom_strings, 32
 920              	vcom_strings:
 921 0000 04000000 		.word	4
 922 0004 00000000 		.word	vcom_string0
 923 0008 00000000 		.word	0
 924 000c 00000000 		.word	0
 925 0010 00000000 		.word	0
 926 0014 00000000 		.word	0
 927 0018 00000000 		.word	0
 928 001c 00000000 		.word	0
 929              		.section	.rodata.ep1config,"a"
 930              		.align	2
 931              		.set	.LANCHOR5,. + 0
 932              		.type	ep1config, %object
 933              		.size	ep1config, 36
 934              	ep1config:
ARM GAS  /tmp/ccK8vljT.s 			page 18


 935 0000 03000000 		.word	3
 936 0004 00000000 		.word	0
 937 0008 00000000 		.word	sduInterruptTransmitted
 938 000c 00000000 		.word	0
 939 0010 1000     		.short	16
 940 0012 0000     		.short	0
 941 0014 00000000 		.word	ep1instate
 942 0018 00000000 		.word	0
 943 001c 0100     		.short	1
 944 001e 0000     		.space	2
 945 0020 00000000 		.word	0
 946              		.section	.rodata.ep2config,"a"
 947              		.align	2
 948              		.set	.LANCHOR6,. + 0
 949              		.type	ep2config, %object
 950              		.size	ep2config, 36
 951              	ep2config:
 952 0000 02000000 		.word	2
 953 0004 00000000 		.word	0
 954 0008 00000000 		.word	sduDataTransmitted
 955 000c 00000000 		.word	sduDataReceived
 956 0010 4000     		.short	64
 957 0012 4000     		.short	64
 958 0014 00000000 		.word	ep2instate
 959 0018 00000000 		.word	ep2outstate
 960 001c 0200     		.short	2
 961 001e 0000     		.space	2
 962 0020 00000000 		.word	0
 963              		.section	.rodata.ep3config,"a"
 964              		.align	2
 965              		.set	.LANCHOR7,. + 0
 966              		.type	ep3config, %object
 967              		.size	ep3config, 36
 968              	ep3config:
 969 0000 03000000 		.word	3
 970 0004 00000000 		.word	0
 971 0008 00000000 		.word	sduInterruptTransmitted
 972 000c 00000000 		.word	0
 973 0010 1000     		.short	16
 974 0012 0000     		.short	0
 975 0014 00000000 		.word	ep3instate
 976 0018 00000000 		.word	0
 977 001c 0100     		.short	1
 978 001e 0000     		.space	2
 979 0020 00000000 		.word	0
 980              		.section	.rodata.ep4config,"a"
 981              		.align	2
 982              		.set	.LANCHOR8,. + 0
 983              		.type	ep4config, %object
 984              		.size	ep4config, 36
 985              	ep4config:
 986 0000 02000000 		.word	2
 987 0004 00000000 		.word	0
 988 0008 00000000 		.word	sduDataTransmitted
 989 000c 00000000 		.word	sduDataReceived
 990 0010 4000     		.short	64
 991 0012 4000     		.short	64
ARM GAS  /tmp/ccK8vljT.s 			page 19


 992 0014 00000000 		.word	ep4instate
 993 0018 00000000 		.word	ep4outstate
 994 001c 0200     		.short	2
 995 001e 0000     		.space	2
 996 0020 00000000 		.word	0
 997              		.section	.rodata.serusbcfg1,"a"
 998              		.align	2
 999              		.type	serusbcfg1, %object
 1000              		.size	serusbcfg1, 8
 1001              	serusbcfg1:
 1002 0000 00000000 		.word	USBD1
 1003 0004 02       		.byte	2
 1004 0005 02       		.byte	2
 1005 0006 01       		.byte	1
 1006 0007 00       		.space	1
 1007              		.section	.rodata.serusbcfg2,"a"
 1008              		.align	2
 1009              		.type	serusbcfg2, %object
 1010              		.size	serusbcfg2, 8
 1011              	serusbcfg2:
 1012 0000 00000000 		.word	USBD1
 1013 0004 04       		.byte	4
 1014 0005 04       		.byte	4
 1015 0006 03       		.byte	3
 1016 0007 00       		.space	1
 1017              		.section	.rodata.usbcfg,"a"
 1018              		.align	2
 1019              		.type	usbcfg, %object
 1020              		.size	usbcfg, 16
 1021              	usbcfg:
 1022 0000 00000000 		.word	usb_event
 1023 0004 00000000 		.word	get_descriptor
 1024 0008 00000000 		.word	requests_hook
 1025 000c 00000000 		.word	sof_handler
 1026              		.section	.rodata.vcom_configuration_descriptor,"a"
 1027              		.align	2
 1028              		.set	.LANCHOR1,. + 0
 1029              		.type	vcom_configuration_descriptor, %object
 1030              		.size	vcom_configuration_descriptor, 8
 1031              	vcom_configuration_descriptor:
 1032 0000 8D000000 		.word	141
 1033 0004 00000000 		.word	vcom_configuration_descriptor_data
 1034              		.section	.rodata.vcom_configuration_descriptor_data,"a"
 1035              		.type	vcom_configuration_descriptor_data, %object
 1036              		.size	vcom_configuration_descriptor_data, 141
 1037              	vcom_configuration_descriptor_data:
 1038 0000 09028D00 		.ascii	"\011\002\215\000\004\001\000\3002\010\013\000\002\002"
 1038      040100C0 
 1038      32080B00 
 1038      0202
 1039 000e 02010009 		.ascii	"\002\001\000\011\004\000\000\001\002\002\001\000\005"
 1039      04000001 
 1039      02020100 
 1039      05
 1040 001b 24001001 		.ascii	"$\000\020\001\005$\001\003\001\004$\002\002\005$\006"
 1040      05240103 
 1040      01042402 
ARM GAS  /tmp/ccK8vljT.s 			page 20


 1040      02052406 
 1041 002b 00010705 		.ascii	"\000\001\007\005\201\003\020\000\001\011\004\001\000"
 1041      81031000 
 1041      01090401 
 1041      00
 1042 0038 020A0000 		.ascii	"\002\012\000\000\000\007\005\002\002@\000\000\007\005"
 1042      00070502 
 1042      02400000 
 1042      0705
 1043 0046 82024000 		.ascii	"\202\002@\000\000\010\013\002\002\002\002\001\000\011"
 1043      00080B02 
 1043      02020201 
 1043      0009
 1044 0054 04020001 		.ascii	"\004\002\000\001\002\002\001\000\005$\000\020\001\005"
 1044      02020100 
 1044      05240010 
 1044      0105
 1045 0062 24010303 		.ascii	"$\001\003\003\004$\002\002\005$\006\002\003\007\005"
 1045      04240202 
 1045      05240602 
 1045      030705
 1046 0071 83031000 		.ascii	"\203\003\020\000\001\011\004\003\000\002\012\000\000"
 1046      01090403 
 1046      00020A00 
 1046      00
 1047 007e 00070504 		.ascii	"\000\007\005\004\002@\000\000\007\005\204\002@\000\000"
 1047      02400000 
 1047      07058402 
 1047      400000
 1048              		.section	.rodata.vcom_device_descriptor,"a"
 1049              		.align	2
 1050              		.set	.LANCHOR0,. + 0
 1051              		.type	vcom_device_descriptor, %object
 1052              		.size	vcom_device_descriptor, 8
 1053              	vcom_device_descriptor:
 1054 0000 12000000 		.word	18
 1055 0004 00000000 		.word	vcom_device_descriptor_data
 1056              		.section	.rodata.vcom_device_descriptor_data,"a"
 1057              		.type	vcom_device_descriptor_data, %object
 1058              		.size	vcom_device_descriptor_data, 18
 1059              	vcom_device_descriptor_data:
 1060 0000 12010002 		.ascii	"\022\001\000\002\357\002\001@\011\022@W\000\002\001"
 1060      EF020140 
 1060      09124057 
 1060      000201
 1061 000f 020301   		.ascii	"\002\003\001"
 1062              		.section	.rodata.vcom_string0,"a"
 1063              		.type	vcom_string0, %object
 1064              		.size	vcom_string0, 4
 1065              	vcom_string0:
 1066 0000 04030904 		.ascii	"\004\003\011\004"
 1067              		.text
 1068              	.Letext0:
 1069              		.file 6 "/opt/gcc-arm-none-eabi-10-2020-q4-major/lib/gcc/arm-none-eabi/10.2.1/include/stddef.h"
 1070              		.file 7 "/opt/gcc-arm-none-eabi-10-2020-q4-major/arm-none-eabi/include/machine/_default_types.h"
 1071              		.file 8 "/opt/gcc-arm-none-eabi-10-2020-q4-major/arm-none-eabi/include/sys/_stdint.h"
 1072              		.file 9 "../../modules/ChibiOS/os/common/ports/ARMCMx/compilers/GCC/chtypes.h"
ARM GAS  /tmp/ccK8vljT.s 			page 21


 1073              		.file 10 "../../modules/ChibiOS/os/rt/include/chsystypes.h"
 1074              		.file 11 "../../modules/ChibiOS/os/rt/include/chschd.h"
 1075              		.file 12 "../../modules/ChibiOS/os/rt/include/chtime.h"
 1076              		.file 13 "../../modules/ChibiOS/os/common/ports/ARMCMx/chcore.h"
 1077              		.file 14 "../../modules/ChibiOS/os/rt/include/chtm.h"
 1078              		.file 15 "../../modules/ChibiOS/os/rt/include/chsem.h"
 1079              		.file 16 "../../modules/ChibiOS/os/rt/include/chmtx.h"
 1080              		.file 17 "../../modules/ChibiOS/os/rt/include/chevents.h"
 1081              		.file 18 "../../modules/ChibiOS/os/hal/include/hal_buffers.h"
 1082              		.file 19 "../../modules/ChibiOS/os/hal/include/hal_usb.h"
 1083              		.file 20 "../../modules/ChibiOS/os/hal/ports/STM32/LLD/OTGv1/hal_usb_lld.h"
 1084              		.file 21 "../../modules/ChibiOS/os/hal/ports/STM32/LLD/OTGv1/stm32_otg.h"
 1085              		.file 22 "../../modules/ChibiOS/os/hal/include/hal_serial_usb.h"
 1086              		.file 23 "../../libraries/AP_HAL_ChibiOS/hwdef/common/usbcfg.h"
 1087              		.file 24 "../../modules/ChibiOS/os/rt/include/chstats.h"
 1088              		.file 25 "/opt/gcc-arm-none-eabi-10-2020-q4-major/arm-none-eabi/include/string.h"